 UserInterfaceLayer

 Timestamp is 5963682e (Mon Jul 10 19:42:38 2017)

 Preferred load address is 00400000

 Start         Length     Name                   Class
 0001:00000000 000000c0H .text$di                CODE
 0001:000000c0 00011f80H .text$mn                CODE
 0001:00012040 00002080H .text$x                 CODE
 0001:000140c0 000000fdH .text$yd                CODE
 0002:00000000 00000488H .idata$5                DATA
 0002:00000488 00000004H .00cfg                  DATA
 0002:0000048c 00000004H .CRT$XCA                DATA
 0002:00000490 00000004H .CRT$XCAA               DATA
 0002:00000494 00000028H .CRT$XCU                DATA
 0002:000004bc 00000004H .CRT$XCZ                DATA
 0002:000004c0 00000004H .CRT$XIA                DATA
 0002:000004c4 00000004H .CRT$XIAA               DATA
 0002:000004c8 00000004H .CRT$XIAC               DATA
 0002:000004cc 00000004H .CRT$XIC                DATA
 0002:000004d0 00000004H .CRT$XIZ                DATA
 0002:000004d4 00000004H .CRT$XLA                DATA
 0002:000004d8 00000004H .CRT$XLZ                DATA
 0002:000004dc 00000004H .CRT$XPA                DATA
 0002:000004e0 00000004H .CRT$XPZ                DATA
 0002:000004e4 00000004H .CRT$XTA                DATA
 0002:000004e8 00000008H .CRT$XTZ                DATA
 0002:000004f0 0004c944H .rdata                  DATA
 0002:0004ce34 00000018H .rdata$T                DATA
 0002:0004ce4c 00000714H .rdata$r                DATA
 0002:0004d560 000001b0H .rdata$sxdata           DATA
 0002:0004d710 000003dcH .rdata$zzzdbg           DATA
 0002:0004daec 00000004H .rtc$IAA                DATA
 0002:0004daf0 00000004H .rtc$IZZ                DATA
 0002:0004daf4 00000004H .rtc$TAA                DATA
 0002:0004daf8 00000008H .rtc$TZZ                DATA
 0002:0004db00 000028f4H .xdata$x                DATA
 0002:000503f4 00000000H .edata                  DATA
 0002:000503f4 00000118H .idata$2                DATA
 0002:0005050c 00000014H .idata$3                DATA
 0002:00050520 00000488H .idata$4                DATA
 0002:000509a8 00002798H .idata$6                DATA
 0003:00000000 00000108H .data                   DATA
 0003:00000108 00000430H .data$r                 DATA
 0003:00000538 000003e0H .bss                    DATA
 0004:00000000 00000058H .gfids$y                DATA
 0005:00000000 00000004H .tls                    DATA
 0005:00000004 00000004H .tls$                   DATA
 0005:00000008 00000001H .tls$ZZZ                DATA
 0006:00000000 00000060H .rsrc$01                DATA
 0006:00000060 00000290H .rsrc$02                DATA

  Address         Publics by Value              Rva+Base       Lib:Object

 0000:00000000       ___guard_fids_table        00000000     <absolute>
 0000:00000000       ___guard_longjmp_count     00000000     <absolute>
 0000:00000000       ___guard_longjmp_table     00000000     <absolute>
 0000:00000000       ___dynamic_value_reloc_table 00000000     <absolute>
 0000:00000000       ___guard_fids_count        00000000     <absolute>
 0000:00000000       ___guard_iat_table         00000000     <absolute>
 0000:00000000       ___guard_iat_count         00000000     <absolute>
 0000:0000002c       __tls_array                0000002c     <absolute>
 0000:0000006c       ___safe_se_handler_count   0000006c     <absolute>
 0000:00000100       ___guard_flags             00000100     <absolute>
 0000:00000000       ___ImageBase               00400000     <linker-defined>
 0001:000000c0       ??$connect@P8QQmlEngine@@AEXXZP6AXXZ@QObject@@SA?AVConnection@QMetaObject@@PBVQQmlEngine@@P83@AEXXZPBV0@P6AXXZW4ConnectionType@Qt@@@Z 004010c0 f i main.obj
 0001:00000120       ??$createInto@VOperationParamObject@@@QQmlPrivate@@YAXPAX@Z 00401120 f i main.obj
 0001:00000180       ??$createInto@VOperationParamSelector@@@QQmlPrivate@@YAXPAX@Z 00401180 f i main.obj
 0001:000001e0       ??$createInto@VPlanController@@@QQmlPrivate@@YAXPAX@Z 004011e0 f i main.obj
 0001:00000240       ??$createInto@VPlanSelector@@@QQmlPrivate@@YAXPAX@Z 00401240 f i main.obj
 0001:000002a0       ??$createInto@VStatusViewWatcher@@@QQmlPrivate@@YAXPAX@Z 004012a0 f i main.obj
 0001:00000300       ??$createInto@VTextFieldDoubleValidator@@@QQmlPrivate@@YAXPAX@Z 00401300 f i main.obj
 0001:00000360       ??$qRegisterNormalizedMetaType@PAVOperationParamObject@@@@YAHABVQByteArray@@PAPAVOperationParamObject@@W4DefinedType@?$MetaTypeDefinedHelper@PAVOperationParamObject@@$00@QtPrivate@@@Z 00401360 f i main.obj
 0001:000003c0       ??$qRegisterNormalizedMetaType@PAVOperationParamSelector@@@@YAHABVQByteArray@@PAPAVOperationParamSelector@@W4DefinedType@?$MetaTypeDefinedHelper@PAVOperationParamSelector@@$00@QtPrivate@@@Z 004013c0 f i main.obj
 0001:00000420       ??$qRegisterNormalizedMetaType@PAVPlanController@@@@YAHABVQByteArray@@PAPAVPlanController@@W4DefinedType@?$MetaTypeDefinedHelper@PAVPlanController@@$00@QtPrivate@@@Z 00401420 f i main.obj
 0001:00000480       ??$qRegisterNormalizedMetaType@PAVPlanSelector@@@@YAHABVQByteArray@@PAPAVPlanSelector@@W4DefinedType@?$MetaTypeDefinedHelper@PAVPlanSelector@@$00@QtPrivate@@@Z 00401480 f i main.obj
 0001:000004e0       ??$qRegisterNormalizedMetaType@PAVStatusViewWatcher@@@@YAHABVQByteArray@@PAPAVStatusViewWatcher@@W4DefinedType@?$MetaTypeDefinedHelper@PAVStatusViewWatcher@@$00@QtPrivate@@@Z 004014e0 f i main.obj
 0001:00000540       ??$qRegisterNormalizedMetaType@PAVTextFieldDoubleValidator@@@@YAHABVQByteArray@@PAPAVTextFieldDoubleValidator@@W4DefinedType@?$MetaTypeDefinedHelper@PAVTextFieldDoubleValidator@@$00@QtPrivate@@@Z 00401540 f i main.obj
 0001:000005a0       ??$qmlRegisterType@VOperationParamObject@@@@YAHPBDHH0@Z 004015a0 f i main.obj
 0001:00000850       ??$qmlRegisterType@VOperationParamSelector@@@@YAHPBDHH0@Z 00401850 f i main.obj
 0001:00000b00       ??$qmlRegisterType@VPlanController@@@@YAHPBDHH0@Z 00401b00 f i main.obj
 0001:00000db0       ??$qmlRegisterType@VPlanSelector@@@@YAHPBDHH0@Z 00401db0 f i main.obj
 0001:00001060       ??$qmlRegisterType@VStatusViewWatcher@@@@YAHPBDHH0@Z 00402060 f i main.obj
 0001:00001310       ??$qmlRegisterType@VTextFieldDoubleValidator@@@@YAHPBDHH0@Z 00402310 f i main.obj
 0001:000015c0       ??0OperationParamData@@QAE@XZ 004025c0 f i main.obj
 0001:00001630       ??1?$QList@VQString@@@@QAE@XZ 00402630 f i main.obj
 0001:000016c0       ??1?$QVarLengthArray@D$0DA@@@QAE@XZ 004026c0 f i main.obj
 0001:000016c0       ??1?$QVarLengthArray@D$0EA@@@QAE@XZ 004026c0 f i main.obj
 0001:000016e0       ??1OperationParamData@@QAE@XZ 004026e0 f i main.obj
 0001:00001790       ??1OperationParamSelector@@UAE@XZ 00402790 f i main.obj
 0001:00001840       ??1PlanSelector@@UAE@XZ    00402840 f i main.obj
 0001:000018f0       ??1RegisterType@QQmlPrivate@@QAE@XZ 004028f0 f i main.obj
 0001:00001900       ??H@YA?BVQString@@ABV0@0@Z 00402900 f i main.obj
 0001:00001970       ??H@YA?BVQString@@ABV0@PBD@Z 00402970 f i main.obj
 0001:00001a00       ??_E?$QQmlElement@VOperationParamObject@@@QQmlPrivate@@UAEPAXI@Z 00402a00 f i main.obj
 0001:00001a00       ??_G?$QQmlElement@VOperationParamObject@@@QQmlPrivate@@UAEPAXI@Z 00402a00 f i main.obj
 0001:00001a80       ??_G?$QQmlElement@VOperationParamSelector@@@QQmlPrivate@@UAEPAXI@Z 00402a80 f i main.obj
 0001:00001a80       ??_E?$QQmlElement@VOperationParamSelector@@@QQmlPrivate@@UAEPAXI@Z 00402a80 f i main.obj
 0001:00001af0       ??_G?$QQmlElement@VPlanController@@@QQmlPrivate@@UAEPAXI@Z 00402af0 f i main.obj
 0001:00001af0       ??_E?$QQmlElement@VPlanController@@@QQmlPrivate@@UAEPAXI@Z 00402af0 f i main.obj
 0001:00001b60       ??_E?$QQmlElement@VPlanSelector@@@QQmlPrivate@@UAEPAXI@Z 00402b60 f i main.obj
 0001:00001b60       ??_G?$QQmlElement@VPlanSelector@@@QQmlPrivate@@UAEPAXI@Z 00402b60 f i main.obj
 0001:00001bd0       ??_G?$QQmlElement@VStatusViewWatcher@@@QQmlPrivate@@UAEPAXI@Z 00402bd0 f i main.obj
 0001:00001bd0       ??_E?$QQmlElement@VStatusViewWatcher@@@QQmlPrivate@@UAEPAXI@Z 00402bd0 f i main.obj
 0001:00001c40       ??_G?$QQmlElement@VTextFieldDoubleValidator@@@QQmlPrivate@@UAEPAXI@Z 00402c40 f i main.obj
 0001:00001c40       ??_E?$QQmlElement@VTextFieldDoubleValidator@@@QQmlPrivate@@UAEPAXI@Z 00402c40 f i main.obj
 0001:00001cb0       ??_GOperationParamObject@@UAEPAXI@Z 00402cb0 f i main.obj
 0001:00001cb0       ??_EOperationParamObject@@UAEPAXI@Z 00402cb0 f i main.obj
 0001:00001ce0       ?Construct@?$QMetaTypeFunctionHelper@PAVOperationParamObject@@$00@QtMetaTypePrivate@@SAPAXPAXPBX@Z 00402ce0 f i main.obj
 0001:00001ce0       ?Construct@?$QMetaTypeFunctionHelper@PAVTextFieldDoubleValidator@@$00@QtMetaTypePrivate@@SAPAXPAXPBX@Z 00402ce0 f i main.obj
 0001:00001ce0       ?Construct@?$QMetaTypeFunctionHelper@PAVOperationParamSelector@@$00@QtMetaTypePrivate@@SAPAXPAXPBX@Z 00402ce0 f i main.obj
 0001:00001ce0       ?Construct@?$QMetaTypeFunctionHelper@PAVPlanController@@$00@QtMetaTypePrivate@@SAPAXPAXPBX@Z 00402ce0 f i main.obj
 0001:00001ce0       ?Construct@?$QMetaTypeFunctionHelper@PAVStatusViewWatcher@@$00@QtMetaTypePrivate@@SAPAXPAXPBX@Z 00402ce0 f i main.obj
 0001:00001ce0       ?Construct@?$QMetaTypeFunctionHelper@PAVPlanSelector@@$00@QtMetaTypePrivate@@SAPAXPAXPBX@Z 00402ce0 f i main.obj
 0001:00001d10       ?Construct@?$QMetaTypeFunctionHelper@V?$QQmlListProperty@VPlanController@@@@$00@QtMetaTypePrivate@@SAPAXPAXPBX@Z 00402d10 f i main.obj
 0001:00001d10       ?Construct@?$QMetaTypeFunctionHelper@V?$QQmlListProperty@VOperationParamSelector@@@@$00@QtMetaTypePrivate@@SAPAXPAXPBX@Z 00402d10 f i main.obj
 0001:00001d10       ?Construct@?$QMetaTypeFunctionHelper@V?$QQmlListProperty@VPlanSelector@@@@$00@QtMetaTypePrivate@@SAPAXPAXPBX@Z 00402d10 f i main.obj
 0001:00001d10       ?Construct@?$QMetaTypeFunctionHelper@V?$QQmlListProperty@VTextFieldDoubleValidator@@@@$00@QtMetaTypePrivate@@SAPAXPAXPBX@Z 00402d10 f i main.obj
 0001:00001d10       ?Construct@?$QMetaTypeFunctionHelper@V?$QQmlListProperty@VOperationParamObject@@@@$00@QtMetaTypePrivate@@SAPAXPAXPBX@Z 00402d10 f i main.obj
 0001:00001d10       ?Construct@?$QMetaTypeFunctionHelper@V?$QQmlListProperty@VStatusViewWatcher@@@@$00@QtMetaTypePrivate@@SAPAXPAXPBX@Z 00402d10 f i main.obj
 0001:00001d70       @_guard_check_icall_nop@4  00402d70 f i MSVCRT:guard_support.obj
 0001:00001d70       ?Destruct@?$QMetaTypeFunctionHelper@PAVTextFieldDoubleValidator@@$00@QtMetaTypePrivate@@SAXPAX@Z 00402d70 f i main.obj
 0001:00001d70       ?qt_static_metacall@configFileHandler@@CAXPAVQObject@@W4Call@QMetaObject@@HPAPAX@Z 00402d70 f i moc_configfilehandler.obj
 0001:00001d70       ?Destruct@?$QMetaTypeFunctionHelper@PAVOperationParamObject@@$00@QtMetaTypePrivate@@SAXPAX@Z 00402d70 f i main.obj
 0001:00001d70       ?Destruct@?$QMetaTypeFunctionHelper@PAVStatusViewWatcher@@$00@QtMetaTypePrivate@@SAXPAX@Z 00402d70 f i main.obj
 0001:00001d70       ?Destruct@?$QMetaTypeFunctionHelper@PAVOperationParamSelector@@$00@QtMetaTypePrivate@@SAXPAX@Z 00402d70 f i main.obj
 0001:00001d70       ?Destruct@?$QMetaTypeFunctionHelper@V?$QQmlListProperty@VStatusViewWatcher@@@@$00@QtMetaTypePrivate@@SAXPAX@Z 00402d70 f i main.obj
 0001:00001d70       ?Destruct@?$QMetaTypeFunctionHelper@V?$QQmlListProperty@VPlanController@@@@$00@QtMetaTypePrivate@@SAXPAX@Z 00402d70 f i main.obj
 0001:00001d70       __initialize_invalid_parameter_handler 00402d70 f i MSVCRT:invalid_parameter_handler.obj
 0001:00001d70       __initialize_denormal_control 00402d70 f i MSVCRT:denormal_control.obj
 0001:00001d70       ?Destruct@?$QMetaTypeFunctionHelper@V?$QQmlListProperty@VOperationParamSelector@@@@$00@QtMetaTypePrivate@@SAXPAX@Z 00402d70 f i main.obj
 0001:00001d70       ?Destruct@?$QMetaTypeFunctionHelper@V?$QQmlListProperty@VTextFieldDoubleValidator@@@@$00@QtMetaTypePrivate@@SAXPAX@Z 00402d70 f i main.obj
 0001:00001d70       ?onComplete@PlanSelector@@QAEXXZ 00402d70 f i workmodels.obj
 0001:00001d70       ?Destruct@?$QMetaTypeFunctionHelper@V?$QQmlListProperty@VPlanSelector@@@@$00@QtMetaTypePrivate@@SAXPAX@Z 00402d70 f i main.obj
 0001:00001d70       ?Destruct@?$QMetaTypeFunctionHelper@VQSequentialIterableImpl@QtMetaTypePrivate@@$00@QtMetaTypePrivate@@SAXPAX@Z 00402d70 f i moc_workmodels.obj
 0001:00001d70       ??3@YAXPAX0@Z              00402d70 f i main.obj
 0001:00001d70       ?Destruct@?$QMetaTypeFunctionHelper@V?$QQmlListProperty@VOperationParamObject@@@@$00@QtMetaTypePrivate@@SAXPAX@Z 00402d70 f i main.obj
 0001:00001d70       ?Destruct@?$QMetaTypeFunctionHelper@PAVPlanSelector@@$00@QtMetaTypePrivate@@SAXPAX@Z 00402d70 f i main.obj
 0001:00001d70       ?Destruct@?$QMetaTypeFunctionHelper@PAVPlanController@@$00@QtMetaTypePrivate@@SAXPAX@Z 00402d70 f i main.obj
 0001:00001d80       ?TopLevelExceptionFilter@@YGJPAU_EXCEPTION_POINTERS@@@Z 00402d80 f   main.obj
 0001:00001df0       ?customMessageHandler@@YAXW4QtMsgType@@ABVQMessageLogContext@@ABVQString@@@Z 00402df0 f   main.obj
 0001:00002160       ?dealloc@?$QList@VOperationParamData@@@@AAEXPAUData@QListData@@@Z 00403160 f i main.obj
 0001:000021c0       ?getConfigFullName@@YA?AVQString@@PBD@Z 004031c0 f   main.obj
 0001:00002230       ?impl@?$QStaticSlotObject@P6AXXZU?$List@$$V@QtPrivate@@X@QtPrivate@@CAXHPAVQSlotObjectBase@2@PAVQObject@@PAPAXPA_N@Z 00403230 f i main.obj
 0001:00002260       ?qt_metatype_id@?$QMetaTypeIdQObject@PAVOperationParamObject@@$07@@SAHXZ 00403260 f i main.obj
 0001:00002310       ?qt_metatype_id@?$QMetaTypeIdQObject@PAVOperationParamSelector@@$07@@SAHXZ 00403310 f i main.obj
 0001:000023c0       ?qt_metatype_id@?$QMetaTypeIdQObject@PAVPlanController@@$07@@SAHXZ 004033c0 f i main.obj
 0001:00002470       ?qt_metatype_id@?$QMetaTypeIdQObject@PAVPlanSelector@@$07@@SAHXZ 00403470 f i main.obj
 0001:00002520       ?qt_metatype_id@?$QMetaTypeIdQObject@PAVStatusViewWatcher@@$07@@SAHXZ 00403520 f i main.obj
 0001:000025d0       ?qt_metatype_id@?$QMetaTypeIdQObject@PAVTextFieldDoubleValidator@@$07@@SAHXZ 004035d0 f i main.obj
 0001:00002680       ?validate@TextFieldDoubleValidator@@UBE?AW4State@QValidator@@AAVQString@@AAH@Z 00403680 f i main.obj
 0001:00002800       _main                      00403800 f   main.obj
 0001:00002c60       ??$connect@P8EnvironmentVariant@@AEXXZP8StatusViewWatcher@@AEXXZ@QObject@@SA?AVConnection@QMetaObject@@PBVEnvironmentVariant@@P83@AEXXZPBVStatusViewWatcher@@P84@AEXXZW4ConnectionType@Qt@@@Z 00403c60 f i workmodels.obj
 0001:00002cc0       ??$qMakeForeachContainer@AAV?$QList@PAVQObject@@@@@QtPrivate@@YA?AV?$QForeachContainer@V?$QList@PAVQObject@@@@@0@AAV?$QList@PAVQObject@@@@@Z 00403cc0 f i workmodels.obj
 0001:00002d00       ??$qMakeForeachContainer@AAV?$QList@VOperationParamData@@@@@QtPrivate@@YA?AV?$QForeachContainer@V?$QList@VOperationParamData@@@@@0@AAV?$QList@VOperationParamData@@@@@Z 00403d00 f i workmodels.obj
 0001:00002d00       ??$qMakeForeachContainer@ABV?$QList@VOperationParamData@@@@@QtPrivate@@YA?AV?$QForeachContainer@V?$QList@VOperationParamData@@@@@0@ABV?$QList@VOperationParamData@@@@@Z 00403d00 f i configfilehandler.obj
 0001:00002d40       ??0?$QList@PAVQObject@@@@QAE@ABV0@@Z 00403d40 f i workmodels.obj
 0001:00002d40       ??0?$QList@H@@QAE@ABV0@@Z  00403d40 f i workmodels.obj
 0001:00002df0       ??0?$QList@VOperationParamData@@@@QAE@ABV0@@Z 00403df0 f i workmodels.obj
 0001:00002ea0       ??0?$QList@VQString@@@@QAE@ABV0@@Z 00403ea0 f i workmodels.obj
 0001:00002f50       ??0OperationParamData@@QAE@ABV0@@Z 00403f50 f i workmodels.obj
 0001:000030c0       ??0OperationParamSelector@@QAE@PAVQObject@@@Z 004040c0 f   workmodels.obj
 0001:00003110       ??0PlanController@@QAE@PAVQObject@@@Z 00404110 f   workmodels.obj
 0001:00003180       ??0PlanSelector@@QAE@PAVQObject@@@Z 00404180 f   workmodels.obj
 0001:00003230       ??0StatusViewWatcher@@QAE@PAVQObject@@@Z 00404230 f   workmodels.obj
 0001:000032c0       ??1?$QForeachContainer@V?$QList@PAVQObject@@@@@QtPrivate@@QAE@XZ 004042c0 f i workmodels.obj
 0001:00003320       ??1?$QForeachContainer@V?$QList@VOperationParamData@@@@@QtPrivate@@QAE@XZ 00404320 f i workmodels.obj
 0001:00003380       ??1?$QList@PAVQObject@@@@QAE@XZ 00404380 f i workmodels.obj
 0001:00003380       ??1?$QList@H@@QAE@XZ       00404380 f i workmodels.obj
 0001:000033e0       ??1?$QList@VOperationParamData@@@@QAE@XZ 004043e0 f i workmodels.obj
 0001:00003440       ??1MachineConfigData@@QAE@XZ 00404440 f i workmodels.obj
 0001:00003450       ??1PlanController@@UAE@XZ  00404450 f   workmodels.obj
 0001:000034b0       ??1QStringList@@QAE@XZ     004044b0 f i workmodels.obj
 0001:000034b0       ??1?$QForeachContainer@VQStringList@@@QtPrivate@@QAE@XZ 004044b0 f i environmentvariant.obj
 0001:000034c0       ??1SingleOperationData@@QAE@XZ 004044c0 f i workmodels.obj
 0001:00003530       ??1StatusViewWatcher@@UAE@XZ 00404530 f   workmodels.obj
 0001:000035b0       ??_EOperationParamSelector@@UAEPAXI@Z 004045b0 f i workmodels.obj
 0001:000035b0       ??_GOperationParamSelector@@UAEPAXI@Z 004045b0 f i workmodels.obj
 0001:000035d0       ??_GPlanController@@UAEPAXI@Z 004045d0 f i workmodels.obj
 0001:000035d0       ??_EPlanController@@UAEPAXI@Z 004045d0 f i workmodels.obj
 0001:00003640       ??_GPlanSelector@@UAEPAXI@Z 00404640 f i workmodels.obj
 0001:00003640       ??_EPlanSelector@@UAEPAXI@Z 00404640 f i workmodels.obj
 0001:00003660       ??_EStatusViewWatcher@@UAEPAXI@Z 00404660 f i workmodels.obj
 0001:00003660       ??_GStatusViewWatcher@@UAEPAXI@Z 00404660 f i workmodels.obj
 0001:00003700       ?WorkPlaceConstraint@EnvironmentVariant@@QAE?AVQJsonArray@@XZ 00404700 f i workmodels.obj
 0001:00003720       ?addPlan@PlanSelector@@QAEXABVQString@@@Z 00404720 f   workmodels.obj
 0001:00003740       ?addStep@PlanSelector@@QAEXHHH@Z 00404740 f   workmodels.obj
 0001:00003760       ?append@?$QList@VOperationParamData@@@@QAEXABVOperationParamData@@@Z 00404760 f i workmodels.obj
 0001:00003820       ?commitParam@PlanSelector@@QAEXHHABVQString@@ABVQVariant@@@Z 00404820 f   workmodels.obj
 0001:00003840       ?detach_helper_grow@?$QList@PAVQObject@@@@AAEPAUNode@1@HH@Z 00404840 f i workmodels.obj
 0001:00003840       ?detach_helper_grow@?$QList@H@@AAEPAUNode@1@HH@Z 00404840 f i configfilehandler.obj
 0001:00003980       ?detach_helper_grow@?$QList@VOperationParamData@@@@AAEPAUNode@1@HH@Z 00404980 f i workmodels.obj
 0001:00003ad0       ?eventFilter@PlanController@@UAE_NPAVQObject@@PAVQEvent@@@Z 00404ad0 f   workmodels.obj
 0001:00003b20       ?eventFilter@StatusViewWatcher@@UAE_NPAVQObject@@PAVQEvent@@@Z 00404b20 f   workmodels.obj
 0001:00003b60       ?getSwitch@OperationParamSelector@@QAEPAVQObject@@ABVQString@@@Z 00404b60 f   workmodels.obj
 0001:00003cc0       ?getSwitch@PlanSelector@@QAEPAVQObject@@ABVQString@@@Z 00404cc0 f   workmodels.obj
 0001:00003e20       ?getWorkLocationTypeList@StatusViewWatcher@@QAE?AVQJsonObject@@XZ 00404e20 f   workmodels.obj
 0001:00003e50       ?getWorkPlaceConstraint@StatusViewWatcher@@QAE?AVQJsonArray@@XZ 00404e50 f   workmodels.obj
 0001:00003e80       ?impl@?$QSlotObject@P8StatusViewWatcher@@AEXXZU?$List@$$V@QtPrivate@@X@QtPrivate@@CAXHPAVQSlotObjectBase@2@PAVQObject@@PAPAXPA_N@Z 00404e80 f i workmodels.obj
 0001:00003ed0       ?init@OperationParamSelector@@QAEXABVQString@@@Z 00404ed0 f   workmodels.obj
 0001:00003f50       ?moveStep@PlanSelector@@QAEXHHH@Z 00404f50 f   workmodels.obj
 0001:00003f70       ?node_copy@?$QList@PAVQObject@@@@AAEXPAUNode@1@00@Z 00404f70 f i workmodels.obj
 0001:00003f70       ?node_copy@?$QList@H@@AAEXPAUNode@1@00@Z 00404f70 f i workmodels.obj
 0001:00003fa0       ?node_copy@?$QList@VOperationParamData@@@@AAEXPAUNode@1@00@Z 00404fa0 f i workmodels.obj
 0001:00004070       ?node_copy@?$QList@VQString@@@@AAEXPAUNode@1@00@Z 00405070 f i workmodels.obj
 0001:000040b0       ?node_destruct@?$QList@VOperationParamData@@@@AAEXPAUNode@1@0@Z 004050b0 f i workmodels.obj
 0001:000040f0       ?onCompleteSingleOperation@OperationParamSelector@@QAEXXZ 004050f0 f   workmodels.obj
 0001:00004370       ?onMachineConfigChanged@TargetMachineObject@@QAEXXZ 00405370 f   workmodels.obj
 0001:000043f0       ?onSave@PlanSelector@@QAEXXZ 004053f0 f   workmodels.obj
 0001:00004400       ?operationCurrentIndex@PlanSelector@@QAEHXZ 00405400 f   workmodels.obj
 0001:00004420       ?planListModel@PlanSelector@@QAE?AVQStringList@@XZ 00405420 f   workmodels.obj
 0001:00004450       ?planSelectStepListModel@PlanSelector@@QAE?AVQStringList@@H@Z 00405450 f   workmodels.obj
 0001:00004480       ?removePlan@PlanSelector@@QAEXH@Z 00405480 f   workmodels.obj
 0001:000044a0       ?removeStep@PlanSelector@@QAEXHH@Z 004054a0 f   workmodels.obj
 0001:000044c0       ?resumePlan@PlanController@@QAEXXZ 004054c0 f   workmodels.obj
 0001:000044f0       ?setPlanName@PlanSelector@@QAEXHABVQString@@@Z 004054f0 f   workmodels.obj
 0001:00004510       ?setSelectedOperation@OperationParamSelector@@QAEXH@Z 00405510 f   workmodels.obj
 0001:000048b0       ?setSelectedOperation@PlanSelector@@QAEXHHH@Z 004058b0 f   workmodels.obj
 0001:00004d40       ?setSelectedStep@PlanSelector@@QAEXHH@Z 00405d40 f   workmodels.obj
 0001:000050f0       ?setWorkLocationType@StatusViewWatcher@@QAE_NHHABVQString@@@Z 004060f0 f   workmodels.obj
 0001:00005110       ?startPlan@PlanController@@QAEXHH@Z 00406110 f   workmodels.obj
 0001:00005140       ?stepListModel@PlanSelector@@QAE?AVQStringList@@H@Z 00406140 f   workmodels.obj
 0001:00005170       ?stopPlan@PlanController@@QAEXXZ 00406170 f   workmodels.obj
 0001:00005180       ??$qMakePair@VQString@@V?$QList@VSingleOperationData@@@@@@YA?AU?$QPair@VQString@@V?$QList@VSingleOperationData@@@@@@ABVQString@@ABV?$QList@VSingleOperationData@@@@@Z 00406180 f i configfilehandler.obj
 0001:000051e0       ??0?$QList@VSingleOperationData@@@@QAE@ABV0@@Z 004061e0 f i configfilehandler.obj
 0001:00005290       ??0OperationParamData@@QAE@ABVQString@@00ABVQStringList@@_NHH0V?$QList@H@@00HH@Z 00406290 f i configfilehandler.obj
 0001:00005430       ??0configFileHandler@@QAE@PAVQObject@@@Z 00406430 f   configfilehandler.obj
 0001:00005490       ??1?$QList@VSingleOperationData@@@@QAE@XZ 00406490 f i configfilehandler.obj
 0001:00005510       ??1?$QMap@VQString@@V1@@@QAE@XZ 00406510 f i configfilehandler.obj
 0001:00005590       ??1?$QMap@VQString@@VOperationParamData@@@@QAE@XZ 00406590 f i configfilehandler.obj
 0001:00005630       ??1?$QMap@VQString@@VQStringList@@@@QAE@XZ 00406630 f i configfilehandler.obj
 0001:000056d0       ??1?$QPair@VQString@@V?$QList@VSingleOperationData@@@@@@QAE@XZ 004066d0 f i configfilehandler.obj
 0001:00005760       ??4?$QList@U?$QPair@VQString@@V?$QList@VSingleOperationData@@@@@@@@QAEAAV0@$$QAV0@@Z 00406760 f i configfilehandler.obj
 0001:00005800       ??4OperationParamData@@QAEAAV0@ABV0@@Z 00406800 f i configfilehandler.obj
 0001:00005910       ??A?$QMap@VQString@@V1@@@QAEAAVQString@@ABV1@@Z 00406910 f i configfilehandler.obj
 0001:000059d0       ??A?$QMap@VQString@@VOperationParamData@@@@QBE?BVOperationParamData@@ABVQString@@@Z 004069d0 f i configfilehandler.obj
 0001:00005a90       ??A?$QMap@VQString@@VQStringList@@@@QAEAAVQStringList@@ABVQString@@@Z 00406a90 f i configfilehandler.obj
 0001:00005b50       ??_G?$QPair@VQString@@V?$QList@VSingleOperationData@@@@@@QAEPAXI@Z 00406b50 f i configfilehandler.obj
 0001:00005bf0       ??_GSingleOperationData@@QAEPAXI@Z 00406bf0 f i configfilehandler.obj
 0001:00005c70       ??_GconfigFileHandler@@UAEPAXI@Z 00406c70 f i configfilehandler.obj
 0001:00005c70       ??_EconfigFileHandler@@UAEPAXI@Z 00406c70 f i configfilehandler.obj
 0001:00005ca0       ?ParseHostIP@configFileHandler@@QAE?AVQString@@XZ 00406ca0 f   configfilehandler.obj
 0001:00005d70       ?ParseHostPort@configFileHandler@@QAEFXZ 00406d70 f   configfilehandler.obj
 0001:00005e50       ?ParseHostSingleOperationThreshold@configFileHandler@@QAEHXZ 00406e50 f   configfilehandler.obj
 0001:00005f30       ?ParseLicense@configFileHandler@@QAEXAAVQByteArray@@@Z 00406f30 f   configfilehandler.obj
 0001:00006020       ?ParseListMap@configFileHandler@@QAE?AV?$QMap@VQString@@VQStringList@@@@ABVQString@@@Z 00407020 f   configfilehandler.obj
 0001:000062c0       ?ParseMap@configFileHandler@@QAE?AV?$QMap@VQString@@V1@@@ABVQString@@@Z 004072c0 f   configfilehandler.obj
 0001:00006410       ?ParseMapRevertKeyValue@configFileHandler@@QAE?AV?$QMap@VQString@@V1@@@ABVQString@@@Z 00407410 f   configfilehandler.obj
 0001:00006570       ?ParseParamValue@configFileHandler@@QAE?AV?$QMap@VQString@@VOperationParamData@@@@ABVQString@@@Z 00407570 f   configfilehandler.obj
 0001:00007210       ?ParsePlanList@configFileHandler@@QAEXAAV?$QList@U?$QPair@VQString@@V?$QList@VSingleOperationData@@@@@@@@ABV?$QMap@VQString@@VOperationParamData@@@@@Z 00408210 f   configfilehandler.obj
 0001:00007c00       ?ParseWorkPlaceConstraint@configFileHandler@@QAE?AVQJsonArray@@XZ 00408c00 f   configfilehandler.obj
 0001:00007c90       ?ParseWorkSpaceTypeList@configFileHandler@@QAEXAAVQJsonObject@@@Z 00408c90 f   configfilehandler.obj
 0001:00007d40       ?SaveMachineConfig@configFileHandler@@QAEXABVQString@@ABVMachineConfigData@@ABVQJsonObject@@@Z 00408d40 f   configfilehandler.obj
 0001:00008090       ?SavePlanList@configFileHandler@@QAEXABVQString@@ABV?$QList@U?$QPair@VQString@@V?$QList@VSingleOperationData@@@@@@@@ABV?$QMap@VQString@@VQStringList@@@@@Z 00409090 f   configfilehandler.obj
 0001:00008810       ?append@?$QList@H@@QAEXABH@Z 00409810 f i configfilehandler.obj
 0001:00008810       ?append@?$QList@PAVQObject@@@@QAEXABQAVQObject@@@Z 00409810 f i workmodels.obj
 0001:000088a0       ?append@?$QList@U?$QPair@VQString@@V?$QList@VSingleOperationData@@@@@@@@QAEXABU?$QPair@VQString@@V?$QList@VSingleOperationData@@@@@@@Z 004098a0 f i configfilehandler.obj
 0001:00008980       ?append@?$QList@VQString@@@@QAEXABVQString@@@Z 00409980 f i configfilehandler.obj
 0001:00008a30       ?append@?$QList@VSingleOperationData@@@@QAEXABVSingleOperationData@@@Z 00409a30 f i configfilehandler.obj
 0001:00008b10       ?clear@?$QList@H@@QAEXXZ   00409b10 f i configfilehandler.obj
 0001:00008bb0       ?clear@?$QList@U?$QPair@VQString@@V?$QList@VSingleOperationData@@@@@@@@QAEXXZ 00409bb0 f i configfilehandler.obj
 0001:00008c40       ?copy@?$QMapNode@VQString@@V1@@@QBEPAU1@PAU?$QMapData@VQString@@V1@@@@Z 00409c40 f i configfilehandler.obj
 0001:00008cc0       ?copy@?$QMapNode@VQString@@VOperationParamData@@@@QBEPAU1@PAU?$QMapData@VQString@@VOperationParamData@@@@@Z 00409cc0 f i configfilehandler.obj
 0001:00008d40       ?copy@?$QMapNode@VQString@@VQStringList@@@@QBEPAU1@PAU?$QMapData@VQString@@VQStringList@@@@@Z 00409d40 f i configfilehandler.obj
 0001:00008dc0       ?createNode@?$QMapData@VQString@@V1@@@QAEPAU?$QMapNode@VQString@@V1@@@ABVQString@@0PAU2@_N@Z 00409dc0 f i configfilehandler.obj
 0001:00008e00       ?createNode@?$QMapData@VQString@@VOperationParamData@@@@QAEPAU?$QMapNode@VQString@@VOperationParamData@@@@ABVQString@@ABVOperationParamData@@PAU2@_N@Z 00409e00 f i configfilehandler.obj
 0001:00008ec0       ?createNode@?$QMapData@VQString@@VQStringList@@@@QAEPAU?$QMapNode@VQString@@VQStringList@@@@ABVQString@@ABVQStringList@@PAU2@_N@Z 00409ec0 f i configfilehandler.obj
 0001:00008f80       ?destroySubTree@?$QMapNode@VQString@@V1@@@QAEXXZ 00409f80 f i configfilehandler.obj
 0001:00008fb0       ?destroySubTree@?$QMapNode@VQString@@VOperationParamData@@@@QAEXXZ 00409fb0 f i configfilehandler.obj
 0001:00008fe0       ?destroySubTree@?$QMapNode@VQString@@VQStringList@@@@QAEXXZ 00409fe0 f i configfilehandler.obj
 0001:00009010       ?detach_helper@?$QMap@VQString@@V1@@@AAEXXZ 0040a010 f i configfilehandler.obj
 0001:00009090       ?detach_helper@?$QMap@VQString@@VOperationParamData@@@@AAEXXZ 0040a090 f i configfilehandler.obj
 0001:00009130       ?detach_helper@?$QMap@VQString@@VQStringList@@@@AAEXXZ 0040a130 f i configfilehandler.obj
 0001:000091d0       ?detach_helper_grow@?$QList@U?$QPair@VQString@@V?$QList@VSingleOperationData@@@@@@@@AAEPAUNode@1@HH@Z 0040a1d0 f i configfilehandler.obj
 0001:00009340       ?detach_helper_grow@?$QList@VQString@@@@AAEPAUNode@1@HH@Z 0040a340 f i configfilehandler.obj
 0001:000094c0       ?detach_helper_grow@?$QList@VSingleOperationData@@@@AAEPAUNode@1@HH@Z 0040a4c0 f i configfilehandler.obj
 0001:00009630       ?insert@?$QMap@VQString@@V1@@@QAE?AViterator@1@ABVQString@@0@Z 0040a630 f i configfilehandler.obj
 0001:00009700       ?insert@?$QMap@VQString@@VOperationParamData@@@@QAE?AViterator@1@ABVQString@@ABVOperationParamData@@@Z 0040a700 f i configfilehandler.obj
 0001:000097d0       ?insert@?$QMap@VQString@@VQStringList@@@@QAE?AViterator@1@ABVQString@@ABVQStringList@@@Z 0040a7d0 f i configfilehandler.obj
 0001:000098c0       ?key@iterator@QJsonObject@@QBE?AVQString@@XZ 0040a8c0 f i configfilehandler.obj
 0001:000098e0       ?loadConfigFile@configFileHandler@@QAE_NABVQString@@@Z 0040a8e0 f   configfilehandler.obj
 0001:000099e0       ?lowerBound@?$QMapNode@VQString@@VQStringList@@@@QAEPAU1@ABVQString@@@Z 0040a9e0 f i configfilehandler.obj
 0001:000099e0       ?lowerBound@?$QMapNode@VQString@@V1@@@QAEPAU1@ABVQString@@@Z 0040a9e0 f i configfilehandler.obj
 0001:000099e0       ?lowerBound@?$QMapNode@VQString@@VOperationParamData@@@@QAEPAU1@ABVQString@@@Z 0040a9e0 f i configfilehandler.obj
 0001:00009a20       ?node_copy@?$QList@U?$QPair@VQString@@V?$QList@VSingleOperationData@@@@@@@@AAEXPAUNode@1@00@Z 0040aa20 f i configfilehandler.obj
 0001:00009ae0       ?node_copy@?$QList@VSingleOperationData@@@@AAEXPAUNode@1@00@Z 0040aae0 f i configfilehandler.obj
 0001:00009bb0       ?node_destruct@?$QList@U?$QPair@VQString@@V?$QList@VSingleOperationData@@@@@@@@AAEXPAUNode@1@0@Z 0040abb0 f i configfilehandler.obj
 0001:00009c70       ?node_destruct@?$QList@VQString@@@@AAEXPAUNode@1@0@Z 0040ac70 f i configfilehandler.obj
 0001:00009ca0       ?node_destruct@?$QList@VSingleOperationData@@@@AAEXPAUNode@1@0@Z 0040aca0 f i configfilehandler.obj
 0001:00009d40       ?toList@configFileHandler@@QAE?AVQStringList@@ABVQString@@@Z 0040ad40 f   configfilehandler.obj
 0001:00009e20       ?value@?$QMap@VQString@@VOperationParamData@@@@QBE?BVOperationParamData@@ABVQString@@ABV2@@Z 0040ae20 f i configfilehandler.obj
 0001:00009e90       ??$qMakeForeachContainer@ABV?$QList@VSingleOperationData@@@@@QtPrivate@@YA?AV?$QForeachContainer@V?$QList@VSingleOperationData@@@@@0@ABV?$QList@VSingleOperationData@@@@@Z 0040ae90 f i environmentvariant.obj
 0001:00009ed0       ??$qMakeForeachContainer@ABVQStringList@@@QtPrivate@@YA?AV?$QForeachContainer@VQStringList@@@0@ABVQStringList@@@Z 0040aed0 f i environmentvariant.obj
 0001:00009ed0       ??$qMakeForeachContainer@AAVQStringList@@@QtPrivate@@YA?AV?$QForeachContainer@VQStringList@@@0@AAVQStringList@@@Z 0040aed0 f i environmentvariant.obj
 0001:00009f10       ??0EnvironmentVariant@@AAE@XZ 0040af10 f i environmentvariant.obj
 0001:0000a010       ??0SingleOperationData@@QAE@$$QAV0@@Z 0040b010 f i environmentvariant.obj
 0001:0000a040       ??0SingleOperationData@@QAE@ABV0@@Z 0040b040 f i environmentvariant.obj
 0001:0000a0b0       ??1?$QForeachContainer@V?$QList@VSingleOperationData@@@@@QtPrivate@@QAE@XZ 0040b0b0 f i environmentvariant.obj
 0001:0000a130       ??1?$QList@U?$QPair@VQString@@V?$QList@VSingleOperationData@@@@@@@@QAE@XZ 0040b130 f i environmentvariant.obj
 0001:0000a1b0       ??1EnvironmentVariant@@EAE@XZ 0040b1b0 f i environmentvariant.obj
 0001:0000a330       ??1TargetMachineObject@@UAE@XZ 0040b330 f i environmentvariant.obj
 0001:0000a350       ??1configFileHandler@@UAE@XZ 0040b350 f i environmentvariant.obj
 0001:0000a370       ??4?$QList@VSingleOperationData@@@@QAEAAV0@ABV0@@Z 0040b370 f i environmentvariant.obj
 0001:0000a410       ??4SingleOperationData@@QAEAAV0@$$QAV0@@Z 0040b410 f i environmentvariant.obj
 0001:0000a4a0       ??4SingleOperationData@@QAEAAV0@ABV0@@Z 0040b4a0 f i environmentvariant.obj
 0001:0000a540       ??A?$QList@VQString@@@@QAEAAVQString@@H@Z 0040b540 f i environmentvariant.obj
 0001:0000a570       ??A?$QList@VSingleOperationData@@@@QAEAAVSingleOperationData@@H@Z 0040b570 f i environmentvariant.obj
 0001:0000a5a0       ??A?$QMap@VQString@@VOperationParamData@@@@QAEAAVOperationParamData@@ABVQString@@@Z 0040b5a0 f i environmentvariant.obj
 0001:0000a660       ??Y?$QList@VQString@@@@QAEAAV0@ABV0@@Z 0040b660 f i environmentvariant.obj
 0001:0000a760       ??_GEnvironmentVariant@@EAEPAXI@Z 0040b760 f i environmentvariant.obj
 0001:0000a760       ??_EEnvironmentVariant@@EAEPAXI@Z 0040b760 f i environmentvariant.obj
 0001:0000a780       ??_ETargetMachineObject@@UAEPAXI@Z 0040b780 f i environmentvariant.obj
 0001:0000a780       ??_GTargetMachineObject@@UAEPAXI@Z 0040b780 f i environmentvariant.obj
 0001:0000a7b0       ?AddPlan@EnvironmentVariant@@QAEXABVQString@@@Z 0040b7b0 f   environmentvariant.obj
 0001:0000a8c0       ?AddPlanStep@EnvironmentVariant@@QAEXHHH@Z 0040b8c0 f   environmentvariant.obj
 0001:0000aa50       ?LogicalControlList@EnvironmentVariant@@QAE?AVQStringList@@XZ 0040ba50 f   environmentvariant.obj
 0001:0000abe0       ?MovePlanStep@EnvironmentVariant@@QAEXHHH@Z 0040bbe0 f   environmentvariant.obj
 0001:0000acc0       ?OperationNameList@EnvironmentVariant@@QAE?AVQStringList@@XZ 0040bcc0 f   environmentvariant.obj
 0001:0000ae50       ?PlanList@EnvironmentVariant@@QAE?AVQStringList@@XZ 0040be50 f   environmentvariant.obj
 0001:0000af10       ?RemovePlan@EnvironmentVariant@@QAEXH@Z 0040bf10 f   environmentvariant.obj
 0001:0000af40       ?RemovePlanStep@EnvironmentVariant@@QAEXHH@Z 0040bf40 f   environmentvariant.obj
 0001:0000afa0       ?SaveMachineConfig@EnvironmentVariant@@QAEXABVMachineConfigData@@@Z 0040bfa0 f   environmentvariant.obj
 0001:0000b070       ?SavePlan@EnvironmentVariant@@QAEXXZ 0040c070 f   environmentvariant.obj
 0001:0000b0e0       ?SetPlanName@EnvironmentVariant@@QAEXHABVQString@@@Z 0040c0e0 f   environmentvariant.obj
 0001:0000b130       ?SetPlanStepSingleParam@EnvironmentVariant@@QAEXHHABVQString@@ABVQVariant@@@Z 0040c130 f   environmentvariant.obj
 0001:0000b2d0       ?SetPlanStepToDefault@EnvironmentVariant@@QAEXHHH@Z 0040c2d0 f   environmentvariant.obj
 0001:0000b3a0       ?StartPlan@EnvironmentVariant@@QAEXHH@Z 0040c3a0 f   environmentvariant.obj
 0001:0000bb70       ?StartTunning@EnvironmentVariant@@QAEXABVSingleOperationData@@@Z 0040cb70 f   environmentvariant.obj
 0001:0000bc60       ?StepList@EnvironmentVariant@@QAE?AVQStringList@@H@Z 0040cc60 f   environmentvariant.obj
 0001:0000c060       ?StopPlan@EnvironmentVariant@@QAEXXZ 0040d060 f   environmentvariant.obj
 0001:0000c070       ?begin@?$QList@VOperationParamData@@@@QAE?AViterator@1@XZ 0040d070 f i environmentvariant.obj
 0001:0000c0a0       ?contains@?$QMap@VQString@@VQStringList@@@@QBE_NABVQString@@@Z 0040d0a0 f i environmentvariant.obj
 0001:0000c0e0       ?defaultValue@EnvironmentVariant@@QAE?AVSingleOperationData@@ABVQString@@@Z 0040d0e0 f   environmentvariant.obj
 0001:0000c300       ?detach_helper@?$QList@H@@AAEXH@Z 0040d300 f i environmentvariant.obj
 0001:0000c3d0       ?detach_helper@?$QList@U?$QPair@VQString@@V?$QList@VSingleOperationData@@@@@@@@AAEXH@Z 0040d3d0 f i environmentvariant.obj
 0001:0000c4b0       ?detach_helper@?$QList@VOperationParamData@@@@AAEXH@Z 0040d4b0 f i environmentvariant.obj
 0001:0000c580       ?detach_helper@?$QList@VQString@@@@AAEXH@Z 0040d580 f i environmentvariant.obj
 0001:0000c670       ?detach_helper@?$QList@VSingleOperationData@@@@AAEXH@Z 0040d670 f i environmentvariant.obj
 0001:0000c750       ?formatSingleOperationParam@EnvironmentVariant@@QAE?AVQJsonObject@@ABVSingleOperationData@@@Z 0040d750 f   environmentvariant.obj
 0001:0000cce0       ?getOperationIndex@EnvironmentVariant@@QAEHABVQString@@@Z 0040dce0 f   environmentvariant.obj
 0001:0000cd50       ?getOperationParams@EnvironmentVariant@@QAE?AV?$QList@VOperationParamData@@@@H@Z 0040dd50 f   environmentvariant.obj
 0001:0000cf20       ?getWorkLocationTypeList@EnvironmentVariant@@QAE?AVQJsonObject@@XZ 0040df20 f   environmentvariant.obj
 0001:0000cf40       ?initModels@EnvironmentVariant@@QAEXPAVQQmlContext@@@Z 0040df40 f   environmentvariant.obj
 0001:0000d010       ?initProtocol@EnvironmentVariant@@QAEXABVQString@@@Z 0040e010 f   environmentvariant.obj
 0001:0000d080       ?initUserConfig@EnvironmentVariant@@QAEXABVQString@@@Z 0040e080 f   environmentvariant.obj
 0001:0000d1e0       ?insert@?$QList@VSingleOperationData@@@@QAEXHABVSingleOperationData@@@Z 0040e1e0 f i environmentvariant.obj
 0001:0000d2c0       ?instance@EnvironmentVariant@@SAPAV1@XZ 0040e2c0 f   environmentvariant.obj
 0001:0000d320       ?node_destruct@?$QList@VSingleOperationData@@@@AAEXPAUNode@1@@Z 0040e320 f i environmentvariant.obj
 0001:0000d3a0       ?parseConfigFile@EnvironmentVariant@@QAEXABVQString@@@Z 0040e3a0 f   environmentvariant.obj
 0001:0000da60       ?planSelectStepListModel@EnvironmentVariant@@QAE?AVQStringList@@H@Z 0040ea60 f   environmentvariant.obj
 0001:0000dcc0       ?planStepParam@EnvironmentVariant@@QAE?AVSingleOperationData@@HH@Z 0040ecc0 f   environmentvariant.obj
 0001:0000e010       ?removeAt@?$QList@U?$QPair@VQString@@V?$QList@VSingleOperationData@@@@@@@@QAEXH@Z 0040f010 f i environmentvariant.obj
 0001:0000e070       ?removeAt@?$QList@VSingleOperationData@@@@QAEXH@Z 0040f070 f i environmentvariant.obj
 0001:0000e0c0       ?setWorkLocationType@EnvironmentVariant@@QAE_NHHABVQString@@@Z 0040f0c0 f   environmentvariant.obj
 0001:0000e440       ??$atImpl@V?$QList@H@@@QSequentialIterableImpl@QtMetaTypePrivate@@SAPBXPBXH@Z 0040f440 f i moc_workmodels.obj
 0001:0000e440       ??$atImpl@V?$QList@PAVQObject@@@@@QSequentialIterableImpl@QtMetaTypePrivate@@SAPBXPBXH@Z 0040f440 f i moc_workmodels.obj
 0001:0000e460       ??$equal@PBQAVQObject@@V?$checked_array_iterator@PBQAVQObject@@@stdext@@U?$equal_to@X@std@@@std@@YA_NPBQAVQObject@@0V?$checked_array_iterator@PBQAVQObject@@@stdext@@U?$equal_to@X@0@@Z 0040f460 f i moc_workmodels.obj
 0001:0000e460       ??$equal@PBHV?$checked_array_iterator@PBH@stdext@@U?$equal_to@X@std@@@std@@YA_NPBH0V?$checked_array_iterator@PBH@stdext@@U?$equal_to@X@0@@Z 0040f460 f i moc_workmodels.obj
 0001:0000e4e0       ??$getImpl@V?$QList@H@@@QSequentialIterableImpl@QtMetaTypePrivate@@SA?AUVariantData@1@PBQAXHI@Z 0040f4e0 f i moc_workmodels.obj
 0001:0000e4e0       ??$getImpl@V?$QList@PAVQObject@@@@@QSequentialIterableImpl@QtMetaTypePrivate@@SA?AUVariantData@1@PBQAXHI@Z 0040f4e0 f i moc_workmodels.obj
 0001:0000e500       ??$moveToBeginImpl@V?$QList@H@@@QSequentialIterableImpl@QtMetaTypePrivate@@SAXPBXPAPAX@Z 0040f500 f i moc_workmodels.obj
 0001:0000e500       ??$moveToBeginImpl@V?$QList@PAVQObject@@@@@QSequentialIterableImpl@QtMetaTypePrivate@@SAXPBXPAPAX@Z 0040f500 f i moc_workmodels.obj
 0001:0000e530       ??$moveToEndImpl@V?$QList@PAVQObject@@@@@QSequentialIterableImpl@QtMetaTypePrivate@@SAXPBXPAPAX@Z 0040f530 f i moc_workmodels.obj
 0001:0000e530       ??$moveToEndImpl@V?$QList@H@@@QSequentialIterableImpl@QtMetaTypePrivate@@SAXPBXPAPAX@Z 0040f530 f i moc_workmodels.obj
 0001:0000e560       ??$sizeImpl@V?$QList@H@@@QSequentialIterableImpl@QtMetaTypePrivate@@SAHPBX@Z 0040f560 f i moc_workmodels.obj
 0001:0000e560       ??$sizeImpl@V?$QList@PAVQObject@@@@@QSequentialIterableImpl@QtMetaTypePrivate@@SAHPBX@Z 0040f560 f i moc_workmodels.obj
 0001:0000e570       ??0QSequentialIterableImpl@QtMetaTypePrivate@@QAE@XZ 0040f570 f i moc_workmodels.obj
 0001:0000e5e0       ??4?$QList@PAVQObject@@@@QAEAAV0@$$QAV0@@Z 0040f5e0 f i moc_workmodels.obj
 0001:0000e5e0       ??4?$QList@H@@QAEAAV0@$$QAV0@@Z 0040f5e0 f i moc_workmodels.obj
 0001:0000e660       ??4QStringList@@QAEAAV0@$$QAV0@@Z 0040f660 f i moc_workmodels.obj
 0001:0000e690       ?Construct@?$QMetaTypeFunctionHelper@V?$QList@H@@$00@QtMetaTypePrivate@@SAPAXPAXPBX@Z 0040f690 f i moc_workmodels.obj
 0001:0000e690       ?Construct@?$QMetaTypeFunctionHelper@V?$QList@PAVQObject@@@@$00@QtMetaTypePrivate@@SAPAXPAXPBX@Z 0040f690 f i moc_workmodels.obj
 0001:0000e710       ?Construct@?$QMetaTypeFunctionHelper@VQSequentialIterableImpl@QtMetaTypePrivate@@$00@QtMetaTypePrivate@@SAPAXPAXPBX@Z 0040f710 f i moc_workmodels.obj
 0001:0000e750       ?Destruct@?$QMetaTypeFunctionHelper@V?$QList@PAVQObject@@@@$00@QtMetaTypePrivate@@SAXPAX@Z 0040f750 f i moc_workmodels.obj
 0001:0000e750       ?Destruct@?$QMetaTypeFunctionHelper@V?$QList@H@@$00@QtMetaTypePrivate@@SAXPAX@Z 0040f750 f i moc_workmodels.obj
 0001:0000e7c0       ?MachineConfigChanged@TargetMachineObject@@QAEXXZ 0040f7c0 f   moc_workmodels.obj
 0001:0000e7e0       ?UnitChanged@OperationParamObject@@QAEXXZ 0040f7e0 f   moc_workmodels.obj
 0001:0000e800       ?advance@?$IteratorOwnerCommon@Vconst_iterator@?$QList@H@@@QtMetaTypePrivate@@SAXPAPAXH@Z 0040f800 f i moc_workmodels.obj
 0001:0000e800       ?advance@?$IteratorOwnerCommon@Vconst_iterator@?$QList@PAVQObject@@@@@QtMetaTypePrivate@@SAXPAPAXH@Z 0040f800 f i moc_workmodels.obj
 0001:0000e810       ?assign@?$IteratorOwnerCommon@Vconst_iterator@?$QList@PAVQObject@@@@@QtMetaTypePrivate@@SAXPAPAXPBQAX@Z 0040f810 f i moc_workmodels.obj
 0001:0000e810       ?assign@?$IteratorOwnerCommon@Vconst_iterator@?$QList@H@@@QtMetaTypePrivate@@SAXPAPAXPBQAX@Z 0040f810 f i moc_workmodels.obj
 0001:0000e830       ?boolValueChanged@OperationParamObject@@QAEXXZ 0040f830 f   moc_workmodels.obj
 0001:0000e850       ?bottomValueChanged@OperationParamObject@@QAEXXZ 0040f850 f   moc_workmodels.obj
 0001:0000e870       ?convert@?$ConverterFunctor@V?$QList@H@@VQSequentialIterableImpl@QtMetaTypePrivate@@U?$QSequentialIterableConvertFunctor@V?$QList@H@@@3@@QtPrivate@@SA_NPBUAbstractConverterFunction@2@PBXPAX@Z 0040f870 f i moc_workmodels.obj
 0001:0000e910       ?convert@?$ConverterFunctor@V?$QList@PAVQObject@@@@VQSequentialIterableImpl@QtMetaTypePrivate@@U?$QSequentialIterableConvertFunctor@V?$QList@PAVQObject@@@@@3@@QtPrivate@@SA_NPBUAbstractConverterFunction@2@PBXPAX@Z 0040f910 f i moc_workmodels.obj
 0001:0000e9b0       ?currentIndexChanged@OperationParamSelector@@QAEXXZ 0040f9b0 f   moc_workmodels.obj
 0001:0000e9d0       ?destroy@?$IteratorOwnerCommon@Vconst_iterator@?$QList@H@@@QtMetaTypePrivate@@SAXPAPAX@Z 0040f9d0 f i moc_workmodels.obj
 0001:0000e9d0       ?destroy@?$IteratorOwnerCommon@Vconst_iterator@?$QList@PAVQObject@@@@@QtMetaTypePrivate@@SAXPAPAX@Z 0040f9d0 f i moc_workmodels.obj
 0001:0000e9f0       ?display@OperationParamObject@@QBE?AVQString@@XZ 0040f9f0 f i moc_workmodels.obj
 0001:0000ea10       ?displayChanged@OperationParamObject@@QAEXXZ 0040fa10 f   moc_workmodels.obj
 0001:0000ea30       ?equal@?$IteratorOwnerCommon@Vconst_iterator@?$QList@PAVQObject@@@@@QtMetaTypePrivate@@SA_NPBQAX0@Z 0040fa30 f i moc_workmodels.obj
 0001:0000ea30       ?equal@?$IteratorOwnerCommon@Vconst_iterator@?$QList@H@@@QtMetaTypePrivate@@SA_NPBQAX0@Z 0040fa30 f i moc_workmodels.obj
 0001:0000ea50       ?floatValueChanged@OperationParamObject@@QAEXXZ 0040fa50 f   moc_workmodels.obj
 0001:0000ea70       ?name@OperationParamObject@@QBE?AVQString@@XZ 0040fa70 f i workmodels.obj
 0001:0000ea70       ?getOperationName@SingleOperationObject@@QAE?AVQString@@XZ 0040fa70 f i moc_workmodels.obj
 0001:0000ea70       ?getIpAddress@TargetMachineObject@@QBE?AVQString@@XZ 0040fa70 f i environmentvariant.obj
 0001:0000ea90       ?getParamListModel@PlanSelector@@QAE?AV?$QList@PAVQObject@@@@XZ 0040fa90 f i moc_workmodels.obj
 0001:0000eab0       ?getParamModel@OperationParamSelector@@QAE?AV?$QList@PAVQObject@@@@XZ 0040fab0 f i moc_workmodels.obj
 0001:0000ead0       ?intListValue@OperationParamObject@@QAE?AV?$QList@H@@XZ 0040fad0 f i moc_workmodels.obj
 0001:0000eaf0       ?intListValueChanged@OperationParamObject@@QAEXXZ 0040faf0 f   moc_workmodels.obj
 0001:0000eb10       ?integerValueChanged@OperationParamObject@@QAEXXZ 0040fb10 f   moc_workmodels.obj
 0001:0000eb30       ?metaObject@OperationParamObject@@UBEPBUQMetaObject@@XZ 0040fb30 f   moc_workmodels.obj
 0001:0000eb50       ?metaObject@OperationParamSelector@@UBEPBUQMetaObject@@XZ 0040fb50 f   moc_workmodels.obj
 0001:0000eb70       ?metaObject@PlanController@@UBEPBUQMetaObject@@XZ 0040fb70 f   moc_workmodels.obj
 0001:0000eb90       ?metaObject@PlanSelector@@UBEPBUQMetaObject@@XZ 0040fb90 f   moc_workmodels.obj
 0001:0000ebb0       ?metaObject@StatusViewWatcher@@UBEPBUQMetaObject@@XZ 0040fbb0 f   moc_workmodels.obj
 0001:0000ebd0       ?metaObject@TargetMachineObject@@UBEPBUQMetaObject@@XZ 0040fbd0 f   moc_workmodels.obj
 0001:0000ebf0       ?nameChanged@OperationParamObject@@QAEXXZ 0040fbf0 f   moc_workmodels.obj
 0001:0000ec10       ?op_eq_impl@?$QList@H@@ABE_NABV1@UArrayCompatibleLayout@QListData@@@Z 0040fc10 f i moc_workmodels.obj
 0001:0000ec10       ?op_eq_impl@?$QList@PAVQObject@@@@ABE_NABV1@UArrayCompatibleLayout@QListData@@@Z 0040fc10 f i moc_workmodels.obj
 0001:0000ec80       ?op_eq_impl@?$QList@VQString@@@@ABE_NABV1@UArrayCompatibleLayout@QListData@@@Z 0040fc80 f i moc_workmodels.obj
 0001:0000ecf0       ?operationListModel@PlanSelector@@QAE?AVQStringList@@XZ 0040fcf0 f i moc_workmodels.obj
 0001:0000ed10       ?operationModel@OperationParamSelector@@QAE?AVQStringList@@XZ 0040fd10 f i moc_workmodels.obj
 0001:0000ed30       ?operationNameChanged@SingleOperationObject@@QAEXXZ 0040fd30 f   moc_workmodels.obj
 0001:0000ed50       ?pageNameChanged@OperationParamSelector@@QAEXXZ 0040fd50 f   moc_workmodels.obj
 0001:0000ed70       ?paramListModelChanged@PlanSelector@@QAEXXZ 0040fd70 f   moc_workmodels.obj
 0001:0000ed90       ?paramModelChanged@OperationParamSelector@@QAEXXZ 0040fd90 f   moc_workmodels.obj
 0001:0000edb0       ?qt_metacall@OperationParamObject@@UAEHW4Call@QMetaObject@@HPAPAX@Z 0040fdb0 f   moc_workmodels.obj
 0001:0000ee50       ?qt_metacall@OperationParamSelector@@UAEHW4Call@QMetaObject@@HPAPAX@Z 0040fe50 f   moc_workmodels.obj
 0001:0000ef00       ?qt_metacall@PlanController@@UAEHW4Call@QMetaObject@@HPAPAX@Z 0040ff00 f   moc_workmodels.obj
 0001:0000ef60       ?qt_metacall@PlanSelector@@UAEHW4Call@QMetaObject@@HPAPAX@Z 0040ff60 f   moc_workmodels.obj
 0001:0000f010       ?qt_metacall@StatusViewWatcher@@UAEHW4Call@QMetaObject@@HPAPAX@Z 00410010 f   moc_workmodels.obj
 0001:0000f070       ?qt_metacall@TargetMachineObject@@UAEHW4Call@QMetaObject@@HPAPAX@Z 00410070 f   moc_workmodels.obj
 0001:0000f130       ?qt_metacast@OperationParamObject@@UAEPAXPBD@Z 00410130 f   moc_workmodels.obj
 0001:0000f1d0       ?qt_metacast@OperationParamSelector@@UAEPAXPBD@Z 004101d0 f   moc_workmodels.obj
 0001:0000f230       ?qt_metacast@PlanController@@UAEPAXPBD@Z 00410230 f   moc_workmodels.obj
 0001:0000f290       ?qt_metacast@PlanSelector@@UAEPAXPBD@Z 00410290 f   moc_workmodels.obj
 0001:0000f2f0       ?qt_metacast@StatusViewWatcher@@UAEPAXPBD@Z 004102f0 f   moc_workmodels.obj
 0001:0000f350       ?qt_metacast@TargetMachineObject@@UAEPAXPBD@Z 00410350 f   moc_workmodels.obj
 0001:0000f3f0       ?qt_metatype_id@?$QMetaTypeId@V?$QList@H@@@@SAHXZ 004103f0 f i moc_workmodels.obj
 0001:0000f510       ?qt_metatype_id@?$QMetaTypeId@V?$QList@PAVQObject@@@@@@SAHXZ 00410510 f i moc_workmodels.obj
 0001:0000f5b0       ?qt_metatype_id@?$QMetaTypeId@VQSequentialIterableImpl@QtMetaTypePrivate@@@@SAHXZ 004105b0 f i moc_workmodels.obj
 0001:0000f640       ?qt_static_metacall@OperationParamObject@@CAXPAVQObject@@W4Call@QMetaObject@@HPAPAX@Z 00410640 f   moc_workmodels.obj
 0001:0000fb20       ?qt_static_metacall@OperationParamSelector@@CAXPAVQObject@@W4Call@QMetaObject@@HPAPAX@Z 00410b20 f   moc_workmodels.obj
 0001:0000fcb0       ?qt_static_metacall@PlanController@@CAXPAVQObject@@W4Call@QMetaObject@@HPAPAX@Z 00410cb0 f   moc_workmodels.obj
 0001:0000fd40       ?qt_static_metacall@PlanSelector@@CAXPAVQObject@@W4Call@QMetaObject@@HPAPAX@Z 00410d40 f   moc_workmodels.obj
 0001:00010040       ?qt_static_metacall@SingleOperationObject@@CAXPAVQObject@@W4Call@QMetaObject@@HPAPAX@Z 00411040 f   moc_workmodels.obj
 0001:000100f0       ?qt_static_metacall@StatusViewWatcher@@CAXPAVQObject@@W4Call@QMetaObject@@HPAPAX@Z 004110f0 f   moc_workmodels.obj
 0001:00010290       ?qt_static_metacall@TargetMachineObject@@CAXPAVQObject@@W4Call@QMetaObject@@HPAPAX@Z 00411290 f   moc_workmodels.obj
 0001:000103a0       ?registerConverter@?$ValueTypeIsMetaType@V?$QList@H@@$00@QtPrivate@@SA_NH@Z 004113a0 f i moc_workmodels.obj
 0001:00010430       ?registerConverter@?$ValueTypeIsMetaType@V?$QList@PAVQObject@@@@$00@QtPrivate@@SA_NH@Z 00411430 f i moc_workmodels.obj
 0001:000104c0       ?setBoolValue@OperationParamObject@@QAEX_N@Z 004114c0 f i moc_workmodels.obj
 0001:000104f0       ?setBottomValue@OperationParamObject@@QAEXH@Z 004114f0 f i moc_workmodels.obj
 0001:00010520       ?setDisplay@OperationParamObject@@QAEXABVQString@@@Z 00411520 f i moc_workmodels.obj
 0001:00010560       ?setFloatValue@OperationParamObject@@QAEXN@Z 00411560 f i moc_workmodels.obj
 0001:000105a0       ?setIntListValue@OperationParamObject@@QAEXABV?$QList@H@@@Z 004115a0 f i moc_workmodels.obj
 0001:00010680       ?setIntegerValue@OperationParamObject@@QAEXH@Z 00411680 f i moc_workmodels.obj
 0001:000106b0       ?setIpAddress@TargetMachineObject@@QAEXABVQString@@@Z 004116b0 f i moc_workmodels.obj
 0001:000106f0       ?setMaxReceiveTime@TargetMachineObject@@QAEXH@Z 004116f0 f i moc_workmodels.obj
 0001:00010720       ?setName@OperationParamObject@@QAEXABVQString@@@Z 00411720 f i moc_workmodels.obj
 0001:00010760       ?setOperationName@SingleOperationObject@@QAEXABVQString@@@Z 00411760 f i moc_workmodels.obj
 0001:000107a0       ?setParamListModel@PlanSelector@@QAEXABV?$QList@PAVQObject@@@@@Z 004117a0 f i moc_workmodels.obj
 0001:00010880       ?setParamModel@OperationParamSelector@@QAEXABV?$QList@PAVQObject@@@@@Z 00411880 f i moc_workmodels.obj
 0001:00010960       ?setPort@TargetMachineObject@@QAEXF@Z 00411960 f i moc_workmodels.obj
 0001:00010990       ?setStringValue@OperationParamObject@@QAEXABVQString@@@Z 00411990 f i moc_workmodels.obj
 0001:000109d0       ?setStringlistValue@OperationParamObject@@QAEXABVQStringList@@@Z 004119d0 f i moc_workmodels.obj
 0001:00010a50       ?setSwitchValue@OperationParamObject@@QAEXABVQString@@@Z 00411a50 f i moc_workmodels.obj
 0001:00010a90       ?setTopValue@OperationParamObject@@QAEXH@Z 00411a90 f i moc_workmodels.obj
 0001:00010ac0       ?setUnit@OperationParamObject@@QAEXABVQString@@@Z 00411ac0 f i moc_workmodels.obj
 0001:00010b00       ?settype@OperationParamObject@@QAEXABVQString@@@Z 00411b00 f i moc_workmodels.obj
 0001:00010b40       ?statusChanged@StatusViewWatcher@@QAEXABVQJsonObject@@@Z 00411b40 f   moc_workmodels.obj
 0001:00010b70       ?stringListValue@OperationParamObject@@QBE?AVQStringList@@XZ 00411b70 f i moc_workmodels.obj
 0001:00010b90       ?stringValue@OperationParamObject@@QBE?AVQString@@XZ 00411b90 f i moc_workmodels.obj
 0001:00010bb0       ?stringValueChanged@OperationParamObject@@QAEXXZ 00411bb0 f   moc_workmodels.obj
 0001:00010bd0       ?stringlistValueChanged@OperationParamObject@@QAEXXZ 00411bd0 f   moc_workmodels.obj
 0001:00010bf0       ?switchValue@OperationParamObject@@QBE?AVQString@@XZ 00411bf0 f i moc_workmodels.obj
 0001:00010c10       ?switchValueChanged@OperationParamObject@@QAEXXZ 00411c10 f   moc_workmodels.obj
 0001:00010c30       ?taskStateChanged@PlanController@@QAEX_N@Z 00411c30 f   moc_workmodels.obj
 0001:00010c60       ?topValueChanged@OperationParamObject@@QAEXXZ 00411c60 f   moc_workmodels.obj
 0001:00010c80       ?type@OperationParamObject@@QBE?AVQString@@XZ 00411c80 f i moc_workmodels.obj
 0001:00010ca0       ?typeChanged@OperationParamObject@@QAEXXZ 00411ca0 f   moc_workmodels.obj
 0001:00010cc0       ?unit@OperationParamObject@@QBE?AVQString@@XZ 00411cc0 f i moc_workmodels.obj
 0001:00010ce0       ?workLocationTypeChanged@StatusViewWatcher@@QAEXXZ 00411ce0 f   moc_workmodels.obj
 0001:00010d00       ?metaObject@configFileHandler@@UBEPBUQMetaObject@@XZ 00411d00 f   moc_configfilehandler.obj
 0001:00010d20       ?qt_metacall@configFileHandler@@UAEHW4Call@QMetaObject@@HPAPAX@Z 00411d20 f   moc_configfilehandler.obj
 0001:00010d30       ?qt_metacast@configFileHandler@@UAEPAXPBD@Z 00411d30 f   moc_configfilehandler.obj
 0001:00010d90       ?metaObject@EnvironmentVariant@@UBEPBUQMetaObject@@XZ 00411d90 f   moc_environmentvariant.obj
 0001:00010db0       ?qt_metacall@EnvironmentVariant@@UAEHW4Call@QMetaObject@@HPAPAX@Z 00411db0 f   moc_environmentvariant.obj
 0001:00010e10       ?qt_metacast@EnvironmentVariant@@UAEPAXPBD@Z 00411e10 f   moc_environmentvariant.obj
 0001:00010e70       ?qt_static_metacall@EnvironmentVariant@@CAXPAVQObject@@W4Call@QMetaObject@@HPAPAX@Z 00411e70 f   moc_environmentvariant.obj
 0001:00010ec0       ?workLocationTypeChanged@EnvironmentVariant@@QAEXXZ 00411ec0 f   moc_environmentvariant.obj
 0001:00010ed4       _MiniDumpWriteDump@28      00411ed4 f   DbgHelp:dbghelp.dll
 0001:00010eda       ?fixup@QValidator@@UBEXAAVQString@@@Z 00411eda f   Qt5Gui:Qt5Gui.dll
 0001:00010ee0       ?metaObject@QDoubleValidator@@UBEPBUQMetaObject@@XZ 00411ee0 f   Qt5Gui:Qt5Gui.dll
 0001:00010ee6       ?qt_metacall@QDoubleValidator@@UAEHW4Call@QMetaObject@@HPAPAX@Z 00411ee6 f   Qt5Gui:Qt5Gui.dll
 0001:00010eec       ?qt_metacast@QDoubleValidator@@UAEPAXPBD@Z 00411eec f   Qt5Gui:Qt5Gui.dll
 0001:00010ef2       ?setRange@QDoubleValidator@@UAEXNNH@Z 00411ef2 f   Qt5Gui:Qt5Gui.dll
 0001:00010ef8       ?childEvent@QObject@@MAEXPAVQChildEvent@@@Z 00411ef8 f   Qt5Core:Qt5Core.dll
 0001:00010efe       ?connectNotify@QObject@@MAEXABVQMetaMethod@@@Z 00411efe f   Qt5Core:Qt5Core.dll
 0001:00010f04       ?customEvent@QObject@@MAEXPAVQEvent@@@Z 00411f04 f   Qt5Core:Qt5Core.dll
 0001:00010f0a       ?disconnectNotify@QObject@@MAEXABVQMetaMethod@@@Z 00411f0a f   Qt5Core:Qt5Core.dll
 0001:00010f10       ?event@QObject@@UAE_NPAVQEvent@@@Z 00411f10 f   Qt5Core:Qt5Core.dll
 0001:00010f16       ?eventFilter@QObject@@UAE_NPAV1@PAVQEvent@@@Z 00411f16 f   Qt5Core:Qt5Core.dll
 0001:00010f1c       ?timerEvent@QObject@@MAEXPAVQTimerEvent@@@Z 00411f1c f   Qt5Core:Qt5Core.dll
 0001:00010f22       ?qRegisterResourceData@@YA_NHPBE00@Z 00411f22 f   Qt5Core:Qt5Core.dll
 0001:00010f28       ?qUnregisterResourceData@@YA_NHPBE00@Z 00411f28 f   Qt5Core:Qt5Core.dll
 0001:00010f2e       ??2@YAPAXI@Z               00411f2e f   MSVCRT:new_scalar.obj
 0001:00010f61       ??3@YAXPAXI@Z              00411f61 f   MSVCRT:delete_scalar_size.obj
 0001:00010f6f       @__security_check_cookie@4 00411f6f f   MSVCRT:_secchk_.obj
 0001:00010f80       ??_Etype_info@@UAEPAXI@Z   00411f80 f i MSVCRT:std_type_info_static.obj
 0001:00010f80       ??_Gtype_info@@UAEPAXI@Z   00411f80 f i MSVCRT:std_type_info_static.obj
 0001:00010fe7       ___scrt_acquire_startup_lock 00411fe7 f   MSVCRT:utility.obj
 0001:0001101c       ___scrt_initialize_crt     0041201c f   MSVCRT:utility.obj
 0001:00011055       ___scrt_initialize_onexit_tables 00412055 f   MSVCRT:utility.obj
 0001:000110ec       ___scrt_is_nonwritable_in_current_image 004120ec f   MSVCRT:utility.obj
 0001:00011176       ___scrt_release_startup_lock 00412176 f   MSVCRT:utility.obj
 0001:00011193       ___scrt_uninitialize_crt   00412193 f   MSVCRT:utility.obj
 0001:000111bb       __onexit                   004121bb f   MSVCRT:utility.obj
 0001:000111f6       _atexit                    004121f6 f   MSVCRT:utility.obj
 0001:000112cb       ??$__crt_fast_encode_pointer@P6GHPAU_RTL_CONDITION_VARIABLE@@PAU_RTL_CRITICAL_SECTION@@K@Z@@YAP6GHPAU_RTL_CONDITION_VARIABLE@@PAU_RTL_CRITICAL_SECTION@@K@ZQ6GH01K@Z@Z 004122cb f i MSVCRT:thread_safe_statics.obj
 0001:000112cb       ??$__crt_fast_encode_pointer@P6GXPAU_RTL_CONDITION_VARIABLE@@@Z@@YAP6GXPAU_RTL_CONDITION_VARIABLE@@@ZQ6GX0@Z@Z 004122cb f i MSVCRT:thread_safe_statics.obj
 0001:00011304       __Init_thread_footer       00412304 f   MSVCRT:thread_safe_statics.obj
 0001:00011343       __Init_thread_header       00412343 f   MSVCRT:thread_safe_statics.obj
 0001:00011389       __Init_thread_lock         00412389 f   MSVCRT:thread_safe_statics.obj
 0001:00011395       __Init_thread_notify       00412395 f   MSVCRT:thread_safe_statics.obj
 0001:000113d6       __Init_thread_unlock       004123d6 f   MSVCRT:thread_safe_statics.obj
 0001:000113e2       __Init_thread_wait         004123e2 f   MSVCRT:thread_safe_statics.obj
 0001:0001166d       _WinMainCRTStartup         0041266d f   MSVCRT:exe_winmain.obj
 0001:00011677       ??0bad_alloc@std@@QAE@ABV01@@Z 00412677 f i MSVCRT:throw_bad_alloc.obj
 0001:00011692       ??0bad_alloc@std@@QAE@XZ   00412692 f i MSVCRT:throw_bad_alloc.obj
 0001:000116aa       ??0bad_array_new_length@std@@QAE@ABV01@@Z 004126aa f i MSVCRT:throw_bad_alloc.obj
 0001:000116c5       ??0bad_array_new_length@std@@QAE@XZ 004126c5 f i MSVCRT:throw_bad_alloc.obj
 0001:000116dd       ??0exception@std@@QAE@ABV01@@Z 004126dd f i MSVCRT:throw_bad_alloc.obj
 0001:00011709       ??1bad_array_new_length@std@@UAE@XZ 00412709 f i MSVCRT:throw_bad_alloc.obj
 0001:00011709       ??1bad_alloc@std@@UAE@XZ   00412709 f i MSVCRT:throw_bad_alloc.obj
 0001:0001171a       ??_Ebad_array_new_length@std@@UAEPAXI@Z 0041271a f i MSVCRT:throw_bad_alloc.obj
 0001:0001171a       ??_Gbad_array_new_length@std@@UAEPAXI@Z 0041271a f i MSVCRT:throw_bad_alloc.obj
 0001:0001171a       ??_Gbad_alloc@std@@UAEPAXI@Z 0041271a f i MSVCRT:throw_bad_alloc.obj
 0001:0001171a       ??_Eexception@std@@UAEPAXI@Z 0041271a f i MSVCRT:throw_bad_alloc.obj
 0001:0001171a       ??_Ebad_alloc@std@@UAEPAXI@Z 0041271a f i MSVCRT:throw_bad_alloc.obj
 0001:0001171a       ??_Gexception@std@@UAEPAXI@Z 0041271a f i MSVCRT:throw_bad_alloc.obj
 0001:00011747       ?__scrt_throw_std_bad_alloc@@YAXXZ 00412747 f   MSVCRT:throw_bad_alloc.obj
 0001:00011764       ?__scrt_throw_std_bad_array_new_length@@YAXXZ 00412764 f   MSVCRT:throw_bad_alloc.obj
 0001:00011781       ?what@exception@std@@UBEPBDXZ 00412781 f i MSVCRT:throw_bad_alloc.obj
 0001:0001178e       ??3@YAXPAX@Z               0041278e f   MSVCRT:delete_scalar.obj
 0001:00011793       ___raise_securityfailure   00412793 f   MSVCRT:gs_report.obj
 0001:000117bb       ___report_gsfailure        004127bb f   MSVCRT:gs_report.obj
 0001:000118b6       ___isa_available_init      004128b6 f   MSVCRT:_cpu_disp_.obj
 0001:00011a50       __get_startup_argv_mode    00412a50 f   MSVCRT:argv_mode.obj
 0001:00011a54       ___scrt_is_ucrt_dll_in_use 00412a54 f   MSVCRT:ucrt_detection.obj
 0001:00011a60       ___scrt_fastfail           00412a60 f   MSVCRT:utility_desktop.obj
 0001:00011b7b       ___scrt_get_show_window_mode 00412b7b f   MSVCRT:utility_desktop.obj
 0001:00011bae       ___scrt_is_managed_app     00412bae f   MSVCRT:utility_desktop.obj
 0001:00011bf2       ___scrt_set_unhandled_exception_filter 00412bf2 f   MSVCRT:utility_desktop.obj
 0001:00011bfe       ___scrt_unhandled_exception_filter@4 00412bfe f   MSVCRT:utility_desktop.obj
 0001:00011c3f       @_guard_check_icall@4      00412c3f f i MSVCRT:checkcfg.obj
 0001:00011c50       __SEH_prolog4              00412c50 f   MSVCRT:_sehprolg4_.obj
 0001:00011c96       __SEH_epilog4              00412c96 f   MSVCRT:_sehprolg4_.obj
 0001:00011cab       __except_handler4          00412cab f   MSVCRT:_chandler4gs_.obj
 0001:00011cce       ___security_init_cookie    00412cce f   MSVCRT:gs_support.obj
 0001:00011d6a       ___scrt_initialize_winrt   00412d6a f   MSVCRT:utility_desktop.obj
 0001:00011d6a       __get_startup_thread_locale_mode 00412d6a f   MSVCRT:thread_locale.obj
 0001:00011d6a       __matherr                  00412d6a f   MSVCRT:matherr.obj
 0001:00011d6a       __get_startup_new_mode     00412d6a f   MSVCRT:new_mode.obj
 0001:00011d6a       __get_startup_commit_mode  00412d6a f   MSVCRT:commit_mode.obj
 0001:00011d6d       __get_startup_file_mode    00412d6d f   MSVCRT:file_mode.obj
 0001:00011d73       ?__scrt_initialize_type_info@@YAXXZ 00412d73 f   MSVCRT:tncleanup.obj
 0001:00011d7f       __initialize_default_precision 00412d7f f   MSVCRT:default_precision.obj
 0001:00011da0       ___local_stdio_printf_options 00412da0 f i MSVCRT:default_local_stdio_options.obj
 0001:00011da6       ___local_stdio_scanf_options 00412da6 f i MSVCRT:default_local_stdio_options.obj
 0001:00011dac       ___scrt_initialize_default_local_stdio_options 00412dac f   MSVCRT:default_local_stdio_options.obj
 0001:00011dc9       ___scrt_is_user_matherr_present 00412dc9 f   MSVCRT:matherr_detection.obj
 0001:00011dd5       ___scrt_get_dyn_tls_init_callback 00412dd5 f   MSVCRT:dyn_tls_init.obj
 0001:00011ddb       ___scrt_get_dyn_tls_dtor_callback 00412ddb f   MSVCRT:dyn_tls_dtor.obj
 0001:00011de1       __RTC_Initialize           00412de1 f   MSVCRT:_initsect_.obj
 0001:00011e0c       __RTC_Terminate            00412e0c f   MSVCRT:_initsect_.obj
 0001:00011e38       _IsProcessorFeaturePresent@4 00412e38 f   kernel32:KERNEL32.dll
 0001:00011e3e       ___std_terminate           00412e3e f   vcruntime:VCRUNTIME140.dll
 0001:00011e44       ___CxxFrameHandler3        00412e44 f   vcruntime:VCRUNTIME140.dll
 0001:00011e4a       _memcpy                    00412e4a f   vcruntime:VCRUNTIME140.dll
 0001:00011e50       __CxxThrowException@8      00412e50 f   vcruntime:VCRUNTIME140.dll
 0001:00011e56       ___RTDynamicCast           00412e56 f   vcruntime:VCRUNTIME140.dll
 0001:00011e5c       ___vcrt_InitializeCriticalSectionEx 00412e5c f   vcruntime:VCRUNTIME140.dll
 0001:00011e62       ___std_exception_copy      00412e62 f   vcruntime:VCRUNTIME140.dll
 0001:00011e68       ___std_exception_destroy   00412e68 f   vcruntime:VCRUNTIME140.dll
 0001:00011e6e       _memset                    00412e6e f   vcruntime:VCRUNTIME140.dll
 0001:00011e74       __except_handler4_common   00412e74 f   vcruntime:VCRUNTIME140.dll
 0001:00011e7a       _free                      00412e7a f   ucrt:api-ms-win-crt-heap-l1-1-0.dll
 0001:00011e80       _malloc                    00412e80 f   ucrt:api-ms-win-crt-heap-l1-1-0.dll
 0001:00011e86       __callnewh                 00412e86 f   ucrt:api-ms-win-crt-heap-l1-1-0.dll
 0001:00011e8c       __configure_narrow_argv    00412e8c f   ucrt:api-ms-win-crt-runtime-l1-1-0.dll
 0001:00011e92       __initialize_narrow_environment 00412e92 f   ucrt:api-ms-win-crt-runtime-l1-1-0.dll
 0001:00011e98       __initialize_onexit_table  00412e98 f   ucrt:api-ms-win-crt-runtime-l1-1-0.dll
 0001:00011e9e       __register_onexit_function 00412e9e f   ucrt:api-ms-win-crt-runtime-l1-1-0.dll
 0001:00011ea4       __crt_atexit               00412ea4 f   ucrt:api-ms-win-crt-runtime-l1-1-0.dll
 0001:00011eaa       __cexit                    00412eaa f   ucrt:api-ms-win-crt-runtime-l1-1-0.dll
 0001:00011eb0       __seh_filter_exe           00412eb0 f   ucrt:api-ms-win-crt-runtime-l1-1-0.dll
 0001:00011eb6       __set_app_type             00412eb6 f   ucrt:api-ms-win-crt-runtime-l1-1-0.dll
 0001:00011ebc       ___setusermatherr          00412ebc f   ucrt:api-ms-win-crt-math-l1-1-0.dll
 0001:00011ec2       __get_narrow_winmain_command_line 00412ec2 f   ucrt:api-ms-win-crt-runtime-l1-1-0.dll
 0001:00011ec8       __initterm                 00412ec8 f   ucrt:api-ms-win-crt-runtime-l1-1-0.dll
 0001:00011ece       __initterm_e               00412ece f   ucrt:api-ms-win-crt-runtime-l1-1-0.dll
 0001:00011ed4       _exit                      00412ed4 f   ucrt:api-ms-win-crt-runtime-l1-1-0.dll
 0001:00011eda       __exit                     00412eda f   ucrt:api-ms-win-crt-runtime-l1-1-0.dll
 0001:00011ee0       __set_fmode                00412ee0 f   ucrt:api-ms-win-crt-stdio-l1-1-0.dll
 0001:00011ee6       __c_exit                   00412ee6 f   ucrt:api-ms-win-crt-runtime-l1-1-0.dll
 0001:00011eec       __register_thread_local_exe_atexit_callback 00412eec f   ucrt:api-ms-win-crt-runtime-l1-1-0.dll
 0001:00011ef2       __configthreadlocale       00412ef2 f   ucrt:api-ms-win-crt-locale-l1-1-0.dll
 0001:00011ef8       __set_new_mode             00412ef8 f   ucrt:api-ms-win-crt-heap-l1-1-0.dll
 0001:00011efe       ___p__commode              00412efe f   ucrt:api-ms-win-crt-stdio-l1-1-0.dll
 0001:00011f04       _terminate                 00412f04 f   ucrt:api-ms-win-crt-runtime-l1-1-0.dll
 0001:00011f0a       __controlfp_s              00412f0a f   ucrt:api-ms-win-crt-runtime-l1-1-0.dll
 0001:00011f10       _WinMain@16                00412f10 f   qtmain:qtmain_win.obj
 0001:0001202e       ??_U@YAPAXI@Z              0041302e f   MSVCRT:new_array.obj
 0001:00012037       ??_V@YAXPAX@Z              00413037 f   MSVCRT:delete_array.obj
 0001:0001203c       ___scrt_stub_for_acrt_initialize 0041303c f   MSVCRT:ucrt_stubs.obj
 0001:0001203c       ___scrt_stub_for_acrt_uninitialize 0041303c f   MSVCRT:ucrt_stubs.obj
 0001:0001203c       ___acrt_initialize         0041303c f   MSVCRT:ucrt_stubs.obj
 0001:0001203c       ___acrt_uninitialize       0041303c f   MSVCRT:ucrt_stubs.obj
 0001:0001203c       __should_initialize_environment 0041303c f   MSVCRT:env_mode.obj
 0001:0001203c       ___vcrt_uninitialize       0041303c f   MSVCRT:ucrt_stubs.obj
 0001:0001203c       ___vcrt_initialize         0041303c f   MSVCRT:ucrt_stubs.obj
 0001:00014120       ??__Ff@?4??registerConverter@?$ValueTypeIsMetaType@V?$QList@H@@$00@QtPrivate@@SA_NH@Z@YAXXZ 00415120 f i moc_workmodels.obj
 0001:00014170       ??__Ff@?4??registerConverter@?$ValueTypeIsMetaType@V?$QList@PAVQObject@@@@$00@QtPrivate@@SA_NH@Z@YAXXZ 00415170 f i moc_workmodels.obj
 0002:00000000       __imp__WideCharToMultiByte@32 00416000     kernel32:KERNEL32.dll
 0002:00000004       __imp__LocalFree@4         00416004     kernel32:KERNEL32.dll
 0002:00000008       __imp__GetCommandLineW@0   00416008     kernel32:KERNEL32.dll
 0002:0000000c       __imp__InitializeSListHead@4 0041600c     kernel32:KERNEL32.dll
 0002:00000010       __imp__GetSystemTimeAsFileTime@4 00416010     kernel32:KERNEL32.dll
 0002:00000014       __imp__QueryPerformanceCounter@4 00416014     kernel32:KERNEL32.dll
 0002:00000018       __imp__GetStartupInfoW@4   00416018     kernel32:KERNEL32.dll
 0002:0000001c       __imp__IsDebuggerPresent@0 0041601c     kernel32:KERNEL32.dll
 0002:00000020       __imp__IsProcessorFeaturePresent@4 00416020     kernel32:KERNEL32.dll
 0002:00000024       __imp__TerminateProcess@8  00416024     kernel32:KERNEL32.dll
 0002:00000028       __imp__UnhandledExceptionFilter@4 00416028     kernel32:KERNEL32.dll
 0002:0000002c       __imp__GetProcAddress@8    0041602c     kernel32:KERNEL32.dll
 0002:00000030       __imp__GetModuleHandleW@4  00416030     kernel32:KERNEL32.dll
 0002:00000034       __imp__CreateEventW@16     00416034     kernel32:KERNEL32.dll
 0002:00000038       __imp__WaitForSingleObjectEx@12 00416038     kernel32:KERNEL32.dll
 0002:0000003c       __imp__ResetEvent@4        0041603c     kernel32:KERNEL32.dll
 0002:00000040       __imp__SetEvent@4          00416040     kernel32:KERNEL32.dll
 0002:00000044       __imp__DeleteCriticalSection@4 00416044     kernel32:KERNEL32.dll
 0002:00000048       __imp__LeaveCriticalSection@4 00416048     kernel32:KERNEL32.dll
 0002:0000004c       __imp__EnterCriticalSection@4 0041604c     kernel32:KERNEL32.dll
 0002:00000050       __imp__GetCurrentThreadId@0 00416050     kernel32:KERNEL32.dll
 0002:00000054       __imp__GetCurrentProcessId@0 00416054     kernel32:KERNEL32.dll
 0002:00000058       __imp__GetCurrentProcess@0 00416058     kernel32:KERNEL32.dll
 0002:0000005c       __imp__SetUnhandledExceptionFilter@4 0041605c     kernel32:KERNEL32.dll
 0002:00000060       __imp__CloseHandle@4       00416060     kernel32:KERNEL32.dll
 0002:00000064       __imp__CreateFileW@28      00416064     kernel32:KERNEL32.dll
 0002:00000068       \177KERNEL32_NULL_THUNK_DATA 00416068     kernel32:KERNEL32.dll
 0002:0000006c       __imp_?qt_metacall@QObject@@UAEHW4Call@QMetaObject@@HPAPAX@Z 0041606c     Qt5Core:Qt5Core.dll
 0002:00000070       __imp_?qt_metacast@QObject@@UAEPAXPBD@Z 00416070     Qt5Core:Qt5Core.dll
 0002:00000074       __imp_?dynamicMetaObject@QObjectData@@QBEPAUQMetaObject@@XZ 00416074     Qt5Core:Qt5Core.dll
 0002:00000078       __imp_?unregisterConverterFunction@QMetaType@@SAXHH@Z 00416078     Qt5Core:Qt5Core.dll
 0002:0000007c       __imp_?registerConverterFunction@QMetaType@@SA_NPBUAbstractConverterFunction@QtPrivate@@HH@Z 0041607c     Qt5Core:Qt5Core.dll
 0002:00000080       __imp_?hasRegisteredConverterFunction@QMetaType@@SA_NHH@Z 00416080     Qt5Core:Qt5Core.dll
 0002:00000084       __imp_?typeName@QMetaType@@SAPBDH@Z 00416084     Qt5Core:Qt5Core.dll
 0002:00000088       __imp_?append@QByteArray@@QAEAAV1@PBDH@Z 00416088     Qt5Core:Qt5Core.dll
 0002:0000008c       __imp_?endsWith@QByteArray@@QBE_ND@Z 0041608c     Qt5Core:Qt5Core.dll
 0002:00000090       __imp_?activate@QMetaObject@@SAXPAVQObject@@PBU1@HPAPAX@Z 00416090     Qt5Core:Qt5Core.dll
 0002:00000094       __imp_?normalizedType@QMetaObject@@SA?AVQByteArray@@PBD@Z 00416094     Qt5Core:Qt5Core.dll
 0002:00000098       __imp_?staticMetaObject@QObject@@2UQMetaObject@@B 00416098     Qt5Core:Qt5Core.dll
 0002:0000009c       __imp_?qUnregisterResourceData@@YA_NHPBE00@Z 0041609c     Qt5Core:Qt5Core.dll
 0002:000000a0       __imp_?qRegisterResourceData@@YA_NHPBE00@Z 004160a0     Qt5Core:Qt5Core.dll
 0002:000000a4       __imp_??0QJsonObject@@QAE@ABV0@@Z 004160a4     Qt5Core:Qt5Core.dll
 0002:000000a8       __imp_?at@QJsonArray@@QBE?AVQJsonValue@@H@Z 004160a8     Qt5Core:Qt5Core.dll
 0002:000000ac       __imp_??4QJsonArray@@QAEAAV0@ABV0@@Z 004160ac     Qt5Core:Qt5Core.dll
 0002:000000b0       __imp_??9QJsonValue@@QBE_NABV0@@Z 004160b0     Qt5Core:Qt5Core.dll
 0002:000000b4       __imp_?qBadAlloc@@YAXXZ    004160b4     Qt5Core:Qt5Core.dll
 0002:000000b8       __imp_?qputenv@@YA_NPBDABVQByteArray@@@Z 004160b8     Qt5Core:Qt5Core.dll
 0002:000000bc       __imp_??0QMessageLogger@@QAE@PBDH0@Z 004160bc     Qt5Core:Qt5Core.dll
 0002:000000c0       __imp_?debug@QMessageLogger@@QBE?AVQDebug@@XZ 004160c0     Qt5Core:Qt5Core.dll
 0002:000000c4       __imp_?qInstallMessageHandler@@YAP6AXW4QtMsgType@@ABVQMessageLogContext@@ABVQString@@@ZP6AX012@Z@Z 004160c4     Qt5Core:Qt5Core.dll
 0002:000000c8       __imp_??0QChar@@QAE@UQLatin1Char@@@Z 004160c8     Qt5Core:Qt5Core.dll
 0002:000000cc       __imp_??0QByteArray@@QAE@XZ 004160cc     Qt5Core:Qt5Core.dll
 0002:000000d0       __imp_??0QByteArray@@QAE@PBDH@Z 004160d0     Qt5Core:Qt5Core.dll
 0002:000000d4       __imp_??1QByteArray@@QAE@XZ 004160d4     Qt5Core:Qt5Core.dll
 0002:000000d8       __imp_?reserve@QByteArray@@QAEXH@Z 004160d8     Qt5Core:Qt5Core.dll
 0002:000000dc       __imp_?append@QByteArray@@QAEAAV1@D@Z 004160dc     Qt5Core:Qt5Core.dll
 0002:000000e0       __imp_?append@QByteArray@@QAEAAV1@PBD@Z 004160e0     Qt5Core:Qt5Core.dll
 0002:000000e4       __imp_??0QString@@QAE@XZ   004160e4     Qt5Core:Qt5Core.dll
 0002:000000e8       __imp_??0QString@@QAE@ABV0@@Z 004160e8     Qt5Core:Qt5Core.dll
 0002:000000ec       __imp_??1QString@@QAE@XZ   004160ec     Qt5Core:Qt5Core.dll
 0002:000000f0       __imp_??4QString@@QAEAAV0@ABV0@@Z 004160f0     Qt5Core:Qt5Core.dll
 0002:000000f4       __imp_?arg@QString@@QBE?AV1@ABV1@HVQChar@@@Z 004160f4     Qt5Core:Qt5Core.dll
 0002:000000f8       __imp_?indexOf@QString@@QBEHVQChar@@HW4CaseSensitivity@Qt@@@Z 004160f8     Qt5Core:Qt5Core.dll
 0002:000000fc       __imp_?startsWith@QString@@QBE_NABV1@W4CaseSensitivity@Qt@@@Z 004160fc     Qt5Core:Qt5Core.dll
 0002:00000100       __imp_?append@QString@@QAEAAV1@ABV1@@Z 00416100     Qt5Core:Qt5Core.dll
 0002:00000104       __imp_?fromUtf8@QString@@SA?AV1@PBDH@Z 00416104     Qt5Core:Qt5Core.dll
 0002:00000108       __imp_?fromWCharArray@QString@@SA?AV1@PB_WH@Z 00416108     Qt5Core:Qt5Core.dll
 0002:0000010c       __imp_?fromAscii_helper@QString@@CAPAU?$QTypedArrayData@G@@PBDH@Z 0041610c     Qt5Core:Qt5Core.dll
 0002:00000110       __imp_?className@QMetaObject@@QBEPBDXZ 00416110     Qt5Core:Qt5Core.dll
 0002:00000114       __imp_??1Connection@QMetaObject@@QAE@XZ 00416114     Qt5Core:Qt5Core.dll
 0002:00000118       __imp_?dispose@QListData@@SAXPAUData@1@@Z 00416118     Qt5Core:Qt5Core.dll
 0002:0000011c       __imp_?registerNormalizedType@QMetaType@@SAHABVQByteArray@@P6AXPAX@ZP6APAX1PBX@ZHV?$QFlags@W4TypeFlag@QMetaType@@@@PBUQMetaObject@@@Z 0041611c     Qt5Core:Qt5Core.dll
 0002:00000120       __imp_?registerNormalizedTypedef@QMetaType@@SAHABVQByteArray@@H@Z 00416120     Qt5Core:Qt5Core.dll
 0002:00000124       __imp_??0QObject@@QAE@PAV0@@Z 00416124     Qt5Core:Qt5Core.dll
 0002:00000128       __imp_??1QObject@@UAE@XZ   00416128     Qt5Core:Qt5Core.dll
 0002:0000012c       __imp_?connectImpl@QObject@@CA?AVConnection@QMetaObject@@PBV1@PAPAX01PAVQSlotObjectBase@QtPrivate@@W4ConnectionType@Qt@@PBHPBU3@@Z 0041612c     Qt5Core:Qt5Core.dll
 0002:00000130       __imp_?setApplicationName@QCoreApplication@@SAXABVQString@@@Z 00416130     Qt5Core:Qt5Core.dll
 0002:00000134       __imp_?installTranslator@QCoreApplication@@SA_NPAVQTranslator@@@Z 00416134     Qt5Core:Qt5Core.dll
 0002:00000138       __imp_?quit@QCoreApplication@@SAXXZ 00416138     Qt5Core:Qt5Core.dll
 0002:0000013c       __imp_??1QLocale@@QAE@XZ   0041613c     Qt5Core:Qt5Core.dll
 0002:00000140       __imp_?toDouble@QLocale@@QBENABVQString@@PA_N@Z 00416140     Qt5Core:Qt5Core.dll
 0002:00000144       __imp_?decimalPoint@QLocale@@QBE?AVQChar@@XZ 00416144     Qt5Core:Qt5Core.dll
 0002:00000148       __imp_??0QSize@@QAE@HH@Z   00416148     Qt5Core:Qt5Core.dll
 0002:0000014c       __imp_??6@YA?AVQDebug@@V0@ABVQSizeF@@@Z 0041614c     Qt5Core:Qt5Core.dll
 0002:00000150       __imp_??0QUrl@@QAE@ABVQString@@W4ParsingMode@0@@Z 00416150     Qt5Core:Qt5Core.dll
 0002:00000154       __imp_??1QUrl@@QAE@XZ      00416154     Qt5Core:Qt5Core.dll
 0002:00000158       __imp_??0QFile@@QAE@ABVQString@@@Z 00416158     Qt5Core:Qt5Core.dll
 0002:0000015c       __imp_??1QFile@@UAE@XZ     0041615c     Qt5Core:Qt5Core.dll
 0002:00000160       __imp_?open@QFile@@UAE_NV?$QFlags@W4OpenModeFlag@QIODevice@@@@@Z 00416160     Qt5Core:Qt5Core.dll
 0002:00000164       __imp_??0QTextStream@@QAE@PAVQIODevice@@@Z 00416164     Qt5Core:Qt5Core.dll
 0002:00000168       __imp_??1QTextStream@@UAE@XZ 00416168     Qt5Core:Qt5Core.dll
 0002:0000016c       __imp_??6QTextStream@@QAEAAV0@ABVQString@@@Z 0041616c     Qt5Core:Qt5Core.dll
 0002:00000170       __imp_?endl@@YAAAVQTextStream@@AAV1@@Z 00416170     Qt5Core:Qt5Core.dll
 0002:00000174       __imp_??1QDebug@@QAE@XZ    00416174     Qt5Core:Qt5Core.dll
 0002:00000178       __imp_??6QDebug@@QAEAAV0@ABVQString@@@Z 00416178     Qt5Core:Qt5Core.dll
 0002:0000017c       __imp_??0QTranslator@@QAE@PAVQObject@@@Z 0041617c     Qt5Core:Qt5Core.dll
 0002:00000180       __imp_??1QTranslator@@UAE@XZ 00416180     Qt5Core:Qt5Core.dll
 0002:00000184       __imp_?load@QTranslator@@QAE_NABVQString@@000@Z 00416184     Qt5Core:Qt5Core.dll
 0002:00000188       __imp_?currentPath@QDir@@SA?AVQString@@XZ 00416188     Qt5Core:Qt5Core.dll
 0002:0000018c       __imp_?toString@QTime@@QBE?AVQString@@W4DateFormat@Qt@@@Z 0041618c     Qt5Core:Qt5Core.dll
 0002:00000190       __imp_?currentTime@QTime@@SA?AV1@XZ 00416190     Qt5Core:Qt5Core.dll
 0002:00000194       __imp_?childEvent@QObject@@MAEXPAVQChildEvent@@@Z 00416194     Qt5Core:Qt5Core.dll
 0002:00000198       __imp_?connectNotify@QObject@@MAEXABVQMetaMethod@@@Z 00416198     Qt5Core:Qt5Core.dll
 0002:0000019c       __imp_?customEvent@QObject@@MAEXPAVQEvent@@@Z 0041619c     Qt5Core:Qt5Core.dll
 0002:000001a0       __imp_?disconnectNotify@QObject@@MAEXABVQMetaMethod@@@Z 004161a0     Qt5Core:Qt5Core.dll
 0002:000001a4       __imp_?event@QObject@@UAE_NPAVQEvent@@@Z 004161a4     Qt5Core:Qt5Core.dll
 0002:000001a8       __imp_?eventFilter@QObject@@UAE_NPAV1@PAVQEvent@@@Z 004161a8     Qt5Core:Qt5Core.dll
 0002:000001ac       __imp_?timerEvent@QObject@@MAEXPAVQTimerEvent@@@Z 004161ac     Qt5Core:Qt5Core.dll
 0002:000001b0       __imp_?shared_null@QListData@@2UData@1@B 004161b0     Qt5Core:Qt5Core.dll
 0002:000001b4       __imp_?cast@QMetaObject@@QBEPAVQObject@@PAV2@@Z 004161b4     Qt5Core:Qt5Core.dll
 0002:000001b8       __imp_??4QString@@QAEAAV0@$$QAV0@@Z 004161b8     Qt5Core:Qt5Core.dll
 0002:000001bc       __imp_??8@YA_NABVQString@@0@Z 004161bc     Qt5Core:Qt5Core.dll
 0002:000001c0       __imp_??8QString@@QBE_NPBD@Z 004161c0     Qt5Core:Qt5Core.dll
 0002:000001c4       __imp_?detach@QListData@@QAEPAUData@1@H@Z 004161c4     Qt5Core:Qt5Core.dll
 0002:000001c8       __imp_?detach_grow@QListData@@QAEPAUData@1@PAHH@Z 004161c8     Qt5Core:Qt5Core.dll
 0002:000001cc       __imp_?append@QListData@@QAEPAPAXXZ 004161cc     Qt5Core:Qt5Core.dll
 0002:000001d0       __imp_?size@QListData@@QBEHXZ 004161d0     Qt5Core:Qt5Core.dll
 0002:000001d4       __imp_?at@QListData@@QBEPAPAXH@Z 004161d4     Qt5Core:Qt5Core.dll
 0002:000001d8       __imp_?begin@QListData@@QBEPAPAXXZ 004161d8     Qt5Core:Qt5Core.dll
 0002:000001dc       __imp_?end@QListData@@QBEPAPAXXZ 004161dc     Qt5Core:Qt5Core.dll
 0002:000001e0       __imp_?installEventFilter@QObject@@QAEXPAV1@@Z 004161e0     Qt5Core:Qt5Core.dll
 0002:000001e4       __imp_?removeEventFilter@QObject@@QAEXPAV1@@Z 004161e4     Qt5Core:Qt5Core.dll
 0002:000001e8       __imp_?disconnectImpl@QObject@@CA_NPBV1@PAPAX01PBUQMetaObject@@@Z 004161e8     Qt5Core:Qt5Core.dll
 0002:000001ec       __imp_??0QJsonArray@@QAE@ABV0@@Z 004161ec     Qt5Core:Qt5Core.dll
 0002:000001f0       __imp_?self@QCoreApplication@@0PAV1@A 004161f0     Qt5Core:Qt5Core.dll
 0002:000001f4       __imp_?warning@QMessageLogger@@QBAXPBDZZ 004161f4     Qt5Core:Qt5Core.dll
 0002:000001f8       __imp_?fatal@QMessageLogger@@QBAXPBDZZ 004161f8     Qt5Core:Qt5Core.dll
 0002:000001fc       __imp_??4QByteArray@@QAEAAV0@$$QAV0@@Z 004161fc     Qt5Core:Qt5Core.dll
 0002:00000200       __imp_?clear@QByteArray@@QAEXXZ 00416200     Qt5Core:Qt5Core.dll
 0002:00000204       __imp_?toLocal8Bit@QString@@QHAE?AVQByteArray@@XZ 00416204     Qt5Core:Qt5Core.dll
 0002:00000208       __imp_?number@QString@@SA?AV1@HH@Z 00416208     Qt5Core:Qt5Core.dll
 0002:0000020c       __imp_?number@QString@@SA?AV1@NDH@Z 0041620c     Qt5Core:Qt5Core.dll
 0002:00000210       __imp_??M@YA_NABVQString@@0@Z 00416210     Qt5Core:Qt5Core.dll
 0002:00000214       __imp_??0QJsonValue@@QAE@_N@Z 00416214     Qt5Core:Qt5Core.dll
 0002:00000218       __imp_??0QJsonValue@@QAE@N@Z 00416218     Qt5Core:Qt5Core.dll
 0002:0000021c       __imp_??0QJsonValue@@QAE@H@Z 0041621c     Qt5Core:Qt5Core.dll
 0002:00000220       __imp_??0QJsonValue@@QAE@ABVQString@@@Z 00416220     Qt5Core:Qt5Core.dll
 0002:00000224       __imp_??0QJsonValue@@QAE@ABVQJsonArray@@@Z 00416224     Qt5Core:Qt5Core.dll
 0002:00000228       __imp_??0QJsonValue@@QAE@ABVQJsonObject@@@Z 00416228     Qt5Core:Qt5Core.dll
 0002:0000022c       __imp_??1QJsonValue@@QAE@XZ 0041622c     Qt5Core:Qt5Core.dll
 0002:00000230       __imp_??0QJsonValue@@QAE@ABV0@@Z 00416230     Qt5Core:Qt5Core.dll
 0002:00000234       __imp_?toBool@QJsonValue@@QBE_N_N@Z 00416234     Qt5Core:Qt5Core.dll
 0002:00000238       __imp_?toInt@QJsonValue@@QBEHH@Z 00416238     Qt5Core:Qt5Core.dll
 0002:0000023c       __imp_?toDouble@QJsonValue@@QBENN@Z 0041623c     Qt5Core:Qt5Core.dll
 0002:00000240       __imp_?toObject@QJsonValue@@QBE?AVQJsonObject@@XZ 00416240     Qt5Core:Qt5Core.dll
 0002:00000244       __imp_??BQJsonValueRef@@QBE?AVQJsonValue@@XZ 00416244     Qt5Core:Qt5Core.dll
 0002:00000248       __imp_??4QJsonValueRef@@QAEAAV0@ABVQJsonValue@@@Z 00416248     Qt5Core:Qt5Core.dll
 0002:0000024c       __imp_?toString@QJsonValueRef@@QBE?AVQString@@XZ 0041624c     Qt5Core:Qt5Core.dll
 0002:00000250       __imp_?toArray@QJsonValueRef@@QBE?AVQJsonArray@@XZ 00416250     Qt5Core:Qt5Core.dll
 0002:00000254       __imp_?toObject@QJsonValueRef@@QBE?AVQJsonObject@@XZ 00416254     Qt5Core:Qt5Core.dll
 0002:00000258       __imp_?toValue@QJsonValueRef@@ABE?AVQJsonValue@@XZ 00416258     Qt5Core:Qt5Core.dll
 0002:0000025c       __imp_??0QJsonObject@@QAE@XZ 0041625c     Qt5Core:Qt5Core.dll
 0002:00000260       __imp_??1QJsonObject@@QAE@XZ 00416260     Qt5Core:Qt5Core.dll
 0002:00000264       __imp_??4QJsonObject@@QAEAAV0@ABV0@@Z 00416264     Qt5Core:Qt5Core.dll
 0002:00000268       __imp_??AQJsonObject@@QAE?AVQJsonValueRef@@ABVQString@@@Z 00416268     Qt5Core:Qt5Core.dll
 0002:0000026c       __imp_?remove@QJsonObject@@QAEXABVQString@@@Z 0041626c     Qt5Core:Qt5Core.dll
 0002:00000270       __imp_?begin@QJsonObject@@QAE?AViterator@1@XZ 00416270     Qt5Core:Qt5Core.dll
 0002:00000274       __imp_?end@QJsonObject@@QAE?AViterator@1@XZ 00416274     Qt5Core:Qt5Core.dll
 0002:00000278       __imp_?keyAt@QJsonObject@@ABE?AVQString@@H@Z 00416278     Qt5Core:Qt5Core.dll
 0002:0000027c       __imp_?freeNodeAndRebalance@QMapDataBase@@QAEXPAUQMapNodeBase@@@Z 0041627c     Qt5Core:Qt5Core.dll
 0002:00000280       __imp_?recalcMostLeftNode@QMapDataBase@@QAEXXZ 00416280     Qt5Core:Qt5Core.dll
 0002:00000284       __imp_?createNode@QMapDataBase@@QAEPAUQMapNodeBase@@HHPAU2@_N@Z 00416284     Qt5Core:Qt5Core.dll
 0002:00000288       __imp_?freeTree@QMapDataBase@@QAEXPAUQMapNodeBase@@H@Z 00416288     Qt5Core:Qt5Core.dll
 0002:0000028c       __imp_?createData@QMapDataBase@@SAPAU1@XZ 0041628c     Qt5Core:Qt5Core.dll
 0002:00000290       __imp_?freeData@QMapDataBase@@SAXPAU1@@Z 00416290     Qt5Core:Qt5Core.dll
 0002:00000294       __imp_?readAll@QIODevice@@QAE?AVQByteArray@@XZ 00416294     Qt5Core:Qt5Core.dll
 0002:00000298       __imp_?write@QIODevice@@QAE_JABVQByteArray@@@Z 00416298     Qt5Core:Qt5Core.dll
 0002:0000029c       __imp_?close@QFileDevice@@UAEXXZ 0041629c     Qt5Core:Qt5Core.dll
 0002:000002a0       __imp_?resize@QFile@@SA_NABVQString@@_J@Z 004162a0     Qt5Core:Qt5Core.dll
 0002:000002a4       __imp_??0QJsonArray@@QAE@XZ 004162a4     Qt5Core:Qt5Core.dll
 0002:000002a8       __imp_??1QJsonArray@@QAE@XZ 004162a8     Qt5Core:Qt5Core.dll
 0002:000002ac       __imp_?size@QJsonArray@@QBEHXZ 004162ac     Qt5Core:Qt5Core.dll
 0002:000002b0       __imp_?append@QJsonArray@@QAEXABVQJsonValue@@@Z 004162b0     Qt5Core:Qt5Core.dll
 0002:000002b4       __imp_??AQJsonArray@@QAE?AVQJsonValueRef@@H@Z 004162b4     Qt5Core:Qt5Core.dll
 0002:000002b8       __imp_?begin@QJsonArray@@QAE?AViterator@1@XZ 004162b8     Qt5Core:Qt5Core.dll
 0002:000002bc       __imp_?end@QJsonArray@@QAE?AViterator@1@XZ 004162bc     Qt5Core:Qt5Core.dll
 0002:000002c0       __imp_??0QJsonDocument@@QAE@ABVQJsonObject@@@Z 004162c0     Qt5Core:Qt5Core.dll
 0002:000002c4       __imp_??1QJsonDocument@@QAE@XZ 004162c4     Qt5Core:Qt5Core.dll
 0002:000002c8       __imp_?fromJson@QJsonDocument@@SA?AV1@ABVQByteArray@@PAUQJsonParseError@@@Z 004162c8     Qt5Core:Qt5Core.dll
 0002:000002cc       __imp_?toJson@QJsonDocument@@QBE?AVQByteArray@@XZ 004162cc     Qt5Core:Qt5Core.dll
 0002:000002d0       __imp_?object@QJsonDocument@@QBE?AVQJsonObject@@XZ 004162d0     Qt5Core:Qt5Core.dll
 0002:000002d4       __imp_??0QCryptographicHash@@QAE@W4Algorithm@0@@Z 004162d4     Qt5Core:Qt5Core.dll
 0002:000002d8       __imp_??1QCryptographicHash@@QAE@XZ 004162d8     Qt5Core:Qt5Core.dll
 0002:000002dc       __imp_?hash@QCryptographicHash@@SA?AVQByteArray@@ABV2@W4Algorithm@1@@Z 004162dc     Qt5Core:Qt5Core.dll
 0002:000002e0       __imp_?shared_null@QMapDataBase@@2U1@B 004162e0     Qt5Core:Qt5Core.dll
 0002:000002e4       __imp_?data@QByteArray@@QAEPADXZ 004162e4     Qt5Core:Qt5Core.dll
 0002:000002e8       __imp_??0QString@@QAE@$$QAV0@@Z 004162e8     Qt5Core:Qt5Core.dll
 0002:000002ec       __imp_??9QString@@QBE_NPBD@Z 004162ec     Qt5Core:Qt5Core.dll
 0002:000002f0       __imp_?append@QListData@@QAEPAPAXABU1@@Z 004162f0     Qt5Core:Qt5Core.dll
 0002:000002f4       __imp_?insert@QListData@@QAEPAPAXH@Z 004162f4     Qt5Core:Qt5Core.dll
 0002:000002f8       __imp_?remove@QListData@@QAEXH@Z 004162f8     Qt5Core:Qt5Core.dll
 0002:000002fc       __imp_?isEmpty@QListData@@QBE_NXZ 004162fc     Qt5Core:Qt5Core.dll
 0002:00000300       __imp_?nextNode@QMapNodeBase@@QBEPBU1@XZ 00416300     Qt5Core:Qt5Core.dll
 0002:00000304       __imp_??1QVariant@@QAE@XZ  00416304     Qt5Core:Qt5Core.dll
 0002:00000308       __imp_??0QVariant@@QAE@_N@Z 00416308     Qt5Core:Qt5Core.dll
 0002:0000030c       __imp_?toInt@QVariant@@QBEHPA_N@Z 0041630c     Qt5Core:Qt5Core.dll
 0002:00000310       __imp_?toBool@QVariant@@QBE_NXZ 00416310     Qt5Core:Qt5Core.dll
 0002:00000314       __imp_?toDouble@QVariant@@QBENPA_N@Z 00416314     Qt5Core:Qt5Core.dll
 0002:00000318       __imp_?toString@QVariant@@QBE?AVQString@@XZ 00416318     Qt5Core:Qt5Core.dll
 0002:0000031c       \177Qt5Core_NULL_THUNK_DATA 0041631c     Qt5Core:Qt5Core.dll
 0002:00000320       __imp_?show@QWindow@@QAEXXZ 00416320     Qt5Gui:Qt5Gui.dll
 0002:00000324       __imp_??1QGuiApplication@@UAE@XZ 00416324     Qt5Gui:Qt5Gui.dll
 0002:00000328       __imp_?setFont@QGuiApplication@@SAXABVQFont@@@Z 00416328     Qt5Gui:Qt5Gui.dll
 0002:0000032c       __imp_?exec@QGuiApplication@@SAHXZ 0041632c     Qt5Gui:Qt5Gui.dll
 0002:00000330       __imp_??0QFont@@QAE@XZ     00416330     Qt5Gui:Qt5Gui.dll
 0002:00000334       __imp_??1QFont@@QAE@XZ     00416334     Qt5Gui:Qt5Gui.dll
 0002:00000338       __imp_?setFamily@QFont@@QAEXABVQString@@@Z 00416338     Qt5Gui:Qt5Gui.dll
 0002:0000033c       __imp_?staticMetaObject@QDoubleValidator@@2UQMetaObject@@B 0041633c     Qt5Gui:Qt5Gui.dll
 0002:00000340       __imp_?setRange@QDoubleValidator@@UAEXNNH@Z 00416340     Qt5Gui:Qt5Gui.dll
 0002:00000344       __imp_?qt_metacast@QDoubleValidator@@UAEPAXPBD@Z 00416344     Qt5Gui:Qt5Gui.dll
 0002:00000348       __imp_?qt_metacall@QDoubleValidator@@UAEHW4Call@QMetaObject@@HPAPAX@Z 00416348     Qt5Gui:Qt5Gui.dll
 0002:0000034c       __imp_?metaObject@QDoubleValidator@@UBEPBUQMetaObject@@XZ 0041634c     Qt5Gui:Qt5Gui.dll
 0002:00000350       __imp_?fixup@QValidator@@UBEXAAVQString@@@Z 00416350     Qt5Gui:Qt5Gui.dll
 0002:00000354       __imp_?physicalSize@QScreen@@QBE?AVQSizeF@@XZ 00416354     Qt5Gui:Qt5Gui.dll
 0002:00000358       __imp_?addApplicationFont@QFontDatabase@@SAHABVQString@@@Z 00416358     Qt5Gui:Qt5Gui.dll
 0002:0000035c       __imp_??1QDoubleValidator@@UAE@XZ 0041635c     Qt5Gui:Qt5Gui.dll
 0002:00000360       __imp_??0QDoubleValidator@@QAE@PAVQObject@@@Z 00416360     Qt5Gui:Qt5Gui.dll
 0002:00000364       __imp_?locale@QValidator@@QBE?AVQLocale@@XZ 00416364     Qt5Gui:Qt5Gui.dll
 0002:00000368       __imp_?setMinimumSize@QWindow@@QAEXABVQSize@@@Z 00416368     Qt5Gui:Qt5Gui.dll
 0002:0000036c       __imp_?screen@QWindow@@QBEPAVQScreen@@XZ 0041636c     Qt5Gui:Qt5Gui.dll
 0002:00000370       __imp_??0QGuiApplication@@QAE@AAHPAPADH@Z 00416370     Qt5Gui:Qt5Gui.dll
 0002:00000374       \177Qt5Gui_NULL_THUNK_DATA 00416374     Qt5Gui:Qt5Gui.dll
 0002:00000378       __imp_?qmlregister@QQmlPrivate@@YAHW4RegistrationType@1@PAX@Z 00416378     Qt5Qml:Qt5Qml.dll
 0002:0000037c       __imp_?quit@QQmlEngine@@QAEXXZ 0041637c     Qt5Qml:Qt5Qml.dll
 0002:00000380       __imp_?staticMetaObject@QQmlEngine@@2UQMetaObject@@B 00416380     Qt5Qml:Qt5Qml.dll
 0002:00000384       __imp_?setContextProperty@QQmlContext@@QAEXABVQString@@PAVQObject@@@Z 00416384     Qt5Qml:Qt5Qml.dll
 0002:00000388       __imp_?setContextProperty@QQmlContext@@QAEXABVQString@@ABVQVariant@@@Z 00416388     Qt5Qml:Qt5Qml.dll
 0002:0000038c       __imp_?qdeclarativeelement_destructor@QQmlPrivate@@YAXPAVQObject@@@Z 0041638c     Qt5Qml:Qt5Qml.dll
 0002:00000390       \177Qt5Qml_NULL_THUNK_DATA 00416390     Qt5Qml:Qt5Qml.dll
 0002:00000394       __imp_?setSource@QQuickView@@QAEXABVQUrl@@@Z 00416394     Qt5Quick:Qt5Quick.dll
 0002:00000398       __imp_?setResizeMode@QQuickView@@QAEXW4ResizeMode@1@@Z 00416398     Qt5Quick:Qt5Quick.dll
 0002:0000039c       __imp_?rootContext@QQuickView@@QBEPAVQQmlContext@@XZ 0041639c     Qt5Quick:Qt5Quick.dll
 0002:000003a0       __imp_?engine@QQuickView@@QBEPAVQQmlEngine@@XZ 004163a0     Qt5Quick:Qt5Quick.dll
 0002:000003a4       __imp_??1QQuickView@@UAE@XZ 004163a4     Qt5Quick:Qt5Quick.dll
 0002:000003a8       __imp_??0QQuickView@@QAE@PAVQWindow@@@Z 004163a8     Qt5Quick:Qt5Quick.dll
 0002:000003ac       \177Qt5Quick_NULL_THUNK_DATA 004163ac     Qt5Quick:Qt5Quick.dll
 0002:000003b0       __imp__CommandLineToArgvW@8 004163b0     shell32:SHELL32.dll
 0002:000003b4       \177SHELL32_NULL_THUNK_DATA 004163b4     shell32:SHELL32.dll
 0002:000003b8       __imp___except_handler4_common 004163b8     vcruntime:VCRUNTIME140.dll
 0002:000003bc       __imp__memset              004163bc     vcruntime:VCRUNTIME140.dll
 0002:000003c0       __imp____std_exception_destroy 004163c0     vcruntime:VCRUNTIME140.dll
 0002:000003c4       __imp____std_terminate     004163c4     vcruntime:VCRUNTIME140.dll
 0002:000003c8       __imp____CxxFrameHandler3  004163c8     vcruntime:VCRUNTIME140.dll
 0002:000003cc       __imp__memcpy              004163cc     vcruntime:VCRUNTIME140.dll
 0002:000003d0       __imp___CxxThrowException@8 004163d0     vcruntime:VCRUNTIME140.dll
 0002:000003d4       __imp____RTDynamicCast     004163d4     vcruntime:VCRUNTIME140.dll
 0002:000003d8       __imp____vcrt_InitializeCriticalSectionEx 004163d8     vcruntime:VCRUNTIME140.dll
 0002:000003dc       __imp____std_exception_copy 004163dc     vcruntime:VCRUNTIME140.dll
 0002:000003e0       \177VCRUNTIME140_NULL_THUNK_DATA 004163e0     vcruntime:VCRUNTIME140.dll
 0002:000003e4       __imp_?runTask@WorkflowController@@QAEXABVQJsonObject@@@Z 004163e4     WorkflowProtocol:WorkflowProtocol.dll
 0002:000003e8       __imp_?runTunning@WorkflowController@@QAEXABVQJsonObject@@@Z 004163e8     WorkflowProtocol:WorkflowProtocol.dll
 0002:000003ec       __imp_?stopCurrentTask@WorkflowController@@QAEXXZ 004163ec     WorkflowProtocol:WorkflowProtocol.dll
 0002:000003f0       __imp_?sethost@WorkflowController@@QAEXABVQString@@G@Z 004163f0     WorkflowProtocol:WorkflowProtocol.dll
 0002:000003f4       __imp_??1WorkflowController@@UAE@XZ 004163f4     WorkflowProtocol:WorkflowProtocol.dll
 0002:000003f8       __imp_?init@WorkflowController@@QAEXABVQString@@@Z 004163f8     WorkflowProtocol:WorkflowProtocol.dll
 0002:000003fc       __imp_??0WorkflowController@@QAE@PAVQObject@@@Z 004163fc     WorkflowProtocol:WorkflowProtocol.dll
 0002:00000400       \177WorkflowProtocol_NULL_THUNK_DATA 00416400     WorkflowProtocol:WorkflowProtocol.dll
 0002:00000404       __imp___callnewh           00416404     ucrt:api-ms-win-crt-heap-l1-1-0.dll
 0002:00000408       __imp__malloc              00416408     ucrt:api-ms-win-crt-heap-l1-1-0.dll
 0002:0000040c       __imp___set_new_mode       0041640c     ucrt:api-ms-win-crt-heap-l1-1-0.dll
 0002:00000410       __imp__free                00416410     ucrt:api-ms-win-crt-heap-l1-1-0.dll
 0002:00000414       \177api-ms-win-crt-heap-l1-1-0_NULL_THUNK_DATA 00416414     ucrt:api-ms-win-crt-heap-l1-1-0.dll
 0002:00000418       __imp___configthreadlocale 00416418     ucrt:api-ms-win-crt-locale-l1-1-0.dll
 0002:0000041c       \177api-ms-win-crt-locale-l1-1-0_NULL_THUNK_DATA 0041641c     ucrt:api-ms-win-crt-locale-l1-1-0.dll
 0002:00000420       __imp____setusermatherr    00416420     ucrt:api-ms-win-crt-math-l1-1-0.dll
 0002:00000424       \177api-ms-win-crt-math-l1-1-0_NULL_THUNK_DATA 00416424     ucrt:api-ms-win-crt-math-l1-1-0.dll
 0002:00000428       __imp___cexit              00416428     ucrt:api-ms-win-crt-runtime-l1-1-0.dll
 0002:0000042c       __imp___seh_filter_exe     0041642c     ucrt:api-ms-win-crt-runtime-l1-1-0.dll
 0002:00000430       __imp___set_app_type       00416430     ucrt:api-ms-win-crt-runtime-l1-1-0.dll
 0002:00000434       __imp___crt_atexit         00416434     ucrt:api-ms-win-crt-runtime-l1-1-0.dll
 0002:00000438       __imp__abort               00416438     ucrt:api-ms-win-crt-runtime-l1-1-0.dll
 0002:0000043c       __imp___initterm_e         0041643c     ucrt:api-ms-win-crt-runtime-l1-1-0.dll
 0002:00000440       __imp__exit                00416440     ucrt:api-ms-win-crt-runtime-l1-1-0.dll
 0002:00000444       __imp___exit               00416444     ucrt:api-ms-win-crt-runtime-l1-1-0.dll
 0002:00000448       __imp___register_onexit_function 00416448     ucrt:api-ms-win-crt-runtime-l1-1-0.dll
 0002:0000044c       __imp___c_exit             0041644c     ucrt:api-ms-win-crt-runtime-l1-1-0.dll
 0002:00000450       __imp___register_thread_local_exe_atexit_callback 00416450     ucrt:api-ms-win-crt-runtime-l1-1-0.dll
 0002:00000454       __imp___initialize_onexit_table 00416454     ucrt:api-ms-win-crt-runtime-l1-1-0.dll
 0002:00000458       __imp___initialize_narrow_environment 00416458     ucrt:api-ms-win-crt-runtime-l1-1-0.dll
 0002:0000045c       __imp___configure_narrow_argv 0041645c     ucrt:api-ms-win-crt-runtime-l1-1-0.dll
 0002:00000460       __imp__terminate           00416460     ucrt:api-ms-win-crt-runtime-l1-1-0.dll
 0002:00000464       __imp___controlfp_s        00416464     ucrt:api-ms-win-crt-runtime-l1-1-0.dll
 0002:00000468       __imp___initterm           00416468     ucrt:api-ms-win-crt-runtime-l1-1-0.dll
 0002:0000046c       __imp___get_narrow_winmain_command_line 0041646c     ucrt:api-ms-win-crt-runtime-l1-1-0.dll
 0002:00000470       \177api-ms-win-crt-runtime-l1-1-0_NULL_THUNK_DATA 00416470     ucrt:api-ms-win-crt-runtime-l1-1-0.dll
 0002:00000474       __imp___set_fmode          00416474     ucrt:api-ms-win-crt-stdio-l1-1-0.dll
 0002:00000478       __imp____p__commode        00416478     ucrt:api-ms-win-crt-stdio-l1-1-0.dll
 0002:0000047c       \177api-ms-win-crt-stdio-l1-1-0_NULL_THUNK_DATA 0041647c     ucrt:api-ms-win-crt-stdio-l1-1-0.dll
 0002:00000480       __imp__MiniDumpWriteDump@28 00416480     DbgHelp:dbghelp.dll
 0002:00000484       \177dbghelp_NULL_THUNK_DATA 00416484     DbgHelp:dbghelp.dll
 0002:00000488       ___guard_check_icall_fptr  00416488     MSVCRT:guard_support.obj
 0002:0000048c       ___xc_a                    0041648c     MSVCRT:initializers.obj
 0002:000004bc       ___xc_z                    004164bc     MSVCRT:initializers.obj
 0002:000004c0       ___xi_a                    004164c0     MSVCRT:initializers.obj
 0002:000004d0       ___xi_z                    004164d0     MSVCRT:initializers.obj
 0002:000004d4       ___xl_a                    004164d4     MSVCRT:tlssup.obj
 0002:000004d8       ___xl_z                    004164d8     MSVCRT:tlssup.obj
 0002:000004dc       ___xp_a                    004164dc     MSVCRT:initializers.obj
 0002:000004e0       ___xp_z                    004164e0     MSVCRT:initializers.obj
 0002:000004e4       ___xt_a                    004164e4     MSVCRT:initializers.obj
 0002:000004e8       ___xt_z                    004164e8     MSVCRT:initializers.obj
 0002:000004f4       ??_7OperationParamObject@@6B@ 004164f4     main.obj
 0002:00000520       ??_C@_01JOAMLHOP@?9?$AA@   00416520     main.obj
 0002:00000524       ??_C@_1CE@ELGCFHOO@?$AAM?$AAi?$AAn?$AAd?$AAG?$AAo?$AAP?$AAr?$AAo?$AAj?$AAe?$AAc?$AAt?$AA?4?$AAd?$AAm?$AAp?$AA?$AA@ 00416524     main.obj
 0002:00000548       ??_C@_09BHMHBPLA@Debug?3?5?$CF1?$AA@ 00416548     main.obj
 0002:00000554       ??_C@_0M@IJCKPDBC@Warning?3?5?$CF1?$AA@ 00416554     main.obj
 0002:00000560       ??_C@_0N@KDKNECFL@Critical?3?5?$CF1?$AA@ 00416560     main.obj
 0002:00000570       ??_C@_09NFMOODD@Fatal?3?5?$CF1?$AA@ 00416570     main.obj
 0002:0000057c       ??_C@_0BH@BFFDAMFM@?4?1customMessageLog?4txt?$AA@ 0041657c     main.obj
 0002:00000594       ??_C@_09OBFMDEK@?4?1config?1?$AA@ 00416594     main.obj
 0002:000005a0       ??_C@_0BC@DCBAKBKG@qtvirtualkeyboard?$AA@ 004165a0     main.obj
 0002:000005b4       ??_C@_0N@EPCEFELF@QT_IM_MODULE?$AA@ 004165b4     main.obj
 0002:000005c4       ??_C@_06FFAPGJBP@Mindgo?$AA@ 004165c4     main.obj
 0002:000005cc       ??_C@_05CDNCCFAE@cn?4qm?$AA@ 004165cc     main.obj
 0002:000005d4       ??_C@_0BJ@PPJBDKBL@TextFieldDoubleValidator?$AA@ 004165d4     main.obj
 0002:000005f0       ??_C@_06POMJKEPM@Common?$AA@ 004165f0     main.obj
 0002:000005f8       ??_C@_0BF@MDNPPLPL@OperationParamObject?$AA@ 004165f8     main.obj
 0002:00000610       ??_C@_0BH@KAEEMKBC@OperationParamSelector?$AA@ 00416610     main.obj
 0002:00000628       ??_C@_0N@CJJLBEJF@PlanSelector?$AA@ 00416628     main.obj
 0002:00000638       ??_C@_0BC@EJFMECEB@StatusViewWatcher?$AA@ 00416638     main.obj
 0002:0000064c       ??_C@_0P@DNBEODGJ@PlanController?$AA@ 0041664c     main.obj
 0002:0000065c       ??_C@_0L@LGGNKCBK@FZHTJW?4TTF?$AA@ 0041665c     main.obj
 0002:00000668       ??_C@_1O@HOPADHDO@e?$LJkc?$JO?QOS?$HL?$IAOS?$AA?$AA@ 00416668     main.obj
 0002:00000678       ??_C@_0BF@BIMDPFDG@OperationParams?4json?$AA@ 00416678     main.obj
 0002:00000690       ??_C@_0BA@KONLPFIC@UserConfig?4json?$AA@ 00416690     main.obj
 0002:000006a0       ??_C@_0O@OIFOOOJE@Protocol?4json?$AA@ 004166a0     main.obj
 0002:000006b0       ??_C@_0O@BBFLGDHH@qrc?3?1main?4qml?$AA@ 004166b0     main.obj
 0002:000006c0       ??_C@_0BC@HDKLEFKN@QQmlListProperty?$DM?$AA@ 004166c0     main.obj
 0002:000006d8       ??_7?$QQmlElement@VTextFieldDoubleValidator@@@QQmlPrivate@@6B@ 004166d8     main.obj
 0002:00000714       ??_7?$QQmlElement@VOperationParamObject@@@QQmlPrivate@@6B@ 00416714     main.obj
 0002:00000744       ??_7?$QQmlElement@VOperationParamSelector@@@QQmlPrivate@@6B@ 00416744     main.obj
 0002:00000774       ??_7?$QQmlElement@VPlanSelector@@@QQmlPrivate@@6B@ 00416774     main.obj
 0002:000007a4       ??_7?$QQmlElement@VStatusViewWatcher@@@QQmlPrivate@@6B@ 004167a4     main.obj
 0002:000007d4       ??_7?$QQmlElement@VPlanController@@@QQmlPrivate@@6B@ 004167d4     main.obj
 0002:00000800       __xmm@ffffffffffffffffffffffff00000000 00416800     main.obj
 0002:00000810       ??_C@_0P@FAFDOLML@OperationModel?$AA@ 00416810     workmodels.obj
 0002:00000820       ??_C@_0L@GBCCCODA@ParamModel?$AA@ 00416820     workmodels.obj
 0002:00000830       ??_7OperationParamSelector@@6B@ 00416830     workmodels.obj
 0002:00000860       ??_7PlanSelector@@6B@      00416860     workmodels.obj
 0002:00000890       ??_7PlanController@@6B@    00416890     workmodels.obj
 0002:000008c0       ??_7StatusViewWatcher@@6B@ 004168c0     workmodels.obj
 0002:000008ec       ??_C@_0BA@ONCGMDLN@NormalOperation?$AA@ 004168ec     workmodels.obj
 0002:000008fc       ??_C@_0P@FJOBGDIA@LogicalControl?$AA@ 004168fc     workmodels.obj
 0002:0000090c       ??_C@_04DDKJGDCM@bool?$AA@ 0041690c     configfilehandler.obj
 0002:00000914       ??_C@_05KNFBNCOH@float?$AA@ 00416914     configfilehandler.obj
 0002:0000091c       ??_C@_07DLHCIBDH@default?$AA@ 0041691c     configfilehandler.obj
 0002:00000928       ??_7configFileHandler@@6B@ 00416928     configfilehandler.obj
 0002:00000954       ??_C@_0BL@HDECHFNK@Couldn?8t?5open?5config?5file?4?$AA@ 00416954     configfilehandler.obj
 0002:00000970       ??_C@_04GPMDFGEJ@type?$AA@ 00416970     configfilehandler.obj
 0002:00000978       ??_C@_04DBJPMPLO@enum?$AA@ 00416978     configfilehandler.obj
 0002:00000980       ??_C@_07GCCODDFC@display?$AA@ 00416980     configfilehandler.obj
 0002:00000988       ??_C@_09EJEMLHI@valueEnum?$AA@ 00416988     configfilehandler.obj
 0002:00000994       ??_C@_06DOPOGBGP@switch?$AA@ 00416994     configfilehandler.obj
 0002:0000099c       ??_C@_04NPEDKLDA@unit?$AA@ 0041699c     configfilehandler.obj
 0002:000009a4       ??_C@_0M@HHONEJAF@bottomValue?$AA@ 004169a4     configfilehandler.obj
 0002:000009b0       ??_C@_08BENPNDEB@topValue?$AA@ 004169b0     configfilehandler.obj
 0002:000009bc       ??_C@_06JJLAMBGK@target?$AA@ 004169bc     configfilehandler.obj
 0002:000009c4       ??_C@_02MFEOMNPG@IP?$AA@   004169c4     configfilehandler.obj
 0002:000009c8       ??_C@_04LPGMAPLE@port?$AA@ 004169c8     configfilehandler.obj
 0002:000009d0       ??_C@_0P@HBMDFJEL@maxReceiveTime?$AA@ 004169d0     configfilehandler.obj
 0002:000009e0       ??_C@_09GNDDCBKJ@workPlace?$AA@ 004169e0     configfilehandler.obj
 0002:000009ec       ??_C@_04DJEEHKI@plan?$AA@  004169ec     configfilehandler.obj
 0002:000009f4       ??_C@_06JMGHNNK@params?$AA@ 004169f4     configfilehandler.obj
 0002:000009fc       ??_C@_09BOOHIMDB@operation?$AA@ 004169fc     configfilehandler.obj
 0002:00000a08       ??_C@_07LKHFMGFB@integer?$AA@ 00416a08     configfilehandler.obj
 0002:00000a10       ??_C@_06ICGJLFIM@string?$AA@ 00416a10     configfilehandler.obj
 0002:00000a18       ??_C@_0BB@BFELOPJA@configFile?5error?$AA@ 00416a18     configfilehandler.obj
 0002:00000a2c       ??_C@_0P@BDPDOPPG@sequenceNumber?$AA@ 00416a2c     configfilehandler.obj
 0002:00000a3c       ??_C@_09EOLHCJIE@workSpace?$AA@ 00416a3c     configfilehandler.obj
 0002:00000a48       ??_C@_07EJMBNAEG@license?$AA@ 00416a48     configfilehandler.obj
 0002:00000a54       ??_7TargetMachineObject@@6B@ 00416a54     environmentvariant.obj
 0002:00000a84       ??_7EnvironmentVariant@@6B@ 00416a84     environmentvariant.obj
 0002:00000ab0       ??_C@_0O@EPGPLFOI@OperationEnum?$AA@ 00416ab0     environmentvariant.obj
 0002:00000ac0       ??_C@_0BD@DLJJAAOH@LogicalControlEnum?$AA@ 00416ac0     environmentvariant.obj
 0002:00000ad4       ??_C@_0P@NBCEFNBO@logicalControl?$AA@ 00416ad4     environmentvariant.obj
 0002:00000ae4       ??_C@_0BH@PKBKIKLO@Operation?5Display?5Name?$AA@ 00416ae4     environmentvariant.obj
 0002:00000afc       ??_C@_0BA@EMGBOHG@IPAddressObject?$AA@ 00416afc     environmentvariant.obj
 0002:00000b0c       ??_C@_0BH@POMNOBFJ@isAdministratorAccount?$AA@ 00416b0c     environmentvariant.obj
 0002:00000b24       ??_C@_05MBDCODDP@Group?$AA@ 00416b24     environmentvariant.obj
 0002:00000b2c       ??_C@_09DOCDJBIG@GroupName?$AA@ 00416b2c     environmentvariant.obj
 0002:00000b38       ??_C@_01LBDDMOBJ@?$FN?$AA@ 00416b38     environmentvariant.obj
 0002:00000b3c       ??_C@_01OHGJGJJP@?$FL?$AA@ 00416b3c     environmentvariant.obj
 0002:00000b40       ??_C@_02KHOJGJKF@?4?5?$AA@ 00416b40     environmentvariant.obj
 0002:00000b44       ??_C@_04KLCPKPBE@Loop?$AA@ 00416b44     environmentvariant.obj
 0002:00000b4c       ??_C@_07CBLODBBN@EndLoop?$AA@ 00416b4c     environmentvariant.obj
 0002:00000b54       ??_C@_08IBBDGPOF@sequence?$AA@ 00416b54     environmentvariant.obj
 0002:00000b60       ??_C@_0L@FFNCMNID@operations?$AA@ 00416b60     environmentvariant.obj
 0002:00000b6c       ??_C@_0L@KCLLKANI@startIndex?$AA@ 00416b6c     environmentvariant.obj
 0002:00000b78       ??_C@_06HEJKKHEK@config?$AA@ 00416b78     environmentvariant.obj
 0002:00000b80       __real@3fe0000000000000    00416b80     environmentvariant.obj
 0002:00000b88       __real@3ff0000000000000    00416b88     environmentvariant.obj
 0002:00000b90       __real@4024000000000000    00416b90     environmentvariant.obj
 0002:0004cafc       ??_C@_0CL@GGBGAILI@QtMetaTypePrivate?3?3QSequentialIt@ 00462afc     moc_workmodels.obj
 0002:0004cb28       ??_C@_0BA@CGOONFIM@QList?$DMQObject?$CK?$DO?$AA@ 00462b28     moc_workmodels.obj
 0002:0004cb38       ??_C@_0BD@GAKEODHA@OperationParamData?$AA@ 00462b38     moc_workmodels.obj
 0002:0004cb4c       ??_C@_0BC@DJJLAPLC@MachineConfigData?$AA@ 00462b4c     moc_workmodels.obj
 0002:0004cb60       ??_C@_05EPCGOCDE@QList?$AA@ 00462b60     moc_workmodels.obj
 0002:0004cb68       __real@3f1a36e2eb1c432d    00462b68     moc_workmodels.obj
 0002:0004cb70       __xmm@7fffffffffffffff7fffffffffffffff 00462b70     moc_workmodels.obj
 0002:0004cc98       ??_7type_info@@6B@         00462c98     MSVCRT:std_type_info_static.obj
 0002:0004cc9c       ??_C@_1BK@MGMFAEKH@?$AAk?$AAe?$AAr?$AAn?$AAe?$AAl?$AA3?$AA2?$AA?4?$AAd?$AAl?$AAl?$AA?$AA@ 00462c9c     MSVCRT:thread_safe_statics.obj
 0002:0004ccb8       ??_C@_0BM@HLJJNPAH@InitializeConditionVariable?$AA@ 00462cb8     MSVCRT:thread_safe_statics.obj
 0002:0004ccd4       ??_C@_0BJ@JEBJOJFJ@SleepConditionVariableCS?$AA@ 00462cd4     MSVCRT:thread_safe_statics.obj
 0002:0004ccf0       ??_C@_0BJ@PGPPEPCC@WakeAllConditionVariable?$AA@ 00462cf0     MSVCRT:thread_safe_statics.obj
 0002:0004cd10       ??_7exception@std@@6B@     00462d10     MSVCRT:throw_bad_alloc.obj
 0002:0004cd18       ??_C@_0BC@EOODALEL@Unknown?5exception?$AA@ 00462d18     MSVCRT:throw_bad_alloc.obj
 0002:0004cd30       ??_7bad_alloc@std@@6B@     00462d30     MSVCRT:throw_bad_alloc.obj
 0002:0004cd38       ??_C@_0P@GHFPNOJB@bad?5allocation?$AA@ 00462d38     MSVCRT:throw_bad_alloc.obj
 0002:0004cd4c       ??_7bad_array_new_length@std@@6B@ 00462d4c     MSVCRT:throw_bad_alloc.obj
 0002:0004cd54       ??_C@_0BF@KINCDENJ@bad?5array?5new?5length?$AA@ 00462d54     MSVCRT:throw_bad_alloc.obj
 0002:0004cdd8       __load_config_used         00462dd8     MSVCRT:loadcfg.obj
 0002:0004ce34       __tls_used                 00462e34     MSVCRT:tlssup.obj
 0002:0004ce4c       ??_R4OperationParamObject@@6B@ 00462e4c     main.obj
 0002:0004ce60       ??_R3OperationParamObject@@8 00462e60     main.obj
 0002:0004ce70       ??_R2OperationParamObject@@8 00462e70     main.obj
 0002:0004ce80       ??_R1A@?0A@EA@OperationParamObject@@8 00462e80     main.obj
 0002:0004ce9c       ??_R1A@?0A@EA@QObject@@8   00462e9c     main.obj
 0002:0004ceb8       ??_R3QObject@@8            00462eb8     main.obj
 0002:0004cec8       ??_R2QObject@@8            00462ec8     main.obj
 0002:0004ced0       ??_R17?0A@EA@OperationParamData@@8 00462ed0     main.obj
 0002:0004ceec       ??_R3OperationParamData@@8 00462eec     main.obj
 0002:0004cefc       ??_R2OperationParamData@@8 00462efc     main.obj
 0002:0004cf04       ??_R1A@?0A@EA@OperationParamData@@8 00462f04     main.obj
 0002:0004cf20       ??_R3TextFieldDoubleValidator@@8 00462f20     main.obj
 0002:0004cf30       ??_R2TextFieldDoubleValidator@@8 00462f30     main.obj
 0002:0004cf44       ??_R1A@?0A@EA@TextFieldDoubleValidator@@8 00462f44     main.obj
 0002:0004cf60       ??_R1A@?0A@EA@QDoubleValidator@@8 00462f60     main.obj
 0002:0004cf7c       ??_R3QDoubleValidator@@8   00462f7c     main.obj
 0002:0004cf8c       ??_R2QDoubleValidator@@8   00462f8c     main.obj
 0002:0004cf9c       ??_R1A@?0A@EA@QValidator@@8 00462f9c     main.obj
 0002:0004cfb8       ??_R3QValidator@@8         00462fb8     main.obj
 0002:0004cfc8       ??_R2QValidator@@8         00462fc8     main.obj
 0002:0004cfd4       ??_R4?$QQmlElement@VTextFieldDoubleValidator@@@QQmlPrivate@@6B@ 00462fd4     main.obj
 0002:0004cfe8       ??_R3?$QQmlElement@VTextFieldDoubleValidator@@@QQmlPrivate@@8 00462fe8     main.obj
 0002:0004cff8       ??_R2?$QQmlElement@VTextFieldDoubleValidator@@@QQmlPrivate@@8 00462ff8     main.obj
 0002:0004d010       ??_R1A@?0A@EA@?$QQmlElement@VTextFieldDoubleValidator@@@QQmlPrivate@@8 00463010     main.obj
 0002:0004d02c       ??_R4?$QQmlElement@VOperationParamObject@@@QQmlPrivate@@6B@ 0046302c     main.obj
 0002:0004d040       ??_R3?$QQmlElement@VOperationParamObject@@@QQmlPrivate@@8 00463040     main.obj
 0002:0004d050       ??_R2?$QQmlElement@VOperationParamObject@@@QQmlPrivate@@8 00463050     main.obj
 0002:0004d064       ??_R1A@?0A@EA@?$QQmlElement@VOperationParamObject@@@QQmlPrivate@@8 00463064     main.obj
 0002:0004d080       ??_R4?$QQmlElement@VOperationParamSelector@@@QQmlPrivate@@6B@ 00463080     main.obj
 0002:0004d094       ??_R3?$QQmlElement@VOperationParamSelector@@@QQmlPrivate@@8 00463094     main.obj
 0002:0004d0a4       ??_R2?$QQmlElement@VOperationParamSelector@@@QQmlPrivate@@8 004630a4     main.obj
 0002:0004d0b4       ??_R1A@?0A@EA@?$QQmlElement@VOperationParamSelector@@@QQmlPrivate@@8 004630b4     main.obj
 0002:0004d0d0       ??_R1A@?0A@EA@OperationParamSelector@@8 004630d0     main.obj
 0002:0004d0ec       ??_R3OperationParamSelector@@8 004630ec     main.obj
 0002:0004d0fc       ??_R2OperationParamSelector@@8 004630fc     main.obj
 0002:0004d108       ??_R4?$QQmlElement@VPlanSelector@@@QQmlPrivate@@6B@ 00463108     main.obj
 0002:0004d11c       ??_R3?$QQmlElement@VPlanSelector@@@QQmlPrivate@@8 0046311c     main.obj
 0002:0004d12c       ??_R2?$QQmlElement@VPlanSelector@@@QQmlPrivate@@8 0046312c     main.obj
 0002:0004d13c       ??_R1A@?0A@EA@?$QQmlElement@VPlanSelector@@@QQmlPrivate@@8 0046313c     main.obj
 0002:0004d158       ??_R1A@?0A@EA@PlanSelector@@8 00463158     main.obj
 0002:0004d174       ??_R3PlanSelector@@8       00463174     main.obj
 0002:0004d184       ??_R2PlanSelector@@8       00463184     main.obj
 0002:0004d190       ??_R4?$QQmlElement@VStatusViewWatcher@@@QQmlPrivate@@6B@ 00463190     main.obj
 0002:0004d1a4       ??_R3?$QQmlElement@VStatusViewWatcher@@@QQmlPrivate@@8 004631a4     main.obj
 0002:0004d1b4       ??_R2?$QQmlElement@VStatusViewWatcher@@@QQmlPrivate@@8 004631b4     main.obj
 0002:0004d1c4       ??_R1A@?0A@EA@?$QQmlElement@VStatusViewWatcher@@@QQmlPrivate@@8 004631c4     main.obj
 0002:0004d1e0       ??_R1A@?0A@EA@StatusViewWatcher@@8 004631e0     main.obj
 0002:0004d1fc       ??_R3StatusViewWatcher@@8  004631fc     main.obj
 0002:0004d20c       ??_R2StatusViewWatcher@@8  0046320c     main.obj
 0002:0004d218       ??_R4?$QQmlElement@VPlanController@@@QQmlPrivate@@6B@ 00463218     main.obj
 0002:0004d22c       ??_R3?$QQmlElement@VPlanController@@@QQmlPrivate@@8 0046322c     main.obj
 0002:0004d23c       ??_R2?$QQmlElement@VPlanController@@@QQmlPrivate@@8 0046323c     main.obj
 0002:0004d24c       ??_R1A@?0A@EA@?$QQmlElement@VPlanController@@@QQmlPrivate@@8 0046324c     main.obj
 0002:0004d268       ??_R1A@?0A@EA@PlanController@@8 00463268     main.obj
 0002:0004d284       ??_R3PlanController@@8     00463284     main.obj
 0002:0004d294       ??_R2PlanController@@8     00463294     main.obj
 0002:0004d2a0       ??_R4OperationParamSelector@@6B@ 004632a0     workmodels.obj
 0002:0004d2b4       ??_R4PlanSelector@@6B@     004632b4     workmodels.obj
 0002:0004d2c8       ??_R4PlanController@@6B@   004632c8     workmodels.obj
 0002:0004d2dc       ??_R4StatusViewWatcher@@6B@ 004632dc     workmodels.obj
 0002:0004d2f0       ??_R4configFileHandler@@6B@ 004632f0     configfilehandler.obj
 0002:0004d304       ??_R3configFileHandler@@8  00463304     configfilehandler.obj
 0002:0004d314       ??_R2configFileHandler@@8  00463314     configfilehandler.obj
 0002:0004d320       ??_R1A@?0A@EA@configFileHandler@@8 00463320     configfilehandler.obj
 0002:0004d33c       ??_R4TargetMachineObject@@6B@ 0046333c     environmentvariant.obj
 0002:0004d350       ??_R3TargetMachineObject@@8 00463350     environmentvariant.obj
 0002:0004d360       ??_R2TargetMachineObject@@8 00463360     environmentvariant.obj
 0002:0004d370       ??_R1A@?0A@EA@TargetMachineObject@@8 00463370     environmentvariant.obj
 0002:0004d38c       ??_R17?0A@EA@MachineConfigData@@8 0046338c     environmentvariant.obj
 0002:0004d3a8       ??_R3MachineConfigData@@8  004633a8     environmentvariant.obj
 0002:0004d3b8       ??_R2MachineConfigData@@8  004633b8     environmentvariant.obj
 0002:0004d3c0       ??_R1A@?0A@EA@MachineConfigData@@8 004633c0     environmentvariant.obj
 0002:0004d3dc       ??_R4EnvironmentVariant@@6B@ 004633dc     environmentvariant.obj
 0002:0004d3f0       ??_R3EnvironmentVariant@@8 004633f0     environmentvariant.obj
 0002:0004d400       ??_R2EnvironmentVariant@@8 00463400     environmentvariant.obj
 0002:0004d40c       ??_R1A@?0A@EA@EnvironmentVariant@@8 0046340c     environmentvariant.obj
 0002:0004d428       ??_R4type_info@@6B@        00463428     MSVCRT:std_type_info_static.obj
 0002:0004d43c       ??_R3type_info@@8          0046343c     MSVCRT:std_type_info_static.obj
 0002:0004d44c       ??_R2type_info@@8          0046344c     MSVCRT:std_type_info_static.obj
 0002:0004d454       ??_R1A@?0A@EA@type_info@@8 00463454     MSVCRT:std_type_info_static.obj
 0002:0004d470       ??_R4exception@std@@6B@    00463470     MSVCRT:throw_bad_alloc.obj
 0002:0004d484       ??_R3exception@std@@8      00463484     MSVCRT:throw_bad_alloc.obj
 0002:0004d494       ??_R2exception@std@@8      00463494     MSVCRT:throw_bad_alloc.obj
 0002:0004d49c       ??_R1A@?0A@EA@exception@std@@8 0046349c     MSVCRT:throw_bad_alloc.obj
 0002:0004d4b8       ??_R4bad_alloc@std@@6B@    004634b8     MSVCRT:throw_bad_alloc.obj
 0002:0004d4cc       ??_R3bad_alloc@std@@8      004634cc     MSVCRT:throw_bad_alloc.obj
 0002:0004d4dc       ??_R2bad_alloc@std@@8      004634dc     MSVCRT:throw_bad_alloc.obj
 0002:0004d4e8       ??_R1A@?0A@EA@bad_alloc@std@@8 004634e8     MSVCRT:throw_bad_alloc.obj
 0002:0004d504       ??_R4bad_array_new_length@std@@6B@ 00463504     MSVCRT:throw_bad_alloc.obj
 0002:0004d518       ??_R3bad_array_new_length@std@@8 00463518     MSVCRT:throw_bad_alloc.obj
 0002:0004d528       ??_R2bad_array_new_length@std@@8 00463528     MSVCRT:throw_bad_alloc.obj
 0002:0004d538       ??_R1A@?0A@EA@bad_array_new_length@std@@8 00463538     MSVCRT:throw_bad_alloc.obj
 0002:0004d560       ___safe_se_handler_table   00463560     <linker-defined>
 0002:0004daec       ___rtc_iaa                 00463aec     MSVCRT:_initsect_.obj
 0002:0004daf0       ___rtc_izz                 00463af0     MSVCRT:_initsect_.obj
 0002:0004daf4       ___rtc_taa                 00463af4     MSVCRT:_initsect_.obj
 0002:0004daf8       ___rtc_tzz                 00463af8     MSVCRT:_initsect_.obj
 0002:00050364       __TI2?AVbad_alloc@std@@    00466364     MSVCRT:throw_bad_alloc.obj
 0002:00050374       __CTA2?AVbad_alloc@std@@   00466374     MSVCRT:throw_bad_alloc.obj
 0002:00050380       __CT??_R0?AVbad_alloc@std@@@8??0bad_alloc@std@@QAE@ABV01@@Z12 00466380     MSVCRT:throw_bad_alloc.obj
 0002:0005039c       __CT??_R0?AVexception@std@@@8??0exception@std@@QAE@ABV01@@Z12 0046639c     MSVCRT:throw_bad_alloc.obj
 0002:000503b8       __TI3?AVbad_array_new_length@std@@ 004663b8     MSVCRT:throw_bad_alloc.obj
 0002:000503c8       __CTA3?AVbad_array_new_length@std@@ 004663c8     MSVCRT:throw_bad_alloc.obj
 0002:000503d8       __CT??_R0?AVbad_array_new_length@std@@@8??0bad_array_new_length@std@@QAE@ABV01@@Z12 004663d8     MSVCRT:throw_bad_alloc.obj
 0002:000503f4       __IMPORT_DESCRIPTOR_WorkflowProtocol 004663f4     WorkflowProtocol:WorkflowProtocol.dll
 0002:00050408       __IMPORT_DESCRIPTOR_dbghelp 00466408     DbgHelp:dbghelp.dll
 0002:0005041c       __IMPORT_DESCRIPTOR_Qt5Quick 0046641c     Qt5Quick:Qt5Quick.dll
 0002:00050430       __IMPORT_DESCRIPTOR_Qt5Gui 00466430     Qt5Gui:Qt5Gui.dll
 0002:00050444       __IMPORT_DESCRIPTOR_Qt5Qml 00466444     Qt5Qml:Qt5Qml.dll
 0002:00050458       __IMPORT_DESCRIPTOR_Qt5Core 00466458     Qt5Core:Qt5Core.dll
 0002:0005046c       __IMPORT_DESCRIPTOR_KERNEL32 0046646c     kernel32:KERNEL32.dll
 0002:00050480       __IMPORT_DESCRIPTOR_VCRUNTIME140 00466480     vcruntime:VCRUNTIME140.dll
 0002:00050494       __IMPORT_DESCRIPTOR_api-ms-win-crt-heap-l1-1-0 00466494     ucrt:api-ms-win-crt-heap-l1-1-0.dll
 0002:000504a8       __IMPORT_DESCRIPTOR_api-ms-win-crt-runtime-l1-1-0 004664a8     ucrt:api-ms-win-crt-runtime-l1-1-0.dll
 0002:000504bc       __IMPORT_DESCRIPTOR_api-ms-win-crt-math-l1-1-0 004664bc     ucrt:api-ms-win-crt-math-l1-1-0.dll
 0002:000504d0       __IMPORT_DESCRIPTOR_api-ms-win-crt-stdio-l1-1-0 004664d0     ucrt:api-ms-win-crt-stdio-l1-1-0.dll
 0002:000504e4       __IMPORT_DESCRIPTOR_api-ms-win-crt-locale-l1-1-0 004664e4     ucrt:api-ms-win-crt-locale-l1-1-0.dll
 0002:000504f8       __IMPORT_DESCRIPTOR_SHELL32 004664f8     shell32:SHELL32.dll
 0002:0005050c       __NULL_IMPORT_DESCRIPTOR   0046650c     WorkflowProtocol:WorkflowProtocol.dll
 0003:00000000       ?operationModelName@@3PBDB 0046a000     workmodels.obj
 0003:00000004       ?paramModelName@@3PBDB     0046a004     workmodels.obj
 0003:00000008       ?staticMetaObject@OperationParamObject@@2UQMetaObject@@B 0046a008     moc_workmodels.obj
 0003:00000020       ?staticMetaObject@OperationParamSelector@@2UQMetaObject@@B 0046a020     moc_workmodels.obj
 0003:00000038       ?staticMetaObject@SingleOperationObject@@2UQMetaObject@@B 0046a038     moc_workmodels.obj
 0003:00000050       ?staticMetaObject@PlanSelector@@2UQMetaObject@@B 0046a050     moc_workmodels.obj
 0003:00000068       ?staticMetaObject@PlanController@@2UQMetaObject@@B 0046a068     moc_workmodels.obj
 0003:00000080       ?staticMetaObject@StatusViewWatcher@@2UQMetaObject@@B 0046a080     moc_workmodels.obj
 0003:00000098       ?staticMetaObject@TargetMachineObject@@2UQMetaObject@@B 0046a098     moc_workmodels.obj
 0003:000000b0       ?staticMetaObject@configFileHandler@@2UQMetaObject@@B 0046a0b0     moc_configfilehandler.obj
 0003:000000c8       ?staticMetaObject@EnvironmentVariant@@2UQMetaObject@@B 0046a0c8     moc_environmentvariant.obj
 0003:000000e0       ___security_cookie_complement 0046a0e0     MSVCRT:gs_cookie.obj
 0003:000000e4       ___security_cookie         0046a0e4     MSVCRT:gs_cookie.obj
 0003:000000e8       __fltused                  0046a0e8     MSVCRT:fltused.obj
 0003:000000ec       ___scrt_native_dllmain_reason 0046a0ec     MSVCRT:utility.obj
 0003:000000f0       __Init_global_epoch        0046a0f0     MSVCRT:thread_safe_statics.obj
 0003:000000f4       ___isa_enabled             0046a0f4     MSVCRT:_cpu_disp_.obj
 0003:00000100       ___scrt_default_matherr    0046a100     MSVCRT:matherr.obj
 0003:00000104       ___scrt_ucrt_dll_is_in_use 0046a104     MSVCRT:ucrt_stubs.obj
 0003:00000108       ??_R0?AVOperationParamObject@@@8 0046a108     main.obj
 0003:0000012c       ??_R0?AVQObject@@@8        0046a12c     main.obj
 0003:00000144       ??_R0?AVOperationParamData@@@8 0046a144     main.obj
 0003:00000168       ??_R0?AVTextFieldDoubleValidator@@@8 0046a168     main.obj
 0003:00000190       ??_R0?AVQDoubleValidator@@@8 0046a190     main.obj
 0003:000001b0       ??_R0?AVQValidator@@@8     0046a1b0     main.obj
 0003:000001d0       ??_R0?AV?$QQmlElement@VTextFieldDoubleValidator@@@QQmlPrivate@@@8 0046a1d0     main.obj
 0003:00000218       ??_R0?AV?$QQmlElement@VOperationParamObject@@@QQmlPrivate@@@8 0046a218     main.obj
 0003:00000258       ??_R0?AV?$QQmlElement@VOperationParamSelector@@@QQmlPrivate@@@8 0046a258     main.obj
 0003:0000029c       ??_R0?AVOperationParamSelector@@@8 0046a29c     main.obj
 0003:000002c4       ??_R0?AV?$QQmlElement@VPlanSelector@@@QQmlPrivate@@@8 0046a2c4     main.obj
 0003:000002fc       ??_R0?AVPlanSelector@@@8   0046a2fc     main.obj
 0003:00000318       ??_R0?AV?$QQmlElement@VStatusViewWatcher@@@QQmlPrivate@@@8 0046a318     main.obj
 0003:00000358       ??_R0?AVStatusViewWatcher@@@8 0046a358     main.obj
 0003:00000378       ??_R0?AV?$QQmlElement@VPlanController@@@QQmlPrivate@@@8 0046a378     main.obj
 0003:000003b4       ??_R0?AVPlanController@@@8 0046a3b4     main.obj
 0003:000003d4       ??_R0?AVQEvent@@@8         0046a3d4     workmodels.obj
 0003:000003ec       ??_R0?AVRunningStateChangeEvent@@@8 0046a3ec     workmodels.obj
 0003:00000414       ??_R0?AVStatusChangeEvent@@@8 0046a414     workmodels.obj
 0003:00000434       ??_R0?AVconfigFileHandler@@@8 0046a434     configfilehandler.obj
 0003:00000454       ??_R0?AVTargetMachineObject@@@8 0046a454     environmentvariant.obj
 0003:00000478       ??_R0?AVMachineConfigData@@@8 0046a478     environmentvariant.obj
 0003:00000498       ??_R0?AVEnvironmentVariant@@@8 0046a498     environmentvariant.obj
 0003:000004bc       ??_R0?AVtype_info@@@8      0046a4bc     MSVCRT:std_type_info_static.obj
 0003:000004d4       ??_R0?AVbad_alloc@std@@@8  0046a4d4     MSVCRT:throw_bad_alloc.obj
 0003:000004f0       ??_R0?AVexception@std@@@8  0046a4f0     MSVCRT:throw_bad_alloc.obj
 0003:0000050c       ??_R0?AVbad_array_new_length@std@@@8 0046a50c     MSVCRT:throw_bad_alloc.obj
 0003:00000538       ?metatype_id@?1??qt_metatype_id@?$QMetaTypeIdQObject@PAVPlanController@@$07@@SAHXZ@4V?$QBasicAtomicInteger@H@@A 0046a538     main.obj
 0003:0000053c       ?metatype_id@?1??qt_metatype_id@?$QMetaTypeIdQObject@PAVStatusViewWatcher@@$07@@SAHXZ@4V?$QBasicAtomicInteger@H@@A 0046a53c     main.obj
 0003:00000540       ?metatype_id@?1??qt_metatype_id@?$QMetaTypeIdQObject@PAVPlanSelector@@$07@@SAHXZ@4V?$QBasicAtomicInteger@H@@A 0046a540     main.obj
 0003:00000544       ?metatype_id@?1??qt_metatype_id@?$QMetaTypeIdQObject@PAVOperationParamSelector@@$07@@SAHXZ@4V?$QBasicAtomicInteger@H@@A 0046a544     main.obj
 0003:00000548       ?metatype_id@?1??qt_metatype_id@?$QMetaTypeIdQObject@PAVOperationParamObject@@$07@@SAHXZ@4V?$QBasicAtomicInteger@H@@A 0046a548     main.obj
 0003:0000054c       ?metatype_id@?1??qt_metatype_id@?$QMetaTypeIdQObject@PAVTextFieldDoubleValidator@@$07@@SAHXZ@4V?$QBasicAtomicInteger@H@@A 0046a54c     main.obj
 0003:00000550       ?m_instance@EnvironmentVariant@@0PAV1@A 0046a550     environmentvariant.obj
 0003:00000554       ?dummy@?A0x4c3cf720@@3Uinitializer@1@A 0046a554     qrc_qml.obj
 0003:00000558       ?metatype_id@?1??qt_metatype_id@?$QMetaTypeId@VQSequentialIterableImpl@QtMetaTypePrivate@@@@SAHXZ@4V?$QBasicAtomicInteger@H@@A 0046a558     moc_workmodels.obj
 0003:0000055c       ?metatype_id@?1??qt_metatype_id@?$QMetaTypeId@V?$QList@PAVQObject@@@@@@SAHXZ@4V?$QBasicAtomicInteger@H@@A 0046a55c     moc_workmodels.obj
 0003:00000560       ?f@?4??registerConverter@?$ValueTypeIsMetaType@V?$QList@PAVQObject@@@@$00@QtPrivate@@SA_NH@Z@4U?$ConverterFunctor@V?$QList@PAVQObject@@@@VQSequentialIterableImpl@QtMetaTypePrivate@@U?$QSequentialIterableConvertFunctor@V?$QList@PAVQObject@@@@@3@@3@B 0046a560     moc_workmodels.obj
 0003:00000568       ?$TSS0@?4??registerConverter@?$ValueTypeIsMetaType@V?$QList@PAVQObject@@@@$00@QtPrivate@@SA_NH@Z@4HA 0046a568     moc_workmodels.obj
 0003:0000056c       ?metatype_id@?1??qt_metatype_id@?$QMetaTypeId@V?$QList@H@@@@SAHXZ@4V?$QBasicAtomicInteger@H@@A 0046a56c     moc_workmodels.obj
 0003:00000570       ?f@?4??registerConverter@?$ValueTypeIsMetaType@V?$QList@H@@$00@QtPrivate@@SA_NH@Z@4U?$ConverterFunctor@V?$QList@H@@VQSequentialIterableImpl@QtMetaTypePrivate@@U?$QSequentialIterableConvertFunctor@V?$QList@H@@@3@@3@B 0046a570     moc_workmodels.obj
 0003:00000578       ?$TSS0@?4??registerConverter@?$ValueTypeIsMetaType@V?$QList@H@@$00@QtPrivate@@SA_NH@Z@4HA 0046a578     moc_workmodels.obj
 0003:0000057c       ___scrt_current_native_startup_state 0046a57c     MSVCRT:utility.obj
 0003:00000580       ___scrt_native_startup_lock 0046a580     MSVCRT:utility.obj
 0003:000005c8       __tls_index                0046a5c8     MSVCRT:tlssup.obj
 0003:000008ec       ___isa_available           0046a8ec     MSVCRT:_cpu_disp_.obj
 0003:000008f0       ___favor                   0046a8f0     MSVCRT:_cpu_disp_.obj
 0003:000008f4       ___scrt_debugger_hook_flag 0046a8f4     MSVCRT:utility_desktop.obj
 0003:000008f8       ?__type_info_root_node@@3U__type_info_node@@A 0046a8f8     MSVCRT:tncleanup.obj
 0003:00000900       ?_OptionsStorage@?1??__local_stdio_printf_options@@9@4_KA 0046a900     MSVCRT:default_local_stdio_options.obj
 0003:00000908       ?_OptionsStorage@?1??__local_stdio_scanf_options@@9@4_KA 0046a908     MSVCRT:default_local_stdio_options.obj
 0003:00000910       ___dyn_tls_dtor_callback   0046a910     <common>
 0003:00000914       ___dyn_tls_init_callback   0046a914     <common>
 0005:00000000       __tls_start                0046c000     MSVCRT:tlssup.obj
 0005:00000004       __Init_thread_epoch        0046c004     MSVCRT:thread_safe_statics.obj
 0005:00000008       __tls_end                  0046c008     MSVCRT:tlssup.obj

 entry point at        0001:0001166d

 Static symbols

 0000:fff8f000       .debug$S                   00400000     ucrt:api-ms-win-crt-stdio-l1-1-0.dll
 0000:fff8f000       .debug$S                   00400000     Qt5Core:Qt5Core.dll
 0000:fff8f000       .debug$S                   00400000     Qt5Core:Qt5Core.dll
 0000:fff8f000       .debug$S                   00400000     Qt5Core:Qt5Core.dll
 0000:fff8f000       .debug$S                   00400000     Qt5Core:Qt5Core.dll
 0000:fff8f000       .debug$S                   00400000     Qt5Core:Qt5Core.dll
 0000:fff8f000       .debug$S                   00400000     Qt5Core:Qt5Core.dll
 0000:fff8f000       .debug$S                   00400000     Qt5Core:Qt5Core.dll
 0000:fff8f000       .debug$S                   00400000     Qt5Core:Qt5Core.dll
 0000:fff8f000       .debug$S                   00400000     Qt5Core:Qt5Core.dll
 0000:fff8f000       .debug$S                   00400000     Qt5Core:Qt5Core.dll
 0000:fff8f000       .debug$S                   00400000     Qt5Core:Qt5Core.dll
 0000:fff8f000       .debug$S                   00400000     Qt5Core:Qt5Core.dll
 0000:fff8f000       .debug$S                   00400000     Qt5Core:Qt5Core.dll
 0000:fff8f000       .debug$S                   00400000     Qt5Core:Qt5Core.dll
 0000:fff8f000       .debug$S                   00400000     Qt5Core:Qt5Core.dll
 0000:fff8f000       .debug$S                   00400000     Qt5Core:Qt5Core.dll
 0000:fff8f000       .debug$S                   00400000     Qt5Core:Qt5Core.dll
 0000:fff8f000       .debug$S                   00400000     Qt5Core:Qt5Core.dll
 0000:fff8f000       .debug$S                   00400000     Qt5Core:Qt5Core.dll
 0000:fff8f000       .debug$S                   00400000     Qt5Core:Qt5Core.dll
 0000:fff8f000       .debug$S                   00400000     Qt5Core:Qt5Core.dll
 0000:fff8f000       .debug$S                   00400000     Qt5Core:Qt5Core.dll
 0000:fff8f000       .debug$S                   00400000     Qt5Core:Qt5Core.dll
 0000:fff8f000       .debug$S                   00400000     Qt5Core:Qt5Core.dll
 0000:fff8f000       .debug$S                   00400000     Qt5Core:Qt5Core.dll
 0000:fff8f000       .debug$S                   00400000     Qt5Core:Qt5Core.dll
 0000:fff8f000       .debug$S                   00400000     Qt5Core:Qt5Core.dll
 0000:fff8f000       .debug$S                   00400000     Qt5Core:Qt5Core.dll
 0000:fff8f000       .debug$S                   00400000     Qt5Core:Qt5Core.dll
 0000:fff8f000       .debug$S                   00400000     Qt5Core:Qt5Core.dll
 0000:fff8f000       .debug$S                   00400000     Qt5Core:Qt5Core.dll
 0000:fff8f000       .debug$S                   00400000     Qt5Core:Qt5Core.dll
 0000:fff8f000       .debug$S                   00400000     Qt5Core:Qt5Core.dll
 0000:fff8f000       .debug$S                   00400000     Qt5Core:Qt5Core.dll
 0000:fff8f000       .debug$S                   00400000     Qt5Core:Qt5Core.dll
 0000:fff8f000       .debug$S                   00400000     Qt5Core:Qt5Core.dll
 0000:fff8f000       .debug$S                   00400000     Qt5Core:Qt5Core.dll
 0000:fff8f000       .debug$S                   00400000     Qt5Core:Qt5Core.dll
 0000:fff8f000       .debug$S                   00400000     Qt5Core:Qt5Core.dll
 0000:fff8f000       .debug$S                   00400000     Qt5Core:Qt5Core.dll
 0000:fff8f000       .debug$S                   00400000     Qt5Core:Qt5Core.dll
 0000:fff8f000       .debug$S                   00400000     Qt5Core:Qt5Core.dll
 0000:fff8f000       .debug$S                   00400000     Qt5Core:Qt5Core.dll
 0000:fff8f000       .debug$S                   00400000     Qt5Core:Qt5Core.dll
 0000:fff8f000       .debug$S                   00400000     Qt5Core:Qt5Core.dll
 0000:fff8f000       .debug$S                   00400000     Qt5Core:Qt5Core.dll
 0000:fff8f000       .debug$S                   00400000     Qt5Core:Qt5Core.dll
 0000:fff8f000       .debug$S                   00400000     Qt5Core:Qt5Core.dll
 0000:fff8f000       .debug$S                   00400000     Qt5Core:Qt5Core.dll
 0000:fff8f000       .debug$S                   00400000     Qt5Core:Qt5Core.dll
 0000:fff8f000       .debug$S                   00400000     Qt5Core:Qt5Core.dll
 0000:fff8f000       .debug$S                   00400000     Qt5Core:Qt5Core.dll
 0000:fff8f000       .debug$S                   00400000     Qt5Core:Qt5Core.dll
 0000:fff8f000       .debug$S                   00400000     Qt5Core:Qt5Core.dll
 0000:fff8f000       .debug$S                   00400000     Qt5Core:Qt5Core.dll
 0000:fff8f000       .debug$S                   00400000     Qt5Core:Qt5Core.dll
 0000:fff8f000       .debug$S                   00400000     Qt5Core:Qt5Core.dll
 0000:fff8f000       .debug$S                   00400000     Qt5Core:Qt5Core.dll
 0000:fff8f000       .debug$S                   00400000     Qt5Core:Qt5Core.dll
 0000:fff8f000       .debug$S                   00400000     Qt5Core:Qt5Core.dll
 0000:fff8f000       .debug$S                   00400000     Qt5Core:Qt5Core.dll
 0000:fff8f000       .debug$S                   00400000     Qt5Core:Qt5Core.dll
 0000:fff8f000       .debug$S                   00400000     Qt5Core:Qt5Core.dll
 0000:fff8f000       .debug$S                   00400000     Qt5Qml:Qt5Qml.dll
 0000:fff8f000       .debug$S                   00400000     Qt5Qml:Qt5Qml.dll
 0000:fff8f000       .debug$S                   00400000     Qt5Qml:Qt5Qml.dll
 0000:fff8f000       .debug$S                   00400000     Qt5Qml:Qt5Qml.dll
 0000:fff8f000       .debug$S                   00400000     vcruntime:VCRUNTIME140.dll
 0000:fff8f000       .debug$S                   00400000     vcruntime:VCRUNTIME140.dll
 0000:fff8f000       .debug$S                   00400000     vcruntime:VCRUNTIME140.dll
 0000:fff8f000       .debug$S                   00400000     vcruntime:VCRUNTIME140.dll
 0000:fff8f000       .debug$S                   00400000     vcruntime:VCRUNTIME140.dll
 0000:fff8f000       .debug$S                   00400000     vcruntime:VCRUNTIME140.dll
 0000:fff8f000       .debug$S                   00400000     vcruntime:VCRUNTIME140.dll
 0000:fff8f000       .debug$S                   00400000     vcruntime:VCRUNTIME140.dll
 0000:fff8f000       .debug$S                   00400000     Qt5Qml:Qt5Qml.dll
 0000:fff8f000       .debug$S                   00400000     Qt5Qml:Qt5Qml.dll
 0000:fff8f000       .debug$S                   00400000     Qt5Core:Qt5Core.dll
 0000:fff8f000       .debug$S                   00400000     Qt5Gui:Qt5Gui.dll
 0000:fff8f000       .debug$S                   00400000     Qt5Gui:Qt5Gui.dll
 0000:fff8f000       .debug$S                   00400000     Qt5Gui:Qt5Gui.dll
 0000:fff8f000       .debug$S                   00400000     vcruntime:VCRUNTIME140.dll
 0000:fff8f000       .debug$S                   00400000     vcruntime:VCRUNTIME140.dll
 0000:fff8f000       .debug$S                   00400000     vcruntime:VCRUNTIME140.dll
 0000:fff8f000       .debug$S                   00400000     kernel32:KERNEL32.dll
 0000:fff8f000       .debug$S                   00400000     kernel32:KERNEL32.dll
 0000:fff8f000       .debug$S                   00400000     kernel32:KERNEL32.dll
 0000:fff8f000       .debug$S                   00400000     kernel32:KERNEL32.dll
 0000:fff8f000       .debug$S                   00400000     kernel32:KERNEL32.dll
 0000:fff8f000       .debug$S                   00400000     kernel32:KERNEL32.dll
 0000:fff8f000       .debug$S                   00400000     kernel32:KERNEL32.dll
 0000:fff8f000       .debug$S                   00400000     kernel32:KERNEL32.dll
 0000:fff8f000       .debug$S                   00400000     kernel32:KERNEL32.dll
 0000:fff8f000       .debug$S                   00400000     kernel32:KERNEL32.dll
 0000:fff8f000       .debug$S                   00400000     kernel32:KERNEL32.dll
 0000:fff8f000       .debug$S                   00400000     kernel32:KERNEL32.dll
 0000:fff8f000       .debug$S                   00400000     kernel32:KERNEL32.dll
 0000:fff8f000       .debug$S                   00400000     Qt5Gui:Qt5Gui.dll
 0000:fff8f000       .debug$S                   00400000     Qt5Gui:Qt5Gui.dll
 0000:fff8f000       .debug$S                   00400000     Qt5Gui:Qt5Gui.dll
 0000:fff8f000       .debug$S                   00400000     Qt5Gui:Qt5Gui.dll
 0000:fff8f000       .debug$S                   00400000     Qt5Gui:Qt5Gui.dll
 0000:fff8f000       .debug$S                   00400000     Qt5Gui:Qt5Gui.dll
 0000:fff8f000       .debug$S                   00400000     Qt5Gui:Qt5Gui.dll
 0000:fff8f000       .debug$S                   00400000     Qt5Gui:Qt5Gui.dll
 0000:fff8f000       .debug$S                   00400000     Qt5Gui:Qt5Gui.dll
 0000:fff8f000       .debug$S                   00400000     Qt5Gui:Qt5Gui.dll
 0000:fff8f000       .debug$S                   00400000     Qt5Gui:Qt5Gui.dll
 0000:fff8f000       .debug$S                   00400000     Qt5Gui:Qt5Gui.dll
 0000:fff8f000       .debug$S                   00400000     Qt5Gui:Qt5Gui.dll
 0000:fff8f000       .debug$S                   00400000     Qt5Gui:Qt5Gui.dll
 0000:fff8f000       .debug$S                   00400000     kernel32:KERNEL32.dll
 0000:fff8f000       .debug$S                   00400000     kernel32:KERNEL32.dll
 0000:fff8f000       .debug$S                   00400000     Qt5Gui:Qt5Gui.dll
 0000:fff8f000       .debug$S                   00400000     Qt5Gui:Qt5Gui.dll
 0000:fff8f000       .debug$S                   00400000     Qt5Gui:Qt5Gui.dll
 0000:fff8f000       .debug$S                   00400000     Qt5Gui:Qt5Gui.dll
 0000:fff8f000       .debug$S                   00400000     Qt5Core:Qt5Core.dll
 0000:fff8f000       .debug$S                   00400000     Qt5Quick:Qt5Quick.dll
 0000:fff8f000       .debug$S                   00400000     Qt5Quick:Qt5Quick.dll
 0000:fff8f000       .debug$S                   00400000     Qt5Quick:Qt5Quick.dll
 0000:fff8f000       .debug$S                   00400000     Qt5Quick:Qt5Quick.dll
 0000:fff8f000       .debug$S                   00400000     Qt5Quick:Qt5Quick.dll
 0000:fff8f000       .debug$S                   00400000     Qt5Quick:Qt5Quick.dll
 0000:fff8f000       .debug$S                   00400000     Qt5Core:Qt5Core.dll
 0000:fff8f000       .debug$S                   00400000     DbgHelp:dbghelp.dll
 0000:fff8f000       .debug$S                   00400000     Qt5Core:Qt5Core.dll
 0000:fff8f000       .debug$S                   00400000     WorkflowProtocol:WorkflowProtocol.dll
 0000:fff8f000       .debug$S                   00400000     WorkflowProtocol:WorkflowProtocol.dll
 0000:fff8f000       .debug$S                   00400000     WorkflowProtocol:WorkflowProtocol.dll
 0000:fff8f000       .debug$S                   00400000     WorkflowProtocol:WorkflowProtocol.dll
 0000:fff8f000       .debug$S                   00400000     WorkflowProtocol:WorkflowProtocol.dll
 0000:fff8f000       .debug$S                   00400000     WorkflowProtocol:WorkflowProtocol.dll
 0000:fff8f000       .debug$S                   00400000     WorkflowProtocol:WorkflowProtocol.dll
 0000:fff8f000       .debug$S                   00400000     ucrt:api-ms-win-crt-heap-l1-1-0.dll
 0000:fff8f000       .debug$S                   00400000     shell32:SHELL32.dll
 0000:fff8f000       .debug$S                   00400000     Qt5Core:Qt5Core.dll
 0000:fff8f000       .debug$S                   00400000     Qt5Core:Qt5Core.dll
 0000:fff8f000       .debug$S                   00400000     Qt5Core:Qt5Core.dll
 0000:fff8f000       .debug$S                   00400000     Qt5Core:Qt5Core.dll
 0000:fff8f000       .debug$S                   00400000     Qt5Core:Qt5Core.dll
 0000:fff8f000       .debug$S                   00400000     Qt5Core:Qt5Core.dll
 0000:fff8f000       .debug$S                   00400000     Qt5Core:Qt5Core.dll
 0000:fff8f000       .debug$S                   00400000     Qt5Core:Qt5Core.dll
 0000:fff8f000       .debug$S                   00400000     Qt5Core:Qt5Core.dll
 0000:fff8f000       .debug$S                   00400000     Qt5Core:Qt5Core.dll
 0000:fff8f000       .debug$S                   00400000     Qt5Core:Qt5Core.dll
 0000:fff8f000       .debug$S                   00400000     Qt5Core:Qt5Core.dll
 0000:fff8f000       .debug$S                   00400000     Qt5Core:Qt5Core.dll
 0000:fff8f000       .debug$S                   00400000     Qt5Core:Qt5Core.dll
 0000:fff8f000       .debug$S                   00400000     Qt5Core:Qt5Core.dll
 0000:fff8f000       .debug$S                   00400000     Qt5Core:Qt5Core.dll
 0000:fff8f000       .debug$S                   00400000     Qt5Core:Qt5Core.dll
 0000:fff8f000       .debug$S                   00400000     Qt5Core:Qt5Core.dll
 0000:fff8f000       .debug$S                   00400000     Qt5Core:Qt5Core.dll
 0000:fff8f000       .debug$S                   00400000     Qt5Core:Qt5Core.dll
 0000:fff8f000       .debug$S                   00400000     Qt5Core:Qt5Core.dll
 0000:fff8f000       .debug$S                   00400000     Qt5Core:Qt5Core.dll
 0000:fff8f000       .debug$S                   00400000     Qt5Core:Qt5Core.dll
 0000:fff8f000       .debug$S                   00400000     Qt5Core:Qt5Core.dll
 0000:fff8f000       .debug$S                   00400000     Qt5Core:Qt5Core.dll
 0000:fff8f000       .debug$S                   00400000     Qt5Core:Qt5Core.dll
 0000:fff8f000       .debug$S                   00400000     Qt5Core:Qt5Core.dll
 0000:fff8f000       .debug$S                   00400000     Qt5Core:Qt5Core.dll
 0000:fff8f000       .debug$S                   00400000     Qt5Core:Qt5Core.dll
 0000:fff8f000       .debug$S                   00400000     Qt5Core:Qt5Core.dll
 0000:fff8f000       .debug$S                   00400000     Qt5Core:Qt5Core.dll
 0000:fff8f000       .debug$S                   00400000     Qt5Core:Qt5Core.dll
 0000:fff8f000       .debug$S                   00400000     Qt5Core:Qt5Core.dll
 0000:fff8f000       .debug$S                   00400000     Qt5Core:Qt5Core.dll
 0000:fff8f000       .debug$S                   00400000     Qt5Core:Qt5Core.dll
 0000:fff8f000       .debug$S                   00400000     Qt5Core:Qt5Core.dll
 0000:fff8f000       .debug$S                   00400000     Qt5Core:Qt5Core.dll
 0000:fff8f000       .debug$S                   00400000     Qt5Core:Qt5Core.dll
 0000:fff8f000       .debug$S                   00400000     Qt5Core:Qt5Core.dll
 0000:fff8f000       .debug$S                   00400000     Qt5Core:Qt5Core.dll
 0000:fff8f000       .debug$S                   00400000     Qt5Core:Qt5Core.dll
 0000:fff8f000       .debug$S                   00400000     Qt5Core:Qt5Core.dll
 0000:fff8f000       .debug$S                   00400000     Qt5Core:Qt5Core.dll
 0000:fff8f000       .debug$S                   00400000     Qt5Core:Qt5Core.dll
 0000:fff8f000       .debug$S                   00400000     Qt5Core:Qt5Core.dll
 0000:fff8f000       .debug$S                   00400000     Qt5Core:Qt5Core.dll
 0000:fff8f000       .debug$S                   00400000     Qt5Core:Qt5Core.dll
 0000:fff8f000       .debug$S                   00400000     Qt5Core:Qt5Core.dll
 0000:fff8f000       .debug$S                   00400000     Qt5Core:Qt5Core.dll
 0000:fff8f000       .debug$S                   00400000     Qt5Core:Qt5Core.dll
 0000:fff8f000       .debug$S                   00400000     Qt5Core:Qt5Core.dll
 0000:fff8f000       .debug$S                   00400000     Qt5Core:Qt5Core.dll
 0000:fff8f000       .debug$S                   00400000     Qt5Core:Qt5Core.dll
 0000:fff8f000       .debug$S                   00400000     Qt5Core:Qt5Core.dll
 0000:fff8f000       .debug$S                   00400000     Qt5Core:Qt5Core.dll
 0000:fff8f000       .debug$S                   00400000     Qt5Core:Qt5Core.dll
 0000:fff8f000       .debug$S                   00400000     Qt5Core:Qt5Core.dll
 0000:fff8f000       .debug$S                   00400000     Qt5Core:Qt5Core.dll
 0000:fff8f000       .debug$S                   00400000     Qt5Core:Qt5Core.dll
 0000:fff8f000       .debug$S                   00400000     Qt5Core:Qt5Core.dll
 0000:fff8f000       .debug$S                   00400000     Qt5Core:Qt5Core.dll
 0000:fff8f000       .debug$S                   00400000     Qt5Core:Qt5Core.dll
 0000:fff8f000       .debug$S                   00400000     Qt5Core:Qt5Core.dll
 0000:fff8f000       .debug$S                   00400000     Qt5Core:Qt5Core.dll
 0000:fff8f000       .debug$S                   00400000     Qt5Core:Qt5Core.dll
 0000:fff8f000       .debug$S                   00400000     Qt5Core:Qt5Core.dll
 0000:fff8f000       .debug$S                   00400000     Qt5Core:Qt5Core.dll
 0000:fff8f000       .debug$S                   00400000     Qt5Core:Qt5Core.dll
 0000:fff8f000       .debug$S                   00400000     Qt5Core:Qt5Core.dll
 0000:fff8f000       .debug$S                   00400000     Qt5Core:Qt5Core.dll
 0000:fff8f000       .debug$S                   00400000     Qt5Core:Qt5Core.dll
 0000:fff8f000       .debug$S                   00400000     Qt5Core:Qt5Core.dll
 0000:fff8f000       .debug$S                   00400000     Qt5Core:Qt5Core.dll
 0000:fff8f000       .debug$S                   00400000     Qt5Core:Qt5Core.dll
 0000:fff8f000       .debug$S                   00400000     Qt5Core:Qt5Core.dll
 0000:fff8f000       .debug$S                   00400000     Qt5Core:Qt5Core.dll
 0000:fff8f000       .debug$S                   00400000     Qt5Core:Qt5Core.dll
 0000:fff8f000       .debug$S                   00400000     Qt5Core:Qt5Core.dll
 0000:fff8f000       .debug$S                   00400000     Qt5Core:Qt5Core.dll
 0000:fff8f000       .debug$S                   00400000     Qt5Core:Qt5Core.dll
 0000:fff8f000       .debug$S                   00400000     Qt5Core:Qt5Core.dll
 0000:fff8f000       .debug$S                   00400000     Qt5Core:Qt5Core.dll
 0000:fff8f000       .debug$S                   00400000     Qt5Core:Qt5Core.dll
 0000:fff8f000       .debug$S                   00400000     Qt5Core:Qt5Core.dll
 0000:fff8f000       .debug$S                   00400000     Qt5Core:Qt5Core.dll
 0000:fff8f000       .debug$S                   00400000     Qt5Core:Qt5Core.dll
 0000:fff8f000       .debug$S                   00400000     Qt5Core:Qt5Core.dll
 0000:fff8f000       .debug$S                   00400000     Qt5Core:Qt5Core.dll
 0000:fff8f000       .debug$S                   00400000     Qt5Core:Qt5Core.dll
 0000:fff8f000       .debug$S                   00400000     Qt5Core:Qt5Core.dll
 0000:fff8f000       .debug$S                   00400000     Qt5Core:Qt5Core.dll
 0000:fff8f000       .debug$S                   00400000     Qt5Core:Qt5Core.dll
 0000:fff8f000       .debug$S                   00400000     Qt5Core:Qt5Core.dll
 0000:fff8f000       .debug$S                   00400000     Qt5Core:Qt5Core.dll
 0000:fff8f000       .debug$S                   00400000     Qt5Core:Qt5Core.dll
 0000:fff8f000       .debug$S                   00400000     Qt5Core:Qt5Core.dll
 0000:fff8f000       .debug$S                   00400000     Qt5Core:Qt5Core.dll
 0000:fff8f000       .debug$S                   00400000     Qt5Core:Qt5Core.dll
 0000:fff8f000       .debug$S                   00400000     Qt5Core:Qt5Core.dll
 0000:fff8f000       .debug$S                   00400000     Qt5Core:Qt5Core.dll
 0000:fff8f000       .debug$S                   00400000     Qt5Core:Qt5Core.dll
 0000:fff8f000       .debug$S                   00400000     Qt5Core:Qt5Core.dll
 0000:fff8f000       .debug$S                   00400000     Qt5Core:Qt5Core.dll
 0000:fff8f000       .debug$S                   00400000     Qt5Core:Qt5Core.dll
 0000:fff8f000       .debug$S                   00400000     Qt5Core:Qt5Core.dll
 0000:fff8f000       .debug$S                   00400000     ucrt:api-ms-win-crt-heap-l1-1-0.dll
 0000:fff8f000       .debug$S                   00400000     ucrt:api-ms-win-crt-heap-l1-1-0.dll
 0000:fff8f000       .debug$S                   00400000     ucrt:api-ms-win-crt-heap-l1-1-0.dll
 0000:fff8f000       .debug$S                   00400000     ucrt:api-ms-win-crt-locale-l1-1-0.dll
 0000:fff8f000       .debug$S                   00400000     ucrt:api-ms-win-crt-math-l1-1-0.dll
 0000:fff8f000       .debug$S                   00400000     ucrt:api-ms-win-crt-runtime-l1-1-0.dll
 0000:fff8f000       .debug$S                   00400000     ucrt:api-ms-win-crt-runtime-l1-1-0.dll
 0000:fff8f000       .debug$S                   00400000     ucrt:api-ms-win-crt-runtime-l1-1-0.dll
 0000:fff8f000       .debug$S                   00400000     ucrt:api-ms-win-crt-runtime-l1-1-0.dll
 0000:fff8f000       .debug$S                   00400000     ucrt:api-ms-win-crt-runtime-l1-1-0.dll
 0000:fff8f000       .debug$S                   00400000     ucrt:api-ms-win-crt-runtime-l1-1-0.dll
 0000:fff8f000       .debug$S                   00400000     ucrt:api-ms-win-crt-runtime-l1-1-0.dll
 0000:fff8f000       .debug$S                   00400000     ucrt:api-ms-win-crt-runtime-l1-1-0.dll
 0000:fff8f000       .debug$S                   00400000     ucrt:api-ms-win-crt-runtime-l1-1-0.dll
 0000:fff8f000       .debug$S                   00400000     ucrt:api-ms-win-crt-runtime-l1-1-0.dll
 0000:fff8f000       .debug$S                   00400000     ucrt:api-ms-win-crt-runtime-l1-1-0.dll
 0000:fff8f000       .debug$S                   00400000     ucrt:api-ms-win-crt-runtime-l1-1-0.dll
 0000:fff8f000       .debug$S                   00400000     ucrt:api-ms-win-crt-runtime-l1-1-0.dll
 0000:fff8f000       .debug$S                   00400000     ucrt:api-ms-win-crt-runtime-l1-1-0.dll
 0000:fff8f000       .debug$S                   00400000     ucrt:api-ms-win-crt-runtime-l1-1-0.dll
 0000:fff8f000       .debug$S                   00400000     ucrt:api-ms-win-crt-runtime-l1-1-0.dll
 0000:fff8f000       .debug$S                   00400000     ucrt:api-ms-win-crt-runtime-l1-1-0.dll
 0000:fff8f000       .debug$S                   00400000     ucrt:api-ms-win-crt-runtime-l1-1-0.dll
 0000:fff8f000       .debug$S                   00400000     ucrt:api-ms-win-crt-runtime-l1-1-0.dll
 0000:fff8f000       .debug$S                   00400000     ucrt:api-ms-win-crt-runtime-l1-1-0.dll
 0000:fff8f000       .debug$S                   00400000     ucrt:api-ms-win-crt-runtime-l1-1-0.dll
 0000:fff8f000       .debug$S                   00400000     ucrt:api-ms-win-crt-runtime-l1-1-0.dll
 0000:fff8f000       .debug$S                   00400000     ucrt:api-ms-win-crt-stdio-l1-1-0.dll
 0000:fff8f000       .debug$S                   00400000     kernel32:KERNEL32.dll
 0000:fff8f000       .debug$S                   00400000     kernel32:KERNEL32.dll
 0000:fff8f000       .debug$S                   00400000     kernel32:KERNEL32.dll
 0000:fff8f000       .debug$S                   00400000     kernel32:KERNEL32.dll
 0000:fff8f000       .debug$S                   00400000     kernel32:KERNEL32.dll
 0000:fff8f000       .debug$S                   00400000     kernel32:KERNEL32.dll
 0000:fff8f000       .debug$S                   00400000     kernel32:KERNEL32.dll
 0000:fff8f000       .debug$S                   00400000     kernel32:KERNEL32.dll
 0000:fff8f000       .debug$S                   00400000     kernel32:KERNEL32.dll
 0000:fff8f000       .debug$S                   00400000     kernel32:KERNEL32.dll
 0000:fff8f000       .debug$S                   00400000     kernel32:KERNEL32.dll
 0001:00000000       ??__Edummy@?A0x4c3cf720@@YAXXZ 00401000 f   qrc_qml.obj
 0001:00000030       ??__E?staticMetaObject@OperationParamObject@@2UQMetaObject@@B@@YAXXZ 00401030 f   moc_workmodels.obj
 0001:00000040       ??__E?staticMetaObject@OperationParamSelector@@2UQMetaObject@@B@@YAXXZ 00401040 f   moc_workmodels.obj
 0001:00000050       ??__E?staticMetaObject@PlanController@@2UQMetaObject@@B@@YAXXZ 00401050 f   moc_workmodels.obj
 0001:00000060       ??__E?staticMetaObject@PlanSelector@@2UQMetaObject@@B@@YAXXZ 00401060 f   moc_workmodels.obj
 0001:00000070       ??__E?staticMetaObject@SingleOperationObject@@2UQMetaObject@@B@@YAXXZ 00401070 f   moc_workmodels.obj
 0001:00000080       ??__E?staticMetaObject@StatusViewWatcher@@2UQMetaObject@@B@@YAXXZ 00401080 f   moc_workmodels.obj
 0001:00000090       ??__E?staticMetaObject@TargetMachineObject@@2UQMetaObject@@B@@YAXXZ 00401090 f   moc_workmodels.obj
 0001:000000a0       ??__E?staticMetaObject@configFileHandler@@2UQMetaObject@@B@@YAXXZ 004010a0 f   moc_configfilehandler.obj
 0001:000000b0       ??__E?staticMetaObject@EnvironmentVariant@@2UQMetaObject@@B@@YAXXZ 004010b0 f   moc_environmentvariant.obj
 0001:0000214c       $LN98                      0040314c     main.obj
 0001:00002dd1       __catch$??0?$QList@H@@QAE@ABV0@@Z$0 00403dd1 f i workmodels.obj
 0001:00002dd1       __catch$??0?$QList@PAVQObject@@@@QAE@ABV0@@Z$0 00403dd1 f i workmodels.obj
 0001:00002e81       __catch$??0?$QList@VOperationParamData@@@@QAE@ABV0@@Z$0 00403e81 f i workmodels.obj
 0001:00002f31       __catch$??0?$QList@VQString@@@@QAE@ABV0@@Z$0 00403f31 f i workmodels.obj
 0001:000037c3       __catch$?append@?$QList@VOperationParamData@@@@QAEXABVOperationParamData@@@Z$0 004047c3 f i workmodels.obj
 0001:000037c3       __catch$?append@?$QList@VOperationParamData@@@@QAEXABVOperationParamData@@@Z$2 004047c3 f i workmodels.obj
 0001:0000392f       __catch$?detach_helper_grow@?$QList@H@@AAEPAUNode@1@HH@Z$2 0040492f f i configfilehandler.obj
 0001:0000392f       __catch$?detach_helper_grow@?$QList@PAVQObject@@@@AAEPAUNode@1@HH@Z$2 0040492f f i workmodels.obj
 0001:0000395b       __catch$?detach_helper_grow@?$QList@H@@AAEPAUNode@1@HH@Z$0 0040495b f i configfilehandler.obj
 0001:0000395b       __catch$?detach_helper_grow@?$QList@PAVQObject@@@@AAEPAUNode@1@HH@Z$0 0040495b f i workmodels.obj
 0001:00003a6d       __catch$?detach_helper_grow@?$QList@VOperationParamData@@@@AAEPAUNode@1@HH@Z$2 00404a6d f i workmodels.obj
 0001:00003aa8       __catch$?detach_helper_grow@?$QList@VOperationParamData@@@@AAEPAUNode@1@HH@Z$0 00404aa8 f i workmodels.obj
 0001:0000400f       __catch$?node_copy@?$QList@VOperationParamData@@@@AAEXPAUNode@1@00@Z$0 0040500f f i workmodels.obj
 0001:00005271       __catch$??0?$QList@VSingleOperationData@@@@QAE@ABV0@@Z$0 00406271 f i configfilehandler.obj
 0001:00008895       __catch$?append@?$QList@H@@QAEXABH@Z$4 00409895 f i configfilehandler.obj
 0001:00008895       __catch$?append@?$QList@PAVQObject@@@@QAEXABQAVQObject@@@Z$4 00409895 f i workmodels.obj
 0001:00008911       __catch$?append@?$QList@U?$QPair@VQString@@V?$QList@VSingleOperationData@@@@@@@@QAEXABU?$QPair@VQString@@V?$QList@VSingleOperationData@@@@@@@Z$0 00409911 f i configfilehandler.obj
 0001:00008911       __catch$?append@?$QList@U?$QPair@VQString@@V?$QList@VSingleOperationData@@@@@@@@QAEXABU?$QPair@VQString@@V?$QList@VSingleOperationData@@@@@@@Z$2 00409911 f i configfilehandler.obj
 0001:00008a1b       __catch$?append@?$QList@VQString@@@@QAEXABVQString@@@Z$4 00409a1b f i configfilehandler.obj
 0001:00008aa1       __catch$?append@?$QList@VSingleOperationData@@@@QAEXABVSingleOperationData@@@Z$2 00409aa1 f i configfilehandler.obj
 0001:00008aa1       __catch$?append@?$QList@VSingleOperationData@@@@QAEXABVSingleOperationData@@@Z$0 00409aa1 f i configfilehandler.obj
 0001:00008e86       __catch$?createNode@?$QMapData@VQString@@VOperationParamData@@@@QAEPAU?$QMapNode@VQString@@VOperationParamData@@@@ABVQString@@ABVOperationParamData@@PAU2@_N@Z$0 00409e86 f i configfilehandler.obj
 0001:00008e9b       __catch$?createNode@?$QMapData@VQString@@VOperationParamData@@@@QAEPAU?$QMapNode@VQString@@VOperationParamData@@@@ABVQString@@ABVOperationParamData@@PAU2@_N@Z$2 00409e9b f i configfilehandler.obj
 0001:00008f46       __catch$?createNode@?$QMapData@VQString@@VQStringList@@@@QAEPAU?$QMapNode@VQString@@VQStringList@@@@ABVQString@@ABVQStringList@@PAU2@_N@Z$0 00409f46 f i configfilehandler.obj
 0001:00008f5b       __catch$?createNode@?$QMapData@VQString@@VQStringList@@@@QAEPAU?$QMapNode@VQString@@VQStringList@@@@ABVQString@@ABVQStringList@@PAU2@_N@Z$2 00409f5b f i configfilehandler.obj
 0001:000092da       __catch$?detach_helper_grow@?$QList@U?$QPair@VQString@@V?$QList@VSingleOperationData@@@@@@@@AAEPAUNode@1@HH@Z$2 0040a2da f i configfilehandler.obj
 0001:00009315       __catch$?detach_helper_grow@?$QList@U?$QPair@VQString@@V?$QList@VSingleOperationData@@@@@@@@AAEPAUNode@1@HH@Z$0 0040a315 f i configfilehandler.obj
 0001:0000945e       __catch$?detach_helper_grow@?$QList@VQString@@@@AAEPAUNode@1@HH@Z$2 0040a45e f i configfilehandler.obj
 0001:00009499       __catch$?detach_helper_grow@?$QList@VQString@@@@AAEPAUNode@1@HH@Z$0 0040a499 f i configfilehandler.obj
 0001:000095ca       __catch$?detach_helper_grow@?$QList@VSingleOperationData@@@@AAEPAUNode@1@HH@Z$2 0040a5ca f i configfilehandler.obj
 0001:00009605       __catch$?detach_helper_grow@?$QList@VSingleOperationData@@@@AAEPAUNode@1@HH@Z$0 0040a605 f i configfilehandler.obj
 0001:00009a9c       __catch$?node_copy@?$QList@U?$QPair@VQString@@V?$QList@VSingleOperationData@@@@@@@@AAEXPAUNode@1@00@Z$0 0040aa9c f i configfilehandler.obj
 0001:00009b62       __catch$?node_copy@?$QList@VSingleOperationData@@@@AAEXPAUNode@1@00@Z$0 0040ab62 f i configfilehandler.obj
 0001:0000a736       __catch$??Y?$QList@VQString@@@@QAEAAV0@ABV0@@Z$0 0040b736 f i environmentvariant.obj
 0001:0000c3a7       __catch$?detach_helper@?$QList@H@@AAEXH@Z$0 0040d3a7 f i environmentvariant.obj
 0001:0000c492       __catch$?detach_helper@?$QList@U?$QPair@VQString@@V?$QList@VSingleOperationData@@@@@@@@AAEXH@Z$0 0040d492 f i environmentvariant.obj
 0001:0000c555       __catch$?detach_helper@?$QList@VOperationParamData@@@@AAEXH@Z$0 0040d555 f i environmentvariant.obj
 0001:0000c64d       __catch$?detach_helper@?$QList@VQString@@@@AAEXH@Z$0 0040d64d f i environmentvariant.obj
 0001:0000c732       __catch$?detach_helper@?$QList@VSingleOperationData@@@@AAEXH@Z$0 0040d732 f i environmentvariant.obj
 0001:0000d24f       __catch$?insert@?$QList@VSingleOperationData@@@@QAEXHABVSingleOperationData@@@Z$0 0040e24f f i environmentvariant.obj
 0001:0000d24f       __catch$?insert@?$QList@VSingleOperationData@@@@QAEXHABVSingleOperationData@@@Z$2 0040e24f f i environmentvariant.obj
 0001:0000fa80       $LN162                     00410a80     moc_workmodels.obj
 0001:0000fab4       $LN163                     00410ab4     moc_workmodels.obj
 0001:0000fae8       $LN164                     00410ae8     moc_workmodels.obj
 0001:0000fc90       $LN62                      00410c90     moc_workmodels.obj
 0001:0000fd24       $LN16                      00410d24     moc_workmodels.obj
 0001:0000fff4       $LN98                      00410ff4     moc_workmodels.obj
 0001:00010274       $LN33                      00411274     moc_workmodels.obj
 0001:00010fa3       ?find_pe_section@@YAPAU_IMAGE_SECTION_HEADER@@QAEI@Z 00411fa3 f   MSVCRT:utility.obj
 0001:0001120b       ?__scrt_initialize_thread_safe_statics@@YAHXZ 0041220b f   MSVCRT:thread_safe_statics.obj
 0001:000112e8       ?__scrt_uninitialize_thread_safe_statics@@YAXXZ 004122e8 f   MSVCRT:thread_safe_statics.obj
 0001:00011447       ?pre_c_initialization@@YAHXZ 00412447 f   MSVCRT:exe_winmain.obj
 0001:000114eb       ?post_pgo_initialization@@YAHXZ 004124eb f   MSVCRT:exe_winmain.obj
 0001:000114f3       ?pre_cpp_initialization@@YAXXZ 004124f3 f   MSVCRT:exe_winmain.obj
 0001:00011505       ?__scrt_common_main_seh@@YAHXZ 00412505 f   MSVCRT:exe_winmain.obj
 0001:00011c50       $$000000                   00412c50     MSVCRT:_sehprolg4_.obj
 0001:00012040       __unwindfunclet$??$createInto@VPlanController@@@QQmlPrivate@@YAXPAX@Z$0 00413040 f   main.obj
 0001:00012040       __unwindfunclet$??$createInto@VOperationParamObject@@@QQmlPrivate@@YAXPAX@Z$0 00413040 f   main.obj
 0001:00012040       __unwindfunclet$??$createInto@VStatusViewWatcher@@@QQmlPrivate@@YAXPAX@Z$0 00413040 f   main.obj
 0001:00012040       __unwindfunclet$??$createInto@VOperationParamSelector@@@QQmlPrivate@@YAXPAX@Z$0 00413040 f   main.obj
 0001:00012040       __unwindfunclet$??$createInto@VTextFieldDoubleValidator@@@QQmlPrivate@@YAXPAX@Z$0 00413040 f   main.obj
 0001:00012040       __unwindfunclet$??$createInto@VPlanSelector@@@QQmlPrivate@@YAXPAX@Z$0 00413040 f   main.obj
 0001:00012051       __ehhandler$??$createInto@VStatusViewWatcher@@@QQmlPrivate@@YAXPAX@Z 00413051 f   main.obj
 0001:00012051       __ehhandler$??$createInto@VPlanController@@@QQmlPrivate@@YAXPAX@Z 00413051 f   main.obj
 0001:00012051       __ehhandler$??$createInto@VOperationParamObject@@@QQmlPrivate@@YAXPAX@Z 00413051 f   main.obj
 0001:00012051       __ehhandler$??$createInto@VPlanSelector@@@QQmlPrivate@@YAXPAX@Z 00413051 f   main.obj
 0001:00012051       __ehhandler$??$createInto@VTextFieldDoubleValidator@@@QQmlPrivate@@YAXPAX@Z 00413051 f   main.obj
 0001:00012051       __ehhandler$??$createInto@VOperationParamSelector@@@QQmlPrivate@@YAXPAX@Z 00413051 f   main.obj
 0001:00012070       __unwindfunclet$??$qmlRegisterType@VPlanController@@@@YAHPBDHH0@Z$0 00413070 f   main.obj
 0001:00012070       __unwindfunclet$??$qmlRegisterType@VTextFieldDoubleValidator@@@@YAHPBDHH0@Z$0 00413070 f   main.obj
 0001:00012070       __unwindfunclet$??$qmlRegisterType@VPlanSelector@@@@YAHPBDHH0@Z$0 00413070 f   main.obj
 0001:00012070       __unwindfunclet$??$qmlRegisterType@VOperationParamObject@@@@YAHPBDHH0@Z$0 00413070 f   main.obj
 0001:00012070       __unwindfunclet$??$qmlRegisterType@VStatusViewWatcher@@@@YAHPBDHH0@Z$0 00413070 f   main.obj
 0001:00012070       __unwindfunclet$??$qmlRegisterType@VOperationParamSelector@@@@YAHPBDHH0@Z$0 00413070 f   main.obj
 0001:00012078       __unwindfunclet$??$qmlRegisterType@VOperationParamSelector@@@@YAHPBDHH0@Z$1 00413078 f   main.obj
 0001:00012078       __unwindfunclet$??$qmlRegisterType@VStatusViewWatcher@@@@YAHPBDHH0@Z$1 00413078 f   main.obj
 0001:00012078       __unwindfunclet$??$qmlRegisterType@VPlanSelector@@@@YAHPBDHH0@Z$1 00413078 f   main.obj
 0001:00012078       __unwindfunclet$??$qmlRegisterType@VPlanController@@@@YAHPBDHH0@Z$1 00413078 f   main.obj
 0001:00012078       __unwindfunclet$??$qmlRegisterType@VOperationParamObject@@@@YAHPBDHH0@Z$1 00413078 f   main.obj
 0001:00012078       __unwindfunclet$??$qmlRegisterType@VTextFieldDoubleValidator@@@@YAHPBDHH0@Z$1 00413078 f   main.obj
 0001:00012083       __unwindfunclet$??$qmlRegisterType@VStatusViewWatcher@@@@YAHPBDHH0@Z$2 00413083 f   main.obj
 0001:00012083       __unwindfunclet$??$qmlRegisterType@VTextFieldDoubleValidator@@@@YAHPBDHH0@Z$2 00413083 f   main.obj
 0001:00012083       __unwindfunclet$??$qmlRegisterType@VPlanSelector@@@@YAHPBDHH0@Z$2 00413083 f   main.obj
 0001:00012083       __unwindfunclet$??$qmlRegisterType@VPlanController@@@@YAHPBDHH0@Z$2 00413083 f   main.obj
 0001:00012083       __unwindfunclet$??$qmlRegisterType@VOperationParamSelector@@@@YAHPBDHH0@Z$2 00413083 f   main.obj
 0001:00012083       __unwindfunclet$??$qmlRegisterType@VOperationParamObject@@@@YAHPBDHH0@Z$2 00413083 f   main.obj
 0001:0001208c       __unwindfunclet$??$qmlRegisterType@VOperationParamObject@@@@YAHPBDHH0@Z$3 0041308c f   main.obj
 0001:0001208c       __unwindfunclet$??$qmlRegisterType@VPlanController@@@@YAHPBDHH0@Z$3 0041308c f   main.obj
 0001:0001208c       __unwindfunclet$??$qmlRegisterType@VTextFieldDoubleValidator@@@@YAHPBDHH0@Z$3 0041308c f   main.obj
 0001:0001208c       __unwindfunclet$??$qmlRegisterType@VStatusViewWatcher@@@@YAHPBDHH0@Z$3 0041308c f   main.obj
 0001:0001208c       __unwindfunclet$??$qmlRegisterType@VOperationParamSelector@@@@YAHPBDHH0@Z$3 0041308c f   main.obj
 0001:0001208c       __unwindfunclet$??$qmlRegisterType@VPlanSelector@@@@YAHPBDHH0@Z$3 0041308c f   main.obj
 0001:00012095       __unwindfunclet$??$qmlRegisterType@VStatusViewWatcher@@@@YAHPBDHH0@Z$5 00413095 f   main.obj
 0001:00012095       __unwindfunclet$??$qmlRegisterType@VTextFieldDoubleValidator@@@@YAHPBDHH0@Z$5 00413095 f   main.obj
 0001:00012095       __unwindfunclet$??$qmlRegisterType@VPlanSelector@@@@YAHPBDHH0@Z$5 00413095 f   main.obj
 0001:00012095       __unwindfunclet$??$qmlRegisterType@VPlanController@@@@YAHPBDHH0@Z$5 00413095 f   main.obj
 0001:00012095       __unwindfunclet$??$qmlRegisterType@VOperationParamSelector@@@@YAHPBDHH0@Z$5 00413095 f   main.obj
 0001:00012095       __unwindfunclet$??$qmlRegisterType@VOperationParamObject@@@@YAHPBDHH0@Z$5 00413095 f   main.obj
 0001:0001209d       __ehhandler$??$qmlRegisterType@VOperationParamSelector@@@@YAHPBDHH0@Z 0041309d f   main.obj
 0001:0001209d       __ehhandler$??$qmlRegisterType@VPlanSelector@@@@YAHPBDHH0@Z 0041309d f   main.obj
 0001:0001209d       __ehhandler$??$qmlRegisterType@VStatusViewWatcher@@@@YAHPBDHH0@Z 0041309d f   main.obj
 0001:0001209d       __ehhandler$??$qmlRegisterType@VPlanController@@@@YAHPBDHH0@Z 0041309d f   main.obj
 0001:0001209d       __ehhandler$??$qmlRegisterType@VOperationParamObject@@@@YAHPBDHH0@Z 0041309d f   main.obj
 0001:0001209d       __ehhandler$??$qmlRegisterType@VTextFieldDoubleValidator@@@@YAHPBDHH0@Z 0041309d f   main.obj
 0001:000120c0       __ehhandler$??1StatusViewWatcher@@UAE@XZ 004130c0 f   workmodels.obj
 0001:000120c0       __ehhandler$??1?$QList@VQString@@@@QAE@XZ 004130c0 f   main.obj
 0001:000120e0       __unwindfunclet$??1OperationParamSelector@@UAE@XZ$0 004130e0 f   main.obj
 0001:000120e6       __unwindfunclet$??1OperationParamSelector@@UAE@XZ$7 004130e6 f   main.obj
 0001:000120ec       __ehhandler$??1OperationParamSelector@@UAE@XZ 004130ec f   main.obj
 0001:00012110       __unwindfunclet$??1PlanSelector@@UAE@XZ$1 00413110 f   main.obj
 0001:00012116       __unwindfunclet$??1PlanSelector@@UAE@XZ$8 00413116 f   main.obj
 0001:0001211c       __ehhandler$??1PlanSelector@@UAE@XZ 0041311c f   main.obj
 0001:00012140       __unwindfunclet$??H@YA?BVQString@@ABV0@0@Z$0 00413140 f   main.obj
 0001:0001215a       __ehhandler$??H@YA?BVQString@@ABV0@0@Z 0041315a f   main.obj
 0001:00012180       __unwindfunclet$??H@YA?BVQString@@ABV0@PBD@Z$0 00413180 f   main.obj
 0001:0001219a       __unwindfunclet$??H@YA?BVQString@@ABV0@PBD@Z$1 0041319a f   main.obj
 0001:000121a3       __ehhandler$??H@YA?BVQString@@ABV0@PBD@Z 004131a3 f   main.obj
 0001:000121c0       __unwindfunclet$?customMessageHandler@@YAXW4QtMsgType@@ABVQMessageLogContext@@ABVQString@@@Z$0 004131c0 f   main.obj
 0001:000121c9       __unwindfunclet$?customMessageHandler@@YAXW4QtMsgType@@ABVQMessageLogContext@@ABVQString@@@Z$1 004131c9 f   main.obj
 0001:000121d2       __unwindfunclet$?customMessageHandler@@YAXW4QtMsgType@@ABVQMessageLogContext@@ABVQString@@@Z$2 004131d2 f   main.obj
 0001:000121db       __unwindfunclet$?customMessageHandler@@YAXW4QtMsgType@@ABVQMessageLogContext@@ABVQString@@@Z$3 004131db f   main.obj
 0001:000121e4       __unwindfunclet$?customMessageHandler@@YAXW4QtMsgType@@ABVQMessageLogContext@@ABVQString@@@Z$21 004131e4 f   main.obj
 0001:000121ed       __unwindfunclet$?customMessageHandler@@YAXW4QtMsgType@@ABVQMessageLogContext@@ABVQString@@@Z$22 004131ed f   main.obj
 0001:000121f6       __unwindfunclet$?customMessageHandler@@YAXW4QtMsgType@@ABVQMessageLogContext@@ABVQString@@@Z$23 004131f6 f   main.obj
 0001:000121ff       __unwindfunclet$?customMessageHandler@@YAXW4QtMsgType@@ABVQMessageLogContext@@ABVQString@@@Z$5 004131ff f   main.obj
 0001:00012208       __unwindfunclet$?customMessageHandler@@YAXW4QtMsgType@@ABVQMessageLogContext@@ABVQString@@@Z$6 00413208 f   main.obj
 0001:00012211       __unwindfunclet$?customMessageHandler@@YAXW4QtMsgType@@ABVQMessageLogContext@@ABVQString@@@Z$7 00413211 f   main.obj
 0001:0001221a       __unwindfunclet$?customMessageHandler@@YAXW4QtMsgType@@ABVQMessageLogContext@@ABVQString@@@Z$9 0041321a f   main.obj
 0001:00012223       __unwindfunclet$?customMessageHandler@@YAXW4QtMsgType@@ABVQMessageLogContext@@ABVQString@@@Z$10 00413223 f   main.obj
 0001:0001222c       __unwindfunclet$?customMessageHandler@@YAXW4QtMsgType@@ABVQMessageLogContext@@ABVQString@@@Z$11 0041322c f   main.obj
 0001:00012235       __unwindfunclet$?customMessageHandler@@YAXW4QtMsgType@@ABVQMessageLogContext@@ABVQString@@@Z$13 00413235 f   main.obj
 0001:0001223e       __unwindfunclet$?customMessageHandler@@YAXW4QtMsgType@@ABVQMessageLogContext@@ABVQString@@@Z$14 0041323e f   main.obj
 0001:00012247       __unwindfunclet$?customMessageHandler@@YAXW4QtMsgType@@ABVQMessageLogContext@@ABVQString@@@Z$15 00413247 f   main.obj
 0001:00012250       __unwindfunclet$?customMessageHandler@@YAXW4QtMsgType@@ABVQMessageLogContext@@ABVQString@@@Z$17 00413250 f   main.obj
 0001:00012259       __unwindfunclet$?customMessageHandler@@YAXW4QtMsgType@@ABVQMessageLogContext@@ABVQString@@@Z$18 00413259 f   main.obj
 0001:00012262       __unwindfunclet$?customMessageHandler@@YAXW4QtMsgType@@ABVQMessageLogContext@@ABVQString@@@Z$19 00413262 f   main.obj
 0001:0001226b       __ehhandler$?customMessageHandler@@YAXW4QtMsgType@@ABVQMessageLogContext@@ABVQString@@@Z 0041326b f   main.obj
 0001:00012290       __unwindfunclet$?getConfigFullName@@YA?AVQString@@PBD@Z$0 00413290 f   main.obj
 0001:00012299       __ehhandler$?getConfigFullName@@YA?AVQString@@PBD@Z 00413299 f   main.obj
 0001:000122c0       __unwindfunclet$?qt_metatype_id@?$QMetaTypeIdQObject@PAVPlanController@@$07@@SAHXZ$0 004132c0 f   main.obj
 0001:000122c0       __unwindfunclet$?qt_metatype_id@?$QMetaTypeIdQObject@PAVStatusViewWatcher@@$07@@SAHXZ$0 004132c0 f   main.obj
 0001:000122c0       __unwindfunclet$?qt_metatype_id@?$QMetaTypeIdQObject@PAVPlanSelector@@$07@@SAHXZ$0 004132c0 f   main.obj
 0001:000122c0       __unwindfunclet$?qt_metatype_id@?$QMetaTypeIdQObject@PAVTextFieldDoubleValidator@@$07@@SAHXZ$0 004132c0 f   main.obj
 0001:000122c0       __unwindfunclet$?qt_metatype_id@?$QMetaTypeIdQObject@PAVOperationParamObject@@$07@@SAHXZ$0 004132c0 f   main.obj
 0001:000122c0       __unwindfunclet$?qt_metatype_id@?$QMetaTypeIdQObject@PAVOperationParamSelector@@$07@@SAHXZ$0 004132c0 f   main.obj
 0001:000122c9       __ehhandler$?qt_metatype_id@?$QMetaTypeIdQObject@PAVOperationParamObject@@$07@@SAHXZ 004132c9 f   main.obj
 0001:000122c9       __ehhandler$?qt_metatype_id@?$QMetaTypeIdQObject@PAVStatusViewWatcher@@$07@@SAHXZ 004132c9 f   main.obj
 0001:000122c9       __ehhandler$?qt_metatype_id@?$QMetaTypeIdQObject@PAVOperationParamSelector@@$07@@SAHXZ 004132c9 f   main.obj
 0001:000122c9       __ehhandler$?qt_metatype_id@?$QMetaTypeIdQObject@PAVTextFieldDoubleValidator@@$07@@SAHXZ 004132c9 f   main.obj
 0001:000122c9       __ehhandler$?qt_metatype_id@?$QMetaTypeIdQObject@PAVPlanController@@$07@@SAHXZ 004132c9 f   main.obj
 0001:000122c9       __ehhandler$?qt_metatype_id@?$QMetaTypeIdQObject@PAVPlanSelector@@$07@@SAHXZ 004132c9 f   main.obj
 0001:000122f0       __unwindfunclet$?validate@TextFieldDoubleValidator@@UBE?AW4State@QValidator@@AAVQString@@AAH@Z$0 004132f0 f   main.obj
 0001:0001230a       __unwindfunclet$?validate@TextFieldDoubleValidator@@UBE?AW4State@QValidator@@AAVQString@@AAH@Z$1 0041330a f   main.obj
 0001:00012313       __unwindfunclet$?validate@TextFieldDoubleValidator@@UBE?AW4State@QValidator@@AAVQString@@AAH@Z$2 00413313 f   main.obj
 0001:0001231c       __ehhandler$?validate@TextFieldDoubleValidator@@UBE?AW4State@QValidator@@AAVQString@@AAH@Z 0041331c f   main.obj
 0001:00012340       __unwindfunclet$_main$0    00413340 f   main.obj
 0001:00012349       __unwindfunclet$_main$1    00413349 f   main.obj
 0001:00012352       __unwindfunclet$_main$2    00413352 f   main.obj
 0001:0001235b       __unwindfunclet$_main$3    0041335b f   main.obj
 0001:00012364       __unwindfunclet$_main$4    00413364 f   main.obj
 0001:0001236d       __unwindfunclet$_main$5    0041336d f   main.obj
 0001:00012376       __unwindfunclet$_main$6    00413376 f   main.obj
 0001:0001237f       __unwindfunclet$_main$7    0041337f f   main.obj
 0001:00012388       __unwindfunclet$_main$8    00413388 f   main.obj
 0001:00012391       __unwindfunclet$_main$9    00413391 f   main.obj
 0001:0001239a       __unwindfunclet$_main$10   0041339a f   main.obj
 0001:000123a3       __unwindfunclet$_main$11   004133a3 f   main.obj
 0001:000123ac       __unwindfunclet$_main$12   004133ac f   main.obj
 0001:000123b5       __unwindfunclet$_main$13   004133b5 f   main.obj
 0001:000123be       __unwindfunclet$_main$14   004133be f   main.obj
 0001:000123c7       __unwindfunclet$_main$15   004133c7 f   main.obj
 0001:000123d0       __unwindfunclet$_main$16   004133d0 f   main.obj
 0001:000123d9       __unwindfunclet$_main$18   004133d9 f   main.obj
 0001:000123e2       __unwindfunclet$_main$19   004133e2 f   main.obj
 0001:000123eb       __ehhandler$_main          004133eb f   main.obj
 0001:00012410       __ehhandler$??0?$QList@PAVQObject@@@@QAE@ABV0@@Z 00413410 f   workmodels.obj
 0001:00012410       __ehhandler$??0?$QList@H@@QAE@ABV0@@Z 00413410 f   workmodels.obj
 0001:00012430       __ehhandler$??0?$QList@VOperationParamData@@@@QAE@ABV0@@Z 00413430 f   workmodels.obj
 0001:00012450       __ehhandler$??0?$QList@VQString@@@@QAE@ABV0@@Z 00413450 f   workmodels.obj
 0001:00012470       __unwindfunclet$??0OperationParamData@@QAE@ABV0@@Z$0 00413470 f   workmodels.obj
 0001:00012479       __unwindfunclet$??0OperationParamData@@QAE@ABV0@@Z$1 00413479 f   workmodels.obj
 0001:00012485       __unwindfunclet$??0OperationParamData@@QAE@ABV0@@Z$2 00413485 f   workmodels.obj
 0001:00012491       __unwindfunclet$??0OperationParamData@@QAE@ABV0@@Z$3 00413491 f   workmodels.obj
 0001:0001249c       __unwindfunclet$??0OperationParamData@@QAE@ABV0@@Z$4 0041349c f   workmodels.obj
 0001:000124a8       __unwindfunclet$??0OperationParamData@@QAE@ABV0@@Z$5 004134a8 f   workmodels.obj
 0001:000124b3       __unwindfunclet$??0OperationParamData@@QAE@ABV0@@Z$6 004134b3 f   workmodels.obj
 0001:000124bf       __unwindfunclet$??0OperationParamData@@QAE@ABV0@@Z$7 004134bf f   workmodels.obj
 0001:000124cb       __unwindfunclet$??0OperationParamData@@QAE@ABV0@@Z$25 004134cb f   workmodels.obj
 0001:000124d1       __ehhandler$??0OperationParamData@@QAE@ABV0@@Z 004134d1 f   workmodels.obj
 0001:000124f0       __unwindfunclet$??0PlanSelector@@QAE@PAVQObject@@@Z$0 004134f0 f   workmodels.obj
 0001:000124f9       __unwindfunclet$??0PlanSelector@@QAE@PAVQObject@@@Z$1 004134f9 f   workmodels.obj
 0001:00012504       __unwindfunclet$??0PlanSelector@@QAE@PAVQObject@@@Z$2 00413504 f   workmodels.obj
 0001:0001250f       __unwindfunclet$??0PlanSelector@@QAE@PAVQObject@@@Z$3 0041350f f   workmodels.obj
 0001:0001251a       __ehhandler$??0PlanSelector@@QAE@PAVQObject@@@Z 0041351a f   workmodels.obj
 0001:00012540       __unwindfunclet$??0StatusViewWatcher@@QAE@PAVQObject@@@Z$0 00413540 f   workmodels.obj
 0001:00012540       __unwindfunclet$??0PlanController@@QAE@PAVQObject@@@Z$0 00413540 f   workmodels.obj
 0001:00012540       __unwindfunclet$??0configFileHandler@@QAE@PAVQObject@@@Z$0 00413540 f   configfilehandler.obj
 0001:00012549       __ehhandler$??0StatusViewWatcher@@QAE@PAVQObject@@@Z 00413549 f   workmodels.obj
 0001:00012549       __ehhandler$??0configFileHandler@@QAE@PAVQObject@@@Z 00413549 f   configfilehandler.obj
 0001:00012549       __ehhandler$??0PlanController@@QAE@PAVQObject@@@Z 00413549 f   workmodels.obj
 0001:00012570       __unwindfunclet$??1?$QForeachContainer@V?$QList@PAVQObject@@@@@QtPrivate@@QAE@XZ$0 00413570 f   workmodels.obj
 0001:00012570       __unwindfunclet$??1?$QForeachContainer@V?$QList@VOperationParamData@@@@@QtPrivate@@QAE@XZ$0 00413570 f   workmodels.obj
 0001:00012576       __ehhandler$??1?$QForeachContainer@V?$QList@VOperationParamData@@@@@QtPrivate@@QAE@XZ 00413576 f   workmodels.obj
 0001:00012576       __ehhandler$??1?$QForeachContainer@V?$QList@PAVQObject@@@@@QtPrivate@@QAE@XZ 00413576 f   workmodels.obj
 0001:000125a0       __ehhandler$??1?$QList@H@@QAE@XZ 004135a0 f   workmodels.obj
 0001:000125a0       __ehhandler$??1?$QList@VOperationParamData@@@@QAE@XZ 004135a0 f   workmodels.obj
 0001:000125a0       __ehhandler$??1?$QList@PAVQObject@@@@QAE@XZ 004135a0 f   workmodels.obj
 0001:000125c0       __unwindfunclet$??_G?$QQmlElement@VPlanSelector@@@QQmlPrivate@@UAEPAXI@Z$0 004135c0 f   main.obj
 0001:000125c0       __unwindfunclet$??_G?$QQmlElement@VOperationParamSelector@@@QQmlPrivate@@UAEPAXI@Z$0 004135c0 f   main.obj
 0001:000125c0       __unwindfunclet$??1OperationParamData@@QAE@XZ$0 004135c0 f   main.obj
 0001:000125c0       __unwindfunclet$??1SingleOperationData@@QAE@XZ$0 004135c0 f   workmodels.obj
 0001:000125c0       __unwindfunclet$??_G?$QQmlElement@VOperationParamObject@@@QQmlPrivate@@UAEPAXI@Z$0 004135c0 f   main.obj
 0001:000125c0       __unwindfunclet$??_G?$QQmlElement@VTextFieldDoubleValidator@@@QQmlPrivate@@UAEPAXI@Z$0 004135c0 f   main.obj
 0001:000125c0       __unwindfunclet$??_GPlanController@@UAEPAXI@Z$0 004135c0 f   workmodels.obj
 0001:000125c0       __unwindfunclet$??_G?$QQmlElement@VStatusViewWatcher@@@QQmlPrivate@@UAEPAXI@Z$0 004135c0 f   main.obj
 0001:000125c0       __unwindfunclet$??1?$QForeachContainer@V?$QList@VSingleOperationData@@@@@QtPrivate@@QAE@XZ$0 004135c0 f   environmentvariant.obj
 0001:000125c0       __unwindfunclet$??_GSingleOperationData@@QAEPAXI@Z$1 004135c0 f   configfilehandler.obj
 0001:000125c0       __unwindfunclet$??_G?$QQmlElement@VPlanController@@@QQmlPrivate@@UAEPAXI@Z$0 004135c0 f   main.obj
 0001:000125c6       __ehhandler$??1?$QForeachContainer@V?$QList@VSingleOperationData@@@@@QtPrivate@@QAE@XZ 004135c6 f   environmentvariant.obj
 0001:000125c6       __ehhandler$??_G?$QQmlElement@VPlanController@@@QQmlPrivate@@UAEPAXI@Z 004135c6 f   main.obj
 0001:000125c6       __ehhandler$??_G?$QQmlElement@VStatusViewWatcher@@@QQmlPrivate@@UAEPAXI@Z 004135c6 f   main.obj
 0001:000125c6       __ehhandler$??_G?$QQmlElement@VPlanSelector@@@QQmlPrivate@@UAEPAXI@Z 004135c6 f   main.obj
 0001:000125c6       __ehhandler$??1SingleOperationData@@QAE@XZ 004135c6 f   workmodels.obj
 0001:000125c6       __ehhandler$??_G?$QQmlElement@VTextFieldDoubleValidator@@@QQmlPrivate@@UAEPAXI@Z 004135c6 f   main.obj
 0001:000125c6       __ehhandler$??_GPlanController@@UAEPAXI@Z 004135c6 f   workmodels.obj
 0001:000125c6       __ehhandler$??_G?$QQmlElement@VOperationParamObject@@@QQmlPrivate@@UAEPAXI@Z 004135c6 f   main.obj
 0001:000125c6       __ehhandler$??_G?$QQmlElement@VOperationParamSelector@@@QQmlPrivate@@UAEPAXI@Z 004135c6 f   main.obj
 0001:000125c6       __ehhandler$??1OperationParamData@@QAE@XZ 004135c6 f   main.obj
 0001:000125c6       __ehhandler$??_GSingleOperationData@@QAEPAXI@Z 004135c6 f   configfilehandler.obj
 0001:000125f0       __unwindfunclet$??_GStatusViewWatcher@@UAEPAXI@Z$0 004135f0 f   workmodels.obj
 0001:000125f6       __ehhandler$??_GStatusViewWatcher@@UAEPAXI@Z 004135f6 f   workmodels.obj
 0001:00012620       __unwindfunclet$?append@?$QList@VOperationParamData@@@@QAEXABVOperationParamData@@@Z$9 00413620 f   workmodels.obj
 0001:0001262f       __unwindfunclet$?append@?$QList@VOperationParamData@@@@QAEXABVOperationParamData@@@Z$11 0041362f f   workmodels.obj
 0001:0001263e       __ehhandler$?append@?$QList@VOperationParamData@@@@QAEXABVOperationParamData@@@Z 0041363e f   workmodels.obj
 0001:00012660       __ehhandler$?detach_helper_grow@?$QList@H@@AAEPAUNode@1@HH@Z 00413660 f   configfilehandler.obj
 0001:00012660       __ehhandler$?detach_helper_grow@?$QList@PAVQObject@@@@AAEPAUNode@1@HH@Z 00413660 f   workmodels.obj
 0001:00012680       __ehhandler$?detach_helper_grow@?$QList@VOperationParamData@@@@AAEPAUNode@1@HH@Z 00413680 f   workmodels.obj
 0001:000126a0       __unwindfunclet$?getSwitch@OperationParamSelector@@QAEPAVQObject@@ABVQString@@@Z$0 004136a0 f   workmodels.obj
 0001:000126a0       __unwindfunclet$?getSwitch@PlanSelector@@QAEPAVQObject@@ABVQString@@@Z$0 004136a0 f   workmodels.obj
 0001:000126a8       __unwindfunclet$?getSwitch@PlanSelector@@QAEPAVQObject@@ABVQString@@@Z$12 004136a8 f   workmodels.obj
 0001:000126a8       __unwindfunclet$?getSwitch@OperationParamSelector@@QAEPAVQObject@@ABVQString@@@Z$12 004136a8 f   workmodels.obj
 0001:000126ae       __unwindfunclet$?getSwitch@PlanSelector@@QAEPAVQObject@@ABVQString@@@Z$4 004136ae f   workmodels.obj
 0001:000126ae       __unwindfunclet$?getSwitch@OperationParamSelector@@QAEPAVQObject@@ABVQString@@@Z$4 004136ae f   workmodels.obj
 0001:000126b4       __ehhandler$?getSwitch@PlanSelector@@QAEPAVQObject@@ABVQString@@@Z 004136b4 f   workmodels.obj
 0001:000126b4       __ehhandler$?getSwitch@OperationParamSelector@@QAEPAVQObject@@ABVQString@@@Z 004136b4 f   workmodels.obj
 0001:000126d0       __unwindfunclet$?node_copy@?$QList@VOperationParamData@@@@AAEXPAUNode@1@00@Z$4 004136d0 f   workmodels.obj
 0001:000126df       __ehhandler$?node_copy@?$QList@VOperationParamData@@@@AAEXPAUNode@1@00@Z 004136df f   workmodels.obj
 0001:00012700       __unwindfunclet$?onCompleteSingleOperation@OperationParamSelector@@QAEXXZ$0 00413700 f   workmodels.obj
 0001:00012708       __unwindfunclet$?onCompleteSingleOperation@OperationParamSelector@@QAEXXZ$2 00413708 f   workmodels.obj
 0001:00012710       __unwindfunclet$?onCompleteSingleOperation@OperationParamSelector@@QAEXXZ$8 00413710 f   workmodels.obj
 0001:00012716       __unwindfunclet$?onCompleteSingleOperation@OperationParamSelector@@QAEXXZ$16 00413716 f   workmodels.obj
 0001:0001271c       __unwindfunclet$?onCompleteSingleOperation@OperationParamSelector@@QAEXXZ$24 0041371c f   workmodels.obj
 0001:00012722       __unwindfunclet$?onCompleteSingleOperation@OperationParamSelector@@QAEXXZ$32 00413722 f   workmodels.obj
 0001:00012728       __ehhandler$?onCompleteSingleOperation@OperationParamSelector@@QAEXXZ 00413728 f   workmodels.obj
 0001:00012750       __unwindfunclet$?onMachineConfigChanged@TargetMachineObject@@QAEXXZ$0 00413750 f   workmodels.obj
 0001:00012758       __ehhandler$?onMachineConfigChanged@TargetMachineObject@@QAEXXZ 00413758 f   workmodels.obj
 0001:00012780       __unwindfunclet$?setSelectedOperation@OperationParamSelector@@QAEXH@Z$13 00413780 f   workmodels.obj
 0001:00012786       __unwindfunclet$?setSelectedOperation@OperationParamSelector@@QAEXH@Z$20 00413786 f   workmodels.obj
 0001:0001278c       __unwindfunclet$?setSelectedOperation@OperationParamSelector@@QAEXH@Z$29 0041378c f   workmodels.obj
 0001:00012792       __unwindfunclet$?setSelectedOperation@OperationParamSelector@@QAEXH@Z$47 00413792 f   workmodels.obj
 0001:00012798       __unwindfunclet$?setSelectedOperation@OperationParamSelector@@QAEXH@Z$54 00413798 f   workmodels.obj
 0001:0001279e       __unwindfunclet$?setSelectedOperation@OperationParamSelector@@QAEXH@Z$2 0041379e f   workmodels.obj
 0001:000127a6       __unwindfunclet$?setSelectedOperation@OperationParamSelector@@QAEXH@Z$3 004137a6 f   workmodels.obj
 0001:000127b5       __unwindfunclet$?setSelectedOperation@OperationParamSelector@@QAEXH@Z$62 004137b5 f   workmodels.obj
 0001:000127be       __unwindfunclet$?setSelectedOperation@OperationParamSelector@@QAEXH@Z$65 004137be f   workmodels.obj
 0001:000127c4       __unwindfunclet$?setSelectedOperation@OperationParamSelector@@QAEXH@Z$73 004137c4 f   workmodels.obj
 0001:000127ca       __unwindfunclet$?setSelectedOperation@OperationParamSelector@@QAEXH@Z$81 004137ca f   workmodels.obj
 0001:000127d0       __ehhandler$?setSelectedOperation@OperationParamSelector@@QAEXH@Z 004137d0 f   workmodels.obj
 0001:000127f0       __unwindfunclet$?setSelectedOperation@PlanSelector@@QAEXHHH@Z$0 004137f0 f   workmodels.obj
 0001:000127f8       __unwindfunclet$?setSelectedOperation@PlanSelector@@QAEXHHH@Z$7 004137f8 f   workmodels.obj
 0001:000127fe       __unwindfunclet$?setSelectedOperation@PlanSelector@@QAEXHHH@Z$25 004137fe f   workmodels.obj
 0001:00012804       __unwindfunclet$?setSelectedOperation@PlanSelector@@QAEXHHH@Z$32 00413804 f   workmodels.obj
 0001:0001280a       __unwindfunclet$?setSelectedOperation@PlanSelector@@QAEXHHH@Z$2 0041380a f   workmodels.obj
 0001:00012812       __unwindfunclet$?setSelectedOperation@PlanSelector@@QAEXHHH@Z$3 00413812 f   workmodels.obj
 0001:00012821       __unwindfunclet$?setSelectedOperation@PlanSelector@@QAEXHHH@Z$40 00413821 f   workmodels.obj
 0001:0001282a       __unwindfunclet$?setSelectedOperation@PlanSelector@@QAEXHHH@Z$43 0041382a f   workmodels.obj
 0001:00012830       __unwindfunclet$?setSelectedOperation@PlanSelector@@QAEXHHH@Z$51 00413830 f   workmodels.obj
 0001:00012836       __unwindfunclet$?setSelectedOperation@PlanSelector@@QAEXHHH@Z$59 00413836 f   workmodels.obj
 0001:0001283c       __unwindfunclet$?setSelectedOperation@PlanSelector@@QAEXHHH@Z$88 0041383c f   workmodels.obj
 0001:00012842       __unwindfunclet$?setSelectedOperation@PlanSelector@@QAEXHHH@Z$96 00413842 f   workmodels.obj
 0001:00012848       __unwindfunclet$?setSelectedOperation@PlanSelector@@QAEXHHH@Z$104 00413848 f   workmodels.obj
 0001:0001284e       __ehhandler$?setSelectedOperation@PlanSelector@@QAEXHHH@Z 0041384e f   workmodels.obj
 0001:00012870       __unwindfunclet$?setSelectedStep@PlanSelector@@QAEXHH@Z$14 00413870 f   workmodels.obj
 0001:00012876       __unwindfunclet$?setSelectedStep@PlanSelector@@QAEXHH@Z$22 00413876 f   workmodels.obj
 0001:0001287c       __unwindfunclet$?setSelectedStep@PlanSelector@@QAEXHH@Z$31 0041387c f   workmodels.obj
 0001:00012882       __unwindfunclet$?setSelectedStep@PlanSelector@@QAEXHH@Z$49 00413882 f   workmodels.obj
 0001:00012888       __unwindfunclet$?setSelectedStep@PlanSelector@@QAEXHH@Z$56 00413888 f   workmodels.obj
 0001:0001288e       __unwindfunclet$?setSelectedStep@PlanSelector@@QAEXHH@Z$2 0041388e f   workmodels.obj
 0001:00012896       __unwindfunclet$?setSelectedStep@PlanSelector@@QAEXHH@Z$3 00413896 f   workmodels.obj
 0001:000128a5       __unwindfunclet$?setSelectedStep@PlanSelector@@QAEXHH@Z$64 004138a5 f   workmodels.obj
 0001:000128ae       __unwindfunclet$?setSelectedStep@PlanSelector@@QAEXHH@Z$67 004138ae f   workmodels.obj
 0001:000128b4       __unwindfunclet$?setSelectedStep@PlanSelector@@QAEXHH@Z$75 004138b4 f   workmodels.obj
 0001:000128ba       __unwindfunclet$?setSelectedStep@PlanSelector@@QAEXHH@Z$83 004138ba f   workmodels.obj
 0001:000128c0       __ehhandler$?setSelectedStep@PlanSelector@@QAEXHH@Z 004138c0 f   workmodels.obj
 0001:000128e0       __unwindfunclet$??$qMakePair@VQString@@V?$QList@VSingleOperationData@@@@@@YA?AU?$QPair@VQString@@V?$QList@VSingleOperationData@@@@@@ABVQString@@ABV?$QList@VSingleOperationData@@@@@Z$1 004138e0 f   configfilehandler.obj
 0001:000128e9       __ehhandler$??$qMakePair@VQString@@V?$QList@VSingleOperationData@@@@@@YA?AU?$QPair@VQString@@V?$QList@VSingleOperationData@@@@@@ABVQString@@ABV?$QList@VSingleOperationData@@@@@Z 004138e9 f   configfilehandler.obj
 0001:00012910       __ehhandler$??0?$QList@VSingleOperationData@@@@QAE@ABV0@@Z 00413910 f   configfilehandler.obj
 0001:00012930       __unwindfunclet$??0OperationParamData@@QAE@ABVQString@@00ABVQStringList@@_NHH0V?$QList@H@@00HH@Z$0 00413930 f   configfilehandler.obj
 0001:00012938       __unwindfunclet$??0OperationParamData@@QAE@ABVQString@@00ABVQStringList@@_NHH0V?$QList@H@@00HH@Z$1 00413938 f   configfilehandler.obj
 0001:00012941       __unwindfunclet$??0OperationParamData@@QAE@ABVQString@@00ABVQStringList@@_NHH0V?$QList@H@@00HH@Z$2 00413941 f   configfilehandler.obj
 0001:0001294d       __unwindfunclet$??0OperationParamData@@QAE@ABVQString@@00ABVQStringList@@_NHH0V?$QList@H@@00HH@Z$3 0041394d f   configfilehandler.obj
 0001:00012959       __unwindfunclet$??0OperationParamData@@QAE@ABVQString@@00ABVQStringList@@_NHH0V?$QList@H@@00HH@Z$4 00413959 f   configfilehandler.obj
 0001:00012964       __unwindfunclet$??0OperationParamData@@QAE@ABVQString@@00ABVQStringList@@_NHH0V?$QList@H@@00HH@Z$5 00413964 f   configfilehandler.obj
 0001:00012970       __unwindfunclet$??0OperationParamData@@QAE@ABVQString@@00ABVQStringList@@_NHH0V?$QList@H@@00HH@Z$6 00413970 f   configfilehandler.obj
 0001:0001297b       __unwindfunclet$??0OperationParamData@@QAE@ABVQString@@00ABVQStringList@@_NHH0V?$QList@H@@00HH@Z$7 0041397b f   configfilehandler.obj
 0001:00012987       __unwindfunclet$??0OperationParamData@@QAE@ABVQString@@00ABVQStringList@@_NHH0V?$QList@H@@00HH@Z$8 00413987 f   configfilehandler.obj
 0001:00012993       __unwindfunclet$??0OperationParamData@@QAE@ABVQString@@00ABVQStringList@@_NHH0V?$QList@H@@00HH@Z$26 00413993 f   configfilehandler.obj
 0001:00012999       __unwindfunclet$??0OperationParamData@@QAE@ABVQString@@00ABVQStringList@@_NHH0V?$QList@H@@00HH@Z$33 00413999 f   configfilehandler.obj
 0001:0001299f       __ehhandler$??0OperationParamData@@QAE@ABVQString@@00ABVQStringList@@_NHH0V?$QList@H@@00HH@Z 0041399f f   configfilehandler.obj
 0001:000129c0       __ehhandler$??1?$QMap@VQString@@VQStringList@@@@QAE@XZ 004139c0 f   configfilehandler.obj
 0001:000129c0       __ehhandler$??1?$QMap@VQString@@VOperationParamData@@@@QAE@XZ 004139c0 f   configfilehandler.obj
 0001:000129e0       __unwindfunclet$?setIntListValue@OperationParamObject@@QAEXABV?$QList@H@@@Z$7 004139e0 f   moc_workmodels.obj
 0001:000129e0       __unwindfunclet$??4OperationParamData@@QAEAAV0@ABV0@@Z$14 004139e0 f   configfilehandler.obj
 0001:000129e0       __unwindfunclet$?setParamModel@OperationParamSelector@@QAEXABV?$QList@PAVQObject@@@@@Z$7 004139e0 f   moc_workmodels.obj
 0001:000129e0       __unwindfunclet$?setParamListModel@PlanSelector@@QAEXABV?$QList@PAVQObject@@@@@Z$7 004139e0 f   moc_workmodels.obj
 0001:000129e6       __ehhandler$?setParamListModel@PlanSelector@@QAEXABV?$QList@PAVQObject@@@@@Z 004139e6 f   moc_workmodels.obj
 0001:000129e6       __ehhandler$?setIntListValue@OperationParamObject@@QAEXABV?$QList@H@@@Z 004139e6 f   moc_workmodels.obj
 0001:000129e6       __ehhandler$?setParamModel@OperationParamSelector@@QAEXABV?$QList@PAVQObject@@@@@Z 004139e6 f   moc_workmodels.obj
 0001:000129e6       __ehhandler$??4OperationParamData@@QAEAAV0@ABV0@@Z 004139e6 f   configfilehandler.obj
 0001:00012a10       __unwindfunclet$??A?$QMap@VQString@@V1@@@QAEAAVQString@@ABV1@@Z$0 00413a10 f   configfilehandler.obj
 0001:00012a19       __ehhandler$??A?$QMap@VQString@@V1@@@QAEAAVQString@@ABV1@@Z 00413a19 f   configfilehandler.obj
 0001:00012a40       __unwindfunclet$??A?$QMap@VQString@@VOperationParamData@@@@QBE?BVOperationParamData@@ABVQString@@@Z$0 00413a40 f   configfilehandler.obj
 0001:00012a48       __ehhandler$??A?$QMap@VQString@@VOperationParamData@@@@QBE?BVOperationParamData@@ABVQString@@@Z 00413a48 f   configfilehandler.obj
 0001:00012a70       __unwindfunclet$??A?$QMap@VQString@@VQStringList@@@@QAEAAVQStringList@@ABVQString@@@Z$0 00413a70 f   configfilehandler.obj
 0001:00012a78       __ehhandler$??A?$QMap@VQString@@VQStringList@@@@QAEAAVQStringList@@ABVQString@@@Z 00413a78 f   configfilehandler.obj
 0001:00012aa0       __unwindfunclet$?ParseHostIP@configFileHandler@@QAE?AVQString@@XZ$0 00413aa0 f   configfilehandler.obj
 0001:00012aa9       __unwindfunclet$?ParseHostIP@configFileHandler@@QAE?AVQString@@XZ$1 00413aa9 f   configfilehandler.obj
 0001:00012ab2       __unwindfunclet$?ParseHostIP@configFileHandler@@QAE?AVQString@@XZ$2 00413ab2 f   configfilehandler.obj
 0001:00012abb       __ehhandler$?ParseHostIP@configFileHandler@@QAE?AVQString@@XZ 00413abb f   configfilehandler.obj
 0001:00012ae0       __unwindfunclet$?ParseHostPort@configFileHandler@@QAEFXZ$0 00413ae0 f   configfilehandler.obj
 0001:00012ae0       __unwindfunclet$?ParseHostSingleOperationThreshold@configFileHandler@@QAEHXZ$0 00413ae0 f   configfilehandler.obj
 0001:00012ae9       __unwindfunclet$?ParseHostSingleOperationThreshold@configFileHandler@@QAEHXZ$1 00413ae9 f   configfilehandler.obj
 0001:00012ae9       __unwindfunclet$?ParseHostPort@configFileHandler@@QAEFXZ$1 00413ae9 f   configfilehandler.obj
 0001:00012af2       __unwindfunclet$?ParseHostSingleOperationThreshold@configFileHandler@@QAEHXZ$2 00413af2 f   configfilehandler.obj
 0001:00012af2       __unwindfunclet$?ParseHostPort@configFileHandler@@QAEFXZ$2 00413af2 f   configfilehandler.obj
 0001:00012afb       __unwindfunclet$?ParseHostSingleOperationThreshold@configFileHandler@@QAEHXZ$3 00413afb f   configfilehandler.obj
 0001:00012afb       __unwindfunclet$?ParseHostPort@configFileHandler@@QAEFXZ$3 00413afb f   configfilehandler.obj
 0001:00012b04       __ehhandler$?ParseHostPort@configFileHandler@@QAEFXZ 00413b04 f   configfilehandler.obj
 0001:00012b04       __ehhandler$?ParseHostSingleOperationThreshold@configFileHandler@@QAEHXZ 00413b04 f   configfilehandler.obj
 0001:00012b20       __unwindfunclet$?ParseLicense@configFileHandler@@QAEXAAVQByteArray@@@Z$0 00413b20 f   configfilehandler.obj
 0001:00012b29       __unwindfunclet$?ParseLicense@configFileHandler@@QAEXAAVQByteArray@@@Z$1 00413b29 f   configfilehandler.obj
 0001:00012b32       __unwindfunclet$?ParseLicense@configFileHandler@@QAEXAAVQByteArray@@@Z$2 00413b32 f   configfilehandler.obj
 0001:00012b3b       __unwindfunclet$?ParseLicense@configFileHandler@@QAEXAAVQByteArray@@@Z$3 00413b3b f   configfilehandler.obj
 0001:00012b44       __ehhandler$?ParseLicense@configFileHandler@@QAEXAAVQByteArray@@@Z 00413b44 f   configfilehandler.obj
 0001:00012b60       __unwindfunclet$?ParseListMap@configFileHandler@@QAE?AV?$QMap@VQString@@VQStringList@@@@ABVQString@@@Z$0 00413b60 f   configfilehandler.obj
 0001:00012b79       __unwindfunclet$?ParseListMap@configFileHandler@@QAE?AV?$QMap@VQString@@VQStringList@@@@ABVQString@@@Z$1 00413b79 f   configfilehandler.obj
 0001:00012b82       __unwindfunclet$?ParseListMap@configFileHandler@@QAE?AV?$QMap@VQString@@VQStringList@@@@ABVQString@@@Z$2 00413b82 f   configfilehandler.obj
 0001:00012b8b       __unwindfunclet$?ParseListMap@configFileHandler@@QAE?AV?$QMap@VQString@@VQStringList@@@@ABVQString@@@Z$3 00413b8b f   configfilehandler.obj
 0001:00012b94       __unwindfunclet$?ParseListMap@configFileHandler@@QAE?AV?$QMap@VQString@@VQStringList@@@@ABVQString@@@Z$4 00413b94 f   configfilehandler.obj
 0001:00012b9c       __unwindfunclet$?ParseListMap@configFileHandler@@QAE?AV?$QMap@VQString@@VQStringList@@@@ABVQString@@@Z$5 00413b9c f   configfilehandler.obj
 0001:00012ba5       __unwindfunclet$?ParseListMap@configFileHandler@@QAE?AV?$QMap@VQString@@VQStringList@@@@ABVQString@@@Z$6 00413ba5 f   configfilehandler.obj
 0001:00012bae       __unwindfunclet$?ParseListMap@configFileHandler@@QAE?AV?$QMap@VQString@@VQStringList@@@@ABVQString@@@Z$7 00413bae f   configfilehandler.obj
 0001:00012bb7       __unwindfunclet$?ParseListMap@configFileHandler@@QAE?AV?$QMap@VQString@@VQStringList@@@@ABVQString@@@Z$18 00413bb7 f   configfilehandler.obj
 0001:00012bbd       __unwindfunclet$?ParseListMap@configFileHandler@@QAE?AV?$QMap@VQString@@VQStringList@@@@ABVQString@@@Z$28 00413bbd f   configfilehandler.obj
 0001:00012bc3       __ehhandler$?ParseListMap@configFileHandler@@QAE?AV?$QMap@VQString@@VQStringList@@@@ABVQString@@@Z 00413bc3 f   configfilehandler.obj
 0001:00012be0       __unwindfunclet$?ParseMapRevertKeyValue@configFileHandler@@QAE?AV?$QMap@VQString@@V1@@@ABVQString@@@Z$0 00413be0 f   configfilehandler.obj
 0001:00012be0       __unwindfunclet$?ParseMap@configFileHandler@@QAE?AV?$QMap@VQString@@V1@@@ABVQString@@@Z$0 00413be0 f   configfilehandler.obj
 0001:00012bf9       __unwindfunclet$?ParseMap@configFileHandler@@QAE?AV?$QMap@VQString@@V1@@@ABVQString@@@Z$1 00413bf9 f   configfilehandler.obj
 0001:00012bf9       __unwindfunclet$?ParseMapRevertKeyValue@configFileHandler@@QAE?AV?$QMap@VQString@@V1@@@ABVQString@@@Z$1 00413bf9 f   configfilehandler.obj
 0001:00012c02       __unwindfunclet$?ParseMap@configFileHandler@@QAE?AV?$QMap@VQString@@V1@@@ABVQString@@@Z$2 00413c02 f   configfilehandler.obj
 0001:00012c02       __unwindfunclet$?ParseMapRevertKeyValue@configFileHandler@@QAE?AV?$QMap@VQString@@V1@@@ABVQString@@@Z$2 00413c02 f   configfilehandler.obj
 0001:00012c0b       __unwindfunclet$?ParseMap@configFileHandler@@QAE?AV?$QMap@VQString@@V1@@@ABVQString@@@Z$3 00413c0b f   configfilehandler.obj
 0001:00012c0b       __unwindfunclet$?ParseMapRevertKeyValue@configFileHandler@@QAE?AV?$QMap@VQString@@V1@@@ABVQString@@@Z$3 00413c0b f   configfilehandler.obj
 0001:00012c14       __unwindfunclet$?ParseMapRevertKeyValue@configFileHandler@@QAE?AV?$QMap@VQString@@V1@@@ABVQString@@@Z$4 00413c14 f   configfilehandler.obj
 0001:00012c14       __unwindfunclet$?ParseMap@configFileHandler@@QAE?AV?$QMap@VQString@@V1@@@ABVQString@@@Z$4 00413c14 f   configfilehandler.obj
 0001:00012c1d       __unwindfunclet$?ParseMap@configFileHandler@@QAE?AV?$QMap@VQString@@V1@@@ABVQString@@@Z$5 00413c1d f   configfilehandler.obj
 0001:00012c1d       __unwindfunclet$?ParseMapRevertKeyValue@configFileHandler@@QAE?AV?$QMap@VQString@@V1@@@ABVQString@@@Z$5 00413c1d f   configfilehandler.obj
 0001:00012c26       __ehhandler$?ParseMapRevertKeyValue@configFileHandler@@QAE?AV?$QMap@VQString@@V1@@@ABVQString@@@Z 00413c26 f   configfilehandler.obj
 0001:00012c26       __ehhandler$?ParseMap@configFileHandler@@QAE?AV?$QMap@VQString@@V1@@@ABVQString@@@Z 00413c26 f   configfilehandler.obj
 0001:00012c50       __unwindfunclet$?ParseParamValue@configFileHandler@@QAE?AV?$QMap@VQString@@VOperationParamData@@@@ABVQString@@@Z$0 00413c50 f   configfilehandler.obj
 0001:00012c69       __unwindfunclet$?ParseParamValue@configFileHandler@@QAE?AV?$QMap@VQString@@VOperationParamData@@@@ABVQString@@@Z$1 00413c69 f   configfilehandler.obj
 0001:00012c75       __unwindfunclet$?ParseParamValue@configFileHandler@@QAE?AV?$QMap@VQString@@VOperationParamData@@@@ABVQString@@@Z$2 00413c75 f   configfilehandler.obj
 0001:00012c81       __unwindfunclet$?ParseParamValue@configFileHandler@@QAE?AV?$QMap@VQString@@VOperationParamData@@@@ABVQString@@@Z$3 00413c81 f   configfilehandler.obj
 0001:00012c8a       __unwindfunclet$?ParseParamValue@configFileHandler@@QAE?AV?$QMap@VQString@@VOperationParamData@@@@ABVQString@@@Z$4 00413c8a f   configfilehandler.obj
 0001:00012c93       __unwindfunclet$?ParseParamValue@configFileHandler@@QAE?AV?$QMap@VQString@@VOperationParamData@@@@ABVQString@@@Z$5 00413c93 f   configfilehandler.obj
 0001:00012c9c       __unwindfunclet$?ParseParamValue@configFileHandler@@QAE?AV?$QMap@VQString@@VOperationParamData@@@@ABVQString@@@Z$6 00413c9c f   configfilehandler.obj
 0001:00012ca5       __unwindfunclet$?ParseParamValue@configFileHandler@@QAE?AV?$QMap@VQString@@VOperationParamData@@@@ABVQString@@@Z$7 00413ca5 f   configfilehandler.obj
 0001:00012cad       __unwindfunclet$?ParseParamValue@configFileHandler@@QAE?AV?$QMap@VQString@@VOperationParamData@@@@ABVQString@@@Z$8 00413cad f   configfilehandler.obj
 0001:00012cb5       __unwindfunclet$?ParseParamValue@configFileHandler@@QAE?AV?$QMap@VQString@@VOperationParamData@@@@ABVQString@@@Z$9 00413cb5 f   configfilehandler.obj
 0001:00012cbe       __unwindfunclet$?ParseParamValue@configFileHandler@@QAE?AV?$QMap@VQString@@VOperationParamData@@@@ABVQString@@@Z$10 00413cbe f   configfilehandler.obj
 0001:00012cc7       __unwindfunclet$?ParseParamValue@configFileHandler@@QAE?AV?$QMap@VQString@@VOperationParamData@@@@ABVQString@@@Z$11 00413cc7 f   configfilehandler.obj
 0001:00012cd0       __unwindfunclet$?ParseParamValue@configFileHandler@@QAE?AV?$QMap@VQString@@VOperationParamData@@@@ABVQString@@@Z$12 00413cd0 f   configfilehandler.obj
 0001:00012cd9       __unwindfunclet$?ParseParamValue@configFileHandler@@QAE?AV?$QMap@VQString@@VOperationParamData@@@@ABVQString@@@Z$14 00413cd9 f   configfilehandler.obj
 0001:00012ce2       __unwindfunclet$?ParseParamValue@configFileHandler@@QAE?AV?$QMap@VQString@@VOperationParamData@@@@ABVQString@@@Z$37 00413ce2 f   configfilehandler.obj
 0001:00012cee       __unwindfunclet$?ParseParamValue@configFileHandler@@QAE?AV?$QMap@VQString@@VOperationParamData@@@@ABVQString@@@Z$38 00413cee f   configfilehandler.obj
 0001:00012cfa       __unwindfunclet$?ParseParamValue@configFileHandler@@QAE?AV?$QMap@VQString@@VOperationParamData@@@@ABVQString@@@Z$39 00413cfa f   configfilehandler.obj
 0001:00012d06       __unwindfunclet$?ParseParamValue@configFileHandler@@QAE?AV?$QMap@VQString@@VOperationParamData@@@@ABVQString@@@Z$16 00413d06 f   configfilehandler.obj
 0001:00012d0f       __unwindfunclet$?ParseParamValue@configFileHandler@@QAE?AV?$QMap@VQString@@VOperationParamData@@@@ABVQString@@@Z$50 00413d0f f   configfilehandler.obj
 0001:00012d15       __unwindfunclet$?ParseParamValue@configFileHandler@@QAE?AV?$QMap@VQString@@VOperationParamData@@@@ABVQString@@@Z$59 00413d15 f   configfilehandler.obj
 0001:00012d1b       __unwindfunclet$?ParseParamValue@configFileHandler@@QAE?AV?$QMap@VQString@@VOperationParamData@@@@ABVQString@@@Z$17 00413d1b f   configfilehandler.obj
 0001:00012d24       __unwindfunclet$?ParseParamValue@configFileHandler@@QAE?AV?$QMap@VQString@@VOperationParamData@@@@ABVQString@@@Z$18 00413d24 f   configfilehandler.obj
 0001:00012d2d       __unwindfunclet$?ParseParamValue@configFileHandler@@QAE?AV?$QMap@VQString@@VOperationParamData@@@@ABVQString@@@Z$19 00413d2d f   configfilehandler.obj
 0001:00012d36       __unwindfunclet$?ParseParamValue@configFileHandler@@QAE?AV?$QMap@VQString@@VOperationParamData@@@@ABVQString@@@Z$21 00413d36 f   configfilehandler.obj
 0001:00012d3f       __unwindfunclet$?ParseParamValue@configFileHandler@@QAE?AV?$QMap@VQString@@VOperationParamData@@@@ABVQString@@@Z$22 00413d3f f   configfilehandler.obj
 0001:00012d48       __unwindfunclet$?ParseParamValue@configFileHandler@@QAE?AV?$QMap@VQString@@VOperationParamData@@@@ABVQString@@@Z$68 00413d48 f   configfilehandler.obj
 0001:00012d54       __unwindfunclet$?ParseParamValue@configFileHandler@@QAE?AV?$QMap@VQString@@VOperationParamData@@@@ABVQString@@@Z$23 00413d54 f   configfilehandler.obj
 0001:00012d5d       __unwindfunclet$?ParseParamValue@configFileHandler@@QAE?AV?$QMap@VQString@@VOperationParamData@@@@ABVQString@@@Z$25 00413d5d f   configfilehandler.obj
 0001:00012d66       __unwindfunclet$?ParseParamValue@configFileHandler@@QAE?AV?$QMap@VQString@@VOperationParamData@@@@ABVQString@@@Z$27 00413d66 f   configfilehandler.obj
 0001:00012d6f       __unwindfunclet$?ParseParamValue@configFileHandler@@QAE?AV?$QMap@VQString@@VOperationParamData@@@@ABVQString@@@Z$69 00413d6f f   configfilehandler.obj
 0001:00012d7b       __unwindfunclet$?ParseParamValue@configFileHandler@@QAE?AV?$QMap@VQString@@VOperationParamData@@@@ABVQString@@@Z$28 00413d7b f   configfilehandler.obj
 0001:00012d84       __unwindfunclet$?ParseParamValue@configFileHandler@@QAE?AV?$QMap@VQString@@VOperationParamData@@@@ABVQString@@@Z$70 00413d84 f   configfilehandler.obj
 0001:00012d90       __unwindfunclet$?ParseParamValue@configFileHandler@@QAE?AV?$QMap@VQString@@VOperationParamData@@@@ABVQString@@@Z$29 00413d90 f   configfilehandler.obj
 0001:00012d98       __unwindfunclet$?ParseParamValue@configFileHandler@@QAE?AV?$QMap@VQString@@VOperationParamData@@@@ABVQString@@@Z$30 00413d98 f   configfilehandler.obj
 0001:00012da1       __unwindfunclet$?ParseParamValue@configFileHandler@@QAE?AV?$QMap@VQString@@VOperationParamData@@@@ABVQString@@@Z$31 00413da1 f   configfilehandler.obj
 0001:00012dac       __unwindfunclet$?ParseParamValue@configFileHandler@@QAE?AV?$QMap@VQString@@VOperationParamData@@@@ABVQString@@@Z$32 00413dac f   configfilehandler.obj
 0001:00012db5       __unwindfunclet$?ParseParamValue@configFileHandler@@QAE?AV?$QMap@VQString@@VOperationParamData@@@@ABVQString@@@Z$71 00413db5 f   configfilehandler.obj
 0001:00012dc0       __unwindfunclet$?ParseParamValue@configFileHandler@@QAE?AV?$QMap@VQString@@VOperationParamData@@@@ABVQString@@@Z$79 00413dc0 f   configfilehandler.obj
 0001:00012dc6       __unwindfunclet$?ParseParamValue@configFileHandler@@QAE?AV?$QMap@VQString@@VOperationParamData@@@@ABVQString@@@Z$87 00413dc6 f   configfilehandler.obj
 0001:00012dcc       __unwindfunclet$?ParseParamValue@configFileHandler@@QAE?AV?$QMap@VQString@@VOperationParamData@@@@ABVQString@@@Z$97 00413dcc f   configfilehandler.obj
 0001:00012dd2       __unwindfunclet$?ParseParamValue@configFileHandler@@QAE?AV?$QMap@VQString@@VOperationParamData@@@@ABVQString@@@Z$105 00413dd2 f   configfilehandler.obj
 0001:00012dd8       __unwindfunclet$?ParseParamValue@configFileHandler@@QAE?AV?$QMap@VQString@@VOperationParamData@@@@ABVQString@@@Z$114 00413dd8 f   configfilehandler.obj
 0001:00012dde       __unwindfunclet$?ParseParamValue@configFileHandler@@QAE?AV?$QMap@VQString@@VOperationParamData@@@@ABVQString@@@Z$122 00413dde f   configfilehandler.obj
 0001:00012de4       __ehhandler$?ParseParamValue@configFileHandler@@QAE?AV?$QMap@VQString@@VOperationParamData@@@@ABVQString@@@Z 00413de4 f   configfilehandler.obj
 0001:00012e10       __unwindfunclet$?ParsePlanList@configFileHandler@@QAEXAAV?$QList@U?$QPair@VQString@@V?$QList@VSingleOperationData@@@@@@@@ABV?$QMap@VQString@@VOperationParamData@@@@@Z$0 00413e10 f   configfilehandler.obj
 0001:00012e19       __unwindfunclet$?ParsePlanList@configFileHandler@@QAEXAAV?$QList@U?$QPair@VQString@@V?$QList@VSingleOperationData@@@@@@@@ABV?$QMap@VQString@@VOperationParamData@@@@@Z$1 00413e19 f   configfilehandler.obj
 0001:00012e22       __unwindfunclet$?ParsePlanList@configFileHandler@@QAEXAAV?$QList@U?$QPair@VQString@@V?$QList@VSingleOperationData@@@@@@@@ABV?$QMap@VQString@@VOperationParamData@@@@@Z$2 00413e22 f   configfilehandler.obj
 0001:00012e2b       __unwindfunclet$?ParsePlanList@configFileHandler@@QAEXAAV?$QList@U?$QPair@VQString@@V?$QList@VSingleOperationData@@@@@@@@ABV?$QMap@VQString@@VOperationParamData@@@@@Z$3 00413e2b f   configfilehandler.obj
 0001:00012e34       __unwindfunclet$?ParsePlanList@configFileHandler@@QAEXAAV?$QList@U?$QPair@VQString@@V?$QList@VSingleOperationData@@@@@@@@ABV?$QMap@VQString@@VOperationParamData@@@@@Z$4 00413e34 f   configfilehandler.obj
 0001:00012e3c       __unwindfunclet$?ParsePlanList@configFileHandler@@QAEXAAV?$QList@U?$QPair@VQString@@V?$QList@VSingleOperationData@@@@@@@@ABV?$QMap@VQString@@VOperationParamData@@@@@Z$5 00413e3c f   configfilehandler.obj
 0001:00012e48       __unwindfunclet$?ParsePlanList@configFileHandler@@QAEXAAV?$QList@U?$QPair@VQString@@V?$QList@VSingleOperationData@@@@@@@@ABV?$QMap@VQString@@VOperationParamData@@@@@Z$6 00413e48 f   configfilehandler.obj
 0001:00012e51       __unwindfunclet$?ParsePlanList@configFileHandler@@QAEXAAV?$QList@U?$QPair@VQString@@V?$QList@VSingleOperationData@@@@@@@@ABV?$QMap@VQString@@VOperationParamData@@@@@Z$7 00413e51 f   configfilehandler.obj
 0001:00012e5a       __unwindfunclet$?ParsePlanList@configFileHandler@@QAEXAAV?$QList@U?$QPair@VQString@@V?$QList@VSingleOperationData@@@@@@@@ABV?$QMap@VQString@@VOperationParamData@@@@@Z$8 00413e5a f   configfilehandler.obj
 0001:00012e62       __unwindfunclet$?ParsePlanList@configFileHandler@@QAEXAAV?$QList@U?$QPair@VQString@@V?$QList@VSingleOperationData@@@@@@@@ABV?$QMap@VQString@@VOperationParamData@@@@@Z$9 00413e62 f   configfilehandler.obj
 0001:00012e6b       __unwindfunclet$?ParsePlanList@configFileHandler@@QAEXAAV?$QList@U?$QPair@VQString@@V?$QList@VSingleOperationData@@@@@@@@ABV?$QMap@VQString@@VOperationParamData@@@@@Z$11 00413e6b f   configfilehandler.obj
 0001:00012e73       __unwindfunclet$?ParsePlanList@configFileHandler@@QAEXAAV?$QList@U?$QPair@VQString@@V?$QList@VSingleOperationData@@@@@@@@ABV?$QMap@VQString@@VOperationParamData@@@@@Z$13 00413e73 f   configfilehandler.obj
 0001:00012e7e       __unwindfunclet$?ParsePlanList@configFileHandler@@QAEXAAV?$QList@U?$QPair@VQString@@V?$QList@VSingleOperationData@@@@@@@@ABV?$QMap@VQString@@VOperationParamData@@@@@Z$24 00413e7e f   configfilehandler.obj
 0001:00012e8a       __unwindfunclet$?ParsePlanList@configFileHandler@@QAEXAAV?$QList@U?$QPair@VQString@@V?$QList@VSingleOperationData@@@@@@@@ABV?$QMap@VQString@@VOperationParamData@@@@@Z$25 00413e8a f   configfilehandler.obj
 0001:00012e96       __unwindfunclet$?ParsePlanList@configFileHandler@@QAEXAAV?$QList@U?$QPair@VQString@@V?$QList@VSingleOperationData@@@@@@@@ABV?$QMap@VQString@@VOperationParamData@@@@@Z$26 00413e96 f   configfilehandler.obj
 0001:00012ea2       __unwindfunclet$?ParsePlanList@configFileHandler@@QAEXAAV?$QList@U?$QPair@VQString@@V?$QList@VSingleOperationData@@@@@@@@ABV?$QMap@VQString@@VOperationParamData@@@@@Z$27 00413ea2 f   configfilehandler.obj
 0001:00012eae       __unwindfunclet$?ParsePlanList@configFileHandler@@QAEXAAV?$QList@U?$QPair@VQString@@V?$QList@VSingleOperationData@@@@@@@@ABV?$QMap@VQString@@VOperationParamData@@@@@Z$29 00413eae f   configfilehandler.obj
 0001:00012eb4       __unwindfunclet$?ParsePlanList@configFileHandler@@QAEXAAV?$QList@U?$QPair@VQString@@V?$QList@VSingleOperationData@@@@@@@@ABV?$QMap@VQString@@VOperationParamData@@@@@Z$37 00413eb4 f   configfilehandler.obj
 0001:00012eba       __unwindfunclet$?ParsePlanList@configFileHandler@@QAEXAAV?$QList@U?$QPair@VQString@@V?$QList@VSingleOperationData@@@@@@@@ABV?$QMap@VQString@@VOperationParamData@@@@@Z$47 00413eba f   configfilehandler.obj
 0001:00012ec0       __unwindfunclet$?ParsePlanList@configFileHandler@@QAEXAAV?$QList@U?$QPair@VQString@@V?$QList@VSingleOperationData@@@@@@@@ABV?$QMap@VQString@@VOperationParamData@@@@@Z$55 00413ec0 f   configfilehandler.obj
 0001:00012ec6       __unwindfunclet$?ParsePlanList@configFileHandler@@QAEXAAV?$QList@U?$QPair@VQString@@V?$QList@VSingleOperationData@@@@@@@@ABV?$QMap@VQString@@VOperationParamData@@@@@Z$65 00413ec6 f   configfilehandler.obj
 0001:00012ecc       __unwindfunclet$?ParsePlanList@configFileHandler@@QAEXAAV?$QList@U?$QPair@VQString@@V?$QList@VSingleOperationData@@@@@@@@ABV?$QMap@VQString@@VOperationParamData@@@@@Z$73 00413ecc f   configfilehandler.obj
 0001:00012ed2       __unwindfunclet$?ParsePlanList@configFileHandler@@QAEXAAV?$QList@U?$QPair@VQString@@V?$QList@VSingleOperationData@@@@@@@@ABV?$QMap@VQString@@VOperationParamData@@@@@Z$81 00413ed2 f   configfilehandler.obj
 0001:00012ed8       __unwindfunclet$?ParsePlanList@configFileHandler@@QAEXAAV?$QList@U?$QPair@VQString@@V?$QList@VSingleOperationData@@@@@@@@ABV?$QMap@VQString@@VOperationParamData@@@@@Z$17 00413ed8 f   configfilehandler.obj
 0001:00012ee0       __unwindfunclet$?ParsePlanList@configFileHandler@@QAEXAAV?$QList@U?$QPair@VQString@@V?$QList@VSingleOperationData@@@@@@@@ABV?$QMap@VQString@@VOperationParamData@@@@@Z$111 00413ee0 f   configfilehandler.obj
 0001:00012ee6       __unwindfunclet$?ParsePlanList@configFileHandler@@QAEXAAV?$QList@U?$QPair@VQString@@V?$QList@VSingleOperationData@@@@@@@@ABV?$QMap@VQString@@VOperationParamData@@@@@Z$118 00413ee6 f   configfilehandler.obj
 0001:00012eec       __ehhandler$?ParsePlanList@configFileHandler@@QAEXAAV?$QList@U?$QPair@VQString@@V?$QList@VSingleOperationData@@@@@@@@ABV?$QMap@VQString@@VOperationParamData@@@@@Z 00413eec f   configfilehandler.obj
 0001:00012f10       __unwindfunclet$?ParseWorkPlaceConstraint@configFileHandler@@QAE?AVQJsonArray@@XZ$0 00413f10 f   configfilehandler.obj
 0001:00012f19       __ehhandler$?ParseWorkPlaceConstraint@configFileHandler@@QAE?AVQJsonArray@@XZ 00413f19 f   configfilehandler.obj
 0001:00012f40       __unwindfunclet$?ParseWorkSpaceTypeList@configFileHandler@@QAEXAAVQJsonObject@@@Z$0 00413f40 f   configfilehandler.obj
 0001:00012f49       __unwindfunclet$?ParseWorkSpaceTypeList@configFileHandler@@QAEXAAVQJsonObject@@@Z$1 00413f49 f   configfilehandler.obj
 0001:00012f52       __ehhandler$?ParseWorkSpaceTypeList@configFileHandler@@QAEXAAVQJsonObject@@@Z 00413f52 f   configfilehandler.obj
 0001:00012f70       __unwindfunclet$?SaveMachineConfig@configFileHandler@@QAEXABVQString@@ABVMachineConfigData@@ABVQJsonObject@@@Z$0 00413f70 f   configfilehandler.obj
 0001:00012f79       __unwindfunclet$?SaveMachineConfig@configFileHandler@@QAEXABVQString@@ABVMachineConfigData@@ABVQJsonObject@@@Z$1 00413f79 f   configfilehandler.obj
 0001:00012f82       __unwindfunclet$?SaveMachineConfig@configFileHandler@@QAEXABVQString@@ABVMachineConfigData@@ABVQJsonObject@@@Z$2 00413f82 f   configfilehandler.obj
 0001:00012f8b       __unwindfunclet$?SaveMachineConfig@configFileHandler@@QAEXABVQString@@ABVMachineConfigData@@ABVQJsonObject@@@Z$3 00413f8b f   configfilehandler.obj
 0001:00012f94       __unwindfunclet$?SaveMachineConfig@configFileHandler@@QAEXABVQString@@ABVMachineConfigData@@ABVQJsonObject@@@Z$4 00413f94 f   configfilehandler.obj
 0001:00012f9d       __unwindfunclet$?SaveMachineConfig@configFileHandler@@QAEXABVQString@@ABVMachineConfigData@@ABVQJsonObject@@@Z$5 00413f9d f   configfilehandler.obj
 0001:00012fa6       __unwindfunclet$?SaveMachineConfig@configFileHandler@@QAEXABVQString@@ABVMachineConfigData@@ABVQJsonObject@@@Z$6 00413fa6 f   configfilehandler.obj
 0001:00012faf       __unwindfunclet$?SaveMachineConfig@configFileHandler@@QAEXABVQString@@ABVMachineConfigData@@ABVQJsonObject@@@Z$7 00413faf f   configfilehandler.obj
 0001:00012fb8       __unwindfunclet$?SaveMachineConfig@configFileHandler@@QAEXABVQString@@ABVMachineConfigData@@ABVQJsonObject@@@Z$8 00413fb8 f   configfilehandler.obj
 0001:00012fc1       __unwindfunclet$?SaveMachineConfig@configFileHandler@@QAEXABVQString@@ABVMachineConfigData@@ABVQJsonObject@@@Z$9 00413fc1 f   configfilehandler.obj
 0001:00012fca       __unwindfunclet$?SaveMachineConfig@configFileHandler@@QAEXABVQString@@ABVMachineConfigData@@ABVQJsonObject@@@Z$10 00413fca f   configfilehandler.obj
 0001:00012fd3       __unwindfunclet$?SaveMachineConfig@configFileHandler@@QAEXABVQString@@ABVMachineConfigData@@ABVQJsonObject@@@Z$11 00413fd3 f   configfilehandler.obj
 0001:00012fdc       __unwindfunclet$?SaveMachineConfig@configFileHandler@@QAEXABVQString@@ABVMachineConfigData@@ABVQJsonObject@@@Z$12 00413fdc f   configfilehandler.obj
 0001:00012fe5       __unwindfunclet$?SaveMachineConfig@configFileHandler@@QAEXABVQString@@ABVMachineConfigData@@ABVQJsonObject@@@Z$13 00413fe5 f   configfilehandler.obj
 0001:00012fee       __unwindfunclet$?SaveMachineConfig@configFileHandler@@QAEXABVQString@@ABVMachineConfigData@@ABVQJsonObject@@@Z$14 00413fee f   configfilehandler.obj
 0001:00012ff7       __unwindfunclet$?SaveMachineConfig@configFileHandler@@QAEXABVQString@@ABVMachineConfigData@@ABVQJsonObject@@@Z$15 00413ff7 f   configfilehandler.obj
 0001:00013000       __unwindfunclet$?SaveMachineConfig@configFileHandler@@QAEXABVQString@@ABVMachineConfigData@@ABVQJsonObject@@@Z$16 00414000 f   configfilehandler.obj
 0001:00013009       __unwindfunclet$?SaveMachineConfig@configFileHandler@@QAEXABVQString@@ABVMachineConfigData@@ABVQJsonObject@@@Z$17 00414009 f   configfilehandler.obj
 0001:00013012       __ehhandler$?SaveMachineConfig@configFileHandler@@QAEXABVQString@@ABVMachineConfigData@@ABVQJsonObject@@@Z 00414012 f   configfilehandler.obj
 0001:00013030       __unwindfunclet$?SavePlanList@configFileHandler@@QAEXABVQString@@ABV?$QList@U?$QPair@VQString@@V?$QList@VSingleOperationData@@@@@@@@ABV?$QMap@VQString@@VQStringList@@@@@Z$0 00414030 f   configfilehandler.obj
 0001:00013039       __unwindfunclet$?SavePlanList@configFileHandler@@QAEXABVQString@@ABV?$QList@U?$QPair@VQString@@V?$QList@VSingleOperationData@@@@@@@@ABV?$QMap@VQString@@VQStringList@@@@@Z$1 00414039 f   configfilehandler.obj
 0001:00013042       __unwindfunclet$?SavePlanList@configFileHandler@@QAEXABVQString@@ABV?$QList@U?$QPair@VQString@@V?$QList@VSingleOperationData@@@@@@@@ABV?$QMap@VQString@@VQStringList@@@@@Z$2 00414042 f   configfilehandler.obj
 0001:0001304b       __unwindfunclet$?SavePlanList@configFileHandler@@QAEXABVQString@@ABV?$QList@U?$QPair@VQString@@V?$QList@VSingleOperationData@@@@@@@@ABV?$QMap@VQString@@VQStringList@@@@@Z$3 0041404b f   configfilehandler.obj
 0001:00013054       __unwindfunclet$?SavePlanList@configFileHandler@@QAEXABVQString@@ABV?$QList@U?$QPair@VQString@@V?$QList@VSingleOperationData@@@@@@@@ABV?$QMap@VQString@@VQStringList@@@@@Z$4 00414054 f   configfilehandler.obj
 0001:0001305d       __unwindfunclet$?SavePlanList@configFileHandler@@QAEXABVQString@@ABV?$QList@U?$QPair@VQString@@V?$QList@VSingleOperationData@@@@@@@@ABV?$QMap@VQString@@VQStringList@@@@@Z$5 0041405d f   configfilehandler.obj
 0001:00013066       __unwindfunclet$?SavePlanList@configFileHandler@@QAEXABVQString@@ABV?$QList@U?$QPair@VQString@@V?$QList@VSingleOperationData@@@@@@@@ABV?$QMap@VQString@@VQStringList@@@@@Z$6 00414066 f   configfilehandler.obj
 0001:0001306f       __unwindfunclet$?SavePlanList@configFileHandler@@QAEXABVQString@@ABV?$QList@U?$QPair@VQString@@V?$QList@VSingleOperationData@@@@@@@@ABV?$QMap@VQString@@VQStringList@@@@@Z$7 0041406f f   configfilehandler.obj
 0001:00013078       __unwindfunclet$?SavePlanList@configFileHandler@@QAEXABVQString@@ABV?$QList@U?$QPair@VQString@@V?$QList@VSingleOperationData@@@@@@@@ABV?$QMap@VQString@@VQStringList@@@@@Z$8 00414078 f   configfilehandler.obj
 0001:00013081       __unwindfunclet$?SavePlanList@configFileHandler@@QAEXABVQString@@ABV?$QList@U?$QPair@VQString@@V?$QList@VSingleOperationData@@@@@@@@ABV?$QMap@VQString@@VQStringList@@@@@Z$9 00414081 f   configfilehandler.obj
 0001:0001308a       __unwindfunclet$?SavePlanList@configFileHandler@@QAEXABVQString@@ABV?$QList@U?$QPair@VQString@@V?$QList@VSingleOperationData@@@@@@@@ABV?$QMap@VQString@@VQStringList@@@@@Z$10 0041408a f   configfilehandler.obj
 0001:00013093       __unwindfunclet$?SavePlanList@configFileHandler@@QAEXABVQString@@ABV?$QList@U?$QPair@VQString@@V?$QList@VSingleOperationData@@@@@@@@ABV?$QMap@VQString@@VQStringList@@@@@Z$11 00414093 f   configfilehandler.obj
 0001:0001309c       __unwindfunclet$?SavePlanList@configFileHandler@@QAEXABVQString@@ABV?$QList@U?$QPair@VQString@@V?$QList@VSingleOperationData@@@@@@@@ABV?$QMap@VQString@@VQStringList@@@@@Z$12 0041409c f   configfilehandler.obj
 0001:000130a5       __unwindfunclet$?SavePlanList@configFileHandler@@QAEXABVQString@@ABV?$QList@U?$QPair@VQString@@V?$QList@VSingleOperationData@@@@@@@@ABV?$QMap@VQString@@VQStringList@@@@@Z$13 004140a5 f   configfilehandler.obj
 0001:000130ae       __unwindfunclet$?SavePlanList@configFileHandler@@QAEXABVQString@@ABV?$QList@U?$QPair@VQString@@V?$QList@VSingleOperationData@@@@@@@@ABV?$QMap@VQString@@VQStringList@@@@@Z$14 004140ae f   configfilehandler.obj
 0001:000130b6       __unwindfunclet$?SavePlanList@configFileHandler@@QAEXABVQString@@ABV?$QList@U?$QPair@VQString@@V?$QList@VSingleOperationData@@@@@@@@ABV?$QMap@VQString@@VQStringList@@@@@Z$16 004140b6 f   configfilehandler.obj
 0001:000130bf       __unwindfunclet$?SavePlanList@configFileHandler@@QAEXABVQString@@ABV?$QList@U?$QPair@VQString@@V?$QList@VSingleOperationData@@@@@@@@ABV?$QMap@VQString@@VQStringList@@@@@Z$17 004140bf f   configfilehandler.obj
 0001:000130c8       __unwindfunclet$?SavePlanList@configFileHandler@@QAEXABVQString@@ABV?$QList@U?$QPair@VQString@@V?$QList@VSingleOperationData@@@@@@@@ABV?$QMap@VQString@@VQStringList@@@@@Z$18 004140c8 f   configfilehandler.obj
 0001:000130d4       __unwindfunclet$?SavePlanList@configFileHandler@@QAEXABVQString@@ABV?$QList@U?$QPair@VQString@@V?$QList@VSingleOperationData@@@@@@@@ABV?$QMap@VQString@@VQStringList@@@@@Z$15 004140d4 f   configfilehandler.obj
 0001:000130e0       __unwindfunclet$?SavePlanList@configFileHandler@@QAEXABVQString@@ABV?$QList@U?$QPair@VQString@@V?$QList@VSingleOperationData@@@@@@@@ABV?$QMap@VQString@@VQStringList@@@@@Z$42 004140e0 f   configfilehandler.obj
 0001:000130e6       __unwindfunclet$?SavePlanList@configFileHandler@@QAEXABVQString@@ABV?$QList@U?$QPair@VQString@@V?$QList@VSingleOperationData@@@@@@@@ABV?$QMap@VQString@@VQStringList@@@@@Z$50 004140e6 f   configfilehandler.obj
 0001:000130ec       __unwindfunclet$?SavePlanList@configFileHandler@@QAEXABVQString@@ABV?$QList@U?$QPair@VQString@@V?$QList@VSingleOperationData@@@@@@@@ABV?$QMap@VQString@@VQStringList@@@@@Z$58 004140ec f   configfilehandler.obj
 0001:000130f2       __unwindfunclet$?SavePlanList@configFileHandler@@QAEXABVQString@@ABV?$QList@U?$QPair@VQString@@V?$QList@VSingleOperationData@@@@@@@@ABV?$QMap@VQString@@VQStringList@@@@@Z$19 004140f2 f   configfilehandler.obj
 0001:000130fe       __unwindfunclet$?SavePlanList@configFileHandler@@QAEXABVQString@@ABV?$QList@U?$QPair@VQString@@V?$QList@VSingleOperationData@@@@@@@@ABV?$QMap@VQString@@VQStringList@@@@@Z$20 004140fe f   configfilehandler.obj
 0001:00013107       __unwindfunclet$?SavePlanList@configFileHandler@@QAEXABVQString@@ABV?$QList@U?$QPair@VQString@@V?$QList@VSingleOperationData@@@@@@@@ABV?$QMap@VQString@@VQStringList@@@@@Z$21 00414107 f   configfilehandler.obj
 0001:00013113       __unwindfunclet$?SavePlanList@configFileHandler@@QAEXABVQString@@ABV?$QList@U?$QPair@VQString@@V?$QList@VSingleOperationData@@@@@@@@ABV?$QMap@VQString@@VQStringList@@@@@Z$22 00414113 f   configfilehandler.obj
 0001:0001311c       __unwindfunclet$?SavePlanList@configFileHandler@@QAEXABVQString@@ABV?$QList@U?$QPair@VQString@@V?$QList@VSingleOperationData@@@@@@@@ABV?$QMap@VQString@@VQStringList@@@@@Z$23 0041411c f   configfilehandler.obj
 0001:00013125       __unwindfunclet$?SavePlanList@configFileHandler@@QAEXABVQString@@ABV?$QList@U?$QPair@VQString@@V?$QList@VSingleOperationData@@@@@@@@ABV?$QMap@VQString@@VQStringList@@@@@Z$24 00414125 f   configfilehandler.obj
 0001:0001312e       __unwindfunclet$?SavePlanList@configFileHandler@@QAEXABVQString@@ABV?$QList@U?$QPair@VQString@@V?$QList@VSingleOperationData@@@@@@@@ABV?$QMap@VQString@@VQStringList@@@@@Z$25 0041412e f   configfilehandler.obj
 0001:00013137       __unwindfunclet$?SavePlanList@configFileHandler@@QAEXABVQString@@ABV?$QList@U?$QPair@VQString@@V?$QList@VSingleOperationData@@@@@@@@ABV?$QMap@VQString@@VQStringList@@@@@Z$26 00414137 f   configfilehandler.obj
 0001:00013140       __ehhandler$?SavePlanList@configFileHandler@@QAEXABVQString@@ABV?$QList@U?$QPair@VQString@@V?$QList@VSingleOperationData@@@@@@@@ABV?$QMap@VQString@@VQStringList@@@@@Z 00414140 f   configfilehandler.obj
 0001:00013160       __ehhandler$?append@?$QList@PAVQObject@@@@QAEXABQAVQObject@@@Z 00414160 f   workmodels.obj
 0001:00013160       __ehhandler$?append@?$QList@H@@QAEXABH@Z 00414160 f   configfilehandler.obj
 0001:00013180       __unwindfunclet$?append@?$QList@U?$QPair@VQString@@V?$QList@VSingleOperationData@@@@@@@@QAEXABU?$QPair@VQString@@V?$QList@VSingleOperationData@@@@@@@Z$9 00414180 f   configfilehandler.obj
 0001:0001318f       __unwindfunclet$?append@?$QList@U?$QPair@VQString@@V?$QList@VSingleOperationData@@@@@@@@QAEXABU?$QPair@VQString@@V?$QList@VSingleOperationData@@@@@@@Z$11 0041418f f   configfilehandler.obj
 0001:00013198       __unwindfunclet$?append@?$QList@U?$QPair@VQString@@V?$QList@VSingleOperationData@@@@@@@@QAEXABU?$QPair@VQString@@V?$QList@VSingleOperationData@@@@@@@Z$15 00414198 f   configfilehandler.obj
 0001:000131a7       __unwindfunclet$?append@?$QList@U?$QPair@VQString@@V?$QList@VSingleOperationData@@@@@@@@QAEXABU?$QPair@VQString@@V?$QList@VSingleOperationData@@@@@@@Z$17 004141a7 f   configfilehandler.obj
 0001:000131b0       __ehhandler$?append@?$QList@U?$QPair@VQString@@V?$QList@VSingleOperationData@@@@@@@@QAEXABU?$QPair@VQString@@V?$QList@VSingleOperationData@@@@@@@Z 004141b0 f   configfilehandler.obj
 0001:000131d0       __ehhandler$?append@?$QList@VQString@@@@QAEXABVQString@@@Z 004141d0 f   configfilehandler.obj
 0001:000131f0       __unwindfunclet$?append@?$QList@VSingleOperationData@@@@QAEXABVSingleOperationData@@@Z$9 004141f0 f   configfilehandler.obj
 0001:000131ff       __unwindfunclet$?append@?$QList@VSingleOperationData@@@@QAEXABVSingleOperationData@@@Z$11 004141ff f   configfilehandler.obj
 0001:00013208       __unwindfunclet$?append@?$QList@VSingleOperationData@@@@QAEXABVSingleOperationData@@@Z$15 00414208 f   configfilehandler.obj
 0001:00013217       __unwindfunclet$?append@?$QList@VSingleOperationData@@@@QAEXABVSingleOperationData@@@Z$17 00414217 f   configfilehandler.obj
 0001:00013220       __ehhandler$?append@?$QList@VSingleOperationData@@@@QAEXABVSingleOperationData@@@Z 00414220 f   configfilehandler.obj
 0001:00013240       __unwindfunclet$?clear@?$QList@H@@QAEXXZ$11 00414240 f   configfilehandler.obj
 0001:00013246       __unwindfunclet$?clear@?$QList@H@@QAEXXZ$18 00414246 f   configfilehandler.obj
 0001:0001324c       __ehhandler$?clear@?$QList@H@@QAEXXZ 0041424c f   configfilehandler.obj
 0001:00013270       __unwindfunclet$??4?$QList@VSingleOperationData@@@@QAEAAV0@ABV0@@Z$7 00414270 f   environmentvariant.obj
 0001:00013270       __unwindfunclet$?clear@?$QList@U?$QPair@VQString@@V?$QList@VSingleOperationData@@@@@@@@QAEXXZ$2 00414270 f   configfilehandler.obj
 0001:00013270       __unwindfunclet$??4SingleOperationData@@QAEAAV0@ABV0@@Z$7 00414270 f   environmentvariant.obj
 0001:00013276       __ehhandler$??4?$QList@VSingleOperationData@@@@QAEAAV0@ABV0@@Z 00414276 f   environmentvariant.obj
 0001:00013276       __ehhandler$?clear@?$QList@U?$QPair@VQString@@V?$QList@VSingleOperationData@@@@@@@@QAEXXZ 00414276 f   configfilehandler.obj
 0001:00013276       __ehhandler$??4SingleOperationData@@QAEAAV0@ABV0@@Z 00414276 f   environmentvariant.obj
 0001:000132a0       __unwindfunclet$?createNode@?$QMapData@VQString@@VOperationParamData@@@@QAEPAU?$QMapNode@VQString@@VOperationParamData@@@@ABVQString@@ABVOperationParamData@@PAU2@_N@Z$4 004142a0 f   configfilehandler.obj
 0001:000132b4       __ehhandler$?createNode@?$QMapData@VQString@@VOperationParamData@@@@QAEPAU?$QMapNode@VQString@@VOperationParamData@@@@ABVQString@@ABVOperationParamData@@PAU2@_N@Z 004142b4 f   configfilehandler.obj
 0001:000132d0       __unwindfunclet$?createNode@?$QMapData@VQString@@VQStringList@@@@QAEPAU?$QMapNode@VQString@@VQStringList@@@@ABVQString@@ABVQStringList@@PAU2@_N@Z$4 004142d0 f   configfilehandler.obj
 0001:000132e4       __ehhandler$?createNode@?$QMapData@VQString@@VQStringList@@@@QAEPAU?$QMapNode@VQString@@VQStringList@@@@ABVQString@@ABVQStringList@@PAU2@_N@Z 004142e4 f   configfilehandler.obj
 0001:00013300       __ehhandler$?detach_helper_grow@?$QList@U?$QPair@VQString@@V?$QList@VSingleOperationData@@@@@@@@AAEPAUNode@1@HH@Z 00414300 f   configfilehandler.obj
 0001:00013320       __ehhandler$?detach_helper_grow@?$QList@VQString@@@@AAEPAUNode@1@HH@Z 00414320 f   configfilehandler.obj
 0001:00013340       __ehhandler$?detach_helper_grow@?$QList@VSingleOperationData@@@@AAEPAUNode@1@HH@Z 00414340 f   configfilehandler.obj
 0001:00013360       __unwindfunclet$?loadConfigFile@configFileHandler@@QAE_NABVQString@@@Z$0 00414360 f   configfilehandler.obj
 0001:00013369       __unwindfunclet$?loadConfigFile@configFileHandler@@QAE_NABVQString@@@Z$1 00414369 f   configfilehandler.obj
 0001:00013372       __unwindfunclet$?loadConfigFile@configFileHandler@@QAE_NABVQString@@@Z$2 00414372 f   configfilehandler.obj
 0001:0001337b       __unwindfunclet$?loadConfigFile@configFileHandler@@QAE_NABVQString@@@Z$3 0041437b f   configfilehandler.obj
 0001:00013384       __ehhandler$?loadConfigFile@configFileHandler@@QAE_NABVQString@@@Z 00414384 f   configfilehandler.obj
 0001:000133a0       __unwindfunclet$?node_copy@?$QList@U?$QPair@VQString@@V?$QList@VSingleOperationData@@@@@@@@AAEXPAUNode@1@00@Z$4 004143a0 f   configfilehandler.obj
 0001:000133af       __unwindfunclet$?node_copy@?$QList@U?$QPair@VQString@@V?$QList@VSingleOperationData@@@@@@@@AAEXPAUNode@1@00@Z$6 004143af f   configfilehandler.obj
 0001:000133b8       __ehhandler$?node_copy@?$QList@U?$QPair@VQString@@V?$QList@VSingleOperationData@@@@@@@@AAEXPAUNode@1@00@Z 004143b8 f   configfilehandler.obj
 0001:000133e0       __unwindfunclet$?node_copy@?$QList@VSingleOperationData@@@@AAEXPAUNode@1@00@Z$4 004143e0 f   configfilehandler.obj
 0001:000133ef       __unwindfunclet$?node_copy@?$QList@VSingleOperationData@@@@AAEXPAUNode@1@00@Z$6 004143ef f   configfilehandler.obj
 0001:000133f8       __ehhandler$?node_copy@?$QList@VSingleOperationData@@@@AAEXPAUNode@1@00@Z 004143f8 f   configfilehandler.obj
 0001:00013420       __unwindfunclet$?node_destruct@?$QList@U?$QPair@VQString@@V?$QList@VSingleOperationData@@@@@@@@AAEXPAUNode@1@0@Z$2 00414420 f   configfilehandler.obj
 0001:00013420       __unwindfunclet$?node_destruct@?$QList@VSingleOperationData@@@@AAEXPAUNode@1@0@Z$2 00414420 f   configfilehandler.obj
 0001:00013426       __ehhandler$?node_destruct@?$QList@U?$QPair@VQString@@V?$QList@VSingleOperationData@@@@@@@@AAEXPAUNode@1@0@Z 00414426 f   configfilehandler.obj
 0001:00013426       __ehhandler$?node_destruct@?$QList@VSingleOperationData@@@@AAEXPAUNode@1@0@Z 00414426 f   configfilehandler.obj
 0001:00013450       __unwindfunclet$?toList@configFileHandler@@QAE?AVQStringList@@ABVQString@@@Z$0 00414450 f   configfilehandler.obj
 0001:00013469       __unwindfunclet$?toList@configFileHandler@@QAE?AVQStringList@@ABVQString@@@Z$1 00414469 f   configfilehandler.obj
 0001:00013472       __unwindfunclet$?toList@configFileHandler@@QAE?AVQStringList@@ABVQString@@@Z$2 00414472 f   configfilehandler.obj
 0001:0001347b       __ehhandler$?toList@configFileHandler@@QAE?AVQStringList@@ABVQString@@@Z 0041447b f   configfilehandler.obj
 0001:000134a0       __unwindfunclet$??0EnvironmentVariant@@AAE@XZ$0 004144a0 f   environmentvariant.obj
 0001:000134a9       __unwindfunclet$??0EnvironmentVariant@@AAE@XZ$1 004144a9 f   environmentvariant.obj
 0001:000134b4       __unwindfunclet$??0EnvironmentVariant@@AAE@XZ$2 004144b4 f   environmentvariant.obj
 0001:000134bf       __unwindfunclet$??0EnvironmentVariant@@AAE@XZ$3 004144bf f   environmentvariant.obj
 0001:000134ca       __unwindfunclet$??0EnvironmentVariant@@AAE@XZ$4 004144ca f   environmentvariant.obj
 0001:000134d5       __unwindfunclet$??0EnvironmentVariant@@AAE@XZ$5 004144d5 f   environmentvariant.obj
 0001:000134e0       __unwindfunclet$??0EnvironmentVariant@@AAE@XZ$6 004144e0 f   environmentvariant.obj
 0001:000134eb       __unwindfunclet$??0EnvironmentVariant@@AAE@XZ$7 004144eb f   environmentvariant.obj
 0001:000134f6       __unwindfunclet$??0EnvironmentVariant@@AAE@XZ$8 004144f6 f   environmentvariant.obj
 0001:00013502       __unwindfunclet$??0EnvironmentVariant@@AAE@XZ$9 00414502 f   environmentvariant.obj
 0001:0001350e       __unwindfunclet$??0EnvironmentVariant@@AAE@XZ$10 0041450e f   environmentvariant.obj
 0001:0001351a       __unwindfunclet$??0EnvironmentVariant@@AAE@XZ$11 0041451a f   environmentvariant.obj
 0001:00013525       __unwindfunclet$??0EnvironmentVariant@@AAE@XZ$12 00414525 f   environmentvariant.obj
 0001:00013531       __ehhandler$??0EnvironmentVariant@@AAE@XZ 00414531 f   environmentvariant.obj
 0001:00013550       __unwindfunclet$??0SingleOperationData@@QAE@ABV0@@Z$0 00414550 f   environmentvariant.obj
 0001:00013559       __ehhandler$??0SingleOperationData@@QAE@ABV0@@Z 00414559 f   environmentvariant.obj
 0001:00013580       __ehhandler$??1?$QList@U?$QPair@VQString@@V?$QList@VSingleOperationData@@@@@@@@QAE@XZ 00414580 f   environmentvariant.obj
 0001:00013580       __ehhandler$??1PlanController@@UAE@XZ 00414580 f   workmodels.obj
 0001:00013580       __ehhandler$??1?$QList@VSingleOperationData@@@@QAE@XZ 00414580 f   configfilehandler.obj
 0001:00013580       __ehhandler$??1?$QMap@VQString@@V1@@@QAE@XZ 00414580 f   configfilehandler.obj
 0001:000135a0       __unwindfunclet$??1EnvironmentVariant@@EAE@XZ$2 004145a0 f   environmentvariant.obj
 0001:000135a6       __unwindfunclet$??1EnvironmentVariant@@EAE@XZ$9 004145a6 f   environmentvariant.obj
 0001:000135ac       __unwindfunclet$??1EnvironmentVariant@@EAE@XZ$15 004145ac f   environmentvariant.obj
 0001:000135b2       __ehhandler$??1EnvironmentVariant@@EAE@XZ 004145b2 f   environmentvariant.obj
 0001:000135d0       __unwindfunclet$??A?$QMap@VQString@@VOperationParamData@@@@QAEAAVOperationParamData@@ABVQString@@@Z$0 004145d0 f   environmentvariant.obj
 0001:000135d8       __ehhandler$??A?$QMap@VQString@@VOperationParamData@@@@QAEAAVOperationParamData@@ABVQString@@@Z 004145d8 f   environmentvariant.obj
 0001:00013600       __ehhandler$??Y?$QList@VQString@@@@QAEAAV0@ABV0@@Z 00414600 f   environmentvariant.obj
 0001:00013620       __unwindfunclet$?AddPlan@EnvironmentVariant@@QAEXABVQString@@@Z$0 00414620 f   environmentvariant.obj
 0001:00013628       __unwindfunclet$?AddPlan@EnvironmentVariant@@QAEXABVQString@@@Z$1 00414628 f   environmentvariant.obj
 0001:00013630       __unwindfunclet$?AddPlan@EnvironmentVariant@@QAEXABVQString@@@Z$4 00414630 f   environmentvariant.obj
 0001:00013636       __unwindfunclet$?AddPlan@EnvironmentVariant@@QAEXABVQString@@@Z$11 00414636 f   environmentvariant.obj
 0001:0001363c       __ehhandler$?AddPlan@EnvironmentVariant@@QAEXABVQString@@@Z 0041463c f   environmentvariant.obj
 0001:00013660       __unwindfunclet$?AddPlanStep@EnvironmentVariant@@QAEXHHH@Z$6 00414660 f   environmentvariant.obj
 0001:00013669       __unwindfunclet$?AddPlanStep@EnvironmentVariant@@QAEXHHH@Z$0 00414669 f   environmentvariant.obj
 0001:00013671       __unwindfunclet$?AddPlanStep@EnvironmentVariant@@QAEXHHH@Z$1 00414671 f   environmentvariant.obj
 0001:00013679       __unwindfunclet$?AddPlanStep@EnvironmentVariant@@QAEXHHH@Z$16 00414679 f   environmentvariant.obj
 0001:0001367f       __ehhandler$?AddPlanStep@EnvironmentVariant@@QAEXHHH@Z 0041467f f   environmentvariant.obj
 0001:000136a0       __unwindfunclet$?LogicalControlList@EnvironmentVariant@@QAE?AVQStringList@@XZ$0 004146a0 f   environmentvariant.obj
 0001:000136a0       __unwindfunclet$?OperationNameList@EnvironmentVariant@@QAE?AVQStringList@@XZ$0 004146a0 f   environmentvariant.obj
 0001:000136b9       __unwindfunclet$?OperationNameList@EnvironmentVariant@@QAE?AVQStringList@@XZ$1 004146b9 f   environmentvariant.obj
 0001:000136b9       __unwindfunclet$?LogicalControlList@EnvironmentVariant@@QAE?AVQStringList@@XZ$1 004146b9 f   environmentvariant.obj
 0001:000136c1       __unwindfunclet$?LogicalControlList@EnvironmentVariant@@QAE?AVQStringList@@XZ$7 004146c1 f   environmentvariant.obj
 0001:000136c1       __unwindfunclet$?OperationNameList@EnvironmentVariant@@QAE?AVQStringList@@XZ$7 004146c1 f   environmentvariant.obj
 0001:000136c7       __ehhandler$?OperationNameList@EnvironmentVariant@@QAE?AVQStringList@@XZ 004146c7 f   environmentvariant.obj
 0001:000136c7       __ehhandler$?LogicalControlList@EnvironmentVariant@@QAE?AVQStringList@@XZ 004146c7 f   environmentvariant.obj
 0001:000136f0       __unwindfunclet$?PlanList@EnvironmentVariant@@QAE?AVQStringList@@XZ$0 004146f0 f   environmentvariant.obj
 0001:00013709       __ehhandler$?PlanList@EnvironmentVariant@@QAE?AVQStringList@@XZ 00414709 f   environmentvariant.obj
 0001:00013730       __unwindfunclet$?SaveMachineConfig@EnvironmentVariant@@QAEXABVMachineConfigData@@@Z$0 00414730 f   environmentvariant.obj
 0001:00013738       __ehhandler$?SaveMachineConfig@EnvironmentVariant@@QAEXABVMachineConfigData@@@Z 00414738 f   environmentvariant.obj
 0001:00013760       __unwindfunclet$?SavePlan@EnvironmentVariant@@QAEXXZ$0 00414760 f   environmentvariant.obj
 0001:00013768       __ehhandler$?SavePlan@EnvironmentVariant@@QAEXXZ 00414768 f   environmentvariant.obj
 0001:00013790       __unwindfunclet$?SetPlanStepToDefault@EnvironmentVariant@@QAEXHHH@Z$0 00414790 f   environmentvariant.obj
 0001:00013790       __unwindfunclet$?MovePlanStep@EnvironmentVariant@@QAEXHHH@Z$0 00414790 f   environmentvariant.obj
 0001:00013798       __ehhandler$?MovePlanStep@EnvironmentVariant@@QAEXHHH@Z 00414798 f   environmentvariant.obj
 0001:00013798       __ehhandler$?SetPlanStepToDefault@EnvironmentVariant@@QAEXHHH@Z 00414798 f   environmentvariant.obj
 0001:000137c0       __unwindfunclet$?StartPlan@EnvironmentVariant@@QAEXHH@Z$0 004147c0 f   environmentvariant.obj
 0001:000137c9       __unwindfunclet$?StartPlan@EnvironmentVariant@@QAEXHH@Z$1 004147c9 f   environmentvariant.obj
 0001:000137d2       __unwindfunclet$?StartPlan@EnvironmentVariant@@QAEXHH@Z$2 004147d2 f   environmentvariant.obj
 0001:000137da       __unwindfunclet$?StartPlan@EnvironmentVariant@@QAEXHH@Z$3 004147da f   environmentvariant.obj
 0001:000137e3       __unwindfunclet$?StartPlan@EnvironmentVariant@@QAEXHH@Z$4 004147e3 f   environmentvariant.obj
 0001:000137ec       __unwindfunclet$?StartPlan@EnvironmentVariant@@QAEXHH@Z$5 004147ec f   environmentvariant.obj
 0001:000137f5       __unwindfunclet$?StartPlan@EnvironmentVariant@@QAEXHH@Z$6 004147f5 f   environmentvariant.obj
 0001:000137fe       __unwindfunclet$?StartPlan@EnvironmentVariant@@QAEXHH@Z$7 004147fe f   environmentvariant.obj
 0001:00013807       __unwindfunclet$?StartPlan@EnvironmentVariant@@QAEXHH@Z$8 00414807 f   environmentvariant.obj
 0001:00013810       __unwindfunclet$?StartPlan@EnvironmentVariant@@QAEXHH@Z$9 00414810 f   environmentvariant.obj
 0001:00013818       __unwindfunclet$?StartPlan@EnvironmentVariant@@QAEXHH@Z$10 00414818 f   environmentvariant.obj
 0001:00013821       __unwindfunclet$?StartPlan@EnvironmentVariant@@QAEXHH@Z$11 00414821 f   environmentvariant.obj
 0001:0001382a       __unwindfunclet$?StartPlan@EnvironmentVariant@@QAEXHH@Z$12 0041482a f   environmentvariant.obj
 0001:00013833       __unwindfunclet$?StartPlan@EnvironmentVariant@@QAEXHH@Z$13 00414833 f   environmentvariant.obj
 0001:0001383c       __unwindfunclet$?StartPlan@EnvironmentVariant@@QAEXHH@Z$14 0041483c f   environmentvariant.obj
 0001:00013848       __unwindfunclet$?StartPlan@EnvironmentVariant@@QAEXHH@Z$31 00414848 f   environmentvariant.obj
 0001:0001384e       __unwindfunclet$?StartPlan@EnvironmentVariant@@QAEXHH@Z$39 0041484e f   environmentvariant.obj
 0001:00013854       __unwindfunclet$?StartPlan@EnvironmentVariant@@QAEXHH@Z$47 00414854 f   environmentvariant.obj
 0001:0001385a       __unwindfunclet$?StartPlan@EnvironmentVariant@@QAEXHH@Z$15 0041485a f   environmentvariant.obj
 0001:00013866       __unwindfunclet$?StartPlan@EnvironmentVariant@@QAEXHH@Z$16 00414866 f   environmentvariant.obj
 0001:0001386f       __unwindfunclet$?StartPlan@EnvironmentVariant@@QAEXHH@Z$17 0041486f f   environmentvariant.obj
 0001:00013878       __unwindfunclet$?StartPlan@EnvironmentVariant@@QAEXHH@Z$77 00414878 f   environmentvariant.obj
 0001:0001387e       __unwindfunclet$?StartPlan@EnvironmentVariant@@QAEXHH@Z$18 0041487e f   environmentvariant.obj
 0001:00013887       __unwindfunclet$?StartPlan@EnvironmentVariant@@QAEXHH@Z$19 00414887 f   environmentvariant.obj
 0001:00013890       __unwindfunclet$?StartPlan@EnvironmentVariant@@QAEXHH@Z$20 00414890 f   environmentvariant.obj
 0001:00013899       __unwindfunclet$?StartPlan@EnvironmentVariant@@QAEXHH@Z$21 00414899 f   environmentvariant.obj
 0001:000138a2       __unwindfunclet$?StartPlan@EnvironmentVariant@@QAEXHH@Z$22 004148a2 f   environmentvariant.obj
 0001:000138ab       __unwindfunclet$?StartPlan@EnvironmentVariant@@QAEXHH@Z$23 004148ab f   environmentvariant.obj
 0001:000138b4       __unwindfunclet$?StartPlan@EnvironmentVariant@@QAEXHH@Z$84 004148b4 f   environmentvariant.obj
 0001:000138bd       __ehhandler$?StartPlan@EnvironmentVariant@@QAEXHH@Z 004148bd f   environmentvariant.obj
 0001:000138e0       __unwindfunclet$?StartTunning@EnvironmentVariant@@QAEXABVSingleOperationData@@@Z$1 004148e0 f   environmentvariant.obj
 0001:000138ef       __unwindfunclet$?StartTunning@EnvironmentVariant@@QAEXABVSingleOperationData@@@Z$0 004148ef f   environmentvariant.obj
 0001:000138f8       __unwindfunclet$?StartTunning@EnvironmentVariant@@QAEXABVSingleOperationData@@@Z$2 004148f8 f   environmentvariant.obj
 0001:00013907       __unwindfunclet$?StartTunning@EnvironmentVariant@@QAEXABVSingleOperationData@@@Z$3 00414907 f   environmentvariant.obj
 0001:00013910       __ehhandler$?StartTunning@EnvironmentVariant@@QAEXABVSingleOperationData@@@Z 00414910 f   environmentvariant.obj
 0001:00013930       __unwindfunclet$?StepList@EnvironmentVariant@@QAE?AVQStringList@@H@Z$0 00414930 f   environmentvariant.obj
 0001:00013949       __unwindfunclet$?StepList@EnvironmentVariant@@QAE?AVQStringList@@H@Z$1 00414949 f   environmentvariant.obj
 0001:00013951       __unwindfunclet$?StepList@EnvironmentVariant@@QAE?AVQStringList@@H@Z$2 00414951 f   environmentvariant.obj
 0001:0001395a       __unwindfunclet$?StepList@EnvironmentVariant@@QAE?AVQStringList@@H@Z$3 0041495a f   environmentvariant.obj
 0001:00013962       __unwindfunclet$?StepList@EnvironmentVariant@@QAE?AVQStringList@@H@Z$16 00414962 f   environmentvariant.obj
 0001:00013968       __unwindfunclet$?StepList@EnvironmentVariant@@QAE?AVQStringList@@H@Z$24 00414968 f   environmentvariant.obj
 0001:0001396e       __unwindfunclet$?StepList@EnvironmentVariant@@QAE?AVQStringList@@H@Z$32 0041496e f   environmentvariant.obj
 0001:00013974       __unwindfunclet$?StepList@EnvironmentVariant@@QAE?AVQStringList@@H@Z$4 00414974 f   environmentvariant.obj
 0001:0001397d       __unwindfunclet$?StepList@EnvironmentVariant@@QAE?AVQStringList@@H@Z$5 0041497d f   environmentvariant.obj
 0001:00013986       __unwindfunclet$?StepList@EnvironmentVariant@@QAE?AVQStringList@@H@Z$6 00414986 f   environmentvariant.obj
 0001:0001398f       __unwindfunclet$?StepList@EnvironmentVariant@@QAE?AVQStringList@@H@Z$62 0041498f f   environmentvariant.obj
 0001:00013995       __ehhandler$?StepList@EnvironmentVariant@@QAE?AVQStringList@@H@Z 00414995 f   environmentvariant.obj
 0001:000139b0       __unwindfunclet$?defaultValue@EnvironmentVariant@@QAE?AVSingleOperationData@@ABVQString@@@Z$0 004149b0 f   environmentvariant.obj
 0001:000139b8       __unwindfunclet$?defaultValue@EnvironmentVariant@@QAE?AVSingleOperationData@@ABVQString@@@Z$1 004149b8 f   environmentvariant.obj
 0001:000139c0       __unwindfunclet$?defaultValue@EnvironmentVariant@@QAE?AVSingleOperationData@@ABVQString@@@Z$8 004149c0 f   environmentvariant.obj
 0001:000139c6       __unwindfunclet$?defaultValue@EnvironmentVariant@@QAE?AVSingleOperationData@@ABVQString@@@Z$20 004149c6 f   environmentvariant.obj
 0001:000139cc       __ehhandler$?defaultValue@EnvironmentVariant@@QAE?AVSingleOperationData@@ABVQString@@@Z 004149cc f   environmentvariant.obj
 0001:000139f0       __ehhandler$?detach_helper@?$QList@H@@AAEXH@Z 004149f0 f   environmentvariant.obj
 0001:00013a10       __ehhandler$?detach_helper@?$QList@U?$QPair@VQString@@V?$QList@VSingleOperationData@@@@@@@@AAEXH@Z 00414a10 f   environmentvariant.obj
 0001:00013a30       __ehhandler$?detach_helper@?$QList@VOperationParamData@@@@AAEXH@Z 00414a30 f   environmentvariant.obj
 0001:00013a50       __ehhandler$?detach_helper@?$QList@VQString@@@@AAEXH@Z 00414a50 f   environmentvariant.obj
 0001:00013a70       __ehhandler$?detach_helper@?$QList@VSingleOperationData@@@@AAEXH@Z 00414a70 f   environmentvariant.obj
 0001:00013a90       __unwindfunclet$?formatSingleOperationParam@EnvironmentVariant@@QAE?AVQJsonObject@@ABVSingleOperationData@@@Z$0 00414a90 f   environmentvariant.obj
 0001:00013aaa       __unwindfunclet$?formatSingleOperationParam@EnvironmentVariant@@QAE?AVQJsonObject@@ABVSingleOperationData@@@Z$1 00414aaa f   environmentvariant.obj
 0001:00013ab3       __unwindfunclet$?formatSingleOperationParam@EnvironmentVariant@@QAE?AVQJsonObject@@ABVSingleOperationData@@@Z$2 00414ab3 f   environmentvariant.obj
 0001:00013abc       __unwindfunclet$?formatSingleOperationParam@EnvironmentVariant@@QAE?AVQJsonObject@@ABVSingleOperationData@@@Z$3 00414abc f   environmentvariant.obj
 0001:00013ac5       __unwindfunclet$?formatSingleOperationParam@EnvironmentVariant@@QAE?AVQJsonObject@@ABVSingleOperationData@@@Z$4 00414ac5 f   environmentvariant.obj
 0001:00013ace       __unwindfunclet$?formatSingleOperationParam@EnvironmentVariant@@QAE?AVQJsonObject@@ABVSingleOperationData@@@Z$5 00414ace f   environmentvariant.obj
 0001:00013ad7       __unwindfunclet$?formatSingleOperationParam@EnvironmentVariant@@QAE?AVQJsonObject@@ABVSingleOperationData@@@Z$6 00414ad7 f   environmentvariant.obj
 0001:00013ae0       __unwindfunclet$?formatSingleOperationParam@EnvironmentVariant@@QAE?AVQJsonObject@@ABVSingleOperationData@@@Z$7 00414ae0 f   environmentvariant.obj
 0001:00013ae8       __unwindfunclet$?formatSingleOperationParam@EnvironmentVariant@@QAE?AVQJsonObject@@ABVSingleOperationData@@@Z$8 00414ae8 f   environmentvariant.obj
 0001:00013af1       __unwindfunclet$?formatSingleOperationParam@EnvironmentVariant@@QAE?AVQJsonObject@@ABVSingleOperationData@@@Z$9 00414af1 f   environmentvariant.obj
 0001:00013afa       __unwindfunclet$?formatSingleOperationParam@EnvironmentVariant@@QAE?AVQJsonObject@@ABVSingleOperationData@@@Z$10 00414afa f   environmentvariant.obj
 0001:00013b03       __unwindfunclet$?formatSingleOperationParam@EnvironmentVariant@@QAE?AVQJsonObject@@ABVSingleOperationData@@@Z$11 00414b03 f   environmentvariant.obj
 0001:00013b0c       __unwindfunclet$?formatSingleOperationParam@EnvironmentVariant@@QAE?AVQJsonObject@@ABVSingleOperationData@@@Z$12 00414b0c f   environmentvariant.obj
 0001:00013b15       __unwindfunclet$?formatSingleOperationParam@EnvironmentVariant@@QAE?AVQJsonObject@@ABVSingleOperationData@@@Z$21 00414b15 f   environmentvariant.obj
 0001:00013b1b       __unwindfunclet$?formatSingleOperationParam@EnvironmentVariant@@QAE?AVQJsonObject@@ABVSingleOperationData@@@Z$29 00414b1b f   environmentvariant.obj
 0001:00013b21       __unwindfunclet$?formatSingleOperationParam@EnvironmentVariant@@QAE?AVQJsonObject@@ABVSingleOperationData@@@Z$37 00414b21 f   environmentvariant.obj
 0001:00013b27       __unwindfunclet$?formatSingleOperationParam@EnvironmentVariant@@QAE?AVQJsonObject@@ABVSingleOperationData@@@Z$13 00414b27 f   environmentvariant.obj
 0001:00013b30       __unwindfunclet$?formatSingleOperationParam@EnvironmentVariant@@QAE?AVQJsonObject@@ABVSingleOperationData@@@Z$14 00414b30 f   environmentvariant.obj
 0001:00013b39       __unwindfunclet$?formatSingleOperationParam@EnvironmentVariant@@QAE?AVQJsonObject@@ABVSingleOperationData@@@Z$15 00414b39 f   environmentvariant.obj
 0001:00013b42       __unwindfunclet$?formatSingleOperationParam@EnvironmentVariant@@QAE?AVQJsonObject@@ABVSingleOperationData@@@Z$16 00414b42 f   environmentvariant.obj
 0001:00013b4b       __unwindfunclet$?formatSingleOperationParam@EnvironmentVariant@@QAE?AVQJsonObject@@ABVSingleOperationData@@@Z$17 00414b4b f   environmentvariant.obj
 0001:00013b54       __unwindfunclet$?formatSingleOperationParam@EnvironmentVariant@@QAE?AVQJsonObject@@ABVSingleOperationData@@@Z$18 00414b54 f   environmentvariant.obj
 0001:00013b5d       __ehhandler$?formatSingleOperationParam@EnvironmentVariant@@QAE?AVQJsonObject@@ABVSingleOperationData@@@Z 00414b5d f   environmentvariant.obj
 0001:00013b80       __unwindfunclet$?getOperationParams@EnvironmentVariant@@QAE?AV?$QList@VOperationParamData@@@@H@Z$0 00414b80 f   environmentvariant.obj
 0001:00013b99       __unwindfunclet$?getOperationParams@EnvironmentVariant@@QAE?AV?$QList@VOperationParamData@@@@H@Z$1 00414b99 f   environmentvariant.obj
 0001:00013ba1       __unwindfunclet$?getOperationParams@EnvironmentVariant@@QAE?AV?$QList@VOperationParamData@@@@H@Z$10 00414ba1 f   environmentvariant.obj
 0001:00013ba7       __ehhandler$?getOperationParams@EnvironmentVariant@@QAE?AV?$QList@VOperationParamData@@@@H@Z 00414ba7 f   environmentvariant.obj
 0001:00013bd0       __unwindfunclet$?initModels@EnvironmentVariant@@QAEXPAVQQmlContext@@@Z$0 00414bd0 f   environmentvariant.obj
 0001:00013bd9       __unwindfunclet$?initModels@EnvironmentVariant@@QAEXPAVQQmlContext@@@Z$1 00414bd9 f   environmentvariant.obj
 0001:00013be2       __unwindfunclet$?initModels@EnvironmentVariant@@QAEXPAVQQmlContext@@@Z$2 00414be2 f   environmentvariant.obj
 0001:00013beb       __ehhandler$?initModels@EnvironmentVariant@@QAEXPAVQQmlContext@@@Z 00414beb f   environmentvariant.obj
 0001:00013c10       __unwindfunclet$?initProtocol@EnvironmentVariant@@QAEXABVQString@@@Z$0 00414c10 f   environmentvariant.obj
 0001:00013c19       __ehhandler$?initProtocol@EnvironmentVariant@@QAEXABVQString@@@Z 00414c19 f   environmentvariant.obj
 0001:00013c40       __unwindfunclet$?initUserConfig@EnvironmentVariant@@QAEXABVQString@@@Z$0 00414c40 f   environmentvariant.obj
 0001:00013c48       __unwindfunclet$?initUserConfig@EnvironmentVariant@@QAEXABVQString@@@Z$1 00414c48 f   environmentvariant.obj
 0001:00013c51       __unwindfunclet$?initUserConfig@EnvironmentVariant@@QAEXABVQString@@@Z$2 00414c51 f   environmentvariant.obj
 0001:00013c5a       __ehhandler$?initUserConfig@EnvironmentVariant@@QAEXABVQString@@@Z 00414c5a f   environmentvariant.obj
 0001:00013c80       __unwindfunclet$?insert@?$QList@VSingleOperationData@@@@QAEXHABVSingleOperationData@@@Z$9 00414c80 f   environmentvariant.obj
 0001:00013c8f       __unwindfunclet$?insert@?$QList@VSingleOperationData@@@@QAEXHABVSingleOperationData@@@Z$11 00414c8f f   environmentvariant.obj
 0001:00013c98       __unwindfunclet$?insert@?$QList@VSingleOperationData@@@@QAEXHABVSingleOperationData@@@Z$15 00414c98 f   environmentvariant.obj
 0001:00013ca7       __unwindfunclet$?insert@?$QList@VSingleOperationData@@@@QAEXHABVSingleOperationData@@@Z$17 00414ca7 f   environmentvariant.obj
 0001:00013cb0       __ehhandler$?insert@?$QList@VSingleOperationData@@@@QAEXHABVSingleOperationData@@@Z 00414cb0 f   environmentvariant.obj
 0001:00013cd0       __unwindfunclet$?instance@EnvironmentVariant@@SAPAV1@XZ$0 00414cd0 f   environmentvariant.obj
 0001:00013cdf       __ehhandler$?instance@EnvironmentVariant@@SAPAV1@XZ 00414cdf f   environmentvariant.obj
 0001:00013d00       __unwindfunclet$?node_destruct@?$QList@VSingleOperationData@@@@AAEXPAUNode@1@@Z$2 00414d00 f   environmentvariant.obj
 0001:00013d06       __ehhandler$?node_destruct@?$QList@VSingleOperationData@@@@AAEXPAUNode@1@@Z 00414d06 f   environmentvariant.obj
 0001:00013d30       __unwindfunclet$?parseConfigFile@EnvironmentVariant@@QAEXABVQString@@@Z$0 00414d30 f   environmentvariant.obj
 0001:00013d38       __unwindfunclet$?parseConfigFile@EnvironmentVariant@@QAEXABVQString@@@Z$1 00414d38 f   environmentvariant.obj
 0001:00013d41       __unwindfunclet$?parseConfigFile@EnvironmentVariant@@QAEXABVQString@@@Z$3 00414d41 f   environmentvariant.obj
 0001:00013d4a       __unwindfunclet$?parseConfigFile@EnvironmentVariant@@QAEXABVQString@@@Z$4 00414d4a f   environmentvariant.obj
 0001:00013d52       __unwindfunclet$?parseConfigFile@EnvironmentVariant@@QAEXABVQString@@@Z$5 00414d52 f   environmentvariant.obj
 0001:00013d5b       __unwindfunclet$?parseConfigFile@EnvironmentVariant@@QAEXABVQString@@@Z$7 00414d5b f   environmentvariant.obj
 0001:00013d64       __unwindfunclet$?parseConfigFile@EnvironmentVariant@@QAEXABVQString@@@Z$8 00414d64 f   environmentvariant.obj
 0001:00013d6c       __unwindfunclet$?parseConfigFile@EnvironmentVariant@@QAEXABVQString@@@Z$57 00414d6c f   environmentvariant.obj
 0001:00013d72       __unwindfunclet$?parseConfigFile@EnvironmentVariant@@QAEXABVQString@@@Z$9 00414d72 f   environmentvariant.obj
 0001:00013d7b       __unwindfunclet$?parseConfigFile@EnvironmentVariant@@QAEXABVQString@@@Z$75 00414d7b f   environmentvariant.obj
 0001:00013d81       __unwindfunclet$?parseConfigFile@EnvironmentVariant@@QAEXABVQString@@@Z$85 00414d81 f   environmentvariant.obj
 0001:00013d87       __unwindfunclet$?parseConfigFile@EnvironmentVariant@@QAEXABVQString@@@Z$11 00414d87 f   environmentvariant.obj
 0001:00013d90       __unwindfunclet$?parseConfigFile@EnvironmentVariant@@QAEXABVQString@@@Z$104 00414d90 f   environmentvariant.obj
 0001:00013d96       __unwindfunclet$?parseConfigFile@EnvironmentVariant@@QAEXABVQString@@@Z$114 00414d96 f   environmentvariant.obj
 0001:00013d9c       __unwindfunclet$?parseConfigFile@EnvironmentVariant@@QAEXABVQString@@@Z$13 00414d9c f   environmentvariant.obj
 0001:00013da5       __unwindfunclet$?parseConfigFile@EnvironmentVariant@@QAEXABVQString@@@Z$133 00414da5 f   environmentvariant.obj
 0001:00013dab       __unwindfunclet$?parseConfigFile@EnvironmentVariant@@QAEXABVQString@@@Z$143 00414dab f   environmentvariant.obj
 0001:00013db1       __unwindfunclet$?parseConfigFile@EnvironmentVariant@@QAEXABVQString@@@Z$15 00414db1 f   environmentvariant.obj
 0001:00013dba       __unwindfunclet$?parseConfigFile@EnvironmentVariant@@QAEXABVQString@@@Z$153 00414dba f   environmentvariant.obj
 0001:00013dc0       __ehhandler$?parseConfigFile@EnvironmentVariant@@QAEXABVQString@@@Z 00414dc0 f   environmentvariant.obj
 0001:00013de0       __unwindfunclet$?planSelectStepListModel@EnvironmentVariant@@QAE?AVQStringList@@H@Z$0 00414de0 f   environmentvariant.obj
 0001:00013df9       __unwindfunclet$?planSelectStepListModel@EnvironmentVariant@@QAE?AVQStringList@@H@Z$1 00414df9 f   environmentvariant.obj
 0001:00013e01       __unwindfunclet$?planSelectStepListModel@EnvironmentVariant@@QAE?AVQStringList@@H@Z$2 00414e01 f   environmentvariant.obj
 0001:00013e0a       __unwindfunclet$?planSelectStepListModel@EnvironmentVariant@@QAE?AVQStringList@@H@Z$3 00414e0a f   environmentvariant.obj
 0001:00013e13       __unwindfunclet$?planSelectStepListModel@EnvironmentVariant@@QAE?AVQStringList@@H@Z$4 00414e13 f   environmentvariant.obj
 0001:00013e1c       __unwindfunclet$?planSelectStepListModel@EnvironmentVariant@@QAE?AVQStringList@@H@Z$13 00414e1c f   environmentvariant.obj
 0001:00013e22       __ehhandler$?planSelectStepListModel@EnvironmentVariant@@QAE?AVQStringList@@H@Z 00414e22 f   environmentvariant.obj
 0001:00013e40       __unwindfunclet$?planStepParam@EnvironmentVariant@@QAE?AVSingleOperationData@@HH@Z$0 00414e40 f   environmentvariant.obj
 0001:00013e48       __unwindfunclet$?planStepParam@EnvironmentVariant@@QAE?AVSingleOperationData@@HH@Z$3 00414e48 f   environmentvariant.obj
 0001:00013e50       __unwindfunclet$?planStepParam@EnvironmentVariant@@QAE?AVSingleOperationData@@HH@Z$4 00414e50 f   environmentvariant.obj
 0001:00013e58       __unwindfunclet$?planStepParam@EnvironmentVariant@@QAE?AVSingleOperationData@@HH@Z$38 00414e58 f   environmentvariant.obj
 0001:00013e5e       __unwindfunclet$?planStepParam@EnvironmentVariant@@QAE?AVSingleOperationData@@HH@Z$48 00414e5e f   environmentvariant.obj
 0001:00013e64       __unwindfunclet$?planStepParam@EnvironmentVariant@@QAE?AVSingleOperationData@@HH@Z$25 00414e64 f   environmentvariant.obj
 0001:00013e6a       __unwindfunclet$?planStepParam@EnvironmentVariant@@QAE?AVSingleOperationData@@HH@Z$11 00414e6a f   environmentvariant.obj
 0001:00013e70       __ehhandler$?planStepParam@EnvironmentVariant@@QAE?AVSingleOperationData@@HH@Z 00414e70 f   environmentvariant.obj
 0001:00013e90       __unwindfunclet$?setWorkLocationType@EnvironmentVariant@@QAE_NHHABVQString@@@Z$0 00414e90 f   environmentvariant.obj
 0001:00013e99       __unwindfunclet$?setWorkLocationType@EnvironmentVariant@@QAE_NHHABVQString@@@Z$1 00414e99 f   environmentvariant.obj
 0001:00013ea2       __unwindfunclet$?setWorkLocationType@EnvironmentVariant@@QAE_NHHABVQString@@@Z$2 00414ea2 f   environmentvariant.obj
 0001:00013ebc       __unwindfunclet$?setWorkLocationType@EnvironmentVariant@@QAE_NHHABVQString@@@Z$3 00414ebc f   environmentvariant.obj
 0001:00013ed6       __unwindfunclet$?setWorkLocationType@EnvironmentVariant@@QAE_NHHABVQString@@@Z$4 00414ed6 f   environmentvariant.obj
 0001:00013ef0       __unwindfunclet$?setWorkLocationType@EnvironmentVariant@@QAE_NHHABVQString@@@Z$5 00414ef0 f   environmentvariant.obj
 0001:00013f0a       __unwindfunclet$?setWorkLocationType@EnvironmentVariant@@QAE_NHHABVQString@@@Z$6 00414f0a f   environmentvariant.obj
 0001:00013f13       __unwindfunclet$?setWorkLocationType@EnvironmentVariant@@QAE_NHHABVQString@@@Z$7 00414f13 f   environmentvariant.obj
 0001:00013f1c       __unwindfunclet$?setWorkLocationType@EnvironmentVariant@@QAE_NHHABVQString@@@Z$8 00414f1c f   environmentvariant.obj
 0001:00013f25       __unwindfunclet$?setWorkLocationType@EnvironmentVariant@@QAE_NHHABVQString@@@Z$9 00414f25 f   environmentvariant.obj
 0001:00013f2e       __unwindfunclet$?setWorkLocationType@EnvironmentVariant@@QAE_NHHABVQString@@@Z$10 00414f2e f   environmentvariant.obj
 0001:00013f37       __unwindfunclet$?setWorkLocationType@EnvironmentVariant@@QAE_NHHABVQString@@@Z$18 00414f37 f   environmentvariant.obj
 0001:00013f40       __unwindfunclet$?setWorkLocationType@EnvironmentVariant@@QAE_NHHABVQString@@@Z$11 00414f40 f   environmentvariant.obj
 0001:00013f49       __unwindfunclet$?setWorkLocationType@EnvironmentVariant@@QAE_NHHABVQString@@@Z$12 00414f49 f   environmentvariant.obj
 0001:00013f52       __unwindfunclet$?setWorkLocationType@EnvironmentVariant@@QAE_NHHABVQString@@@Z$13 00414f52 f   environmentvariant.obj
 0001:00013f5b       __unwindfunclet$?setWorkLocationType@EnvironmentVariant@@QAE_NHHABVQString@@@Z$14 00414f5b f   environmentvariant.obj
 0001:00013f64       __unwindfunclet$?setWorkLocationType@EnvironmentVariant@@QAE_NHHABVQString@@@Z$15 00414f64 f   environmentvariant.obj
 0001:00013f70       __unwindfunclet$?setWorkLocationType@EnvironmentVariant@@QAE_NHHABVQString@@@Z$16 00414f70 f   environmentvariant.obj
 0001:00013f79       __unwindfunclet$?setWorkLocationType@EnvironmentVariant@@QAE_NHHABVQString@@@Z$17 00414f79 f   environmentvariant.obj
 0001:00013f82       __ehhandler$?setWorkLocationType@EnvironmentVariant@@QAE_NHHABVQString@@@Z 00414f82 f   environmentvariant.obj
 0001:00013fa0       __unwindfunclet$??__Fdummy@?A0x4c3cf720@@YAXXZ$0 00414fa0 f   qrc_qml.obj
 0001:00013fa0       __unwindfunclet$?Destruct@?$QMetaTypeFunctionHelper@V?$QList@PAVQObject@@@@$00@QtMetaTypePrivate@@SAXPAX@Z$1 00414fa0 f   moc_workmodels.obj
 0001:00013fa0       __unwindfunclet$??__Ff@?4??registerConverter@?$ValueTypeIsMetaType@V?$QList@H@@$00@QtPrivate@@SA_NH@Z@YAXXZ$0 00414fa0 f   moc_workmodels.obj
 0001:00013fa0       __unwindfunclet$?Destruct@?$QMetaTypeFunctionHelper@V?$QList@H@@$00@QtMetaTypePrivate@@SAXPAX@Z$1 00414fa0 f   moc_workmodels.obj
 0001:00013fa0       __unwindfunclet$??__Ff@?4??registerConverter@?$ValueTypeIsMetaType@V?$QList@PAVQObject@@@@$00@QtPrivate@@SA_NH@Z@YAXXZ$0 00414fa0 f   moc_workmodels.obj
 0001:00013fa6       __ehhandler$??__Ff@?4??registerConverter@?$ValueTypeIsMetaType@V?$QList@PAVQObject@@@@$00@QtPrivate@@SA_NH@Z@YAXXZ 00414fa6 f   moc_workmodels.obj
 0001:00013fa6       __ehhandler$??__Ff@?4??registerConverter@?$ValueTypeIsMetaType@V?$QList@H@@$00@QtPrivate@@SA_NH@Z@YAXXZ 00414fa6 f   moc_workmodels.obj
 0001:00013fa6       __ehhandler$?Destruct@?$QMetaTypeFunctionHelper@V?$QList@H@@$00@QtMetaTypePrivate@@SAXPAX@Z 00414fa6 f   moc_workmodels.obj
 0001:00013fa6       __ehhandler$??__Fdummy@?A0x4c3cf720@@YAXXZ 00414fa6 f   qrc_qml.obj
 0001:00013fa6       __ehhandler$?Destruct@?$QMetaTypeFunctionHelper@V?$QList@PAVQObject@@@@$00@QtMetaTypePrivate@@SAXPAX@Z 00414fa6 f   moc_workmodels.obj
 0001:00013fd0       __unwindfunclet$??4SingleOperationData@@QAEAAV0@$$QAV0@@Z$9 00414fd0 f   environmentvariant.obj
 0001:00013fd0       __unwindfunclet$??_G?$QPair@VQString@@V?$QList@VSingleOperationData@@@@@@QAEPAXI@Z$1 00414fd0 f   configfilehandler.obj
 0001:00013fd0       __unwindfunclet$??4?$QList@U?$QPair@VQString@@V?$QList@VSingleOperationData@@@@@@@@QAEAAV0@$$QAV0@@Z$8 00414fd0 f   configfilehandler.obj
 0001:00013fd0       __unwindfunclet$??1?$QPair@VQString@@V?$QList@VSingleOperationData@@@@@@QAE@XZ$0 00414fd0 f   configfilehandler.obj
 0001:00013fd0       __unwindfunclet$??4?$QList@PAVQObject@@@@QAEAAV0@$$QAV0@@Z$8 00414fd0 f   moc_workmodels.obj
 0001:00013fd0       __unwindfunclet$??4?$QList@H@@QAEAAV0@$$QAV0@@Z$8 00414fd0 f   moc_workmodels.obj
 0001:00013fd6       __ehhandler$??1?$QPair@VQString@@V?$QList@VSingleOperationData@@@@@@QAE@XZ 00414fd6 f   configfilehandler.obj
 0001:00013fd6       __ehhandler$??4?$QList@U?$QPair@VQString@@V?$QList@VSingleOperationData@@@@@@@@QAEAAV0@$$QAV0@@Z 00414fd6 f   configfilehandler.obj
 0001:00013fd6       __ehhandler$??4SingleOperationData@@QAEAAV0@$$QAV0@@Z 00414fd6 f   environmentvariant.obj
 0001:00013fd6       __ehhandler$??4?$QList@H@@QAEAAV0@$$QAV0@@Z 00414fd6 f   moc_workmodels.obj
 0001:00013fd6       __ehhandler$??_G?$QPair@VQString@@V?$QList@VSingleOperationData@@@@@@QAEPAXI@Z 00414fd6 f   configfilehandler.obj
 0001:00013fd6       __ehhandler$??4?$QList@PAVQObject@@@@QAEAAV0@$$QAV0@@Z 00414fd6 f   moc_workmodels.obj
 0001:00014000       __unwindfunclet$?Construct@?$QMetaTypeFunctionHelper@V?$QList@PAVQObject@@@@$00@QtMetaTypePrivate@@SAPAXPAXPBX@Z$0 00415000 f   moc_workmodels.obj
 0001:00014000       __unwindfunclet$?Construct@?$QMetaTypeFunctionHelper@V?$QList@H@@$00@QtMetaTypePrivate@@SAPAXPAXPBX@Z$0 00415000 f   moc_workmodels.obj
 0001:00014011       __ehhandler$?Construct@?$QMetaTypeFunctionHelper@V?$QList@H@@$00@QtMetaTypePrivate@@SAPAXPAXPBX@Z 00415011 f   moc_workmodels.obj
 0001:00014011       __ehhandler$?Construct@?$QMetaTypeFunctionHelper@V?$QList@PAVQObject@@@@$00@QtMetaTypePrivate@@SAPAXPAXPBX@Z 00415011 f   moc_workmodels.obj
 0001:00014030       __unwindfunclet$?qt_metatype_id@?$QMetaTypeId@V?$QList@H@@@@SAHXZ$0 00415030 f   moc_workmodels.obj
 0001:00014039       __ehhandler$?qt_metatype_id@?$QMetaTypeId@V?$QList@H@@@@SAHXZ 00415039 f   moc_workmodels.obj
 0001:00014060       __unwindfunclet$?qt_metatype_id@?$QMetaTypeId@V?$QList@PAVQObject@@@@@@SAHXZ$2 00415060 f   moc_workmodels.obj
 0001:00014060       __unwindfunclet$?qt_metatype_id@?$QMetaTypeId@VQSequentialIterableImpl@QtMetaTypePrivate@@@@SAHXZ$2 00415060 f   moc_workmodels.obj
 0001:00014069       __ehhandler$?qt_metatype_id@?$QMetaTypeId@VQSequentialIterableImpl@QtMetaTypePrivate@@@@SAHXZ 00415069 f   moc_workmodels.obj
 0001:00014069       __ehhandler$?qt_metatype_id@?$QMetaTypeId@V?$QList@PAVQObject@@@@@@SAHXZ 00415069 f   moc_workmodels.obj
 0001:00014090       __unwindfunclet$?qt_static_metacall@StatusViewWatcher@@CAXPAVQObject@@W4Call@QMetaObject@@HPAPAX@Z$0 00415090 f   moc_workmodels.obj
 0001:00014099       __unwindfunclet$?qt_static_metacall@StatusViewWatcher@@CAXPAVQObject@@W4Call@QMetaObject@@HPAPAX@Z$1 00415099 f   moc_workmodels.obj
 0001:000140a2       __ehhandler$?qt_static_metacall@StatusViewWatcher@@CAXPAVQObject@@W4Call@QMetaObject@@HPAPAX@Z 004150a2 f   moc_workmodels.obj
 0001:000140c0       ??__Fdummy@?A0x4c3cf720@@YAXXZ 004150c0 f   qrc_qml.obj
 0002:00000490       ?pre_cpp_initializer@@3P6AXXZA 00416490     MSVCRT:exe_winmain.obj
 0002:00000494       ?dummy$initializer$@?A0x4c3cf720@@3P6AXXZA 00416494     qrc_qml.obj
 0002:00000498       ??staticMetaObject$initializer$@OperationParamObject@@2P6AXXZA@@3P6AXXZA 00416498     moc_workmodels.obj
 0002:0000049c       ??staticMetaObject$initializer$@OperationParamSelector@@2P6AXXZA@@3P6AXXZA 0041649c     moc_workmodels.obj
 0002:000004a0       ??staticMetaObject$initializer$@SingleOperationObject@@2P6AXXZA@@3P6AXXZA 004164a0     moc_workmodels.obj
 0002:000004a4       ??staticMetaObject$initializer$@PlanSelector@@2P6AXXZA@@3P6AXXZA 004164a4     moc_workmodels.obj
 0002:000004a8       ??staticMetaObject$initializer$@PlanController@@2P6AXXZA@@3P6AXXZA 004164a8     moc_workmodels.obj
 0002:000004ac       ??staticMetaObject$initializer$@StatusViewWatcher@@2P6AXXZA@@3P6AXXZA 004164ac     moc_workmodels.obj
 0002:000004b0       ??staticMetaObject$initializer$@TargetMachineObject@@2P6AXXZA@@3P6AXXZA 004164b0     moc_workmodels.obj
 0002:000004b4       ??staticMetaObject$initializer$@configFileHandler@@2P6AXXZA@@3P6AXXZA 004164b4     moc_configfilehandler.obj
 0002:000004b8       ??staticMetaObject$initializer$@EnvironmentVariant@@2P6AXXZA@@3P6AXXZA 004164b8     moc_environmentvariant.obj
 0002:000004c4       ?pre_c_initializer@@3P6AHXZA 004164c4     MSVCRT:exe_winmain.obj
 0002:000004c8       ?post_pgo_initializer@@3P6AHXZA 004164c8     MSVCRT:exe_winmain.obj
 0002:000004cc       ?__scrt_initialize_tss_var@@3P6AHXZA 004164cc     MSVCRT:thread_safe_statics.obj
 0002:00000b98       ?qt_resource_data@@3QBEB   00416b98     qrc_qml.obj
 0002:0004b090       ?qt_resource_name@@3QBEB   00461090     qrc_qml.obj
 0002:0004b3b8       ?qt_resource_struct@@3QBEB 004613b8     qrc_qml.obj
 0002:0004b638       ?qt_meta_stringdata_StatusViewWatcher@@3Uqt_meta_stringdata_StatusViewWatcher_t@@B 00461638     moc_workmodels.obj
 0002:0004b790       ?qt_meta_data_StatusViewWatcher@@3QBIB 00461790     moc_workmodels.obj
 0002:0004b868       ?qt_meta_stringdata_TargetMachineObject@@3Uqt_meta_stringdata_TargetMachineObject_t@@B 00461868     moc_workmodels.obj
 0002:0004b938       ?qt_meta_stringdata_OperationParamSelector@@3Uqt_meta_stringdata_OperationParamSelector_t@@B 00461938     moc_workmodels.obj
 0002:0004baf8       ?qt_meta_data_TargetMachineObject@@3QBIB 00461af8     moc_workmodels.obj
 0002:0004bb98       ?qt_meta_data_OperationParamSelector@@3QBIB 00461b98     moc_workmodels.obj
 0002:0004bcc0       ?qt_meta_stringdata_SingleOperationObject@@3Uqt_meta_stringdata_SingleOperationObject_t@@B 00461cc0     moc_workmodels.obj
 0002:0004bd40       ?qt_meta_data_SingleOperationObject@@3QBIB 00461d40     moc_workmodels.obj
 0002:0004bda8       ?qt_meta_stringdata_PlanSelector@@3Uqt_meta_stringdata_PlanSelector_t@@B 00461da8     moc_workmodels.obj
 0002:0004c0f0       ?qt_meta_data_PlanSelector@@3QBIB 004620f0     moc_workmodels.obj
 0002:0004c3b0       ?qt_meta_stringdata_OperationParamObject@@3Uqt_meta_stringdata_OperationParamObject_t@@B 004623b0     moc_workmodels.obj
 0002:0004c708       ?qt_meta_stringdata_PlanController@@3Uqt_meta_stringdata_PlanController_t@@B 00462708     moc_workmodels.obj
 0002:0004c800       ?qt_meta_data_OperationParamObject@@3QBIB 00462800     moc_workmodels.obj
 0002:0004ca48       ?qt_meta_data_PlanController@@3QBIB 00462a48     moc_workmodels.obj
 0002:0004cb80       ?qt_meta_stringdata_configFileHandler@@3Uqt_meta_stringdata_configFileHandler_t@@B 00462b80     moc_configfilehandler.obj
 0002:0004cba4       ?qt_meta_data_configFileHandler@@3QBIB 00462ba4     moc_configfilehandler.obj
 0002:0004cbe0       ?qt_meta_stringdata_EnvironmentVariant@@3Uqt_meta_stringdata_EnvironmentVariant_t@@B 00462be0     moc_environmentvariant.obj
 0002:0004cc40       ?qt_meta_data_EnvironmentVariant@@3QBIB 00462c40     moc_environmentvariant.obj
 0002:0004cd6c       _GS_ExceptionPointers      00462d6c     MSVCRT:gs_report.obj
 0002:0004db00       __unwindtable$??H@YA?BVQString@@ABV0@0@Z 00463b00     main.obj
 0002:0004db08       __ehfuncinfo$??H@YA?BVQString@@ABV0@0@Z 00463b08     main.obj
 0002:0004db2c       __unwindtable$??H@YA?BVQString@@ABV0@PBD@Z 00463b2c     main.obj
 0002:0004db3c       __ehfuncinfo$??H@YA?BVQString@@ABV0@PBD@Z 00463b3c     main.obj
 0002:0004db60       __unwindtable$??1OperationParamSelector@@UAE@XZ 00463b60     main.obj
 0002:0004db70       __ehfuncinfo$??1OperationParamSelector@@UAE@XZ 00463b70     main.obj
 0002:0004db94       __unwindtable$??1PlanSelector@@UAE@XZ 00463b94     main.obj
 0002:0004dba4       __ehfuncinfo$??1PlanSelector@@UAE@XZ 00463ba4     main.obj
 0002:0004dbc8       __unwindtable$?validate@TextFieldDoubleValidator@@UBE?AW4State@QValidator@@AAVQString@@AAH@Z 00463bc8     main.obj
 0002:0004dbe0       __ehfuncinfo$?validate@TextFieldDoubleValidator@@UBE?AW4State@QValidator@@AAVQString@@AAH@Z 00463be0     main.obj
 0002:0004dc04       __ehfuncinfo$?customMessageHandler@@YAXW4QtMsgType@@ABVQMessageLogContext@@ABVQString@@@Z 00463c04     main.obj
 0002:0004dc28       __unwindtable$?customMessageHandler@@YAXW4QtMsgType@@ABVQMessageLogContext@@ABVQString@@@Z 00463c28     main.obj
 0002:0004dcc8       __unwindtable$?getConfigFullName@@YA?AVQString@@PBD@Z 00463cc8     main.obj
 0002:0004dcd0       __ehfuncinfo$?getConfigFullName@@YA?AVQString@@PBD@Z 00463cd0     main.obj
 0002:0004dcf4       __ehfuncinfo$_main         00463cf4     main.obj
 0002:0004dd18       __unwindtable$_main        00463d18     main.obj
 0002:0004ddb0       __ehfuncinfo$??$qmlRegisterType@VStatusViewWatcher@@@@YAHPBDHH0@Z 00463db0     main.obj
 0002:0004ddb0       __ehfuncinfo$??$qmlRegisterType@VTextFieldDoubleValidator@@@@YAHPBDHH0@Z 00463db0     main.obj
 0002:0004ddb0       __ehfuncinfo$??$qmlRegisterType@VOperationParamSelector@@@@YAHPBDHH0@Z 00463db0     main.obj
 0002:0004ddb0       __ehfuncinfo$??$qmlRegisterType@VPlanController@@@@YAHPBDHH0@Z 00463db0     main.obj
 0002:0004ddb0       __ehfuncinfo$??$qmlRegisterType@VPlanSelector@@@@YAHPBDHH0@Z 00463db0     main.obj
 0002:0004ddb0       __ehfuncinfo$??$qmlRegisterType@VOperationParamObject@@@@YAHPBDHH0@Z 00463db0     main.obj
 0002:0004ddd4       __unwindtable$??$qmlRegisterType@VOperationParamSelector@@@@YAHPBDHH0@Z 00463dd4     main.obj
 0002:0004ddd4       __unwindtable$??$qmlRegisterType@VTextFieldDoubleValidator@@@@YAHPBDHH0@Z 00463dd4     main.obj
 0002:0004ddd4       __unwindtable$??$qmlRegisterType@VStatusViewWatcher@@@@YAHPBDHH0@Z 00463dd4     main.obj
 0002:0004ddd4       __unwindtable$??$qmlRegisterType@VPlanSelector@@@@YAHPBDHH0@Z 00463dd4     main.obj
 0002:0004ddd4       __unwindtable$??$qmlRegisterType@VOperationParamObject@@@@YAHPBDHH0@Z 00463dd4     main.obj
 0002:0004ddd4       __unwindtable$??$qmlRegisterType@VPlanController@@@@YAHPBDHH0@Z 00463dd4     main.obj
 0002:0004ddfc       __unwindtable$?qt_metatype_id@?$QMetaTypeIdQObject@PAVTextFieldDoubleValidator@@$07@@SAHXZ 00463dfc     main.obj
 0002:0004ddfc       __unwindtable$?qt_metatype_id@?$QMetaTypeIdQObject@PAVPlanController@@$07@@SAHXZ 00463dfc     main.obj
 0002:0004ddfc       __unwindtable$?qt_metatype_id@?$QMetaTypeIdQObject@PAVStatusViewWatcher@@$07@@SAHXZ 00463dfc     main.obj
 0002:0004ddfc       __unwindtable$?qt_metatype_id@?$QMetaTypeIdQObject@PAVPlanSelector@@$07@@SAHXZ 00463dfc     main.obj
 0002:0004ddfc       __unwindtable$?qt_metatype_id@?$QMetaTypeIdQObject@PAVOperationParamSelector@@$07@@SAHXZ 00463dfc     main.obj
 0002:0004ddfc       __unwindtable$?qt_metatype_id@?$QMetaTypeIdQObject@PAVOperationParamObject@@$07@@SAHXZ 00463dfc     main.obj
 0002:0004de04       __ehfuncinfo$?qt_metatype_id@?$QMetaTypeIdQObject@PAVOperationParamObject@@$07@@SAHXZ 00463e04     main.obj
 0002:0004de04       __ehfuncinfo$?qt_metatype_id@?$QMetaTypeIdQObject@PAVPlanSelector@@$07@@SAHXZ 00463e04     main.obj
 0002:0004de04       __ehfuncinfo$?qt_metatype_id@?$QMetaTypeIdQObject@PAVPlanController@@$07@@SAHXZ 00463e04     main.obj
 0002:0004de04       __ehfuncinfo$?qt_metatype_id@?$QMetaTypeIdQObject@PAVTextFieldDoubleValidator@@$07@@SAHXZ 00463e04     main.obj
 0002:0004de04       __ehfuncinfo$?qt_metatype_id@?$QMetaTypeIdQObject@PAVOperationParamSelector@@$07@@SAHXZ 00463e04     main.obj
 0002:0004de04       __ehfuncinfo$?qt_metatype_id@?$QMetaTypeIdQObject@PAVStatusViewWatcher@@$07@@SAHXZ 00463e04     main.obj
 0002:0004de28       __unwindtable$??$createInto@VOperationParamSelector@@@QQmlPrivate@@YAXPAX@Z 00463e28     main.obj
 0002:0004de28       __unwindtable$??$createInto@VTextFieldDoubleValidator@@@QQmlPrivate@@YAXPAX@Z 00463e28     main.obj
 0002:0004de28       __unwindtable$??$createInto@VStatusViewWatcher@@@QQmlPrivate@@YAXPAX@Z 00463e28     main.obj
 0002:0004de28       __unwindtable$??$createInto@VPlanController@@@QQmlPrivate@@YAXPAX@Z 00463e28     main.obj
 0002:0004de28       __unwindtable$??$createInto@VOperationParamObject@@@QQmlPrivate@@YAXPAX@Z 00463e28     main.obj
 0002:0004de28       __unwindtable$??$createInto@VPlanSelector@@@QQmlPrivate@@YAXPAX@Z 00463e28     main.obj
 0002:0004de30       __ehfuncinfo$??$createInto@VPlanController@@@QQmlPrivate@@YAXPAX@Z 00463e30     main.obj
 0002:0004de30       __ehfuncinfo$??$createInto@VOperationParamObject@@@QQmlPrivate@@YAXPAX@Z 00463e30     main.obj
 0002:0004de30       __ehfuncinfo$??$createInto@VStatusViewWatcher@@@QQmlPrivate@@YAXPAX@Z 00463e30     main.obj
 0002:0004de30       __ehfuncinfo$??$createInto@VTextFieldDoubleValidator@@@QQmlPrivate@@YAXPAX@Z 00463e30     main.obj
 0002:0004de30       __ehfuncinfo$??$createInto@VOperationParamSelector@@@QQmlPrivate@@YAXPAX@Z 00463e30     main.obj
 0002:0004de30       __ehfuncinfo$??$createInto@VPlanSelector@@@QQmlPrivate@@YAXPAX@Z 00463e30     main.obj
 0002:0004de54       __catchsym$??0?$QList@VQString@@@@QAE@ABV0@@Z$7 00463e54     workmodels.obj
 0002:0004de64       __unwindtable$??0?$QList@VQString@@@@QAE@ABV0@@Z 00463e64     workmodels.obj
 0002:0004de74       __tryblocktable$??0?$QList@VQString@@@@QAE@ABV0@@Z 00463e74     workmodels.obj
 0002:0004de88       __ehfuncinfo$??0?$QList@VQString@@@@QAE@ABV0@@Z 00463e88     workmodels.obj
 0002:0004deac       __catchsym$??0?$QList@H@@QAE@ABV0@@Z$7 00463eac     workmodels.obj
 0002:0004deac       __catchsym$??0?$QList@PAVQObject@@@@QAE@ABV0@@Z$7 00463eac     workmodels.obj
 0002:0004debc       __unwindtable$??0?$QList@H@@QAE@ABV0@@Z 00463ebc     workmodels.obj
 0002:0004debc       __unwindtable$??0?$QList@PAVQObject@@@@QAE@ABV0@@Z 00463ebc     workmodels.obj
 0002:0004decc       __tryblocktable$??0?$QList@PAVQObject@@@@QAE@ABV0@@Z 00463ecc     workmodels.obj
 0002:0004decc       __tryblocktable$??0?$QList@H@@QAE@ABV0@@Z 00463ecc     workmodels.obj
 0002:0004dee0       __ehfuncinfo$??0?$QList@H@@QAE@ABV0@@Z 00463ee0     workmodels.obj
 0002:0004dee0       __ehfuncinfo$??0?$QList@PAVQObject@@@@QAE@ABV0@@Z 00463ee0     workmodels.obj
 0002:0004df04       __ehfuncinfo$??1?$QList@PAVQObject@@@@QAE@XZ 00463f04     workmodels.obj
 0002:0004df04       __ehfuncinfo$??1?$QMap@VQString@@VOperationParamData@@@@QAE@XZ 00463f04     configfilehandler.obj
 0002:0004df04       __ehfuncinfo$??1PlanController@@UAE@XZ 00463f04     workmodels.obj
 0002:0004df04       __ehfuncinfo$??1?$QList@VQString@@@@QAE@XZ 00463f04     main.obj
 0002:0004df04       __ehfuncinfo$??1?$QList@VOperationParamData@@@@QAE@XZ 00463f04     workmodels.obj
 0002:0004df04       __ehfuncinfo$??1?$QMap@VQString@@V1@@@QAE@XZ 00463f04     configfilehandler.obj
 0002:0004df04       __ehfuncinfo$??1?$QList@VSingleOperationData@@@@QAE@XZ 00463f04     configfilehandler.obj
 0002:0004df04       __ehfuncinfo$??1?$QList@U?$QPair@VQString@@V?$QList@VSingleOperationData@@@@@@@@QAE@XZ 00463f04     environmentvariant.obj
 0002:0004df04       __ehfuncinfo$??1?$QList@H@@QAE@XZ 00463f04     workmodels.obj
 0002:0004df04       __ehfuncinfo$??1?$QMap@VQString@@VQStringList@@@@QAE@XZ 00463f04     configfilehandler.obj
 0002:0004df04       __ehfuncinfo$??1StatusViewWatcher@@UAE@XZ 00463f04     workmodels.obj
 0002:0004df28       __catchsym$?detach_helper_grow@?$QList@H@@AAEPAUNode@1@HH@Z$10 00463f28     configfilehandler.obj
 0002:0004df28       __catchsym$?detach_helper_grow@?$QList@PAVQObject@@@@AAEPAUNode@1@HH@Z$10 00463f28     workmodels.obj
 0002:0004df38       __catchsym$?detach_helper_grow@?$QList@PAVQObject@@@@AAEPAUNode@1@HH@Z$9 00463f38     workmodels.obj
 0002:0004df38       __catchsym$?detach_helper_grow@?$QList@H@@AAEPAUNode@1@HH@Z$9 00463f38     configfilehandler.obj
 0002:0004df48       __unwindtable$?detach_helper_grow@?$QList@H@@AAEPAUNode@1@HH@Z 00463f48     configfilehandler.obj
 0002:0004df48       __unwindtable$?detach_helper_grow@?$QList@PAVQObject@@@@AAEPAUNode@1@HH@Z 00463f48     workmodels.obj
 0002:0004df68       __ehfuncinfo$?detach_helper_grow@?$QList@PAVQObject@@@@AAEPAUNode@1@HH@Z 00463f68     workmodels.obj
 0002:0004df68       __ehfuncinfo$?detach_helper_grow@?$QList@H@@AAEPAUNode@1@HH@Z 00463f68     configfilehandler.obj
 0002:0004df8c       __tryblocktable$?detach_helper_grow@?$QList@PAVQObject@@@@AAEPAUNode@1@HH@Z 00463f8c     workmodels.obj
 0002:0004df8c       __tryblocktable$?detach_helper_grow@?$QList@H@@AAEPAUNode@1@HH@Z 00463f8c     configfilehandler.obj
 0002:0004dfb4       __ehfuncinfo$??0OperationParamData@@QAE@ABV0@@Z 00463fb4     workmodels.obj
 0002:0004dfd8       __unwindtable$??0OperationParamData@@QAE@ABV0@@Z 00463fd8     workmodels.obj
 0002:0004e020       __ehfuncinfo$?setSelectedOperation@OperationParamSelector@@QAEXH@Z 00464020     workmodels.obj
 0002:0004e044       __unwindtable$?setSelectedOperation@OperationParamSelector@@QAEXH@Z 00464044     workmodels.obj
 0002:0004e0ac       __unwindtable$?getSwitch@PlanSelector@@QAEPAVQObject@@ABVQString@@@Z 004640ac     workmodels.obj
 0002:0004e0ac       __unwindtable$?getSwitch@OperationParamSelector@@QAEPAVQObject@@ABVQString@@@Z 004640ac     workmodels.obj
 0002:0004e0c4       __ehfuncinfo$?getSwitch@PlanSelector@@QAEPAVQObject@@ABVQString@@@Z 004640c4     workmodels.obj
 0002:0004e0c4       __ehfuncinfo$?getSwitch@OperationParamSelector@@QAEPAVQObject@@ABVQString@@@Z 004640c4     workmodels.obj
 0002:0004e0e8       __ehfuncinfo$?onCompleteSingleOperation@OperationParamSelector@@QAEXXZ 004640e8     workmodels.obj
 0002:0004e10c       __unwindtable$?onCompleteSingleOperation@OperationParamSelector@@QAEXXZ 0046410c     workmodels.obj
 0002:0004e14c       __catchsym$??0?$QList@VOperationParamData@@@@QAE@ABV0@@Z$7 0046414c     workmodels.obj
 0002:0004e15c       __unwindtable$??0?$QList@VOperationParamData@@@@QAE@ABV0@@Z 0046415c     workmodels.obj
 0002:0004e16c       __tryblocktable$??0?$QList@VOperationParamData@@@@QAE@ABV0@@Z 0046416c     workmodels.obj
 0002:0004e180       __ehfuncinfo$??0?$QList@VOperationParamData@@@@QAE@ABV0@@Z 00464180     workmodels.obj
 0002:0004e1a4       __catchsym$?append@?$QList@VOperationParamData@@@@QAEXABVOperationParamData@@@Z$16 004641a4     workmodels.obj
 0002:0004e1b4       __catchsym$?append@?$QList@VOperationParamData@@@@QAEXABVOperationParamData@@@Z$15 004641b4     workmodels.obj
 0002:0004e1c4       __ehfuncinfo$?append@?$QList@VOperationParamData@@@@QAEXABVOperationParamData@@@Z 004641c4     workmodels.obj
 0002:0004e1e8       __tryblocktable$?append@?$QList@VOperationParamData@@@@QAEXABVOperationParamData@@@Z 004641e8     workmodels.obj
 0002:0004e210       __unwindtable$?append@?$QList@VOperationParamData@@@@QAEXABVOperationParamData@@@Z 00464210     workmodels.obj
 0002:0004e270       __catchsym$?detach_helper_grow@?$QList@VOperationParamData@@@@AAEPAUNode@1@HH@Z$10 00464270     workmodels.obj
 0002:0004e280       __catchsym$?detach_helper_grow@?$QList@VOperationParamData@@@@AAEPAUNode@1@HH@Z$9 00464280     workmodels.obj
 0002:0004e290       __unwindtable$?detach_helper_grow@?$QList@VOperationParamData@@@@AAEPAUNode@1@HH@Z 00464290     workmodels.obj
 0002:0004e2b0       __ehfuncinfo$?detach_helper_grow@?$QList@VOperationParamData@@@@AAEPAUNode@1@HH@Z 004642b0     workmodels.obj
 0002:0004e2d4       __tryblocktable$?detach_helper_grow@?$QList@VOperationParamData@@@@AAEPAUNode@1@HH@Z 004642d4     workmodels.obj
 0002:0004e2fc       __catchsym$?node_copy@?$QList@VOperationParamData@@@@AAEXPAUNode@1@00@Z$8 004642fc     workmodels.obj
 0002:0004e30c       __tryblocktable$?node_copy@?$QList@VOperationParamData@@@@AAEXPAUNode@1@00@Z 0046430c     workmodels.obj
 0002:0004e320       __ehfuncinfo$?node_copy@?$QList@VOperationParamData@@@@AAEXPAUNode@1@00@Z 00464320     workmodels.obj
 0002:0004e344       __unwindtable$?node_copy@?$QList@VOperationParamData@@@@AAEXPAUNode@1@00@Z 00464344     workmodels.obj
 0002:0004e374       __unwindtable$??_GPlanController@@UAEPAXI@Z 00464374     workmodels.obj
 0002:0004e374       __unwindtable$??1?$QForeachContainer@V?$QList@VSingleOperationData@@@@@QtPrivate@@QAE@XZ 00464374     environmentvariant.obj
 0002:0004e374       __unwindtable$??_G?$QQmlElement@VTextFieldDoubleValidator@@@QQmlPrivate@@UAEPAXI@Z 00464374     main.obj
 0002:0004e374       __unwindtable$??_G?$QQmlElement@VPlanController@@@QQmlPrivate@@UAEPAXI@Z 00464374     main.obj
 0002:0004e374       __unwindtable$??1SingleOperationData@@QAE@XZ 00464374     workmodels.obj
 0002:0004e374       __unwindtable$??_G?$QQmlElement@VOperationParamSelector@@@QQmlPrivate@@UAEPAXI@Z 00464374     main.obj
 0002:0004e374       __unwindtable$??_G?$QQmlElement@VStatusViewWatcher@@@QQmlPrivate@@UAEPAXI@Z 00464374     main.obj
 0002:0004e374       __unwindtable$??_G?$QQmlElement@VPlanSelector@@@QQmlPrivate@@UAEPAXI@Z 00464374     main.obj
 0002:0004e374       __unwindtable$??_G?$QQmlElement@VOperationParamObject@@@QQmlPrivate@@UAEPAXI@Z 00464374     main.obj
 0002:0004e374       __unwindtable$??_GSingleOperationData@@QAEPAXI@Z 00464374     configfilehandler.obj
 0002:0004e374       __unwindtable$??1OperationParamData@@QAE@XZ 00464374     main.obj
 0002:0004e37c       __ehfuncinfo$??_GSingleOperationData@@QAEPAXI@Z 0046437c     configfilehandler.obj
 0002:0004e37c       __ehfuncinfo$??1OperationParamData@@QAE@XZ 0046437c     main.obj
 0002:0004e37c       __ehfuncinfo$??1?$QForeachContainer@V?$QList@VSingleOperationData@@@@@QtPrivate@@QAE@XZ 0046437c     environmentvariant.obj
 0002:0004e37c       __ehfuncinfo$??_G?$QQmlElement@VTextFieldDoubleValidator@@@QQmlPrivate@@UAEPAXI@Z 0046437c     main.obj
 0002:0004e37c       __ehfuncinfo$??_G?$QQmlElement@VOperationParamObject@@@QQmlPrivate@@UAEPAXI@Z 0046437c     main.obj
 0002:0004e37c       __ehfuncinfo$??_G?$QQmlElement@VOperationParamSelector@@@QQmlPrivate@@UAEPAXI@Z 0046437c     main.obj
 0002:0004e37c       __ehfuncinfo$??_G?$QQmlElement@VPlanSelector@@@QQmlPrivate@@UAEPAXI@Z 0046437c     main.obj
 0002:0004e37c       __ehfuncinfo$??_G?$QQmlElement@VStatusViewWatcher@@@QQmlPrivate@@UAEPAXI@Z 0046437c     main.obj
 0002:0004e37c       __ehfuncinfo$??_G?$QQmlElement@VPlanController@@@QQmlPrivate@@UAEPAXI@Z 0046437c     main.obj
 0002:0004e37c       __ehfuncinfo$??1SingleOperationData@@QAE@XZ 0046437c     workmodels.obj
 0002:0004e37c       __ehfuncinfo$??_GPlanController@@UAEPAXI@Z 0046437c     workmodels.obj
 0002:0004e3a0       __unwindtable$??0PlanSelector@@QAE@PAVQObject@@@Z 004643a0     workmodels.obj
 0002:0004e3c0       __ehfuncinfo$??0PlanSelector@@QAE@PAVQObject@@@Z 004643c0     workmodels.obj
 0002:0004e3e4       __ehfuncinfo$?setSelectedStep@PlanSelector@@QAEXHH@Z 004643e4     workmodels.obj
 0002:0004e408       __unwindtable$?setSelectedStep@PlanSelector@@QAEXHH@Z 00464408     workmodels.obj
 0002:0004e470       __ehfuncinfo$?setSelectedOperation@PlanSelector@@QAEXHHH@Z 00464470     workmodels.obj
 0002:0004e494       __unwindtable$?setSelectedOperation@PlanSelector@@QAEXHHH@Z 00464494     workmodels.obj
 0002:0004e51c       __unwindtable$??0configFileHandler@@QAE@PAVQObject@@@Z 0046451c     configfilehandler.obj
 0002:0004e51c       __unwindtable$??0PlanController@@QAE@PAVQObject@@@Z 0046451c     workmodels.obj
 0002:0004e51c       __unwindtable$??0StatusViewWatcher@@QAE@PAVQObject@@@Z 0046451c     workmodels.obj
 0002:0004e524       __ehfuncinfo$??0configFileHandler@@QAE@PAVQObject@@@Z 00464524     configfilehandler.obj
 0002:0004e524       __ehfuncinfo$??0PlanController@@QAE@PAVQObject@@@Z 00464524     workmodels.obj
 0002:0004e524       __ehfuncinfo$??0StatusViewWatcher@@QAE@PAVQObject@@@Z 00464524     workmodels.obj
 0002:0004e548       __unwindtable$??_GStatusViewWatcher@@UAEPAXI@Z 00464548     workmodels.obj
 0002:0004e550       __ehfuncinfo$??_GStatusViewWatcher@@UAEPAXI@Z 00464550     workmodels.obj
 0002:0004e574       __unwindtable$?onMachineConfigChanged@TargetMachineObject@@QAEXXZ 00464574     workmodels.obj
 0002:0004e57c       __ehfuncinfo$?onMachineConfigChanged@TargetMachineObject@@QAEXXZ 0046457c     workmodels.obj
 0002:0004e5a0       __unwindtable$??1?$QForeachContainer@V?$QList@VOperationParamData@@@@@QtPrivate@@QAE@XZ 004645a0     workmodels.obj
 0002:0004e5a0       __unwindtable$??1?$QForeachContainer@V?$QList@PAVQObject@@@@@QtPrivate@@QAE@XZ 004645a0     workmodels.obj
 0002:0004e5a8       __ehfuncinfo$??1?$QForeachContainer@V?$QList@VOperationParamData@@@@@QtPrivate@@QAE@XZ 004645a8     workmodels.obj
 0002:0004e5a8       __ehfuncinfo$??1?$QForeachContainer@V?$QList@PAVQObject@@@@@QtPrivate@@QAE@XZ 004645a8     workmodels.obj
 0002:0004e5cc       __catchsym$?append@?$QList@VQString@@@@QAEXABVQString@@@Z$11 004645cc     configfilehandler.obj
 0002:0004e5dc       __tryblocktable$?append@?$QList@VQString@@@@QAEXABVQString@@@Z 004645dc     configfilehandler.obj
 0002:0004e5f0       __ehfuncinfo$?append@?$QList@VQString@@@@QAEXABVQString@@@Z 004645f0     configfilehandler.obj
 0002:0004e614       __unwindtable$?append@?$QList@VQString@@@@QAEXABVQString@@@Z 00464614     configfilehandler.obj
 0002:0004e644       __catchsym$?detach_helper_grow@?$QList@VQString@@@@AAEPAUNode@1@HH@Z$12 00464644     configfilehandler.obj
 0002:0004e654       __catchsym$?detach_helper_grow@?$QList@VQString@@@@AAEPAUNode@1@HH@Z$11 00464654     configfilehandler.obj
 0002:0004e664       __unwindtable$?detach_helper_grow@?$QList@VQString@@@@AAEPAUNode@1@HH@Z 00464664     configfilehandler.obj
 0002:0004e684       __ehfuncinfo$?detach_helper_grow@?$QList@VQString@@@@AAEPAUNode@1@HH@Z 00464684     configfilehandler.obj
 0002:0004e6a8       __tryblocktable$?detach_helper_grow@?$QList@VQString@@@@AAEPAUNode@1@HH@Z 004646a8     configfilehandler.obj
 0002:0004e6d0       __ehfuncinfo$??0OperationParamData@@QAE@ABVQString@@00ABVQStringList@@_NHH0V?$QList@H@@00HH@Z 004646d0     configfilehandler.obj
 0002:0004e6f4       __unwindtable$??0OperationParamData@@QAE@ABVQString@@00ABVQStringList@@_NHH0V?$QList@H@@00HH@Z 004646f4     configfilehandler.obj
 0002:0004e74c       __unwindtable$?clear@?$QList@H@@QAEXXZ 0046474c     configfilehandler.obj
 0002:0004e75c       __ehfuncinfo$?clear@?$QList@H@@QAEXXZ 0046475c     configfilehandler.obj
 0002:0004e780       __catchsym$?append@?$QList@PAVQObject@@@@QAEXABQAVQObject@@@Z$9 00464780     workmodels.obj
 0002:0004e780       __catchsym$?append@?$QList@H@@QAEXABH@Z$9 00464780     configfilehandler.obj
 0002:0004e790       __tryblocktable$?append@?$QList@PAVQObject@@@@QAEXABQAVQObject@@@Z 00464790     workmodels.obj
 0002:0004e790       __tryblocktable$?append@?$QList@H@@QAEXABH@Z 00464790     configfilehandler.obj
 0002:0004e7a4       __ehfuncinfo$?append@?$QList@H@@QAEXABH@Z 004647a4     configfilehandler.obj
 0002:0004e7a4       __ehfuncinfo$?append@?$QList@PAVQObject@@@@QAEXABQAVQObject@@@Z 004647a4     workmodels.obj
 0002:0004e7c8       __unwindtable$?append@?$QList@H@@QAEXABH@Z 004647c8     configfilehandler.obj
 0002:0004e7c8       __unwindtable$?append@?$QList@PAVQObject@@@@QAEXABQAVQObject@@@Z 004647c8     workmodels.obj
 0002:0004e7f8       __unwindtable$??4OperationParamData@@QAEAAV0@ABV0@@Z 004647f8     configfilehandler.obj
 0002:0004e7f8       __unwindtable$?setParamListModel@PlanSelector@@QAEXABV?$QList@PAVQObject@@@@@Z 004647f8     moc_workmodels.obj
 0002:0004e7f8       __unwindtable$?setParamModel@OperationParamSelector@@QAEXABV?$QList@PAVQObject@@@@@Z 004647f8     moc_workmodels.obj
 0002:0004e7f8       __unwindtable$?setIntListValue@OperationParamObject@@QAEXABV?$QList@H@@@Z 004647f8     moc_workmodels.obj
 0002:0004e800       __ehfuncinfo$??4OperationParamData@@QAEAAV0@ABV0@@Z 00464800     configfilehandler.obj
 0002:0004e800       __ehfuncinfo$?setParamListModel@PlanSelector@@QAEXABV?$QList@PAVQObject@@@@@Z 00464800     moc_workmodels.obj
 0002:0004e800       __ehfuncinfo$?setParamModel@OperationParamSelector@@QAEXABV?$QList@PAVQObject@@@@@Z 00464800     moc_workmodels.obj
 0002:0004e800       __ehfuncinfo$?setIntListValue@OperationParamObject@@QAEXABV?$QList@H@@@Z 00464800     moc_workmodels.obj
 0002:0004e824       __unwindtable$?loadConfigFile@configFileHandler@@QAE_NABVQString@@@Z 00464824     configfilehandler.obj
 0002:0004e844       __ehfuncinfo$?loadConfigFile@configFileHandler@@QAE_NABVQString@@@Z 00464844     configfilehandler.obj
 0002:0004e868       __unwindtable$?toList@configFileHandler@@QAE?AVQStringList@@ABVQString@@@Z 00464868     configfilehandler.obj
 0002:0004e880       __ehfuncinfo$?toList@configFileHandler@@QAE?AVQStringList@@ABVQString@@@Z 00464880     configfilehandler.obj
 0002:0004e8a4       __ehfuncinfo$?ParseListMap@configFileHandler@@QAE?AV?$QMap@VQString@@VQStringList@@@@ABVQString@@@Z 004648a4     configfilehandler.obj
 0002:0004e8c8       __unwindtable$?ParseListMap@configFileHandler@@QAE?AV?$QMap@VQString@@VQStringList@@@@ABVQString@@@Z 004648c8     configfilehandler.obj
 0002:0004e920       __ehfuncinfo$?ParseMapRevertKeyValue@configFileHandler@@QAE?AV?$QMap@VQString@@V1@@@ABVQString@@@Z 00464920     configfilehandler.obj
 0002:0004e920       __ehfuncinfo$?ParseMap@configFileHandler@@QAE?AV?$QMap@VQString@@V1@@@ABVQString@@@Z 00464920     configfilehandler.obj
 0002:0004e944       __unwindtable$?ParseMap@configFileHandler@@QAE?AV?$QMap@VQString@@V1@@@ABVQString@@@Z 00464944     configfilehandler.obj
 0002:0004e944       __unwindtable$?ParseMapRevertKeyValue@configFileHandler@@QAE?AV?$QMap@VQString@@V1@@@ABVQString@@@Z 00464944     configfilehandler.obj
 0002:0004e97c       __ehfuncinfo$?ParseParamValue@configFileHandler@@QAE?AV?$QMap@VQString@@VOperationParamData@@@@ABVQString@@@Z 0046497c     configfilehandler.obj
 0002:0004e9a0       __unwindtable$?ParseParamValue@configFileHandler@@QAE?AV?$QMap@VQString@@VOperationParamData@@@@ABVQString@@@Z 004649a0     configfilehandler.obj
 0002:0004eb08       __unwindtable$?ParseWorkPlaceConstraint@configFileHandler@@QAE?AVQJsonArray@@XZ 00464b08     configfilehandler.obj
 0002:0004eb10       __ehfuncinfo$?ParseWorkPlaceConstraint@configFileHandler@@QAE?AVQJsonArray@@XZ 00464b10     configfilehandler.obj
 0002:0004eb34       __unwindtable$?ParseHostIP@configFileHandler@@QAE?AVQString@@XZ 00464b34     configfilehandler.obj
 0002:0004eb54       __ehfuncinfo$?ParseHostIP@configFileHandler@@QAE?AVQString@@XZ 00464b54     configfilehandler.obj
 0002:0004eb78       __ehfuncinfo$?ParseHostSingleOperationThreshold@configFileHandler@@QAEHXZ 00464b78     configfilehandler.obj
 0002:0004eb78       __ehfuncinfo$?ParseHostPort@configFileHandler@@QAEFXZ 00464b78     configfilehandler.obj
 0002:0004eb9c       __unwindtable$?ParseHostPort@configFileHandler@@QAEFXZ 00464b9c     configfilehandler.obj
 0002:0004eb9c       __unwindtable$?ParseHostSingleOperationThreshold@configFileHandler@@QAEHXZ 00464b9c     configfilehandler.obj
 0002:0004ebc4       __ehfuncinfo$?ParsePlanList@configFileHandler@@QAEXAAV?$QList@U?$QPair@VQString@@V?$QList@VSingleOperationData@@@@@@@@ABV?$QMap@VQString@@VOperationParamData@@@@@Z 00464bc4     configfilehandler.obj
 0002:0004ebe8       __unwindtable$?ParsePlanList@configFileHandler@@QAEXAAV?$QList@U?$QPair@VQString@@V?$QList@VSingleOperationData@@@@@@@@ABV?$QMap@VQString@@VOperationParamData@@@@@Z 00464be8     configfilehandler.obj
 0002:0004ecd8       __ehfuncinfo$?SavePlanList@configFileHandler@@QAEXABVQString@@ABV?$QList@U?$QPair@VQString@@V?$QList@VSingleOperationData@@@@@@@@ABV?$QMap@VQString@@VQStringList@@@@@Z 00464cd8     configfilehandler.obj
 0002:0004ecfc       __unwindtable$?SavePlanList@configFileHandler@@QAEXABVQString@@ABV?$QList@U?$QPair@VQString@@V?$QList@VSingleOperationData@@@@@@@@ABV?$QMap@VQString@@VQStringList@@@@@Z 00464cfc     configfilehandler.obj
 0002:0004edfc       __ehfuncinfo$?SaveMachineConfig@configFileHandler@@QAEXABVQString@@ABVMachineConfigData@@ABVQJsonObject@@@Z 00464dfc     configfilehandler.obj
 0002:0004ee20       __unwindtable$?SaveMachineConfig@configFileHandler@@QAEXABVQString@@ABVMachineConfigData@@ABVQJsonObject@@@Z 00464e20     configfilehandler.obj
 0002:0004eeb0       __unwindtable$?ParseWorkSpaceTypeList@configFileHandler@@QAEXAAVQJsonObject@@@Z 00464eb0     configfilehandler.obj
 0002:0004eec0       __ehfuncinfo$?ParseWorkSpaceTypeList@configFileHandler@@QAEXAAVQJsonObject@@@Z 00464ec0     configfilehandler.obj
 0002:0004eee4       __ehfuncinfo$?ParseLicense@configFileHandler@@QAEXAAVQByteArray@@@Z 00464ee4     configfilehandler.obj
 0002:0004ef08       __unwindtable$?ParseLicense@configFileHandler@@QAEXAAVQByteArray@@@Z 00464f08     configfilehandler.obj
 0002:0004ef38       __unwindtable$??A?$QMap@VQString@@VQStringList@@@@QAEAAVQStringList@@ABVQString@@@Z 00464f38     configfilehandler.obj
 0002:0004ef40       __ehfuncinfo$??A?$QMap@VQString@@VQStringList@@@@QAEAAVQStringList@@ABVQString@@@Z 00464f40     configfilehandler.obj
 0002:0004ef64       __unwindtable$??A?$QMap@VQString@@V1@@@QAEAAVQString@@ABV1@@Z 00464f64     configfilehandler.obj
 0002:0004ef6c       __ehfuncinfo$??A?$QMap@VQString@@V1@@@QAEAAVQString@@ABV1@@Z 00464f6c     configfilehandler.obj
 0002:0004ef90       __unwindtable$??A?$QMap@VQString@@VOperationParamData@@@@QBE?BVOperationParamData@@ABVQString@@@Z 00464f90     configfilehandler.obj
 0002:0004ef98       __ehfuncinfo$??A?$QMap@VQString@@VOperationParamData@@@@QBE?BVOperationParamData@@ABVQString@@@Z 00464f98     configfilehandler.obj
 0002:0004efbc       __unwindtable$??4SingleOperationData@@QAEAAV0@ABV0@@Z 00464fbc     environmentvariant.obj
 0002:0004efbc       __unwindtable$??4?$QList@VSingleOperationData@@@@QAEAAV0@ABV0@@Z 00464fbc     environmentvariant.obj
 0002:0004efbc       __unwindtable$?clear@?$QList@U?$QPair@VQString@@V?$QList@VSingleOperationData@@@@@@@@QAEXXZ 00464fbc     configfilehandler.obj
 0002:0004efc4       __ehfuncinfo$??4SingleOperationData@@QAEAAV0@ABV0@@Z 00464fc4     environmentvariant.obj
 0002:0004efc4       __ehfuncinfo$??4?$QList@VSingleOperationData@@@@QAEAAV0@ABV0@@Z 00464fc4     environmentvariant.obj
 0002:0004efc4       __ehfuncinfo$?clear@?$QList@U?$QPair@VQString@@V?$QList@VSingleOperationData@@@@@@@@QAEXXZ 00464fc4     configfilehandler.obj
 0002:0004efe8       __catchsym$?append@?$QList@U?$QPair@VQString@@V?$QList@VSingleOperationData@@@@@@@@QAEXABU?$QPair@VQString@@V?$QList@VSingleOperationData@@@@@@@Z$28 00464fe8     configfilehandler.obj
 0002:0004eff8       __catchsym$?append@?$QList@U?$QPair@VQString@@V?$QList@VSingleOperationData@@@@@@@@QAEXABU?$QPair@VQString@@V?$QList@VSingleOperationData@@@@@@@Z$27 00464ff8     configfilehandler.obj
 0002:0004f008       __ehfuncinfo$?append@?$QList@U?$QPair@VQString@@V?$QList@VSingleOperationData@@@@@@@@QAEXABU?$QPair@VQString@@V?$QList@VSingleOperationData@@@@@@@Z 00465008     configfilehandler.obj
 0002:0004f02c       __tryblocktable$?append@?$QList@U?$QPair@VQString@@V?$QList@VSingleOperationData@@@@@@@@QAEXABU?$QPair@VQString@@V?$QList@VSingleOperationData@@@@@@@Z 0046502c     configfilehandler.obj
 0002:0004f054       __unwindtable$?append@?$QList@U?$QPair@VQString@@V?$QList@VSingleOperationData@@@@@@@@QAEXABU?$QPair@VQString@@V?$QList@VSingleOperationData@@@@@@@Z 00465054     configfilehandler.obj
 0002:0004f0e4       __catchsym$?detach_helper_grow@?$QList@U?$QPair@VQString@@V?$QList@VSingleOperationData@@@@@@@@AAEPAUNode@1@HH@Z$10 004650e4     configfilehandler.obj
 0002:0004f0f4       __catchsym$?detach_helper_grow@?$QList@U?$QPair@VQString@@V?$QList@VSingleOperationData@@@@@@@@AAEPAUNode@1@HH@Z$9 004650f4     configfilehandler.obj
 0002:0004f104       __unwindtable$?detach_helper_grow@?$QList@U?$QPair@VQString@@V?$QList@VSingleOperationData@@@@@@@@AAEPAUNode@1@HH@Z 00465104     configfilehandler.obj
 0002:0004f124       __ehfuncinfo$?detach_helper_grow@?$QList@U?$QPair@VQString@@V?$QList@VSingleOperationData@@@@@@@@AAEPAUNode@1@HH@Z 00465124     configfilehandler.obj
 0002:0004f148       __tryblocktable$?detach_helper_grow@?$QList@U?$QPair@VQString@@V?$QList@VSingleOperationData@@@@@@@@AAEPAUNode@1@HH@Z 00465148     configfilehandler.obj
 0002:0004f170       __catchsym$?node_copy@?$QList@U?$QPair@VQString@@V?$QList@VSingleOperationData@@@@@@@@AAEXPAUNode@1@00@Z$10 00465170     configfilehandler.obj
 0002:0004f180       __tryblocktable$?node_copy@?$QList@U?$QPair@VQString@@V?$QList@VSingleOperationData@@@@@@@@AAEXPAUNode@1@00@Z 00465180     configfilehandler.obj
 0002:0004f194       __ehfuncinfo$?node_copy@?$QList@U?$QPair@VQString@@V?$QList@VSingleOperationData@@@@@@@@AAEXPAUNode@1@00@Z 00465194     configfilehandler.obj
 0002:0004f1b8       __unwindtable$?node_copy@?$QList@U?$QPair@VQString@@V?$QList@VSingleOperationData@@@@@@@@AAEXPAUNode@1@00@Z 004651b8     configfilehandler.obj
 0002:0004f1f8       __unwindtable$?node_destruct@?$QList@VSingleOperationData@@@@AAEXPAUNode@1@0@Z 004651f8     configfilehandler.obj
 0002:0004f1f8       __unwindtable$?node_destruct@?$QList@U?$QPair@VQString@@V?$QList@VSingleOperationData@@@@@@@@AAEXPAUNode@1@0@Z 004651f8     configfilehandler.obj
 0002:0004f208       __ehfuncinfo$?node_destruct@?$QList@VSingleOperationData@@@@AAEXPAUNode@1@0@Z 00465208     configfilehandler.obj
 0002:0004f208       __ehfuncinfo$?node_destruct@?$QList@U?$QPair@VQString@@V?$QList@VSingleOperationData@@@@@@@@AAEXPAUNode@1@0@Z 00465208     configfilehandler.obj
 0002:0004f22c       __catchsym$??0?$QList@VSingleOperationData@@@@QAE@ABV0@@Z$7 0046522c     configfilehandler.obj
 0002:0004f23c       __unwindtable$??0?$QList@VSingleOperationData@@@@QAE@ABV0@@Z 0046523c     configfilehandler.obj
 0002:0004f24c       __tryblocktable$??0?$QList@VSingleOperationData@@@@QAE@ABV0@@Z 0046524c     configfilehandler.obj
 0002:0004f260       __ehfuncinfo$??0?$QList@VSingleOperationData@@@@QAE@ABV0@@Z 00465260     configfilehandler.obj
 0002:0004f284       __catchsym$?append@?$QList@VSingleOperationData@@@@QAEXABVSingleOperationData@@@Z$28 00465284     configfilehandler.obj
 0002:0004f294       __catchsym$?append@?$QList@VSingleOperationData@@@@QAEXABVSingleOperationData@@@Z$27 00465294     configfilehandler.obj
 0002:0004f2a4       __ehfuncinfo$?append@?$QList@VSingleOperationData@@@@QAEXABVSingleOperationData@@@Z 004652a4     configfilehandler.obj
 0002:0004f2c8       __tryblocktable$?append@?$QList@VSingleOperationData@@@@QAEXABVSingleOperationData@@@Z 004652c8     configfilehandler.obj
 0002:0004f2f0       __unwindtable$?append@?$QList@VSingleOperationData@@@@QAEXABVSingleOperationData@@@Z 004652f0     configfilehandler.obj
 0002:0004f380       __catchsym$?detach_helper_grow@?$QList@VSingleOperationData@@@@AAEPAUNode@1@HH@Z$10 00465380     configfilehandler.obj
 0002:0004f390       __catchsym$?detach_helper_grow@?$QList@VSingleOperationData@@@@AAEPAUNode@1@HH@Z$9 00465390     configfilehandler.obj
 0002:0004f3a0       __unwindtable$?detach_helper_grow@?$QList@VSingleOperationData@@@@AAEPAUNode@1@HH@Z 004653a0     configfilehandler.obj
 0002:0004f3c0       __ehfuncinfo$?detach_helper_grow@?$QList@VSingleOperationData@@@@AAEPAUNode@1@HH@Z 004653c0     configfilehandler.obj
 0002:0004f3e4       __tryblocktable$?detach_helper_grow@?$QList@VSingleOperationData@@@@AAEPAUNode@1@HH@Z 004653e4     configfilehandler.obj
 0002:0004f40c       __catchsym$?node_copy@?$QList@VSingleOperationData@@@@AAEXPAUNode@1@00@Z$10 0046540c     configfilehandler.obj
 0002:0004f41c       __tryblocktable$?node_copy@?$QList@VSingleOperationData@@@@AAEXPAUNode@1@00@Z 0046541c     configfilehandler.obj
 0002:0004f430       __ehfuncinfo$?node_copy@?$QList@VSingleOperationData@@@@AAEXPAUNode@1@00@Z 00465430     configfilehandler.obj
 0002:0004f454       __unwindtable$?node_copy@?$QList@VSingleOperationData@@@@AAEXPAUNode@1@00@Z 00465454     configfilehandler.obj
 0002:0004f494       __unwindtable$??$qMakePair@VQString@@V?$QList@VSingleOperationData@@@@@@YA?AU?$QPair@VQString@@V?$QList@VSingleOperationData@@@@@@ABVQString@@ABV?$QList@VSingleOperationData@@@@@Z 00465494     configfilehandler.obj
 0002:0004f49c       __ehfuncinfo$??$qMakePair@VQString@@V?$QList@VSingleOperationData@@@@@@YA?AU?$QPair@VQString@@V?$QList@VSingleOperationData@@@@@@ABVQString@@ABV?$QList@VSingleOperationData@@@@@Z 0046549c     configfilehandler.obj
 0002:0004f4c0       __catchsym$?createNode@?$QMapData@VQString@@VOperationParamData@@@@QAEPAU?$QMapNode@VQString@@VOperationParamData@@@@ABVQString@@ABVOperationParamData@@PAU2@_N@Z$7 004654c0     configfilehandler.obj
 0002:0004f4d0       __catchsym$?createNode@?$QMapData@VQString@@VOperationParamData@@@@QAEPAU?$QMapNode@VQString@@VOperationParamData@@@@ABVQString@@ABVOperationParamData@@PAU2@_N@Z$6 004654d0     configfilehandler.obj
 0002:0004f4e0       __ehfuncinfo$?createNode@?$QMapData@VQString@@VOperationParamData@@@@QAEPAU?$QMapNode@VQString@@VOperationParamData@@@@ABVQString@@ABVOperationParamData@@PAU2@_N@Z 004654e0     configfilehandler.obj
 0002:0004f504       __tryblocktable$?createNode@?$QMapData@VQString@@VOperationParamData@@@@QAEPAU?$QMapNode@VQString@@VOperationParamData@@@@ABVQString@@ABVOperationParamData@@PAU2@_N@Z 00465504     configfilehandler.obj
 0002:0004f52c       __unwindtable$?createNode@?$QMapData@VQString@@VOperationParamData@@@@QAEPAU?$QMapNode@VQString@@VOperationParamData@@@@ABVQString@@ABVOperationParamData@@PAU2@_N@Z 0046552c     configfilehandler.obj
 0002:0004f554       __catchsym$?createNode@?$QMapData@VQString@@VQStringList@@@@QAEPAU?$QMapNode@VQString@@VQStringList@@@@ABVQString@@ABVQStringList@@PAU2@_N@Z$8 00465554     configfilehandler.obj
 0002:0004f564       __catchsym$?createNode@?$QMapData@VQString@@VQStringList@@@@QAEPAU?$QMapNode@VQString@@VQStringList@@@@ABVQString@@ABVQStringList@@PAU2@_N@Z$7 00465564     configfilehandler.obj
 0002:0004f574       __ehfuncinfo$?createNode@?$QMapData@VQString@@VQStringList@@@@QAEPAU?$QMapNode@VQString@@VQStringList@@@@ABVQString@@ABVQStringList@@PAU2@_N@Z 00465574     configfilehandler.obj
 0002:0004f598       __tryblocktable$?createNode@?$QMapData@VQString@@VQStringList@@@@QAEPAU?$QMapNode@VQString@@VQStringList@@@@ABVQString@@ABVQStringList@@PAU2@_N@Z 00465598     configfilehandler.obj
 0002:0004f5c0       __unwindtable$?createNode@?$QMapData@VQString@@VQStringList@@@@QAEPAU?$QMapNode@VQString@@VQStringList@@@@ABVQString@@ABVQStringList@@PAU2@_N@Z 004655c0     configfilehandler.obj
 0002:0004f5e8       __catchsym$??Y?$QList@VQString@@@@QAEAAV0@ABV0@@Z$14 004655e8     environmentvariant.obj
 0002:0004f5f8       __unwindtable$??Y?$QList@VQString@@@@QAEAAV0@ABV0@@Z 004655f8     environmentvariant.obj
 0002:0004f608       __tryblocktable$??Y?$QList@VQString@@@@QAEAAV0@ABV0@@Z 00465608     environmentvariant.obj
 0002:0004f61c       __ehfuncinfo$??Y?$QList@VQString@@@@QAEAAV0@ABV0@@Z 0046561c     environmentvariant.obj
 0002:0004f640       __catchsym$?detach_helper@?$QList@VQString@@@@AAEXH@Z$9 00465640     environmentvariant.obj
 0002:0004f650       __unwindtable$?detach_helper@?$QList@VQString@@@@AAEXH@Z 00465650     environmentvariant.obj
 0002:0004f660       __tryblocktable$?detach_helper@?$QList@VQString@@@@AAEXH@Z 00465660     environmentvariant.obj
 0002:0004f674       __ehfuncinfo$?detach_helper@?$QList@VQString@@@@AAEXH@Z 00465674     environmentvariant.obj
 0002:0004f698       __catchsym$?detach_helper@?$QList@H@@AAEXH@Z$7 00465698     environmentvariant.obj
 0002:0004f6a8       __unwindtable$?detach_helper@?$QList@H@@AAEXH@Z 004656a8     environmentvariant.obj
 0002:0004f6b8       __tryblocktable$?detach_helper@?$QList@H@@AAEXH@Z 004656b8     environmentvariant.obj
 0002:0004f6cc       __ehfuncinfo$?detach_helper@?$QList@H@@AAEXH@Z 004656cc     environmentvariant.obj
 0002:0004f6f0       __catchsym$?detach_helper@?$QList@VOperationParamData@@@@AAEXH@Z$7 004656f0     environmentvariant.obj
 0002:0004f700       __unwindtable$?detach_helper@?$QList@VOperationParamData@@@@AAEXH@Z 00465700     environmentvariant.obj
 0002:0004f710       __tryblocktable$?detach_helper@?$QList@VOperationParamData@@@@AAEXH@Z 00465710     environmentvariant.obj
 0002:0004f724       __ehfuncinfo$?detach_helper@?$QList@VOperationParamData@@@@AAEXH@Z 00465724     environmentvariant.obj
 0002:0004f748       __unwindtable$??0SingleOperationData@@QAE@ABV0@@Z 00465748     environmentvariant.obj
 0002:0004f750       __ehfuncinfo$??0SingleOperationData@@QAE@ABV0@@Z 00465750     environmentvariant.obj
 0002:0004f774       __unwindtable$?instance@EnvironmentVariant@@SAPAV1@XZ 00465774     environmentvariant.obj
 0002:0004f77c       __ehfuncinfo$?instance@EnvironmentVariant@@SAPAV1@XZ 0046577c     environmentvariant.obj
 0002:0004f7a0       __ehfuncinfo$?parseConfigFile@EnvironmentVariant@@QAEXABVQString@@@Z 004657a0     environmentvariant.obj
 0002:0004f7c4       __unwindtable$?parseConfigFile@EnvironmentVariant@@QAEXABVQString@@@Z 004657c4     environmentvariant.obj
 0002:0004f864       __unwindtable$?initProtocol@EnvironmentVariant@@QAEXABVQString@@@Z 00465864     environmentvariant.obj
 0002:0004f86c       __ehfuncinfo$?initProtocol@EnvironmentVariant@@QAEXABVQString@@@Z 0046586c     environmentvariant.obj
 0002:0004f890       __unwindtable$?initUserConfig@EnvironmentVariant@@QAEXABVQString@@@Z 00465890     environmentvariant.obj
 0002:0004f8a8       __ehfuncinfo$?initUserConfig@EnvironmentVariant@@QAEXABVQString@@@Z 004658a8     environmentvariant.obj
 0002:0004f8cc       __unwindtable$?initModels@EnvironmentVariant@@QAEXPAVQQmlContext@@@Z 004658cc     environmentvariant.obj
 0002:0004f8e4       __ehfuncinfo$?initModels@EnvironmentVariant@@QAEXPAVQQmlContext@@@Z 004658e4     environmentvariant.obj
 0002:0004f908       __unwindtable$?getOperationParams@EnvironmentVariant@@QAE?AV?$QList@VOperationParamData@@@@H@Z 00465908     environmentvariant.obj
 0002:0004f920       __ehfuncinfo$?getOperationParams@EnvironmentVariant@@QAE?AV?$QList@VOperationParamData@@@@H@Z 00465920     environmentvariant.obj
 0002:0004f944       __unwindtable$?LogicalControlList@EnvironmentVariant@@QAE?AVQStringList@@XZ 00465944     environmentvariant.obj
 0002:0004f944       __unwindtable$?OperationNameList@EnvironmentVariant@@QAE?AVQStringList@@XZ 00465944     environmentvariant.obj
 0002:0004f95c       __ehfuncinfo$?OperationNameList@EnvironmentVariant@@QAE?AVQStringList@@XZ 0046595c     environmentvariant.obj
 0002:0004f95c       __ehfuncinfo$?LogicalControlList@EnvironmentVariant@@QAE?AVQStringList@@XZ 0046595c     environmentvariant.obj
 0002:0004f980       __unwindtable$?PlanList@EnvironmentVariant@@QAE?AVQStringList@@XZ 00465980     environmentvariant.obj
 0002:0004f988       __ehfuncinfo$?PlanList@EnvironmentVariant@@QAE?AVQStringList@@XZ 00465988     environmentvariant.obj
 0002:0004f9ac       __ehfuncinfo$?StepList@EnvironmentVariant@@QAE?AVQStringList@@H@Z 004659ac     environmentvariant.obj
 0002:0004f9d0       __unwindtable$?StepList@EnvironmentVariant@@QAE?AVQStringList@@H@Z 004659d0     environmentvariant.obj
 0002:0004fa38       __ehfuncinfo$?planSelectStepListModel@EnvironmentVariant@@QAE?AVQStringList@@H@Z 00465a38     environmentvariant.obj
 0002:0004fa5c       __unwindtable$?planSelectStepListModel@EnvironmentVariant@@QAE?AVQStringList@@H@Z 00465a5c     environmentvariant.obj
 0002:0004fa8c       __ehfuncinfo$?planStepParam@EnvironmentVariant@@QAE?AVSingleOperationData@@HH@Z 00465a8c     environmentvariant.obj
 0002:0004fab0       __unwindtable$?planStepParam@EnvironmentVariant@@QAE?AVSingleOperationData@@HH@Z 00465ab0     environmentvariant.obj
 0002:0004fae8       __unwindtable$?AddPlanStep@EnvironmentVariant@@QAEXHHH@Z 00465ae8     environmentvariant.obj
 0002:0004fb08       __ehfuncinfo$?AddPlanStep@EnvironmentVariant@@QAEXHHH@Z 00465b08     environmentvariant.obj
 0002:0004fb2c       __unwindtable$?SetPlanStepToDefault@EnvironmentVariant@@QAEXHHH@Z 00465b2c     environmentvariant.obj
 0002:0004fb2c       __unwindtable$?MovePlanStep@EnvironmentVariant@@QAEXHHH@Z 00465b2c     environmentvariant.obj
 0002:0004fb34       __ehfuncinfo$?MovePlanStep@EnvironmentVariant@@QAEXHHH@Z 00465b34     environmentvariant.obj
 0002:0004fb34       __ehfuncinfo$?SetPlanStepToDefault@EnvironmentVariant@@QAEXHHH@Z 00465b34     environmentvariant.obj
 0002:0004fb58       __unwindtable$?AddPlan@EnvironmentVariant@@QAEXABVQString@@@Z 00465b58     environmentvariant.obj
 0002:0004fb78       __ehfuncinfo$?AddPlan@EnvironmentVariant@@QAEXABVQString@@@Z 00465b78     environmentvariant.obj
 0002:0004fb9c       __unwindtable$?SavePlan@EnvironmentVariant@@QAEXXZ 00465b9c     environmentvariant.obj
 0002:0004fba4       __ehfuncinfo$?SavePlan@EnvironmentVariant@@QAEXXZ 00465ba4     environmentvariant.obj
 0002:0004fbc8       __ehfuncinfo$?StartPlan@EnvironmentVariant@@QAEXHH@Z 00465bc8     environmentvariant.obj
 0002:0004fbec       __unwindtable$?StartPlan@EnvironmentVariant@@QAEXHH@Z 00465bec     environmentvariant.obj
 0002:0004fce4       __unwindtable$?SaveMachineConfig@EnvironmentVariant@@QAEXABVMachineConfigData@@@Z 00465ce4     environmentvariant.obj
 0002:0004fcec       __ehfuncinfo$?SaveMachineConfig@EnvironmentVariant@@QAEXABVMachineConfigData@@@Z 00465cec     environmentvariant.obj
 0002:0004fd10       __ehfuncinfo$?formatSingleOperationParam@EnvironmentVariant@@QAE?AVQJsonObject@@ABVSingleOperationData@@@Z 00465d10     environmentvariant.obj
 0002:0004fd34       __unwindtable$?formatSingleOperationParam@EnvironmentVariant@@QAE?AVQJsonObject@@ABVSingleOperationData@@@Z 00465d34     environmentvariant.obj
 0002:0004fdf4       __unwindtable$?StartTunning@EnvironmentVariant@@QAEXABVSingleOperationData@@@Z 00465df4     environmentvariant.obj
 0002:0004fe14       __ehfuncinfo$?StartTunning@EnvironmentVariant@@QAEXABVSingleOperationData@@@Z 00465e14     environmentvariant.obj
 0002:0004fe38       __unwindtable$?defaultValue@EnvironmentVariant@@QAE?AVSingleOperationData@@ABVQString@@@Z 00465e38     environmentvariant.obj
 0002:0004fe58       __ehfuncinfo$?defaultValue@EnvironmentVariant@@QAE?AVSingleOperationData@@ABVQString@@@Z 00465e58     environmentvariant.obj
 0002:0004fe7c       __ehfuncinfo$?setWorkLocationType@EnvironmentVariant@@QAE_NHHABVQString@@@Z 00465e7c     environmentvariant.obj
 0002:0004fea0       __unwindtable$?setWorkLocationType@EnvironmentVariant@@QAE_NHHABVQString@@@Z 00465ea0     environmentvariant.obj
 0002:0004ff40       __ehfuncinfo$??0EnvironmentVariant@@AAE@XZ 00465f40     environmentvariant.obj
 0002:0004ff64       __unwindtable$??0EnvironmentVariant@@AAE@XZ 00465f64     environmentvariant.obj
 0002:0004ffcc       __unwindtable$??1EnvironmentVariant@@EAE@XZ 00465fcc     environmentvariant.obj
 0002:0004ffe4       __ehfuncinfo$??1EnvironmentVariant@@EAE@XZ 00465fe4     environmentvariant.obj
 0002:00050008       __unwindtable$??A?$QMap@VQString@@VOperationParamData@@@@QAEAAVOperationParamData@@ABVQString@@@Z 00466008     environmentvariant.obj
 0002:00050010       __ehfuncinfo$??A?$QMap@VQString@@VOperationParamData@@@@QAEAAVOperationParamData@@ABVQString@@@Z 00466010     environmentvariant.obj
 0002:00050034       __catchsym$?detach_helper@?$QList@U?$QPair@VQString@@V?$QList@VSingleOperationData@@@@@@@@AAEXH@Z$7 00466034     environmentvariant.obj
 0002:00050044       __unwindtable$?detach_helper@?$QList@U?$QPair@VQString@@V?$QList@VSingleOperationData@@@@@@@@AAEXH@Z 00466044     environmentvariant.obj
 0002:00050054       __tryblocktable$?detach_helper@?$QList@U?$QPair@VQString@@V?$QList@VSingleOperationData@@@@@@@@AAEXH@Z 00466054     environmentvariant.obj
 0002:00050068       __ehfuncinfo$?detach_helper@?$QList@U?$QPair@VQString@@V?$QList@VSingleOperationData@@@@@@@@AAEXH@Z 00466068     environmentvariant.obj
 0002:0005008c       __catchsym$?insert@?$QList@VSingleOperationData@@@@QAEXHABVSingleOperationData@@@Z$28 0046608c     environmentvariant.obj
 0002:0005009c       __catchsym$?insert@?$QList@VSingleOperationData@@@@QAEXHABVSingleOperationData@@@Z$27 0046609c     environmentvariant.obj
 0002:000500ac       __ehfuncinfo$?insert@?$QList@VSingleOperationData@@@@QAEXHABVSingleOperationData@@@Z 004660ac     environmentvariant.obj
 0002:000500d0       __tryblocktable$?insert@?$QList@VSingleOperationData@@@@QAEXHABVSingleOperationData@@@Z 004660d0     environmentvariant.obj
 0002:000500f8       __unwindtable$?insert@?$QList@VSingleOperationData@@@@QAEXHABVSingleOperationData@@@Z 004660f8     environmentvariant.obj
 0002:00050188       __catchsym$?detach_helper@?$QList@VSingleOperationData@@@@AAEXH@Z$7 00466188     environmentvariant.obj
 0002:00050198       __unwindtable$?detach_helper@?$QList@VSingleOperationData@@@@AAEXH@Z 00466198     environmentvariant.obj
 0002:000501a8       __tryblocktable$?detach_helper@?$QList@VSingleOperationData@@@@AAEXH@Z 004661a8     environmentvariant.obj
 0002:000501bc       __ehfuncinfo$?detach_helper@?$QList@VSingleOperationData@@@@AAEXH@Z 004661bc     environmentvariant.obj
 0002:000501e0       __unwindtable$?node_destruct@?$QList@VSingleOperationData@@@@AAEXPAUNode@1@@Z 004661e0     environmentvariant.obj
 0002:000501f0       __ehfuncinfo$?node_destruct@?$QList@VSingleOperationData@@@@AAEXPAUNode@1@@Z 004661f0     environmentvariant.obj
 0002:00050214       __unwindtable$??__Ff@?4??registerConverter@?$ValueTypeIsMetaType@V?$QList@H@@$00@QtPrivate@@SA_NH@Z@YAXXZ 00466214     moc_workmodels.obj
 0002:00050214       __unwindtable$?Destruct@?$QMetaTypeFunctionHelper@V?$QList@PAVQObject@@@@$00@QtMetaTypePrivate@@SAXPAX@Z 00466214     moc_workmodels.obj
 0002:00050214       __unwindtable$??__Fdummy@?A0x4c3cf720@@YAXXZ 00466214     qrc_qml.obj
 0002:00050214       __unwindtable$?Destruct@?$QMetaTypeFunctionHelper@V?$QList@H@@$00@QtMetaTypePrivate@@SAXPAX@Z 00466214     moc_workmodels.obj
 0002:00050214       __unwindtable$??__Ff@?4??registerConverter@?$ValueTypeIsMetaType@V?$QList@PAVQObject@@@@$00@QtPrivate@@SA_NH@Z@YAXXZ 00466214     moc_workmodels.obj
 0002:0005021c       __ehfuncinfo$?Destruct@?$QMetaTypeFunctionHelper@V?$QList@PAVQObject@@@@$00@QtMetaTypePrivate@@SAXPAX@Z 0046621c     moc_workmodels.obj
 0002:0005021c       __ehfuncinfo$??__Fdummy@?A0x4c3cf720@@YAXXZ 0046621c     qrc_qml.obj
 0002:0005021c       __ehfuncinfo$??__Ff@?4??registerConverter@?$ValueTypeIsMetaType@V?$QList@PAVQObject@@@@$00@QtPrivate@@SA_NH@Z@YAXXZ 0046621c     moc_workmodels.obj
 0002:0005021c       __ehfuncinfo$??__Ff@?4??registerConverter@?$ValueTypeIsMetaType@V?$QList@H@@$00@QtPrivate@@SA_NH@Z@YAXXZ 0046621c     moc_workmodels.obj
 0002:0005021c       __ehfuncinfo$?Destruct@?$QMetaTypeFunctionHelper@V?$QList@H@@$00@QtMetaTypePrivate@@SAXPAX@Z 0046621c     moc_workmodels.obj
 0002:00050240       __unwindtable$??4?$QList@PAVQObject@@@@QAEAAV0@$$QAV0@@Z 00466240     moc_workmodels.obj
 0002:00050240       __unwindtable$??4?$QList@H@@QAEAAV0@$$QAV0@@Z 00466240     moc_workmodels.obj
 0002:00050240       __unwindtable$??4SingleOperationData@@QAEAAV0@$$QAV0@@Z 00466240     environmentvariant.obj
 0002:00050240       __unwindtable$??4?$QList@U?$QPair@VQString@@V?$QList@VSingleOperationData@@@@@@@@QAEAAV0@$$QAV0@@Z 00466240     configfilehandler.obj
 0002:00050240       __unwindtable$??_G?$QPair@VQString@@V?$QList@VSingleOperationData@@@@@@QAEPAXI@Z 00466240     configfilehandler.obj
 0002:00050240       __unwindtable$??1?$QPair@VQString@@V?$QList@VSingleOperationData@@@@@@QAE@XZ 00466240     configfilehandler.obj
 0002:00050248       __ehfuncinfo$??4?$QList@PAVQObject@@@@QAEAAV0@$$QAV0@@Z 00466248     moc_workmodels.obj
 0002:00050248       __ehfuncinfo$??4SingleOperationData@@QAEAAV0@$$QAV0@@Z 00466248     environmentvariant.obj
 0002:00050248       __ehfuncinfo$??1?$QPair@VQString@@V?$QList@VSingleOperationData@@@@@@QAE@XZ 00466248     configfilehandler.obj
 0002:00050248       __ehfuncinfo$??_G?$QPair@VQString@@V?$QList@VSingleOperationData@@@@@@QAEPAXI@Z 00466248     configfilehandler.obj
 0002:00050248       __ehfuncinfo$??4?$QList@H@@QAEAAV0@$$QAV0@@Z 00466248     moc_workmodels.obj
 0002:00050248       __ehfuncinfo$??4?$QList@U?$QPair@VQString@@V?$QList@VSingleOperationData@@@@@@@@QAEAAV0@$$QAV0@@Z 00466248     configfilehandler.obj
 0002:0005026c       __unwindtable$?qt_metatype_id@?$QMetaTypeId@V?$QList@PAVQObject@@@@@@SAHXZ 0046626c     moc_workmodels.obj
 0002:0005026c       __unwindtable$?qt_metatype_id@?$QMetaTypeId@VQSequentialIterableImpl@QtMetaTypePrivate@@@@SAHXZ 0046626c     moc_workmodels.obj
 0002:00050274       __ehfuncinfo$?qt_metatype_id@?$QMetaTypeId@V?$QList@PAVQObject@@@@@@SAHXZ 00466274     moc_workmodels.obj
 0002:00050274       __ehfuncinfo$?qt_metatype_id@?$QMetaTypeId@VQSequentialIterableImpl@QtMetaTypePrivate@@@@SAHXZ 00466274     moc_workmodels.obj
 0002:00050298       __unwindtable$?qt_static_metacall@StatusViewWatcher@@CAXPAVQObject@@W4Call@QMetaObject@@HPAPAX@Z 00466298     moc_workmodels.obj
 0002:000502a8       __ehfuncinfo$?qt_static_metacall@StatusViewWatcher@@CAXPAVQObject@@W4Call@QMetaObject@@HPAPAX@Z 004662a8     moc_workmodels.obj
 0002:000502cc       __unwindtable$?Construct@?$QMetaTypeFunctionHelper@V?$QList@H@@$00@QtMetaTypePrivate@@SAPAXPAXPBX@Z 004662cc     moc_workmodels.obj
 0002:000502cc       __unwindtable$?Construct@?$QMetaTypeFunctionHelper@V?$QList@PAVQObject@@@@$00@QtMetaTypePrivate@@SAPAXPAXPBX@Z 004662cc     moc_workmodels.obj
 0002:000502d4       __ehfuncinfo$?Construct@?$QMetaTypeFunctionHelper@V?$QList@H@@$00@QtMetaTypePrivate@@SAPAXPAXPBX@Z 004662d4     moc_workmodels.obj
 0002:000502d4       __ehfuncinfo$?Construct@?$QMetaTypeFunctionHelper@V?$QList@PAVQObject@@@@$00@QtMetaTypePrivate@@SAPAXPAXPBX@Z 004662d4     moc_workmodels.obj
 0002:000502f8       __unwindtable$?qt_metatype_id@?$QMetaTypeId@V?$QList@H@@@@SAHXZ 004662f8     moc_workmodels.obj
 0002:00050300       __ehfuncinfo$?qt_metatype_id@?$QMetaTypeId@V?$QList@H@@@@SAHXZ 00466300     moc_workmodels.obj
 0002:00050328       __sehtable$___scrt_is_nonwritable_in_current_image 00466328     MSVCRT:utility.obj
 0002:00050348       __sehtable$?__scrt_common_main_seh@@YAHXZ 00466348     MSVCRT:exe_winmain.obj
 0002:00050af6       .idata$6                   00466af6     WorkflowProtocol:WorkflowProtocol.dll
 0002:00050b20       .idata$6                   00466b20     DbgHelp:dbghelp.dll
 0002:00050c24       .idata$6                   00466c24     Qt5Quick:Qt5Quick.dll
 0002:00050f7c       .idata$6                   00466f7c     Qt5Gui:Qt5Gui.dll
 0002:000510d8       .idata$6                   004670d8     Qt5Qml:Qt5Qml.dll
 0002:00052b90       .idata$6                   00468b90     Qt5Core:Qt5Core.dll
 0002:00052d82       .idata$6                   00468d82     kernel32:KERNEL32.dll
 0002:00052e66       .idata$6                   00468e66     vcruntime:VCRUNTIME140.dll
 0002:00053046       .idata$6                   00469046     ucrt:api-ms-win-crt-heap-l1-1-0.dll
 0002:00053066       .idata$6                   00469066     ucrt:api-ms-win-crt-runtime-l1-1-0.dll
 0002:00053088       .idata$6                   00469088     ucrt:api-ms-win-crt-math-l1-1-0.dll
 0002:000530a8       .idata$6                   004690a8     ucrt:api-ms-win-crt-stdio-l1-1-0.dll
 0002:000530c8       .idata$6                   004690c8     ucrt:api-ms-win-crt-locale-l1-1-0.dll
 0002:00053100       .idata$6                   00469100     shell32:SHELL32.dll
 0003:00000584       ?module_local_atexit_table@@3U_onexit_table_t@@A 0046a584     MSVCRT:utility.obj
 0003:00000590       ?module_local_at_quick_exit_table@@3U_onexit_table_t@@A 0046a590     MSVCRT:utility.obj
 0003:0000059c       ?is_initialized_as_dll@@3_NA 0046a59c     MSVCRT:utility.obj
 0003:000005a0       ?_Tss_mutex@@3U_RTL_CRITICAL_SECTION@@A 0046a5a0     MSVCRT:thread_safe_statics.obj
 0003:000005b8       ?_Tss_cv@@3U_RTL_CONDITION_VARIABLE@@A 0046a5b8     MSVCRT:thread_safe_statics.obj
 0003:000005bc       ?_Tss_event@@3PAXA         0046a5bc     MSVCRT:thread_safe_statics.obj
 0003:000005c0       ?encoded_sleep_condition_variable_cs@@3P6GHPAU_RTL_CONDITION_VARIABLE@@PAU_RTL_CRITICAL_SECTION@@K@ZA 0046a5c0     MSVCRT:thread_safe_statics.obj
 0003:000005c4       ?encoded_wake_all_condition_variable@@3P6GXPAU_RTL_CONDITION_VARIABLE@@@ZA 0046a5c4     MSVCRT:thread_safe_statics.obj
 0003:000005d0       _GS_ExceptionRecord        0046a5d0     MSVCRT:gs_report.obj
 0003:00000620       _GS_ContextRecord          0046a620     MSVCRT:gs_report.obj
 0004:00000000       __guard_fids__             0046b000     MSVCRT:std_type_info_static.obj
 0004:00000004       __guard_fids__             0046b004     MSVCRT:thread_safe_statics.obj
 0004:00000008       __guard_fids_?__scrt_initialize_thread_safe_statics@@YAHXZ 0046b008     MSVCRT:thread_safe_statics.obj
 0004:0000000c       __guard_fids__             0046b00c     MSVCRT:exe_winmain.obj
 0004:00000010       __guard_fids__             0046b010     MSVCRT:exe_winmain.obj
 0004:00000014       __guard_fids__             0046b014     MSVCRT:exe_winmain.obj
 0004:00000018       __guard_fids_?pre_c_initialization@@YAHXZ 0046b018     MSVCRT:exe_winmain.obj
 0004:00000020       __guard_fids__             0046b020     MSVCRT:throw_bad_alloc.obj
 0004:00000028       __guard_fids__             0046b028     MSVCRT:throw_bad_alloc.obj
 0004:00000030       __guard_fids__             0046b030     MSVCRT:throw_bad_alloc.obj
 0004:00000038       __guard_fids__             0046b038     MSVCRT:throw_bad_alloc.obj
 0004:0000003c       __guard_fids__             0046b03c     MSVCRT:throw_bad_alloc.obj
 0004:00000040       __guard_fids__             0046b040     MSVCRT:throw_bad_alloc.obj
 0004:00000044       __guard_fids__             0046b044     MSVCRT:throw_bad_alloc.obj
 0004:00000048       __guard_fids__             0046b048     MSVCRT:throw_bad_alloc.obj
 0004:0000004c       __guard_fids____scrt_set_unhandled_exception_filter 0046b04c     MSVCRT:utility_desktop.obj
 0004:00000050       __guard_fids___except_handler4 0046b050     MSVCRT:_chandler4gs_.obj
 0004:00000054       __guard_fids__             0046b054     MSVCRT:guard_support.obj
 0006:00000060       $R000000                   0046d060     * linker generated manifest res *
