 MindGoTool_AllInOne

 Timestamp is 5954fe4f (Thu Jun 29 21:19:11 2017)

 Preferred load address is 00400000

 Start         Length     Name                   Class
 0001:00000000 000000e0H .text$di                CODE
 0001:000000e0 000160e0H .text$mn                CODE
 0001:000161c0 000029c0H .text$x                 CODE
 0001:00018b80 000000fdH .text$yd                CODE
 0002:00000000 00000514H .idata$5                DATA
 0002:00000514 00000004H .00cfg                  DATA
 0002:00000518 00000004H .CRT$XCA                DATA
 0002:0000051c 00000004H .CRT$XCAA               DATA
 0002:00000520 00000030H .CRT$XCU                DATA
 0002:00000550 00000004H .CRT$XCZ                DATA
 0002:00000554 00000004H .CRT$XIA                DATA
 0002:00000558 00000004H .CRT$XIAA               DATA
 0002:0000055c 00000004H .CRT$XIAC               DATA
 0002:00000560 00000004H .CRT$XIC                DATA
 0002:00000564 00000004H .CRT$XIZ                DATA
 0002:00000568 00000004H .CRT$XLA                DATA
 0002:0000056c 00000004H .CRT$XLZ                DATA
 0002:00000570 00000004H .CRT$XPA                DATA
 0002:00000574 00000004H .CRT$XPZ                DATA
 0002:00000578 00000004H .CRT$XTA                DATA
 0002:0000057c 00000004H .CRT$XTZ                DATA
 0002:00000580 00038054H .rdata                  DATA
 0002:000385d4 00000018H .rdata$T                DATA
 0002:000385ec 00000874H .rdata$r                DATA
 0002:00038e60 000001f8H .rdata$sxdata           DATA
 0002:00039058 000003ccH .rdata$zzzdbg           DATA
 0002:00039424 00000004H .rtc$IAA                DATA
 0002:00039428 00000004H .rtc$IZZ                DATA
 0002:0003942c 00000004H .rtc$TAA                DATA
 0002:00039430 00000008H .rtc$TZZ                DATA
 0002:00039438 00003374H .xdata$x                DATA
 0002:0003c7ac 00000000H .edata                  DATA
 0002:0003c7ac 00000118H .idata$2                DATA
 0002:0003c8c4 00000014H .idata$3                DATA
 0002:0003c8d8 00000514H .idata$4                DATA
 0002:0003cdec 00002c12H .idata$6                DATA
 0003:00000000 00000138H .data                   DATA
 0003:00000138 00000470H .data$r                 DATA
 0003:000005a8 00000418H .bss                    DATA
 0004:00000000 00000004H .tls                    DATA
 0004:00000004 00000004H .tls$                   DATA
 0004:00000008 00000001H .tls$ZZZ                DATA
 0005:00000000 00000058H .gfids$y                DATA
 0006:00000000 00000060H .rsrc$01                DATA
 0006:00000060 00000290H .rsrc$02                DATA

  Address         Publics by Value              Rva+Base       Lib:Object

 0000:00000000       ___guard_fids_count        00000000     <absolute>
 0000:00000000       ___guard_longjmp_table     00000000     <absolute>
 0000:00000000       ___guard_fids_table        00000000     <absolute>
 0000:00000000       ___dynamic_value_reloc_table 00000000     <absolute>
 0000:00000000       ___guard_iat_count         00000000     <absolute>
 0000:00000000       ___guard_iat_table         00000000     <absolute>
 0000:00000000       ___guard_longjmp_count     00000000     <absolute>
 0000:0000002c       __tls_array                0000002c     <absolute>
 0000:0000007e       ___safe_se_handler_count   0000007e     <absolute>
 0000:00000100       ___guard_flags             00000100     <absolute>
 0000:00000000       ___ImageBase               00400000     <linker-defined>
 0001:000000e0       ??0Communication@@QAE@XZ   004010e0 f   communication.obj
 0001:00000100       ?connectToServer@Communication@@QAE_NABVQString@@G@Z 00401100 f   communication.obj
 0001:00000220       ?disconnect@Communication@@QAEXXZ 00401220 f   communication.obj
 0001:00000240       ?readData@Communication@@QAE?AVQByteArray@@H@Z 00401240 f   communication.obj
 0001:000002c0       ?write@Communication@@QAE_JABVQByteArray@@@Z 004012c0 f   communication.obj
 0001:00000310       ??$connect@P8QThread@@AEXUQPrivateSignal@1@@ZP8QObject@@AEXXZ@QObject@@SA?AVConnection@QMetaObject@@PBVQThread@@P83@AEXUQPrivateSignal@3@@ZPBV0@P80@AEXXZW4ConnectionType@Qt@@@Z 00401310 f i workflowprotocol.obj
 0001:00000370       ??$connect@P8SubThreadWorker@@AEXABVQJsonObject@@@ZP8WorkflowController@@AEX0@Z@QObject@@SA?AVConnection@QMetaObject@@PBVSubThreadWorker@@P83@AEXABVQJsonObject@@@ZPBVWorkflowController@@P85@AEX1@ZW4ConnectionType@Qt@@@Z 00401370 f i workflowprotocol.obj
 0001:000003e0       ??$connect@P8SubThreadWorker@@AEX_NH@ZP8WorkflowController@@AEX0H@Z@QObject@@SA?AVConnection@QMetaObject@@PBVSubThreadWorker@@P83@AEX_NH@ZPBVWorkflowController@@P84@AEX1H@ZW4ConnectionType@Qt@@@Z 004013e0 f i workflowprotocol.obj
 0001:00000450       ??$connect@P8WorkflowController@@AEXABVQJsonObject@@@ZP8SubThreadWorker@@AEX0@Z@QObject@@SA?AVConnection@QMetaObject@@PBVWorkflowController@@P83@AEXABVQJsonObject@@@ZPBVSubThreadWorker@@P85@AEX1@ZW4ConnectionType@Qt@@@Z 00401450 f i workflowprotocol.obj
 0001:000004c0       ??$connect@P8WorkflowController@@AEXABVQString@@@ZP8SubThreadWorker@@AEX0@Z@QObject@@SA?AVConnection@QMetaObject@@PBVWorkflowController@@P83@AEXABVQString@@@ZPBVSubThreadWorker@@P85@AEX1@ZW4ConnectionType@Qt@@@Z 004014c0 f i workflowprotocol.obj
 0001:00000530       ??$connect@P8WorkflowController@@AEXABVQString@@G@ZP8SubThreadWorker@@AEX0G@Z@QObject@@SA?AVConnection@QMetaObject@@PBVWorkflowController@@P83@AEXABVQString@@G@ZPBVSubThreadWorker@@P85@AEX1G@ZW4ConnectionType@Qt@@@Z 00401530 f i workflowprotocol.obj
 0001:000005a0       ??$connect@P8WorkflowController@@AEXXZP8SubThreadWorker@@AEXXZ@QObject@@SA?AVConnection@QMetaObject@@PBVWorkflowController@@P83@AEXXZPBVSubThreadWorker@@P84@AEXXZW4ConnectionType@Qt@@@Z 004015a0 f i workflowprotocol.obj
 0001:00000600       ??$formatWord@E@WorkflowProtocol@@IAE?AVQByteArray@@E@Z 00401600 f i workflowprotocol.obj
 0001:00000630       ??$formatWord@G@WorkflowProtocol@@IAE?AVQByteArray@@G@Z 00401630 f i workflowprotocol.obj
 0001:00000660       ??$qMakeForeachContainer@AAV?$QList@VQString@@@@@QtPrivate@@YA?AV?$QForeachContainer@V?$QList@VQString@@@@@0@AAV?$QList@VQString@@@@@Z 00401660 f i workflowprotocol.obj
 0001:000006a0       ??$qMakeForeachContainer@AAVQStringList@@@QtPrivate@@YA?AV?$QForeachContainer@VQStringList@@@0@AAVQStringList@@@Z 004016a0 f i workflowprotocol.obj
 0001:000006a0       ??$qMakeForeachContainer@ABVQStringList@@@QtPrivate@@YA?AV?$QForeachContainer@VQStringList@@@0@ABVQStringList@@@Z 004016a0 f i configfilehandler.obj
 0001:000006e0       ??0?$QList@VQString@@@@QAE@ABV0@@Z 004016e0 f i workflowprotocol.obj
 0001:00000790       ??0WorkflowController@@QAE@PAVQObject@@@Z 00401790 f   workflowprotocol.obj
 0001:00000980       ??1?$QForeachContainer@VQStringList@@@QtPrivate@@QAE@XZ 00401980 f i workflowprotocol.obj
 0001:00000980       ??1QStringList@@QAE@XZ     00401980 f i workflowprotocol.obj
 0001:00000990       ??1?$QList@VQString@@@@QAE@XZ 00401990 f i workflowprotocol.obj
 0001:00000a20       ??1Communication@@QAE@XZ   00401a20 f i workflowprotocol.obj
 0001:00000a30       ??1SubThreadWorker@@UAE@XZ 00401a30 f   workflowprotocol.obj
 0001:00000ad0       ??1WorkflowController@@UAE@XZ 00401ad0 f   workflowprotocol.obj
 0001:00000b40       ??4?$QList@UloopControl@SubThreadWorker@@@@QAEAAV0@$$QAV0@@Z 00401b40 f i workflowprotocol.obj
 0001:00000bf0       ??_ERunningStateChangeEvent@@UAEPAXI@Z 00401bf0 f i workflowprotocol.obj
 0001:00000bf0       ??_GRunningStateChangeEvent@@UAEPAXI@Z 00401bf0 f i workflowprotocol.obj
 0001:00000c20       ??_EStatusChangeEvent@@UAEPAXI@Z 00401c20 f i workflowprotocol.obj
 0001:00000c20       ??_GStatusChangeEvent@@UAEPAXI@Z 00401c20 f i workflowprotocol.obj
 0001:00000c50       ??_ESubThreadWorker@@UAEPAXI@Z 00401c50 f i workflowprotocol.obj
 0001:00000c50       ??_GSubThreadWorker@@UAEPAXI@Z 00401c50 f i workflowprotocol.obj
 0001:00000c70       ??_EWorkflowController@@UAEPAXI@Z 00401c70 f i workflowprotocol.obj
 0001:00000c70       ??_GWorkflowController@@UAEPAXI@Z 00401c70 f i workflowprotocol.obj
 0001:00000d00       ?append@?$QList@UloopControl@SubThreadWorker@@@@QAEXABUloopControl@SubThreadWorker@@@Z 00401d00 f i workflowprotocol.obj
 0001:00000db0       ?append@?$QList@VQString@@@@QAEXABVQString@@@Z 00401db0 f i workflowprotocol.obj
 0001:00000e60       ?changeHost@SubThreadWorker@@QAEXABVQString@@G@Z 00401e60 f   workflowprotocol.obj
 0001:00000e80       ?clear@?$QList@UloopControl@SubThreadWorker@@@@QAEXXZ 00401e80 f i workflowprotocol.obj
 0001:00000f20       ?configProtocol@SubThreadWorker@@QAEXABVQString@@@Z 00401f20 f   workflowprotocol.obj
 0001:00000f30       ?dealloc@?$QList@UloopControl@SubThreadWorker@@@@AAEXPAUData@QListData@@@Z 00401f30 f i workflowprotocol.obj
 0001:00000f80       ?detach_helper@?$QList@UloopControl@SubThreadWorker@@@@AAEXH@Z 00401f80 f i workflowprotocol.obj
 0001:00001050       ?detach_helper_grow@?$QList@UloopControl@SubThreadWorker@@@@AAEPAUNode@1@HH@Z 00402050 f i workflowprotocol.obj
 0001:000011a0       ?detach_helper_grow@?$QList@VQString@@@@AAEPAUNode@1@HH@Z 004021a0 f i workflowprotocol.obj
 0001:00001320       ?doTunning@SubThreadWorker@@QAEXABVQJsonObject@@@Z 00402320 f   workflowprotocol.obj
 0001:00001450       ?doWork@SubThreadWorker@@QAEXABVQJsonObject@@@Z 00402450 f   workflowprotocol.obj
 0001:00001780       ?erase@?$QList@UloopControl@SubThreadWorker@@@@QAE?AViterator@1@V21@@Z 00402780 f i workflowprotocol.obj
 0001:00001800       ?formatRecvFrameToJsonObject@WorkflowProtocol@@QAE_NAAVQJsonObject@@@Z 00402800 f   workflowprotocol.obj
 0001:000018a0       ?handleControlCommand@SubThreadWorker@@IAE_NAAVCommunication@@AAVQJsonObject@@@Z 004028a0 f   workflowprotocol.obj
 0001:000021c0       ?handleLogicalCommand@SubThreadWorker@@IAE_NAAVQJsonObject@@AAH@Z 004031c0 f   workflowprotocol.obj
 0001:00002930       ?handleLoopCommand@SubThreadWorker@@IAE_NAAVQJsonObject@@AAH@Z 00403930 f   workflowprotocol.obj
 0001:000030c0       ?impl@?$QSlotObject@P8SubThreadWorker@@AEXABVQString@@@ZU?$List@ABVQString@@@QtPrivate@@X@QtPrivate@@CAXHPAVQSlotObjectBase@2@PAVQObject@@PAPAXPA_N@Z 004040c0 f i workflowprotocol.obj
 0001:000030c0       ?impl@?$QSlotObject@P8SubThreadWorker@@AEXABVQJsonObject@@@ZU?$List@ABVQJsonObject@@@QtPrivate@@X@QtPrivate@@CAXHPAVQSlotObjectBase@2@PAVQObject@@PAPAXPA_N@Z 004040c0 f i workflowprotocol.obj
 0001:000030c0       ?impl@?$QSlotObject@P8WorkflowController@@AEXABVQJsonObject@@@ZU?$List@ABVQJsonObject@@@QtPrivate@@X@QtPrivate@@CAXHPAVQSlotObjectBase@2@PAVQObject@@PAPAXPA_N@Z 004040c0 f i workflowprotocol.obj
 0001:00003120       ?impl@?$QSlotObject@P8SubThreadWorker@@AEXABVQString@@G@ZU?$List@ABVQString@@G@QtPrivate@@X@QtPrivate@@CAXHPAVQSlotObjectBase@2@PAVQObject@@PAPAXPA_N@Z 00404120 f i workflowprotocol.obj
 0001:00003180       ?impl@?$QSlotObject@P8StatusViewWatcher@@AEXXZU?$List@$$V@QtPrivate@@X@QtPrivate@@CAXHPAVQSlotObjectBase@2@PAVQObject@@PAPAXPA_N@Z 00404180 f i workmodels.obj
 0001:00003180       ?impl@?$QSlotObject@P8QObject@@AEXXZU?$List@$$V@QtPrivate@@X@QtPrivate@@CAXHPAVQSlotObjectBase@2@PAVQObject@@PAPAXPA_N@Z 00404180 f i workflowprotocol.obj
 0001:00003180       ?impl@?$QSlotObject@P8SubThreadWorker@@AEXXZU?$List@$$V@QtPrivate@@X@QtPrivate@@CAXHPAVQSlotObjectBase@2@PAVQObject@@PAPAXPA_N@Z 00404180 f i workflowprotocol.obj
 0001:000031d0       ?impl@?$QSlotObject@P8WorkflowController@@AEX_NH@ZU?$List@_NH@QtPrivate@@X@QtPrivate@@CAXHPAVQSlotObjectBase@2@PAVQObject@@PAPAXPA_N@Z 004041d0 f i workflowprotocol.obj
 0001:00003230       ?init@WorkflowController@@QAEXABVQString@@@Z 00404230 f   workflowprotocol.obj
 0001:00003240       ?initProtocol@WorkflowProtocol@@QAE_NABVQString@@@Z 00404240 f   workflowprotocol.obj
 0001:00003390       ?isLogicalCommand@SubThreadWorker@@IAE_NABVQString@@@Z 00404390 f   workflowprotocol.obj
 0001:00003580       ?isLoopCommand@SubThreadWorker@@IAE_NABVQString@@@Z 00404580 f   workflowprotocol.obj
 0001:00003790       ?node_copy@?$QList@UloopControl@SubThreadWorker@@@@AAEXPAUNode@1@00@Z 00404790 f i workflowprotocol.obj
 0001:00003830       ?node_copy@?$QList@VQString@@@@AAEXPAUNode@1@00@Z 00404830 f i workflowprotocol.obj
 0001:00003870       ?node_destruct@?$QList@UloopControl@SubThreadWorker@@@@AAEXPAUNode@1@0@Z 00404870 f i workflowprotocol.obj
 0001:000038a0       ?node_destruct@?$QList@VQString@@@@AAEXPAUNode@1@0@Z 004048a0 f i workflowprotocol.obj
 0001:000038d0       ?parseAckFrame@WorkflowProtocol@@QAE_NABVQByteArray@@AAVQJsonObject@@@Z 004048d0 f   workflowprotocol.obj
 0001:000039f0       ?parseJsonObjectToSendFrame@WorkflowProtocol@@QAE_NABVQJsonObject@@AAV2@@Z 004049f0 f   workflowprotocol.obj
 0001:00004070       ?pop_back@?$QList@UloopControl@SubThreadWorker@@@@QAEXXZ 00405070 f i workflowprotocol.obj
 0001:000040b0       ?runTask@WorkflowController@@QAEXABVQJsonObject@@@Z 004050b0 f   workflowprotocol.obj
 0001:00004100       ?runTunning@WorkflowController@@QAEXABVQJsonObject@@@Z 00405100 f   workflowprotocol.obj
 0001:00004150       ?serializeSendFrame@WorkflowProtocol@@QAE?AVQByteArray@@XZ 00405150 f   workflowprotocol.obj
 0001:000042b0       ?sethost@WorkflowController@@QAEXABVQString@@G@Z 004052b0 f   workflowprotocol.obj
 0001:000042c0       ?statusChanged@WorkflowController@@QAEXABVQJsonObject@@@Z 004052c0 f   workflowprotocol.obj
 0001:00004360       ?stopCurrentTask@WorkflowController@@QAEXXZ 00405360 f   workflowprotocol.obj
 0001:00004380       ?stopTask@SubThreadWorker@@QAEXXZ 00405380 f   workflowprotocol.obj
 0001:00004390       ?taskStateChanged@WorkflowController@@QAEX_NH@Z 00405390 f   workflowprotocol.obj
 0001:00004420       ?types@?$ConnectionTypes@U?$List@ABVQJsonObject@@@QtPrivate@@$00@QtPrivate@@SAPBHXZ 00405420 f i workflowprotocol.obj
 0001:00004480       ?types@?$ConnectionTypes@U?$List@ABVQString@@@QtPrivate@@$00@QtPrivate@@SAPBHXZ 00405480 f i workflowprotocol.obj
 0001:000044e0       ?types@?$ConnectionTypes@U?$List@ABVQString@@G@QtPrivate@@$00@QtPrivate@@SAPBHXZ 004054e0 f i workflowprotocol.obj
 0001:00004550       ?types@?$ConnectionTypes@U?$List@_NH@QtPrivate@@$00@QtPrivate@@SAPBHXZ 00405550 f i workflowprotocol.obj
 0001:000045c0       ?unserializeRecvFrame@WorkflowProtocol@@QAEXABVQByteArray@@@Z 004055c0 f   workflowprotocol.obj
 0001:00004700       ??$qMakeForeachContainer@ABV?$QList@VOperationParamData@@@@@QtPrivate@@YA?AV?$QForeachContainer@V?$QList@VOperationParamData@@@@@0@ABV?$QList@VOperationParamData@@@@@Z 00405700 f i configfilehandler.obj
 0001:00004700       ??$qMakeForeachContainer@AAV?$QList@VOperationParamData@@@@@QtPrivate@@YA?AV?$QForeachContainer@V?$QList@VOperationParamData@@@@@0@AAV?$QList@VOperationParamData@@@@@Z 00405700 f i workmodels.obj
 0001:00004740       ??$qMakePair@VQString@@V?$QList@VSingleOperationData@@@@@@YA?AU?$QPair@VQString@@V?$QList@VSingleOperationData@@@@@@ABVQString@@ABV?$QList@VSingleOperationData@@@@@Z 00405740 f i configfilehandler.obj
 0001:000047a0       ??0?$QList@PAVQObject@@@@QAE@ABV0@@Z 004057a0 f i workmodels.obj
 0001:000047a0       ??0?$QList@H@@QAE@ABV0@@Z  004057a0 f i configfilehandler.obj
 0001:00004850       ??0?$QList@VOperationParamData@@@@QAE@ABV0@@Z 00405850 f i configfilehandler.obj
 0001:00004900       ??0?$QList@VSingleOperationData@@@@QAE@ABV0@@Z 00405900 f i configfilehandler.obj
 0001:000049b0       ??0OperationParamData@@QAE@ABV0@@Z 004059b0 f i configfilehandler.obj
 0001:00004b20       ??0OperationParamData@@QAE@ABVQString@@00ABVQStringList@@_NHH0V?$QList@H@@00HH@Z 00405b20 f i configfilehandler.obj
 0001:00004cc0       ??0configFileHandler@@QAE@PAVQObject@@@Z 00405cc0 f   configfilehandler.obj
 0001:00004d20       ??1?$QForeachContainer@V?$QList@VOperationParamData@@@@@QtPrivate@@QAE@XZ 00405d20 f i configfilehandler.obj
 0001:00004d80       ??1?$QList@VSingleOperationData@@@@QAE@XZ 00405d80 f i configfilehandler.obj
 0001:00004e00       ??1?$QMap@VQString@@V1@@@QAE@XZ 00405e00 f i configfilehandler.obj
 0001:00004e80       ??1?$QMap@VQString@@VOperationParamData@@@@QAE@XZ 00405e80 f i configfilehandler.obj
 0001:00004f20       ??1?$QMap@VQString@@VQStringList@@@@QAE@XZ 00405f20 f i configfilehandler.obj
 0001:00004fc0       ??1?$QPair@VQString@@V?$QList@VSingleOperationData@@@@@@QAE@XZ 00405fc0 f i configfilehandler.obj
 0001:00005050       ??1OperationParamData@@QAE@XZ 00406050 f i configfilehandler.obj
 0001:00005100       ??1SingleOperationData@@QAE@XZ 00406100 f i configfilehandler.obj
 0001:00005170       ??4?$QList@U?$QPair@VQString@@V?$QList@VSingleOperationData@@@@@@@@QAEAAV0@$$QAV0@@Z 00406170 f i configfilehandler.obj
 0001:00005210       ??4OperationParamData@@QAEAAV0@ABV0@@Z 00406210 f i configfilehandler.obj
 0001:00005320       ??A?$QMap@VQString@@V1@@@QAEAAVQString@@ABV1@@Z 00406320 f i configfilehandler.obj
 0001:000053e0       ??A?$QMap@VQString@@VOperationParamData@@@@QBE?BVOperationParamData@@ABVQString@@@Z 004063e0 f i configfilehandler.obj
 0001:000054a0       ??A?$QMap@VQString@@VQStringList@@@@QAEAAVQStringList@@ABVQString@@@Z 004064a0 f i configfilehandler.obj
 0001:00005560       ??_G?$QPair@VQString@@V?$QList@VSingleOperationData@@@@@@QAEPAXI@Z 00406560 f i configfilehandler.obj
 0001:00005600       ??_GSingleOperationData@@QAEPAXI@Z 00406600 f i configfilehandler.obj
 0001:00005680       ??_EconfigFileHandler@@UAEPAXI@Z 00406680 f i configfilehandler.obj
 0001:00005680       ??_GconfigFileHandler@@UAEPAXI@Z 00406680 f i configfilehandler.obj
 0001:000056b0       ?ParseHostIP@configFileHandler@@QAE?AVQString@@XZ 004066b0 f   configfilehandler.obj
 0001:00005780       ?ParseHostPort@configFileHandler@@QAEFXZ 00406780 f   configfilehandler.obj
 0001:00005860       ?ParseHostSingleOperationThreshold@configFileHandler@@QAEHXZ 00406860 f   configfilehandler.obj
 0001:00005940       ?ParseLicense@configFileHandler@@QAEXAAVQByteArray@@@Z 00406940 f   configfilehandler.obj
 0001:00005a30       ?ParseListMap@configFileHandler@@QAE?AV?$QMap@VQString@@VQStringList@@@@ABVQString@@@Z 00406a30 f   configfilehandler.obj
 0001:00005cd0       ?ParseMap@configFileHandler@@QAE?AV?$QMap@VQString@@V1@@@ABVQString@@@Z 00406cd0 f   configfilehandler.obj
 0001:00005e20       ?ParseMapRevertKeyValue@configFileHandler@@QAE?AV?$QMap@VQString@@V1@@@ABVQString@@@Z 00406e20 f   configfilehandler.obj
 0001:00005f80       ?ParseParamValue@configFileHandler@@QAE?AV?$QMap@VQString@@VOperationParamData@@@@ABVQString@@@Z 00406f80 f   configfilehandler.obj
 0001:00006c20       ?ParsePlanList@configFileHandler@@QAEXAAV?$QList@U?$QPair@VQString@@V?$QList@VSingleOperationData@@@@@@@@ABV?$QMap@VQString@@VOperationParamData@@@@@Z 00407c20 f   configfilehandler.obj
 0001:00007610       ?ParseWorkLocationTypeList@configFileHandler@@QAEXAAVQStringList@@@Z 00408610 f   configfilehandler.obj
 0001:000077f0       ?SaveMachineConfig@configFileHandler@@QAEXABVQString@@ABVMachineConfigData@@ABVQStringList@@@Z 004087f0 f   configfilehandler.obj
 0001:00007d20       ?SavePlanList@configFileHandler@@QAEXABVQString@@ABV?$QList@U?$QPair@VQString@@V?$QList@VSingleOperationData@@@@@@@@ABV?$QMap@VQString@@VQStringList@@@@@Z 00408d20 f   configfilehandler.obj
 0001:000084b0       ?append@?$QList@PAVQObject@@@@QAEXABQAVQObject@@@Z 004094b0 f i workmodels.obj
 0001:000084b0       ?append@?$QList@H@@QAEXABH@Z 004094b0 f i configfilehandler.obj
 0001:00008540       ?append@?$QList@U?$QPair@VQString@@V?$QList@VSingleOperationData@@@@@@@@QAEXABU?$QPair@VQString@@V?$QList@VSingleOperationData@@@@@@@Z 00409540 f i configfilehandler.obj
 0001:00008620       ?append@?$QList@VOperationParamData@@@@QAEXABVOperationParamData@@@Z 00409620 f i configfilehandler.obj
 0001:000086e0       ?append@?$QList@VSingleOperationData@@@@QAEXABVSingleOperationData@@@Z 004096e0 f i configfilehandler.obj
 0001:000087c0       ?clear@?$QList@H@@QAEXXZ   004097c0 f i configfilehandler.obj
 0001:00008860       ?clear@?$QList@U?$QPair@VQString@@V?$QList@VSingleOperationData@@@@@@@@QAEXXZ 00409860 f i configfilehandler.obj
 0001:000088f0       ?copy@?$QMapNode@VQString@@V1@@@QBEPAU1@PAU?$QMapData@VQString@@V1@@@@Z 004098f0 f i configfilehandler.obj
 0001:00008970       ?copy@?$QMapNode@VQString@@VOperationParamData@@@@QBEPAU1@PAU?$QMapData@VQString@@VOperationParamData@@@@@Z 00409970 f i configfilehandler.obj
 0001:000089f0       ?copy@?$QMapNode@VQString@@VQStringList@@@@QBEPAU1@PAU?$QMapData@VQString@@VQStringList@@@@@Z 004099f0 f i configfilehandler.obj
 0001:00008a70       ?createNode@?$QMapData@VQString@@V1@@@QAEPAU?$QMapNode@VQString@@V1@@@ABVQString@@0PAU2@_N@Z 00409a70 f i configfilehandler.obj
 0001:00008ab0       ?createNode@?$QMapData@VQString@@VOperationParamData@@@@QAEPAU?$QMapNode@VQString@@VOperationParamData@@@@ABVQString@@ABVOperationParamData@@PAU2@_N@Z 00409ab0 f i configfilehandler.obj
 0001:00008b70       ?createNode@?$QMapData@VQString@@VQStringList@@@@QAEPAU?$QMapNode@VQString@@VQStringList@@@@ABVQString@@ABVQStringList@@PAU2@_N@Z 00409b70 f i configfilehandler.obj
 0001:00008c30       ?dealloc@?$QList@VOperationParamData@@@@AAEXPAUData@QListData@@@Z 00409c30 f i configfilehandler.obj
 0001:00008c90       ?destroySubTree@?$QMapNode@VQString@@V1@@@QAEXXZ 00409c90 f i configfilehandler.obj
 0001:00008cc0       ?destroySubTree@?$QMapNode@VQString@@VOperationParamData@@@@QAEXXZ 00409cc0 f i configfilehandler.obj
 0001:00008cf0       ?destroySubTree@?$QMapNode@VQString@@VQStringList@@@@QAEXXZ 00409cf0 f i configfilehandler.obj
 0001:00008d20       ?detach_helper@?$QMap@VQString@@V1@@@AAEXXZ 00409d20 f i configfilehandler.obj
 0001:00008da0       ?detach_helper@?$QMap@VQString@@VOperationParamData@@@@AAEXXZ 00409da0 f i configfilehandler.obj
 0001:00008e40       ?detach_helper@?$QMap@VQString@@VQStringList@@@@AAEXXZ 00409e40 f i configfilehandler.obj
 0001:00008ee0       ?detach_helper_grow@?$QList@PAVQObject@@@@AAEPAUNode@1@HH@Z 00409ee0 f i workmodels.obj
 0001:00008ee0       ?detach_helper_grow@?$QList@H@@AAEPAUNode@1@HH@Z 00409ee0 f i configfilehandler.obj
 0001:00009020       ?detach_helper_grow@?$QList@U?$QPair@VQString@@V?$QList@VSingleOperationData@@@@@@@@AAEPAUNode@1@HH@Z 0040a020 f i configfilehandler.obj
 0001:00009190       ?detach_helper_grow@?$QList@VOperationParamData@@@@AAEPAUNode@1@HH@Z 0040a190 f i configfilehandler.obj
 0001:000092e0       ?detach_helper_grow@?$QList@VSingleOperationData@@@@AAEPAUNode@1@HH@Z 0040a2e0 f i configfilehandler.obj
 0001:00009450       ?insert@?$QMap@VQString@@V1@@@QAE?AViterator@1@ABVQString@@0@Z 0040a450 f i configfilehandler.obj
 0001:00009520       ?insert@?$QMap@VQString@@VOperationParamData@@@@QAE?AViterator@1@ABVQString@@ABVOperationParamData@@@Z 0040a520 f i configfilehandler.obj
 0001:000095f0       ?insert@?$QMap@VQString@@VQStringList@@@@QAE?AViterator@1@ABVQString@@ABVQStringList@@@Z 0040a5f0 f i configfilehandler.obj
 0001:000096e0       ?key@iterator@QJsonObject@@QBE?AVQString@@XZ 0040a6e0 f i configfilehandler.obj
 0001:00009700       ?loadConfigFile@configFileHandler@@QAE_NABVQString@@@Z 0040a700 f   configfilehandler.obj
 0001:00009800       ?lowerBound@?$QMapNode@VQString@@VQStringList@@@@QAEPAU1@ABVQString@@@Z 0040a800 f i configfilehandler.obj
 0001:00009800       ?lowerBound@?$QMapNode@VQString@@V1@@@QAEPAU1@ABVQString@@@Z 0040a800 f i configfilehandler.obj
 0001:00009800       ?lowerBound@?$QMapNode@VQString@@VOperationParamData@@@@QAEPAU1@ABVQString@@@Z 0040a800 f i configfilehandler.obj
 0001:00009840       ?node_copy@?$QList@PAVQObject@@@@AAEXPAUNode@1@00@Z 0040a840 f i workmodels.obj
 0001:00009840       ?node_copy@?$QList@H@@AAEXPAUNode@1@00@Z 0040a840 f i configfilehandler.obj
 0001:00009870       ?node_copy@?$QList@U?$QPair@VQString@@V?$QList@VSingleOperationData@@@@@@@@AAEXPAUNode@1@00@Z 0040a870 f i configfilehandler.obj
 0001:00009930       ?node_copy@?$QList@VOperationParamData@@@@AAEXPAUNode@1@00@Z 0040a930 f i configfilehandler.obj
 0001:00009a00       ?node_copy@?$QList@VSingleOperationData@@@@AAEXPAUNode@1@00@Z 0040aa00 f i configfilehandler.obj
 0001:00009ad0       ?node_destruct@?$QList@U?$QPair@VQString@@V?$QList@VSingleOperationData@@@@@@@@AAEXPAUNode@1@0@Z 0040aad0 f i configfilehandler.obj
 0001:00009b90       ?node_destruct@?$QList@VOperationParamData@@@@AAEXPAUNode@1@0@Z 0040ab90 f i configfilehandler.obj
 0001:00009bd0       ?node_destruct@?$QList@VSingleOperationData@@@@AAEXPAUNode@1@0@Z 0040abd0 f i configfilehandler.obj
 0001:00009c70       ?toList@configFileHandler@@QAE?AVQStringList@@ABVQString@@@Z 0040ac70 f   configfilehandler.obj
 0001:00009d50       ?value@?$QMap@VQString@@VOperationParamData@@@@QBE?BVOperationParamData@@ABVQString@@ABV2@@Z 0040ad50 f i configfilehandler.obj
 0001:00009dc0       ??$qMakeForeachContainer@ABV?$QList@VSingleOperationData@@@@@QtPrivate@@YA?AV?$QForeachContainer@V?$QList@VSingleOperationData@@@@@0@ABV?$QList@VSingleOperationData@@@@@Z 0040adc0 f i environmentvariant.obj
 0001:00009e00       ??0EnvironmentVariant@@AAE@XZ 0040ae00 f i environmentvariant.obj
 0001:00009ef0       ??0OperationParamData@@QAE@XZ 0040aef0 f i environmentvariant.obj
 0001:00009f60       ??0SingleOperationData@@QAE@$$QAV0@@Z 0040af60 f i environmentvariant.obj
 0001:00009f90       ??0SingleOperationData@@QAE@ABV0@@Z 0040af90 f i environmentvariant.obj
 0001:0000a000       ??1?$QForeachContainer@V?$QList@VSingleOperationData@@@@@QtPrivate@@QAE@XZ 0040b000 f i environmentvariant.obj
 0001:0000a080       ??1?$QList@U?$QPair@VQString@@V?$QList@VSingleOperationData@@@@@@@@QAE@XZ 0040b080 f i environmentvariant.obj
 0001:0000a100       ??1?$QList@VOperationParamData@@@@QAE@XZ 0040b100 f i environmentvariant.obj
 0001:0000a160       ??1EnvironmentVariant@@EAE@XZ 0040b160 f i environmentvariant.obj
 0001:0000a2e0       ??1configFileHandler@@UAE@XZ 0040b2e0 f i environmentvariant.obj
 0001:0000a300       ??4?$QList@VSingleOperationData@@@@QAEAAV0@ABV0@@Z 0040b300 f i environmentvariant.obj
 0001:0000a3a0       ??4SingleOperationData@@QAEAAV0@$$QAV0@@Z 0040b3a0 f i environmentvariant.obj
 0001:0000a430       ??4SingleOperationData@@QAEAAV0@ABV0@@Z 0040b430 f i environmentvariant.obj
 0001:0000a4d0       ??A?$QList@VQString@@@@QAEAAVQString@@H@Z 0040b4d0 f i environmentvariant.obj
 0001:0000a500       ??A?$QList@VSingleOperationData@@@@QAEAAVSingleOperationData@@H@Z 0040b500 f i environmentvariant.obj
 0001:0000a530       ??A?$QMap@VQString@@VOperationParamData@@@@QAEAAVOperationParamData@@ABVQString@@@Z 0040b530 f i environmentvariant.obj
 0001:0000a5f0       ??Y?$QList@VQString@@@@QAEAAV0@ABV0@@Z 0040b5f0 f i environmentvariant.obj
 0001:0000a6f0       ??_EEnvironmentVariant@@EAEPAXI@Z 0040b6f0 f i environmentvariant.obj
 0001:0000a6f0       ??_GEnvironmentVariant@@EAEPAXI@Z 0040b6f0 f i environmentvariant.obj
 0001:0000a710       ??_GTargetMachineObject@@UAEPAXI@Z 0040b710 f i environmentvariant.obj
 0001:0000a710       ??_ETargetMachineObject@@UAEPAXI@Z 0040b710 f i environmentvariant.obj
 0001:0000a740       ?AddPlan@EnvironmentVariant@@QAEXABVQString@@@Z 0040b740 f   environmentvariant.obj
 0001:0000a850       ?AddPlanStep@EnvironmentVariant@@QAEXHHH@Z 0040b850 f   environmentvariant.obj
 0001:0000a9e0       ?LogicalControlList@EnvironmentVariant@@QAE?AVQStringList@@XZ 0040b9e0 f   environmentvariant.obj
 0001:0000ab70       ?MovePlanStep@EnvironmentVariant@@QAEXHHH@Z 0040bb70 f   environmentvariant.obj
 0001:0000ac50       ?OperationNameList@EnvironmentVariant@@QAE?AVQStringList@@XZ 0040bc50 f   environmentvariant.obj
 0001:0000ade0       ?PlanList@EnvironmentVariant@@QAE?AVQStringList@@XZ 0040bde0 f   environmentvariant.obj
 0001:0000aea0       ?RemovePlan@EnvironmentVariant@@QAEXH@Z 0040bea0 f   environmentvariant.obj
 0001:0000aed0       ?RemovePlanStep@EnvironmentVariant@@QAEXHH@Z 0040bed0 f   environmentvariant.obj
 0001:0000af30       ?SaveMachineConfig@EnvironmentVariant@@QAEXABVMachineConfigData@@@Z 0040bf30 f   environmentvariant.obj
 0001:0000b000       ?SavePlan@EnvironmentVariant@@QAEXXZ 0040c000 f   environmentvariant.obj
 0001:0000b070       ?SetPlanName@EnvironmentVariant@@QAEXHABVQString@@@Z 0040c070 f   environmentvariant.obj
 0001:0000b0c0       ?SetPlanStepSingleParam@EnvironmentVariant@@QAEXHHABVQString@@ABVQVariant@@@Z 0040c0c0 f   environmentvariant.obj
 0001:0000b220       ?SetPlanStepToDefault@EnvironmentVariant@@QAEXHHH@Z 0040c220 f   environmentvariant.obj
 0001:0000b2f0       ?StartPlan@EnvironmentVariant@@QAEXHH@Z 0040c2f0 f   environmentvariant.obj
 0001:0000bc20       ?StartTunning@EnvironmentVariant@@QAEXABVSingleOperationData@@@Z 0040cc20 f   environmentvariant.obj
 0001:0000bd10       ?StepList@EnvironmentVariant@@QAE?AVQStringList@@H@Z 0040cd10 f   environmentvariant.obj
 0001:0000beb0       ?StopPlan@EnvironmentVariant@@QAEXXZ 0040ceb0 f   environmentvariant.obj
 0001:0000bec0       ?begin@?$QList@VOperationParamData@@@@QAE?AViterator@1@XZ 0040cec0 f i environmentvariant.obj
 0001:0000bef0       ?contains@?$QMap@VQString@@VQStringList@@@@QBE_NABVQString@@@Z 0040cef0 f i environmentvariant.obj
 0001:0000bf30       ?defaultValue@EnvironmentVariant@@QAE?AVSingleOperationData@@ABVQString@@@Z 0040cf30 f   environmentvariant.obj
 0001:0000c150       ?detach_helper@?$QList@H@@AAEXH@Z 0040d150 f i environmentvariant.obj
 0001:0000c220       ?detach_helper@?$QList@U?$QPair@VQString@@V?$QList@VSingleOperationData@@@@@@@@AAEXH@Z 0040d220 f i environmentvariant.obj
 0001:0000c300       ?detach_helper@?$QList@VOperationParamData@@@@AAEXH@Z 0040d300 f i environmentvariant.obj
 0001:0000c3d0       ?detach_helper@?$QList@VQString@@@@AAEXH@Z 0040d3d0 f i environmentvariant.obj
 0001:0000c4c0       ?detach_helper@?$QList@VSingleOperationData@@@@AAEXH@Z 0040d4c0 f i environmentvariant.obj
 0001:0000c5a0       ?formatSingleOperationParam@EnvironmentVariant@@QAE?AVQJsonObject@@ABVSingleOperationData@@@Z 0040d5a0 f   environmentvariant.obj
 0001:0000cb30       ?getOperationIndex@EnvironmentVariant@@QAEHABVQString@@@Z 0040db30 f   environmentvariant.obj
 0001:0000cba0       ?getOperationParams@EnvironmentVariant@@QAE?AV?$QList@VOperationParamData@@@@H@Z 0040dba0 f   environmentvariant.obj
 0001:0000cd70       ?getWorkLocationTypeList@EnvironmentVariant@@QAE?AVQStringList@@XZ 0040dd70 f   environmentvariant.obj
 0001:0000cd90       ?initModels@EnvironmentVariant@@QAEXPAVQQmlContext@@@Z 0040dd90 f   environmentvariant.obj
 0001:0000ce60       ?initProtocol@EnvironmentVariant@@QAEXABVQString@@@Z 0040de60 f   environmentvariant.obj
 0001:0000cee0       ?initUserConfig@EnvironmentVariant@@QAEXABVQString@@@Z 0040dee0 f   environmentvariant.obj
 0001:0000d040       ?insert@?$QList@VSingleOperationData@@@@QAEXHABVSingleOperationData@@@Z 0040e040 f i environmentvariant.obj
 0001:0000d120       ?instance@EnvironmentVariant@@SAPAV1@XZ 0040e120 f   environmentvariant.obj
 0001:0000d180       ?node_destruct@?$QList@VSingleOperationData@@@@AAEXPAUNode@1@@Z 0040e180 f i environmentvariant.obj
 0001:0000d200       ?parseConfigFile@EnvironmentVariant@@QAEXABVQString@@@Z 0040e200 f   environmentvariant.obj
 0001:0000d8a0       ?planStepParam@EnvironmentVariant@@QAE?AVSingleOperationData@@HH@Z 0040e8a0 f   environmentvariant.obj
 0001:0000dbf0       ?removeAt@?$QList@U?$QPair@VQString@@V?$QList@VSingleOperationData@@@@@@@@QAEXH@Z 0040ebf0 f i environmentvariant.obj
 0001:0000dc50       ?removeAt@?$QList@VSingleOperationData@@@@QAEXH@Z 0040ec50 f i environmentvariant.obj
 0001:0000dca0       ?setWorkLocationType@EnvironmentVariant@@QAE_NHABVQString@@@Z 0040eca0 f   environmentvariant.obj
 0001:0000dd40       ??$connect@P8QQmlEngine@@AEXXZP6AXXZ@QObject@@SA?AVConnection@QMetaObject@@PBVQQmlEngine@@P83@AEXXZPBV0@P6AXXZW4ConnectionType@Qt@@@Z 0040ed40 f i main.obj
 0001:0000dda0       ??$createInto@VOperationParamObject@@@QQmlPrivate@@YAXPAX@Z 0040eda0 f i main.obj
 0001:0000de00       ??$createInto@VOperationParamSelector@@@QQmlPrivate@@YAXPAX@Z 0040ee00 f i main.obj
 0001:0000de60       ??$createInto@VPlanController@@@QQmlPrivate@@YAXPAX@Z 0040ee60 f i main.obj
 0001:0000dec0       ??$createInto@VPlanSelector@@@QQmlPrivate@@YAXPAX@Z 0040eec0 f i main.obj
 0001:0000df20       ??$createInto@VStatusViewWatcher@@@QQmlPrivate@@YAXPAX@Z 0040ef20 f i main.obj
 0001:0000df80       ??$createInto@VTextFieldDoubleValidator@@@QQmlPrivate@@YAXPAX@Z 0040ef80 f i main.obj
 0001:0000dfe0       ??$qRegisterNormalizedMetaType@PAVOperationParamObject@@@@YAHABVQByteArray@@PAPAVOperationParamObject@@W4DefinedType@?$MetaTypeDefinedHelper@PAVOperationParamObject@@$00@QtPrivate@@@Z 0040efe0 f i main.obj
 0001:0000e040       ??$qRegisterNormalizedMetaType@PAVOperationParamSelector@@@@YAHABVQByteArray@@PAPAVOperationParamSelector@@W4DefinedType@?$MetaTypeDefinedHelper@PAVOperationParamSelector@@$00@QtPrivate@@@Z 0040f040 f i main.obj
 0001:0000e0a0       ??$qRegisterNormalizedMetaType@PAVPlanController@@@@YAHABVQByteArray@@PAPAVPlanController@@W4DefinedType@?$MetaTypeDefinedHelper@PAVPlanController@@$00@QtPrivate@@@Z 0040f0a0 f i main.obj
 0001:0000e100       ??$qRegisterNormalizedMetaType@PAVPlanSelector@@@@YAHABVQByteArray@@PAPAVPlanSelector@@W4DefinedType@?$MetaTypeDefinedHelper@PAVPlanSelector@@$00@QtPrivate@@@Z 0040f100 f i main.obj
 0001:0000e160       ??$qRegisterNormalizedMetaType@PAVStatusViewWatcher@@@@YAHABVQByteArray@@PAPAVStatusViewWatcher@@W4DefinedType@?$MetaTypeDefinedHelper@PAVStatusViewWatcher@@$00@QtPrivate@@@Z 0040f160 f i main.obj
 0001:0000e1c0       ??$qRegisterNormalizedMetaType@PAVTextFieldDoubleValidator@@@@YAHABVQByteArray@@PAPAVTextFieldDoubleValidator@@W4DefinedType@?$MetaTypeDefinedHelper@PAVTextFieldDoubleValidator@@$00@QtPrivate@@@Z 0040f1c0 f i main.obj
 0001:0000e220       ??$qmlRegisterType@VOperationParamObject@@@@YAHPBDHH0@Z 0040f220 f i main.obj
 0001:0000e4d0       ??$qmlRegisterType@VOperationParamSelector@@@@YAHPBDHH0@Z 0040f4d0 f i main.obj
 0001:0000e780       ??$qmlRegisterType@VPlanController@@@@YAHPBDHH0@Z 0040f780 f i main.obj
 0001:0000ea30       ??$qmlRegisterType@VPlanSelector@@@@YAHPBDHH0@Z 0040fa30 f i main.obj
 0001:0000ece0       ??$qmlRegisterType@VStatusViewWatcher@@@@YAHPBDHH0@Z 0040fce0 f i main.obj
 0001:0000ef90       ??$qmlRegisterType@VTextFieldDoubleValidator@@@@YAHPBDHH0@Z 0040ff90 f i main.obj
 0001:0000f240       ??1?$QVarLengthArray@D$0EA@@@QAE@XZ 00410240 f i main.obj
 0001:0000f240       ??1?$QVarLengthArray@D$0DA@@@QAE@XZ 00410240 f i main.obj
 0001:0000f260       ??1OperationParamSelector@@UAE@XZ 00410260 f i main.obj
 0001:0000f310       ??1PlanSelector@@UAE@XZ    00410310 f i main.obj
 0001:0000f3c0       ??1RegisterType@QQmlPrivate@@QAE@XZ 004103c0 f i main.obj
 0001:0000f3d0       ??H@YA?BVQString@@ABV0@0@Z 004103d0 f i main.obj
 0001:0000f440       ??H@YA?BVQString@@ABV0@PBD@Z 00410440 f i main.obj
 0001:0000f4d0       ??_G?$QQmlElement@VOperationParamObject@@@QQmlPrivate@@UAEPAXI@Z 004104d0 f i main.obj
 0001:0000f4d0       ??_E?$QQmlElement@VOperationParamObject@@@QQmlPrivate@@UAEPAXI@Z 004104d0 f i main.obj
 0001:0000f550       ??_E?$QQmlElement@VOperationParamSelector@@@QQmlPrivate@@UAEPAXI@Z 00410550 f i main.obj
 0001:0000f550       ??_G?$QQmlElement@VOperationParamSelector@@@QQmlPrivate@@UAEPAXI@Z 00410550 f i main.obj
 0001:0000f5c0       ??_G?$QQmlElement@VPlanController@@@QQmlPrivate@@UAEPAXI@Z 004105c0 f i main.obj
 0001:0000f5c0       ??_E?$QQmlElement@VPlanController@@@QQmlPrivate@@UAEPAXI@Z 004105c0 f i main.obj
 0001:0000f630       ??_E?$QQmlElement@VPlanSelector@@@QQmlPrivate@@UAEPAXI@Z 00410630 f i main.obj
 0001:0000f630       ??_G?$QQmlElement@VPlanSelector@@@QQmlPrivate@@UAEPAXI@Z 00410630 f i main.obj
 0001:0000f6a0       ??_E?$QQmlElement@VStatusViewWatcher@@@QQmlPrivate@@UAEPAXI@Z 004106a0 f i main.obj
 0001:0000f6a0       ??_G?$QQmlElement@VStatusViewWatcher@@@QQmlPrivate@@UAEPAXI@Z 004106a0 f i main.obj
 0001:0000f710       ??_G?$QQmlElement@VTextFieldDoubleValidator@@@QQmlPrivate@@UAEPAXI@Z 00410710 f i main.obj
 0001:0000f710       ??_E?$QQmlElement@VTextFieldDoubleValidator@@@QQmlPrivate@@UAEPAXI@Z 00410710 f i main.obj
 0001:0000f780       ??_GOperationParamObject@@UAEPAXI@Z 00410780 f i main.obj
 0001:0000f780       ??_EOperationParamObject@@UAEPAXI@Z 00410780 f i main.obj
 0001:0000f7b0       ?Construct@?$QMetaTypeFunctionHelper@PAVTextFieldDoubleValidator@@$00@QtMetaTypePrivate@@SAPAXPAXPBX@Z 004107b0 f i main.obj
 0001:0000f7b0       ?Construct@?$QMetaTypeFunctionHelper@PAVStatusViewWatcher@@$00@QtMetaTypePrivate@@SAPAXPAXPBX@Z 004107b0 f i main.obj
 0001:0000f7b0       ?Construct@?$QMetaTypeFunctionHelper@PAVPlanSelector@@$00@QtMetaTypePrivate@@SAPAXPAXPBX@Z 004107b0 f i main.obj
 0001:0000f7b0       ?Construct@?$QMetaTypeFunctionHelper@PAVOperationParamObject@@$00@QtMetaTypePrivate@@SAPAXPAXPBX@Z 004107b0 f i main.obj
 0001:0000f7b0       ?Construct@?$QMetaTypeFunctionHelper@PAVOperationParamSelector@@$00@QtMetaTypePrivate@@SAPAXPAXPBX@Z 004107b0 f i main.obj
 0001:0000f7b0       ?Construct@?$QMetaTypeFunctionHelper@PAVPlanController@@$00@QtMetaTypePrivate@@SAPAXPAXPBX@Z 004107b0 f i main.obj
 0001:0000f7e0       ?Construct@?$QMetaTypeFunctionHelper@V?$QQmlListProperty@VStatusViewWatcher@@@@$00@QtMetaTypePrivate@@SAPAXPAXPBX@Z 004107e0 f i main.obj
 0001:0000f7e0       ?Construct@?$QMetaTypeFunctionHelper@V?$QQmlListProperty@VTextFieldDoubleValidator@@@@$00@QtMetaTypePrivate@@SAPAXPAXPBX@Z 004107e0 f i main.obj
 0001:0000f7e0       ?Construct@?$QMetaTypeFunctionHelper@V?$QQmlListProperty@VOperationParamSelector@@@@$00@QtMetaTypePrivate@@SAPAXPAXPBX@Z 004107e0 f i main.obj
 0001:0000f7e0       ?Construct@?$QMetaTypeFunctionHelper@V?$QQmlListProperty@VPlanSelector@@@@$00@QtMetaTypePrivate@@SAPAXPAXPBX@Z 004107e0 f i main.obj
 0001:0000f7e0       ?Construct@?$QMetaTypeFunctionHelper@V?$QQmlListProperty@VOperationParamObject@@@@$00@QtMetaTypePrivate@@SAPAXPAXPBX@Z 004107e0 f i main.obj
 0001:0000f7e0       ?Construct@?$QMetaTypeFunctionHelper@V?$QQmlListProperty@VPlanController@@@@$00@QtMetaTypePrivate@@SAPAXPAXPBX@Z 004107e0 f i main.obj
 0001:0000f840       ?Destruct@?$QMetaTypeFunctionHelper@PAVOperationParamSelector@@$00@QtMetaTypePrivate@@SAXPAX@Z 00410840 f i main.obj
 0001:0000f840       ?Destruct@?$QMetaTypeFunctionHelper@VQSequentialIterableImpl@QtMetaTypePrivate@@$00@QtMetaTypePrivate@@SAXPAX@Z 00410840 f i moc_workmodels.obj
 0001:0000f840       ?Destruct@?$QMetaTypeFunctionHelper@V?$QQmlListProperty@VTextFieldDoubleValidator@@@@$00@QtMetaTypePrivate@@SAXPAX@Z 00410840 f i main.obj
 0001:0000f840       ?Destruct@?$QMetaTypeFunctionHelper@V?$QQmlListProperty@VPlanController@@@@$00@QtMetaTypePrivate@@SAXPAX@Z 00410840 f i main.obj
 0001:0000f840       ?Destruct@?$QMetaTypeFunctionHelper@V?$QQmlListProperty@VOperationParamSelector@@@@$00@QtMetaTypePrivate@@SAXPAX@Z 00410840 f i main.obj
 0001:0000f840       ?Destruct@?$QMetaTypeFunctionHelper@V?$QQmlListProperty@VPlanSelector@@@@$00@QtMetaTypePrivate@@SAXPAX@Z 00410840 f i main.obj
 0001:0000f840       @_guard_check_icall_nop@4  00410840 f i MSVCRT:guard_support.obj
 0001:0000f840       ?Destruct@?$QMetaTypeFunctionHelper@PAVStatusViewWatcher@@$00@QtMetaTypePrivate@@SAXPAX@Z 00410840 f i main.obj
 0001:0000f840       ?Destruct@?$QMetaTypeFunctionHelper@PAVTextFieldDoubleValidator@@$00@QtMetaTypePrivate@@SAXPAX@Z 00410840 f i main.obj
 0001:0000f840       ?onComplete@PlanSelector@@QAEXXZ 00410840 f i workmodels.obj
 0001:0000f840       ?qt_static_metacall@configFileHandler@@CAXPAVQObject@@W4Call@QMetaObject@@HPAPAX@Z 00410840 f i moc_configfilehandler.obj
 0001:0000f840       ??3@YAXPAX0@Z              00410840 f i configfilehandler.obj
 0001:0000f840       ?Destruct@?$QMetaTypeFunctionHelper@PAVPlanSelector@@$00@QtMetaTypePrivate@@SAXPAX@Z 00410840 f i main.obj
 0001:0000f840       ?Destruct@?$QMetaTypeFunctionHelper@PAVPlanController@@$00@QtMetaTypePrivate@@SAXPAX@Z 00410840 f i main.obj
 0001:0000f840       ?Destruct@?$QMetaTypeFunctionHelper@PAVOperationParamObject@@$00@QtMetaTypePrivate@@SAXPAX@Z 00410840 f i main.obj
 0001:0000f840       __initialize_invalid_parameter_handler 00410840 f i MSVCRT:invalid_parameter_handler.obj
 0001:0000f840       ?Destruct@?$QMetaTypeFunctionHelper@V?$QQmlListProperty@VOperationParamObject@@@@$00@QtMetaTypePrivate@@SAXPAX@Z 00410840 f i main.obj
 0001:0000f840       __initialize_denormal_control 00410840 f i MSVCRT:denormal_control.obj
 0001:0000f840       ?Destruct@?$QMetaTypeFunctionHelper@V?$QQmlListProperty@VStatusViewWatcher@@@@$00@QtMetaTypePrivate@@SAXPAX@Z 00410840 f i main.obj
 0001:0000f850       ?TopLevelExceptionFilter@@YGJPAU_EXCEPTION_POINTERS@@@Z 00410850 f   main.obj
 0001:0000f8c0       ?customMessageHandler@@YAXW4QtMsgType@@ABVQMessageLogContext@@ABVQString@@@Z 004108c0 f   main.obj
 0001:0000fc30       ?getConfigFullName@@YA?AVQString@@PBD@Z 00410c30 f   main.obj
 0001:0000fca0       ?impl@?$QStaticSlotObject@P6AXXZU?$List@$$V@QtPrivate@@X@QtPrivate@@CAXHPAVQSlotObjectBase@2@PAVQObject@@PAPAXPA_N@Z 00410ca0 f i main.obj
 0001:0000fcd0       ?qt_metatype_id@?$QMetaTypeIdQObject@PAVOperationParamObject@@$07@@SAHXZ 00410cd0 f i main.obj
 0001:0000fd80       ?qt_metatype_id@?$QMetaTypeIdQObject@PAVOperationParamSelector@@$07@@SAHXZ 00410d80 f i main.obj
 0001:0000fe30       ?qt_metatype_id@?$QMetaTypeIdQObject@PAVPlanController@@$07@@SAHXZ 00410e30 f i main.obj
 0001:0000fee0       ?qt_metatype_id@?$QMetaTypeIdQObject@PAVPlanSelector@@$07@@SAHXZ 00410ee0 f i main.obj
 0001:0000ff90       ?qt_metatype_id@?$QMetaTypeIdQObject@PAVStatusViewWatcher@@$07@@SAHXZ 00410f90 f i main.obj
 0001:00010040       ?qt_metatype_id@?$QMetaTypeIdQObject@PAVTextFieldDoubleValidator@@$07@@SAHXZ 00411040 f i main.obj
 0001:000100f0       ?validate@TextFieldDoubleValidator@@UBE?AW4State@QValidator@@AAVQString@@AAH@Z 004110f0 f i main.obj
 0001:00010270       _main                      00411270 f   main.obj
 0001:000106d0       ??$connect@P8EnvironmentVariant@@AEXXZP8StatusViewWatcher@@AEXXZ@QObject@@SA?AVConnection@QMetaObject@@PBVEnvironmentVariant@@P83@AEXXZPBVStatusViewWatcher@@P84@AEXXZW4ConnectionType@Qt@@@Z 004116d0 f i workmodels.obj
 0001:00010730       ??$qMakeForeachContainer@AAV?$QList@PAVQObject@@@@@QtPrivate@@YA?AV?$QForeachContainer@V?$QList@PAVQObject@@@@@0@AAV?$QList@PAVQObject@@@@@Z 00411730 f i workmodels.obj
 0001:00010770       ??0OperationParamSelector@@QAE@PAVQObject@@@Z 00411770 f   workmodels.obj
 0001:000107c0       ??0PlanController@@QAE@PAVQObject@@@Z 004117c0 f   workmodels.obj
 0001:00010830       ??0PlanSelector@@QAE@PAVQObject@@@Z 00411830 f   workmodels.obj
 0001:000108e0       ??0StatusViewWatcher@@QAE@PAVQObject@@@Z 004118e0 f   workmodels.obj
 0001:00010970       ??1?$QForeachContainer@V?$QList@PAVQObject@@@@@QtPrivate@@QAE@XZ 00411970 f i workmodels.obj
 0001:000109d0       ??1?$QList@H@@QAE@XZ       004119d0 f i configfilehandler.obj
 0001:000109d0       ??1?$QList@PAVQObject@@@@QAE@XZ 004119d0 f i workmodels.obj
 0001:00010a30       ??1MachineConfigData@@QAE@XZ 00411a30 f i workmodels.obj
 0001:00010a40       ??1PlanController@@UAE@XZ  00411a40 f   workmodels.obj
 0001:00010aa0       ??1StatusViewWatcher@@UAE@XZ 00411aa0 f   workmodels.obj
 0001:00010b20       ??_EOperationParamSelector@@UAEPAXI@Z 00411b20 f i workmodels.obj
 0001:00010b20       ??_GOperationParamSelector@@UAEPAXI@Z 00411b20 f i workmodels.obj
 0001:00010b40       ??_GPlanController@@UAEPAXI@Z 00411b40 f i workmodels.obj
 0001:00010b40       ??_EPlanController@@UAEPAXI@Z 00411b40 f i workmodels.obj
 0001:00010bb0       ??_EPlanSelector@@UAEPAXI@Z 00411bb0 f i workmodels.obj
 0001:00010bb0       ??_GPlanSelector@@UAEPAXI@Z 00411bb0 f i workmodels.obj
 0001:00010bd0       ??_GStatusViewWatcher@@UAEPAXI@Z 00411bd0 f i workmodels.obj
 0001:00010bd0       ??_EStatusViewWatcher@@UAEPAXI@Z 00411bd0 f i workmodels.obj
 0001:00010c70       ?addPlan@PlanSelector@@QAEXABVQString@@@Z 00411c70 f   workmodels.obj
 0001:00010c90       ?addStep@PlanSelector@@QAEXHHH@Z 00411c90 f   workmodels.obj
 0001:00010cb0       ?commitParam@PlanSelector@@QAEXHHABVQString@@ABVQVariant@@@Z 00411cb0 f   workmodels.obj
 0001:00010cd0       ?eventFilter@PlanController@@UAE_NPAVQObject@@PAVQEvent@@@Z 00411cd0 f   workmodels.obj
 0001:00010d20       ?eventFilter@StatusViewWatcher@@UAE_NPAVQObject@@PAVQEvent@@@Z 00411d20 f   workmodels.obj
 0001:00010d60       ?getSwitch@OperationParamSelector@@QAEPAVQObject@@ABVQString@@@Z 00411d60 f   workmodels.obj
 0001:00010ec0       ?getSwitch@PlanSelector@@QAEPAVQObject@@ABVQString@@@Z 00411ec0 f   workmodels.obj
 0001:00011020       ?getWorkLocationTypeList@StatusViewWatcher@@QAE?AVQStringList@@XZ 00412020 f   workmodels.obj
 0001:00011050       ?init@OperationParamSelector@@QAEXABVQString@@@Z 00412050 f   workmodels.obj
 0001:000110d0       ?moveStep@PlanSelector@@QAEXHHH@Z 004120d0 f   workmodels.obj
 0001:000110f0       ?getOperationName@SingleOperationObject@@QAE?AVQString@@XZ 004120f0 f i moc_workmodels.obj
 0001:000110f0       ?getIpAddress@TargetMachineObject@@QBE?AVQString@@XZ 004120f0 f i environmentvariant.obj
 0001:000110f0       ?name@OperationParamObject@@QBE?AVQString@@XZ 004120f0 f i workmodels.obj
 0001:00011110       ?onCompleteSingleOperation@OperationParamSelector@@QAEXXZ 00412110 f   workmodels.obj
 0001:00011390       ?onMachineConfigChanged@TargetMachineObject@@QAEXXZ 00412390 f   workmodels.obj
 0001:00011410       ?onSave@PlanSelector@@QAEXXZ 00412410 f   workmodels.obj
 0001:00011420       ?operationCurrentIndex@PlanSelector@@QAEHXZ 00412420 f   workmodels.obj
 0001:00011440       ?planListModel@PlanSelector@@QAE?AVQStringList@@XZ 00412440 f   workmodels.obj
 0001:00011470       ?removePlan@PlanSelector@@QAEXH@Z 00412470 f   workmodels.obj
 0001:00011490       ?removeStep@PlanSelector@@QAEXHH@Z 00412490 f   workmodels.obj
 0001:000114b0       ?resumePlan@PlanController@@QAEXXZ 004124b0 f   workmodels.obj
 0001:000114e0       ?setPlanName@PlanSelector@@QAEXHABVQString@@@Z 004124e0 f   workmodels.obj
 0001:00011500       ?setSelectedOperation@OperationParamSelector@@QAEXH@Z 00412500 f   workmodels.obj
 0001:000118a0       ?setSelectedOperation@PlanSelector@@QAEXHHH@Z 004128a0 f   workmodels.obj
 0001:00011d30       ?setSelectedStep@PlanSelector@@QAEXHH@Z 00412d30 f   workmodels.obj
 0001:000120e0       ?setWorkLocationType@StatusViewWatcher@@QAE_NHABVQString@@@Z 004130e0 f   workmodels.obj
 0001:00012100       ?startPlan@PlanController@@QAEXHH@Z 00413100 f   workmodels.obj
 0001:00012130       ?stepListModel@PlanSelector@@QAE?AVQStringList@@H@Z 00413130 f   workmodels.obj
 0001:00012160       ?stopPlan@PlanController@@QAEXXZ 00413160 f   workmodels.obj
 0001:00012170       ?changeHost@WorkflowController@@QAEXABVQString@@G@Z 00413170 f   moc_workflowprotocol.obj
 0001:000121c0       ?configProtocol@WorkflowController@@QAEXABVQString@@@Z 004131c0 f   moc_workflowprotocol.obj
 0001:000121f0       ?metaObject@SubThreadWorker@@UBEPBUQMetaObject@@XZ 004131f0 f   moc_workflowprotocol.obj
 0001:00012210       ?metaObject@WorkflowController@@UBEPBUQMetaObject@@XZ 00413210 f   moc_workflowprotocol.obj
 0001:00012230       ?qt_metacall@SubThreadWorker@@UAEHW4Call@QMetaObject@@HPAPAX@Z 00413230 f   moc_workflowprotocol.obj
 0001:00012290       ?qt_metacall@WorkflowController@@UAEHW4Call@QMetaObject@@HPAPAX@Z 00413290 f   moc_workflowprotocol.obj
 0001:000122f0       ?qt_metacast@SubThreadWorker@@UAEPAXPBD@Z 004132f0 f   moc_workflowprotocol.obj
 0001:00012350       ?qt_metacast@WorkflowController@@UAEPAXPBD@Z 00413350 f   moc_workflowprotocol.obj
 0001:000123b0       ?qt_static_metacall@SubThreadWorker@@CAXPAVQObject@@W4Call@QMetaObject@@HPAPAX@Z 004133b0 f   moc_workflowprotocol.obj
 0001:000124a0       ?qt_static_metacall@WorkflowController@@CAXPAVQObject@@W4Call@QMetaObject@@HPAPAX@Z 004134a0 f   moc_workflowprotocol.obj
 0001:000125c0       ?runNewTask@WorkflowController@@QAEXABVQJsonObject@@@Z 004135c0 f   moc_workflowprotocol.obj
 0001:000125f0       ?runNewTunning@WorkflowController@@QAEXABVQJsonObject@@@Z 004135f0 f   moc_workflowprotocol.obj
 0001:00012620       ?statusChanged@SubThreadWorker@@QAEXABVQJsonObject@@@Z 00413620 f   moc_workflowprotocol.obj
 0001:00012650       ?stopTask@WorkflowController@@QAEXXZ 00413650 f   moc_workflowprotocol.obj
 0001:00012670       ?taskStateChanged@SubThreadWorker@@QAEX_NH@Z 00413670 f   moc_workflowprotocol.obj
 0001:000126c0       ?metaObject@configFileHandler@@UBEPBUQMetaObject@@XZ 004136c0 f   moc_configfilehandler.obj
 0001:000126e0       ?qt_metacall@configFileHandler@@UAEHW4Call@QMetaObject@@HPAPAX@Z 004136e0 f   moc_configfilehandler.obj
 0001:000126f0       ?qt_metacast@configFileHandler@@UAEPAXPBD@Z 004136f0 f   moc_configfilehandler.obj
 0001:00012750       ?metaObject@EnvironmentVariant@@UBEPBUQMetaObject@@XZ 00413750 f   moc_environmentvariant.obj
 0001:00012770       ?qt_metacall@EnvironmentVariant@@UAEHW4Call@QMetaObject@@HPAPAX@Z 00413770 f   moc_environmentvariant.obj
 0001:000127d0       ?qt_metacast@EnvironmentVariant@@UAEPAXPBD@Z 004137d0 f   moc_environmentvariant.obj
 0001:00012830       ?qt_static_metacall@EnvironmentVariant@@CAXPAVQObject@@W4Call@QMetaObject@@HPAPAX@Z 00413830 f   moc_environmentvariant.obj
 0001:00012880       ?workLocationTypeChanged@EnvironmentVariant@@QAEXXZ 00413880 f   moc_environmentvariant.obj
 0001:000128a0       ??$atImpl@V?$QList@PAVQObject@@@@@QSequentialIterableImpl@QtMetaTypePrivate@@SAPBXPBXH@Z 004138a0 f i moc_workmodels.obj
 0001:000128a0       ??$atImpl@V?$QList@H@@@QSequentialIterableImpl@QtMetaTypePrivate@@SAPBXPBXH@Z 004138a0 f i moc_workmodels.obj
 0001:000128c0       ??$equal@PBQAVQObject@@V?$checked_array_iterator@PBQAVQObject@@@stdext@@U?$equal_to@X@std@@@std@@YA_NPBQAVQObject@@0V?$checked_array_iterator@PBQAVQObject@@@stdext@@U?$equal_to@X@0@@Z 004138c0 f i moc_workmodels.obj
 0001:000128c0       ??$equal@PBHV?$checked_array_iterator@PBH@stdext@@U?$equal_to@X@std@@@std@@YA_NPBH0V?$checked_array_iterator@PBH@stdext@@U?$equal_to@X@0@@Z 004138c0 f i moc_workmodels.obj
 0001:00012940       ??$getImpl@V?$QList@PAVQObject@@@@@QSequentialIterableImpl@QtMetaTypePrivate@@SA?AUVariantData@1@PBQAXHI@Z 00413940 f i moc_workmodels.obj
 0001:00012940       ??$getImpl@V?$QList@H@@@QSequentialIterableImpl@QtMetaTypePrivate@@SA?AUVariantData@1@PBQAXHI@Z 00413940 f i moc_workmodels.obj
 0001:00012960       ??$moveToBeginImpl@V?$QList@PAVQObject@@@@@QSequentialIterableImpl@QtMetaTypePrivate@@SAXPBXPAPAX@Z 00413960 f i moc_workmodels.obj
 0001:00012960       ??$moveToBeginImpl@V?$QList@H@@@QSequentialIterableImpl@QtMetaTypePrivate@@SAXPBXPAPAX@Z 00413960 f i moc_workmodels.obj
 0001:00012990       ??$moveToEndImpl@V?$QList@H@@@QSequentialIterableImpl@QtMetaTypePrivate@@SAXPBXPAPAX@Z 00413990 f i moc_workmodels.obj
 0001:00012990       ??$moveToEndImpl@V?$QList@PAVQObject@@@@@QSequentialIterableImpl@QtMetaTypePrivate@@SAXPBXPAPAX@Z 00413990 f i moc_workmodels.obj
 0001:000129c0       ??$sizeImpl@V?$QList@PAVQObject@@@@@QSequentialIterableImpl@QtMetaTypePrivate@@SAHPBX@Z 004139c0 f i moc_workmodels.obj
 0001:000129c0       ??$sizeImpl@V?$QList@H@@@QSequentialIterableImpl@QtMetaTypePrivate@@SAHPBX@Z 004139c0 f i moc_workmodels.obj
 0001:000129d0       ??0QSequentialIterableImpl@QtMetaTypePrivate@@QAE@XZ 004139d0 f i moc_workmodels.obj
 0001:00012a40       ??4?$QList@H@@QAEAAV0@$$QAV0@@Z 00413a40 f i moc_workmodels.obj
 0001:00012a40       ??4?$QList@PAVQObject@@@@QAEAAV0@$$QAV0@@Z 00413a40 f i moc_workmodels.obj
 0001:00012ac0       ??4QStringList@@QAEAAV0@$$QAV0@@Z 00413ac0 f i moc_workmodels.obj
 0001:00012af0       ?Construct@?$QMetaTypeFunctionHelper@V?$QList@H@@$00@QtMetaTypePrivate@@SAPAXPAXPBX@Z 00413af0 f i moc_workmodels.obj
 0001:00012af0       ?Construct@?$QMetaTypeFunctionHelper@V?$QList@PAVQObject@@@@$00@QtMetaTypePrivate@@SAPAXPAXPBX@Z 00413af0 f i moc_workmodels.obj
 0001:00012b70       ?Construct@?$QMetaTypeFunctionHelper@VQSequentialIterableImpl@QtMetaTypePrivate@@$00@QtMetaTypePrivate@@SAPAXPAXPBX@Z 00413b70 f i moc_workmodels.obj
 0001:00012bb0       ?Destruct@?$QMetaTypeFunctionHelper@V?$QList@H@@$00@QtMetaTypePrivate@@SAXPAX@Z 00413bb0 f i moc_workmodels.obj
 0001:00012bb0       ?Destruct@?$QMetaTypeFunctionHelper@V?$QList@PAVQObject@@@@$00@QtMetaTypePrivate@@SAXPAX@Z 00413bb0 f i moc_workmodels.obj
 0001:00012c20       ?MachineConfigChanged@TargetMachineObject@@QAEXXZ 00413c20 f   moc_workmodels.obj
 0001:00012c40       ?UnitChanged@OperationParamObject@@QAEXXZ 00413c40 f   moc_workmodels.obj
 0001:00012c60       ?advance@?$IteratorOwnerCommon@Vconst_iterator@?$QList@PAVQObject@@@@@QtMetaTypePrivate@@SAXPAPAXH@Z 00413c60 f i moc_workmodels.obj
 0001:00012c60       ?advance@?$IteratorOwnerCommon@Vconst_iterator@?$QList@H@@@QtMetaTypePrivate@@SAXPAPAXH@Z 00413c60 f i moc_workmodels.obj
 0001:00012c70       ?assign@?$IteratorOwnerCommon@Vconst_iterator@?$QList@H@@@QtMetaTypePrivate@@SAXPAPAXPBQAX@Z 00413c70 f i moc_workmodels.obj
 0001:00012c70       ?assign@?$IteratorOwnerCommon@Vconst_iterator@?$QList@PAVQObject@@@@@QtMetaTypePrivate@@SAXPAPAXPBQAX@Z 00413c70 f i moc_workmodels.obj
 0001:00012c90       ?boolValueChanged@OperationParamObject@@QAEXXZ 00413c90 f   moc_workmodels.obj
 0001:00012cb0       ?bottomValueChanged@OperationParamObject@@QAEXXZ 00413cb0 f   moc_workmodels.obj
 0001:00012cd0       ?convert@?$ConverterFunctor@V?$QList@H@@VQSequentialIterableImpl@QtMetaTypePrivate@@U?$QSequentialIterableConvertFunctor@V?$QList@H@@@3@@QtPrivate@@SA_NPBUAbstractConverterFunction@2@PBXPAX@Z 00413cd0 f i moc_workmodels.obj
 0001:00012d70       ?convert@?$ConverterFunctor@V?$QList@PAVQObject@@@@VQSequentialIterableImpl@QtMetaTypePrivate@@U?$QSequentialIterableConvertFunctor@V?$QList@PAVQObject@@@@@3@@QtPrivate@@SA_NPBUAbstractConverterFunction@2@PBXPAX@Z 00413d70 f i moc_workmodels.obj
 0001:00012e10       ?currentIndexChanged@OperationParamSelector@@QAEXXZ 00413e10 f   moc_workmodels.obj
 0001:00012e30       ?destroy@?$IteratorOwnerCommon@Vconst_iterator@?$QList@PAVQObject@@@@@QtMetaTypePrivate@@SAXPAPAX@Z 00413e30 f i moc_workmodels.obj
 0001:00012e30       ?destroy@?$IteratorOwnerCommon@Vconst_iterator@?$QList@H@@@QtMetaTypePrivate@@SAXPAPAX@Z 00413e30 f i moc_workmodels.obj
 0001:00012e50       ?display@OperationParamObject@@QBE?AVQString@@XZ 00413e50 f i moc_workmodels.obj
 0001:00012e70       ?displayChanged@OperationParamObject@@QAEXXZ 00413e70 f   moc_workmodels.obj
 0001:00012e90       ?equal@?$IteratorOwnerCommon@Vconst_iterator@?$QList@H@@@QtMetaTypePrivate@@SA_NPBQAX0@Z 00413e90 f i moc_workmodels.obj
 0001:00012e90       ?equal@?$IteratorOwnerCommon@Vconst_iterator@?$QList@PAVQObject@@@@@QtMetaTypePrivate@@SA_NPBQAX0@Z 00413e90 f i moc_workmodels.obj
 0001:00012eb0       ?floatValueChanged@OperationParamObject@@QAEXXZ 00413eb0 f   moc_workmodels.obj
 0001:00012ed0       ?getParamListModel@PlanSelector@@QAE?AV?$QList@PAVQObject@@@@XZ 00413ed0 f i moc_workmodels.obj
 0001:00012ef0       ?getParamModel@OperationParamSelector@@QAE?AV?$QList@PAVQObject@@@@XZ 00413ef0 f i moc_workmodels.obj
 0001:00012f10       ?intListValue@OperationParamObject@@QAE?AV?$QList@H@@XZ 00413f10 f i moc_workmodels.obj
 0001:00012f30       ?intListValueChanged@OperationParamObject@@QAEXXZ 00413f30 f   moc_workmodels.obj
 0001:00012f50       ?integerValueChanged@OperationParamObject@@QAEXXZ 00413f50 f   moc_workmodels.obj
 0001:00012f70       ?metaObject@OperationParamObject@@UBEPBUQMetaObject@@XZ 00413f70 f   moc_workmodels.obj
 0001:00012f90       ?metaObject@OperationParamSelector@@UBEPBUQMetaObject@@XZ 00413f90 f   moc_workmodels.obj
 0001:00012fb0       ?metaObject@PlanController@@UBEPBUQMetaObject@@XZ 00413fb0 f   moc_workmodels.obj
 0001:00012fd0       ?metaObject@PlanSelector@@UBEPBUQMetaObject@@XZ 00413fd0 f   moc_workmodels.obj
 0001:00012ff0       ?metaObject@StatusViewWatcher@@UBEPBUQMetaObject@@XZ 00413ff0 f   moc_workmodels.obj
 0001:00013010       ?metaObject@TargetMachineObject@@UBEPBUQMetaObject@@XZ 00414010 f   moc_workmodels.obj
 0001:00013030       ?nameChanged@OperationParamObject@@QAEXXZ 00414030 f   moc_workmodels.obj
 0001:00013050       ?op_eq_impl@?$QList@H@@ABE_NABV1@UArrayCompatibleLayout@QListData@@@Z 00414050 f i moc_workmodels.obj
 0001:00013050       ?op_eq_impl@?$QList@PAVQObject@@@@ABE_NABV1@UArrayCompatibleLayout@QListData@@@Z 00414050 f i moc_workmodels.obj
 0001:000130c0       ?op_eq_impl@?$QList@VQString@@@@ABE_NABV1@UArrayCompatibleLayout@QListData@@@Z 004140c0 f i moc_workmodels.obj
 0001:00013130       ?operationListModel@PlanSelector@@QAE?AVQStringList@@XZ 00414130 f i moc_workmodels.obj
 0001:00013150       ?operationModel@OperationParamSelector@@QAE?AVQStringList@@XZ 00414150 f i moc_workmodels.obj
 0001:00013170       ?operationNameChanged@SingleOperationObject@@QAEXXZ 00414170 f   moc_workmodels.obj
 0001:00013190       ?pageNameChanged@OperationParamSelector@@QAEXXZ 00414190 f   moc_workmodels.obj
 0001:000131b0       ?paramListModelChanged@PlanSelector@@QAEXXZ 004141b0 f   moc_workmodels.obj
 0001:000131d0       ?paramModelChanged@OperationParamSelector@@QAEXXZ 004141d0 f   moc_workmodels.obj
 0001:000131f0       ?qt_metacall@OperationParamObject@@UAEHW4Call@QMetaObject@@HPAPAX@Z 004141f0 f   moc_workmodels.obj
 0001:00013290       ?qt_metacall@OperationParamSelector@@UAEHW4Call@QMetaObject@@HPAPAX@Z 00414290 f   moc_workmodels.obj
 0001:00013340       ?qt_metacall@PlanController@@UAEHW4Call@QMetaObject@@HPAPAX@Z 00414340 f   moc_workmodels.obj
 0001:000133a0       ?qt_metacall@PlanSelector@@UAEHW4Call@QMetaObject@@HPAPAX@Z 004143a0 f   moc_workmodels.obj
 0001:00013450       ?qt_metacall@StatusViewWatcher@@UAEHW4Call@QMetaObject@@HPAPAX@Z 00414450 f   moc_workmodels.obj
 0001:000134b0       ?qt_metacall@TargetMachineObject@@UAEHW4Call@QMetaObject@@HPAPAX@Z 004144b0 f   moc_workmodels.obj
 0001:00013570       ?qt_metacast@OperationParamObject@@UAEPAXPBD@Z 00414570 f   moc_workmodels.obj
 0001:00013610       ?qt_metacast@OperationParamSelector@@UAEPAXPBD@Z 00414610 f   moc_workmodels.obj
 0001:00013670       ?qt_metacast@PlanController@@UAEPAXPBD@Z 00414670 f   moc_workmodels.obj
 0001:000136d0       ?qt_metacast@PlanSelector@@UAEPAXPBD@Z 004146d0 f   moc_workmodels.obj
 0001:00013730       ?qt_metacast@StatusViewWatcher@@UAEPAXPBD@Z 00414730 f   moc_workmodels.obj
 0001:00013790       ?qt_metacast@TargetMachineObject@@UAEPAXPBD@Z 00414790 f   moc_workmodels.obj
 0001:00013830       ?qt_metatype_id@?$QMetaTypeId@V?$QList@H@@@@SAHXZ 00414830 f i moc_workmodels.obj
 0001:00013950       ?qt_metatype_id@?$QMetaTypeId@V?$QList@PAVQObject@@@@@@SAHXZ 00414950 f i moc_workmodels.obj
 0001:000139f0       ?qt_metatype_id@?$QMetaTypeId@VQSequentialIterableImpl@QtMetaTypePrivate@@@@SAHXZ 004149f0 f i moc_workmodels.obj
 0001:00013a80       ?qt_static_metacall@OperationParamObject@@CAXPAVQObject@@W4Call@QMetaObject@@HPAPAX@Z 00414a80 f   moc_workmodels.obj
 0001:00013f60       ?qt_static_metacall@OperationParamSelector@@CAXPAVQObject@@W4Call@QMetaObject@@HPAPAX@Z 00414f60 f   moc_workmodels.obj
 0001:000140f0       ?qt_static_metacall@PlanController@@CAXPAVQObject@@W4Call@QMetaObject@@HPAPAX@Z 004150f0 f   moc_workmodels.obj
 0001:00014180       ?qt_static_metacall@PlanSelector@@CAXPAVQObject@@W4Call@QMetaObject@@HPAPAX@Z 00415180 f   moc_workmodels.obj
 0001:00014450       ?qt_static_metacall@SingleOperationObject@@CAXPAVQObject@@W4Call@QMetaObject@@HPAPAX@Z 00415450 f   moc_workmodels.obj
 0001:00014500       ?qt_static_metacall@StatusViewWatcher@@CAXPAVQObject@@W4Call@QMetaObject@@HPAPAX@Z 00415500 f   moc_workmodels.obj
 0001:000145e0       ?qt_static_metacall@TargetMachineObject@@CAXPAVQObject@@W4Call@QMetaObject@@HPAPAX@Z 004155e0 f   moc_workmodels.obj
 0001:000146f0       ?registerConverter@?$ValueTypeIsMetaType@V?$QList@H@@$00@QtPrivate@@SA_NH@Z 004156f0 f i moc_workmodels.obj
 0001:00014780       ?registerConverter@?$ValueTypeIsMetaType@V?$QList@PAVQObject@@@@$00@QtPrivate@@SA_NH@Z 00415780 f i moc_workmodels.obj
 0001:00014810       ?setBoolValue@OperationParamObject@@QAEX_N@Z 00415810 f i moc_workmodels.obj
 0001:00014840       ?setBottomValue@OperationParamObject@@QAEXH@Z 00415840 f i moc_workmodels.obj
 0001:00014870       ?setDisplay@OperationParamObject@@QAEXABVQString@@@Z 00415870 f i moc_workmodels.obj
 0001:000148b0       ?setFloatValue@OperationParamObject@@QAEXN@Z 004158b0 f i moc_workmodels.obj
 0001:000148f0       ?setIntListValue@OperationParamObject@@QAEXABV?$QList@H@@@Z 004158f0 f i moc_workmodels.obj
 0001:000149d0       ?setIntegerValue@OperationParamObject@@QAEXH@Z 004159d0 f i moc_workmodels.obj
 0001:00014a00       ?setIpAddress@TargetMachineObject@@QAEXABVQString@@@Z 00415a00 f i moc_workmodels.obj
 0001:00014a40       ?setMaxReceiveTime@TargetMachineObject@@QAEXH@Z 00415a40 f i moc_workmodels.obj
 0001:00014a70       ?setName@OperationParamObject@@QAEXABVQString@@@Z 00415a70 f i moc_workmodels.obj
 0001:00014ab0       ?setOperationName@SingleOperationObject@@QAEXABVQString@@@Z 00415ab0 f i moc_workmodels.obj
 0001:00014af0       ?setParamListModel@PlanSelector@@QAEXABV?$QList@PAVQObject@@@@@Z 00415af0 f i moc_workmodels.obj
 0001:00014bd0       ?setParamModel@OperationParamSelector@@QAEXABV?$QList@PAVQObject@@@@@Z 00415bd0 f i moc_workmodels.obj
 0001:00014cb0       ?setPort@TargetMachineObject@@QAEXF@Z 00415cb0 f i moc_workmodels.obj
 0001:00014ce0       ?setStringValue@OperationParamObject@@QAEXABVQString@@@Z 00415ce0 f i moc_workmodels.obj
 0001:00014d20       ?setStringlistValue@OperationParamObject@@QAEXABVQStringList@@@Z 00415d20 f i moc_workmodels.obj
 0001:00014da0       ?setSwitchValue@OperationParamObject@@QAEXABVQString@@@Z 00415da0 f i moc_workmodels.obj
 0001:00014de0       ?setTopValue@OperationParamObject@@QAEXH@Z 00415de0 f i moc_workmodels.obj
 0001:00014e10       ?setUnit@OperationParamObject@@QAEXABVQString@@@Z 00415e10 f i moc_workmodels.obj
 0001:00014e50       ?settype@OperationParamObject@@QAEXABVQString@@@Z 00415e50 f i moc_workmodels.obj
 0001:00014e90       ?statusChanged@StatusViewWatcher@@QAEXABVQJsonObject@@@Z 00415e90 f   moc_workmodels.obj
 0001:00014ec0       ?stringListValue@OperationParamObject@@QBE?AVQStringList@@XZ 00415ec0 f i moc_workmodels.obj
 0001:00014ee0       ?stringValue@OperationParamObject@@QBE?AVQString@@XZ 00415ee0 f i moc_workmodels.obj
 0001:00014f00       ?stringValueChanged@OperationParamObject@@QAEXXZ 00415f00 f   moc_workmodels.obj
 0001:00014f20       ?stringlistValueChanged@OperationParamObject@@QAEXXZ 00415f20 f   moc_workmodels.obj
 0001:00014f40       ?switchValue@OperationParamObject@@QBE?AVQString@@XZ 00415f40 f i moc_workmodels.obj
 0001:00014f60       ?switchValueChanged@OperationParamObject@@QAEXXZ 00415f60 f   moc_workmodels.obj
 0001:00014f80       ?taskStateChanged@PlanController@@QAEX_N@Z 00415f80 f   moc_workmodels.obj
 0001:00014fb0       ?topValueChanged@OperationParamObject@@QAEXXZ 00415fb0 f   moc_workmodels.obj
 0001:00014fd0       ?type@OperationParamObject@@QBE?AVQString@@XZ 00415fd0 f i moc_workmodels.obj
 0001:00014ff0       ?typeChanged@OperationParamObject@@QAEXXZ 00415ff0 f   moc_workmodels.obj
 0001:00015010       ?unit@OperationParamObject@@QBE?AVQString@@XZ 00416010 f i moc_workmodels.obj
 0001:00015030       ?workLocationTypeChanged@StatusViewWatcher@@QAEXXZ 00416030 f   moc_workmodels.obj
 0001:00015044       _MiniDumpWriteDump@28      00416044 f   DbgHelp:dbghelp.dll
 0001:0001504a       ?fixup@QValidator@@UBEXAAVQString@@@Z 0041604a f   Qt5Gui:Qt5Gui.dll
 0001:00015050       ?metaObject@QDoubleValidator@@UBEPBUQMetaObject@@XZ 00416050 f   Qt5Gui:Qt5Gui.dll
 0001:00015056       ?qt_metacall@QDoubleValidator@@UAEHW4Call@QMetaObject@@HPAPAX@Z 00416056 f   Qt5Gui:Qt5Gui.dll
 0001:0001505c       ?qt_metacast@QDoubleValidator@@UAEPAXPBD@Z 0041605c f   Qt5Gui:Qt5Gui.dll
 0001:00015062       ?setRange@QDoubleValidator@@UAEXNNH@Z 00416062 f   Qt5Gui:Qt5Gui.dll
 0001:00015068       ?childEvent@QObject@@MAEXPAVQChildEvent@@@Z 00416068 f   Qt5Core:Qt5Core.dll
 0001:0001506e       ?connectNotify@QObject@@MAEXABVQMetaMethod@@@Z 0041606e f   Qt5Core:Qt5Core.dll
 0001:00015074       ?customEvent@QObject@@MAEXPAVQEvent@@@Z 00416074 f   Qt5Core:Qt5Core.dll
 0001:0001507a       ?disconnectNotify@QObject@@MAEXABVQMetaMethod@@@Z 0041607a f   Qt5Core:Qt5Core.dll
 0001:00015080       ?event@QObject@@UAE_NPAVQEvent@@@Z 00416080 f   Qt5Core:Qt5Core.dll
 0001:00015086       ?eventFilter@QObject@@UAE_NPAV1@PAVQEvent@@@Z 00416086 f   Qt5Core:Qt5Core.dll
 0001:0001508c       ?timerEvent@QObject@@MAEXPAVQTimerEvent@@@Z 0041608c f   Qt5Core:Qt5Core.dll
 0001:00015092       ?qRegisterResourceData@@YA_NHPBE00@Z 00416092 f   Qt5Core:Qt5Core.dll
 0001:00015098       ?qUnregisterResourceData@@YA_NHPBE00@Z 00416098 f   Qt5Core:Qt5Core.dll
 0001:0001509e       @__security_check_cookie@4 0041609e f   MSVCRT:_secchk_.obj
 0001:000150af       ??2@YAPAXI@Z               004160af f   MSVCRT:new_scalar.obj
 0001:000150e2       ??3@YAXPAXI@Z              004160e2 f   MSVCRT:delete_scalar_size.obj
 0001:000151b0       ??$__crt_fast_encode_pointer@P6GHPAU_RTL_CONDITION_VARIABLE@@PAU_RTL_CRITICAL_SECTION@@K@Z@@YAP6GHPAU_RTL_CONDITION_VARIABLE@@PAU_RTL_CRITICAL_SECTION@@K@ZQ6GH01K@Z@Z 004161b0 f i MSVCRT:thread_safe_statics.obj
 0001:000151b0       ??$__crt_fast_encode_pointer@P6GXPAU_RTL_CONDITION_VARIABLE@@@Z@@YAP6GXPAU_RTL_CONDITION_VARIABLE@@@ZQ6GX0@Z@Z 004161b0 f i MSVCRT:thread_safe_statics.obj
 0001:000151e9       __Init_thread_footer       004161e9 f   MSVCRT:thread_safe_statics.obj
 0001:00015228       __Init_thread_header       00416228 f   MSVCRT:thread_safe_statics.obj
 0001:0001526e       __Init_thread_lock         0041626e f   MSVCRT:thread_safe_statics.obj
 0001:0001527a       __Init_thread_notify       0041627a f   MSVCRT:thread_safe_statics.obj
 0001:000152bb       __Init_thread_unlock       004162bb f   MSVCRT:thread_safe_statics.obj
 0001:000152c7       __Init_thread_wait         004162c7 f   MSVCRT:thread_safe_statics.obj
 0001:0001532c       ??_Etype_info@@UAEPAXI@Z   0041632c f i MSVCRT:std_type_info_static.obj
 0001:0001532c       ??_Gtype_info@@UAEPAXI@Z   0041632c f i MSVCRT:std_type_info_static.obj
 0001:00015393       ___scrt_acquire_startup_lock 00416393 f   MSVCRT:utility.obj
 0001:000153c8       ___scrt_initialize_crt     004163c8 f   MSVCRT:utility.obj
 0001:00015401       ___scrt_initialize_onexit_tables 00416401 f   MSVCRT:utility.obj
 0001:00015498       ___scrt_is_nonwritable_in_current_image 00416498 f   MSVCRT:utility.obj
 0001:00015522       ___scrt_release_startup_lock 00416522 f   MSVCRT:utility.obj
 0001:0001553f       ___scrt_uninitialize_crt   0041653f f   MSVCRT:utility.obj
 0001:00015567       __onexit                   00416567 f   MSVCRT:utility.obj
 0001:000155a2       _atexit                    004165a2 f   MSVCRT:utility.obj
 0001:000157dd       _WinMainCRTStartup         004167dd f   MSVCRT:exe_winmain.obj
 0001:000157e7       ___raise_securityfailure   004167e7 f   MSVCRT:gs_report.obj
 0001:0001580f       ___report_gsfailure        0041680f f   MSVCRT:gs_report.obj
 0001:0001590a       ??0bad_alloc@std@@QAE@ABV01@@Z 0041690a f i MSVCRT:throw_bad_alloc.obj
 0001:00015925       ??0bad_alloc@std@@QAE@XZ   00416925 f i MSVCRT:throw_bad_alloc.obj
 0001:0001593d       ??0bad_array_new_length@std@@QAE@ABV01@@Z 0041693d f i MSVCRT:throw_bad_alloc.obj
 0001:00015958       ??0bad_array_new_length@std@@QAE@XZ 00416958 f i MSVCRT:throw_bad_alloc.obj
 0001:00015970       ??0exception@std@@QAE@ABV01@@Z 00416970 f i MSVCRT:throw_bad_alloc.obj
 0001:0001599c       ??1bad_array_new_length@std@@UAE@XZ 0041699c f i MSVCRT:throw_bad_alloc.obj
 0001:0001599c       ??1bad_alloc@std@@UAE@XZ   0041699c f i MSVCRT:throw_bad_alloc.obj
 0001:000159ad       ??_Ebad_alloc@std@@UAEPAXI@Z 004169ad f i MSVCRT:throw_bad_alloc.obj
 0001:000159ad       ??_Gbad_array_new_length@std@@UAEPAXI@Z 004169ad f i MSVCRT:throw_bad_alloc.obj
 0001:000159ad       ??_Gbad_alloc@std@@UAEPAXI@Z 004169ad f i MSVCRT:throw_bad_alloc.obj
 0001:000159ad       ??_Eexception@std@@UAEPAXI@Z 004169ad f i MSVCRT:throw_bad_alloc.obj
 0001:000159ad       ??_Gexception@std@@UAEPAXI@Z 004169ad f i MSVCRT:throw_bad_alloc.obj
 0001:000159ad       ??_Ebad_array_new_length@std@@UAEPAXI@Z 004169ad f i MSVCRT:throw_bad_alloc.obj
 0001:000159da       ?__scrt_throw_std_bad_alloc@@YAXXZ 004169da f   MSVCRT:throw_bad_alloc.obj
 0001:000159f7       ?__scrt_throw_std_bad_array_new_length@@YAXXZ 004169f7 f   MSVCRT:throw_bad_alloc.obj
 0001:00015a14       ?what@exception@std@@UBEPBDXZ 00416a14 f i MSVCRT:throw_bad_alloc.obj
 0001:00015a21       ??3@YAXPAX@Z               00416a21 f   MSVCRT:delete_scalar.obj
 0001:00015a26       ___scrt_fastfail           00416a26 f   MSVCRT:utility_desktop.obj
 0001:00015b41       ___scrt_get_show_window_mode 00416b41 f   MSVCRT:utility_desktop.obj
 0001:00015b74       ___scrt_is_managed_app     00416b74 f   MSVCRT:utility_desktop.obj
 0001:00015bb8       ___scrt_set_unhandled_exception_filter 00416bb8 f   MSVCRT:utility_desktop.obj
 0001:00015bc4       ___scrt_unhandled_exception_filter@4 00416bc4 f   MSVCRT:utility_desktop.obj
 0001:00015c05       @_guard_check_icall@4      00416c05 f i MSVCRT:checkcfg.obj
 0001:00015c0b       ___isa_available_init      00416c0b f   MSVCRT:_cpu_disp_.obj
 0001:00015da5       __get_startup_argv_mode    00416da5 f   MSVCRT:argv_mode.obj
 0001:00015da9       ___scrt_is_ucrt_dll_in_use 00416da9 f   MSVCRT:ucrt_detection.obj
 0001:00015dc0       __SEH_prolog4              00416dc0 f   MSVCRT:_sehprolg4_.obj
 0001:00015e06       __SEH_epilog4              00416e06 f   MSVCRT:_sehprolg4_.obj
 0001:00015e1b       __except_handler4          00416e1b f   MSVCRT:_chandler4gs_.obj
 0001:00015e3e       ___security_init_cookie    00416e3e f   MSVCRT:gs_support.obj
 0001:00015eda       __get_startup_new_mode     00416eda f   MSVCRT:new_mode.obj
 0001:00015eda       __get_startup_thread_locale_mode 00416eda f   MSVCRT:thread_locale.obj
 0001:00015eda       ___scrt_initialize_winrt   00416eda f   MSVCRT:utility_desktop.obj
 0001:00015eda       __get_startup_commit_mode  00416eda f   MSVCRT:commit_mode.obj
 0001:00015eda       __matherr                  00416eda f   MSVCRT:matherr.obj
 0001:00015edd       __get_startup_file_mode    00416edd f   MSVCRT:file_mode.obj
 0001:00015ee3       ?__scrt_initialize_type_info@@YAXXZ 00416ee3 f   MSVCRT:tncleanup.obj
 0001:00015eef       __initialize_default_precision 00416eef f   MSVCRT:default_precision.obj
 0001:00015f10       ___local_stdio_printf_options 00416f10 f i MSVCRT:default_local_stdio_options.obj
 0001:00015f16       ___local_stdio_scanf_options 00416f16 f i MSVCRT:default_local_stdio_options.obj
 0001:00015f1c       ___scrt_initialize_default_local_stdio_options 00416f1c f   MSVCRT:default_local_stdio_options.obj
 0001:00015f39       ___scrt_is_user_matherr_present 00416f39 f   MSVCRT:matherr_detection.obj
 0001:00015f45       ___scrt_get_dyn_tls_init_callback 00416f45 f   MSVCRT:dyn_tls_init.obj
 0001:00015f4b       ___scrt_get_dyn_tls_dtor_callback 00416f4b f   MSVCRT:dyn_tls_dtor.obj
 0001:00015f51       __RTC_Initialize           00416f51 f   MSVCRT:_initsect_.obj
 0001:00015f7c       __RTC_Terminate            00416f7c f   MSVCRT:_initsect_.obj
 0001:00015fa8       _IsProcessorFeaturePresent@4 00416fa8 f   kernel32:KERNEL32.dll
 0001:00015fae       ___CxxFrameHandler3        00416fae f   vcruntime:VCRUNTIME140.dll
 0001:00015fb4       ___std_terminate           00416fb4 f   vcruntime:VCRUNTIME140.dll
 0001:00015fba       __CxxThrowException@8      00416fba f   vcruntime:VCRUNTIME140.dll
 0001:00015fc0       _memcpy                    00416fc0 f   vcruntime:VCRUNTIME140.dll
 0001:00015fc6       ___RTDynamicCast           00416fc6 f   vcruntime:VCRUNTIME140.dll
 0001:00015fcc       ___vcrt_InitializeCriticalSectionEx 00416fcc f   vcruntime:VCRUNTIME140.dll
 0001:00015fd2       ___std_exception_copy      00416fd2 f   vcruntime:VCRUNTIME140.dll
 0001:00015fd8       ___std_exception_destroy   00416fd8 f   vcruntime:VCRUNTIME140.dll
 0001:00015fde       _memset                    00416fde f   vcruntime:VCRUNTIME140.dll
 0001:00015fe4       __except_handler4_common   00416fe4 f   vcruntime:VCRUNTIME140.dll
 0001:00015fea       _free                      00416fea f   ucrt:api-ms-win-crt-heap-l1-1-0.dll
 0001:00015ff0       _malloc                    00416ff0 f   ucrt:api-ms-win-crt-heap-l1-1-0.dll
 0001:00015ff6       __callnewh                 00416ff6 f   ucrt:api-ms-win-crt-heap-l1-1-0.dll
 0001:00015ffe       __configure_narrow_argv    00416ffe f   ucrt:api-ms-win-crt-runtime-l1-1-0.dll
 0001:00016004       __initialize_narrow_environment 00417004 f   ucrt:api-ms-win-crt-runtime-l1-1-0.dll
 0001:0001600a       __initialize_onexit_table  0041700a f   ucrt:api-ms-win-crt-runtime-l1-1-0.dll
 0001:00016010       __register_onexit_function 00417010 f   ucrt:api-ms-win-crt-runtime-l1-1-0.dll
 0001:00016016       __crt_atexit               00417016 f   ucrt:api-ms-win-crt-runtime-l1-1-0.dll
 0001:0001601c       __cexit                    0041701c f   ucrt:api-ms-win-crt-runtime-l1-1-0.dll
 0001:00016022       __seh_filter_exe           00417022 f   ucrt:api-ms-win-crt-runtime-l1-1-0.dll
 0001:00016028       __set_app_type             00417028 f   ucrt:api-ms-win-crt-runtime-l1-1-0.dll
 0001:0001602e       ___setusermatherr          0041702e f   ucrt:api-ms-win-crt-math-l1-1-0.dll
 0001:00016034       __get_narrow_winmain_command_line 00417034 f   ucrt:api-ms-win-crt-runtime-l1-1-0.dll
 0001:0001603a       __initterm                 0041703a f   ucrt:api-ms-win-crt-runtime-l1-1-0.dll
 0001:00016040       __initterm_e               00417040 f   ucrt:api-ms-win-crt-runtime-l1-1-0.dll
 0001:00016046       _exit                      00417046 f   ucrt:api-ms-win-crt-runtime-l1-1-0.dll
 0001:0001604c       __exit                     0041704c f   ucrt:api-ms-win-crt-runtime-l1-1-0.dll
 0001:00016052       __set_fmode                00417052 f   ucrt:api-ms-win-crt-stdio-l1-1-0.dll
 0001:00016058       __c_exit                   00417058 f   ucrt:api-ms-win-crt-runtime-l1-1-0.dll
 0001:0001605e       __register_thread_local_exe_atexit_callback 0041705e f   ucrt:api-ms-win-crt-runtime-l1-1-0.dll
 0001:00016064       __configthreadlocale       00417064 f   ucrt:api-ms-win-crt-locale-l1-1-0.dll
 0001:0001606a       __set_new_mode             0041706a f   ucrt:api-ms-win-crt-heap-l1-1-0.dll
 0001:00016070       ___p__commode              00417070 f   ucrt:api-ms-win-crt-stdio-l1-1-0.dll
 0001:00016076       _terminate                 00417076 f   ucrt:api-ms-win-crt-runtime-l1-1-0.dll
 0001:0001607c       __controlfp_s              0041707c f   ucrt:api-ms-win-crt-runtime-l1-1-0.dll
 0001:00016090       _WinMain@16                00417090 f   qtmain:qtmain_win.obj
 0001:000161ae       ??_U@YAPAXI@Z              004171ae f   MSVCRT:new_array.obj
 0001:000161b7       ??_V@YAXPAX@Z              004171b7 f   MSVCRT:delete_array.obj
 0001:000161bc       ___scrt_stub_for_acrt_uninitialize 004171bc f   MSVCRT:ucrt_stubs.obj
 0001:000161bc       __should_initialize_environment 004171bc f   MSVCRT:env_mode.obj
 0001:000161bc       ___acrt_uninitialize       004171bc f   MSVCRT:ucrt_stubs.obj
 0001:000161bc       ___scrt_stub_for_acrt_initialize 004171bc f   MSVCRT:ucrt_stubs.obj
 0001:000161bc       ___vcrt_initialize         004171bc f   MSVCRT:ucrt_stubs.obj
 0001:000161bc       ___vcrt_uninitialize       004171bc f   MSVCRT:ucrt_stubs.obj
 0001:000161bc       ___acrt_initialize         004171bc f   MSVCRT:ucrt_stubs.obj
 0001:00018be0       ??__Ff@?4??registerConverter@?$ValueTypeIsMetaType@V?$QList@H@@$00@QtPrivate@@SA_NH@Z@YAXXZ 00419be0 f i moc_workmodels.obj
 0001:00018c30       ??__Ff@?4??registerConverter@?$ValueTypeIsMetaType@V?$QList@PAVQObject@@@@$00@QtPrivate@@SA_NH@Z@YAXXZ 00419c30 f i moc_workmodels.obj
 0002:00000000       __imp__WideCharToMultiByte@32 0041a000     kernel32:KERNEL32.dll
 0002:00000004       __imp__LocalFree@4         0041a004     kernel32:KERNEL32.dll
 0002:00000008       __imp__GetCommandLineW@0   0041a008     kernel32:KERNEL32.dll
 0002:0000000c       __imp__InitializeSListHead@4 0041a00c     kernel32:KERNEL32.dll
 0002:00000010       __imp__GetSystemTimeAsFileTime@4 0041a010     kernel32:KERNEL32.dll
 0002:00000014       __imp__QueryPerformanceCounter@4 0041a014     kernel32:KERNEL32.dll
 0002:00000018       __imp__GetStartupInfoW@4   0041a018     kernel32:KERNEL32.dll
 0002:0000001c       __imp__IsDebuggerPresent@0 0041a01c     kernel32:KERNEL32.dll
 0002:00000020       __imp__IsProcessorFeaturePresent@4 0041a020     kernel32:KERNEL32.dll
 0002:00000024       __imp__TerminateProcess@8  0041a024     kernel32:KERNEL32.dll
 0002:00000028       __imp__UnhandledExceptionFilter@4 0041a028     kernel32:KERNEL32.dll
 0002:0000002c       __imp__GetProcAddress@8    0041a02c     kernel32:KERNEL32.dll
 0002:00000030       __imp__GetModuleHandleW@4  0041a030     kernel32:KERNEL32.dll
 0002:00000034       __imp__CreateEventW@16     0041a034     kernel32:KERNEL32.dll
 0002:00000038       __imp__WaitForSingleObjectEx@12 0041a038     kernel32:KERNEL32.dll
 0002:0000003c       __imp__ResetEvent@4        0041a03c     kernel32:KERNEL32.dll
 0002:00000040       __imp__SetEvent@4          0041a040     kernel32:KERNEL32.dll
 0002:00000044       __imp__DeleteCriticalSection@4 0041a044     kernel32:KERNEL32.dll
 0002:00000048       __imp__LeaveCriticalSection@4 0041a048     kernel32:KERNEL32.dll
 0002:0000004c       __imp__EnterCriticalSection@4 0041a04c     kernel32:KERNEL32.dll
 0002:00000050       __imp__GetCurrentThreadId@0 0041a050     kernel32:KERNEL32.dll
 0002:00000054       __imp__GetCurrentProcessId@0 0041a054     kernel32:KERNEL32.dll
 0002:00000058       __imp__GetCurrentProcess@0 0041a058     kernel32:KERNEL32.dll
 0002:0000005c       __imp__SetUnhandledExceptionFilter@4 0041a05c     kernel32:KERNEL32.dll
 0002:00000060       __imp__CloseHandle@4       0041a060     kernel32:KERNEL32.dll
 0002:00000064       __imp__CreateFileW@28      0041a064     kernel32:KERNEL32.dll
 0002:00000068       \177KERNEL32_NULL_THUNK_DATA 0041a068     kernel32:KERNEL32.dll
 0002:0000006c       __imp_?unregisterConverterFunction@QMetaType@@SAXHH@Z 0041a06c     Qt5Core:Qt5Core.dll
 0002:00000070       __imp_?registerConverterFunction@QMetaType@@SA_NPBUAbstractConverterFunction@QtPrivate@@HH@Z 0041a070     Qt5Core:Qt5Core.dll
 0002:00000074       __imp_?hasRegisteredConverterFunction@QMetaType@@SA_NHH@Z 0041a074     Qt5Core:Qt5Core.dll
 0002:00000078       __imp_?typeName@QMetaType@@SAPBDH@Z 0041a078     Qt5Core:Qt5Core.dll
 0002:0000007c       __imp_?append@QByteArray@@QAEAAV1@PBDH@Z 0041a07c     Qt5Core:Qt5Core.dll
 0002:00000080       __imp_?endsWith@QByteArray@@QBE_ND@Z 0041a080     Qt5Core:Qt5Core.dll
 0002:00000084       __imp_?normalizedType@QMetaObject@@SA?AVQByteArray@@PBD@Z 0041a084     Qt5Core:Qt5Core.dll
 0002:00000088       __imp_?qt_metacall@QObject@@UAEHW4Call@QMetaObject@@HPAPAX@Z 0041a088     Qt5Core:Qt5Core.dll
 0002:0000008c       __imp_?qt_metacast@QObject@@UAEPAXPBD@Z 0041a08c     Qt5Core:Qt5Core.dll
 0002:00000090       __imp_?dynamicMetaObject@QObjectData@@QBEPAUQMetaObject@@XZ 0041a090     Qt5Core:Qt5Core.dll
 0002:00000094       __imp_?activate@QMetaObject@@SAXPAVQObject@@PBU1@HPAPAX@Z 0041a094     Qt5Core:Qt5Core.dll
 0002:00000098       __imp_?staticMetaObject@QObject@@2UQMetaObject@@B 0041a098     Qt5Core:Qt5Core.dll
 0002:0000009c       __imp_?qUnregisterResourceData@@YA_NHPBE00@Z 0041a09c     Qt5Core:Qt5Core.dll
 0002:000000a0       __imp_?qRegisterResourceData@@YA_NHPBE00@Z 0041a0a0     Qt5Core:Qt5Core.dll
 0002:000000a4       __imp_?disconnectImpl@QObject@@CA_NPBV1@PAPAX01PBUQMetaObject@@@Z 0041a0a4     Qt5Core:Qt5Core.dll
 0002:000000a8       __imp_?removeEventFilter@QObject@@QAEXPAV1@@Z 0041a0a8     Qt5Core:Qt5Core.dll
 0002:000000ac       __imp_?installEventFilter@QObject@@QAEXPAV1@@Z 0041a0ac     Qt5Core:Qt5Core.dll
 0002:000000b0       __imp_?cast@QMetaObject@@QBEPAVQObject@@PAV2@@Z 0041a0b0     Qt5Core:Qt5Core.dll
 0002:000000b4       __imp_??0QMessageLogger@@QAE@PBDH0@Z 0041a0b4     Qt5Core:Qt5Core.dll
 0002:000000b8       __imp_?warning@QMessageLogger@@QBAXPBDZZ 0041a0b8     Qt5Core:Qt5Core.dll
 0002:000000bc       __imp_??0QByteArray@@QAE@PBDH@Z 0041a0bc     Qt5Core:Qt5Core.dll
 0002:000000c0       __imp_??0QString@@QAE@XZ   0041a0c0     Qt5Core:Qt5Core.dll
 0002:000000c4       __imp_??1QString@@QAE@XZ   0041a0c4     Qt5Core:Qt5Core.dll
 0002:000000c8       __imp_?isOpen@QIODevice@@QBE_NXZ 0041a0c8     Qt5Core:Qt5Core.dll
 0002:000000cc       __imp_?isWritable@QIODevice@@QBE_NXZ 0041a0cc     Qt5Core:Qt5Core.dll
 0002:000000d0       __imp_?read@QIODevice@@QAE?AVQByteArray@@_J@Z 0041a0d0     Qt5Core:Qt5Core.dll
 0002:000000d4       __imp_?write@QIODevice@@QAE_JABVQByteArray@@@Z 0041a0d4     Qt5Core:Qt5Core.dll
 0002:000000d8       __imp_?debug@QMessageLogger@@QBE?AVQDebug@@XZ 0041a0d8     Qt5Core:Qt5Core.dll
 0002:000000dc       __imp_??0QChar@@QAE@H@Z    0041a0dc     Qt5Core:Qt5Core.dll
 0002:000000e0       __imp_??0QByteArray@@QAE@XZ 0041a0e0     Qt5Core:Qt5Core.dll
 0002:000000e4       __imp_??0QByteArray@@QAE@ABV0@@Z 0041a0e4     Qt5Core:Qt5Core.dll
 0002:000000e8       __imp_??1QByteArray@@QAE@XZ 0041a0e8     Qt5Core:Qt5Core.dll
 0002:000000ec       __imp_??4QByteArray@@QAEAAV0@$$QAV0@@Z 0041a0ec     Qt5Core:Qt5Core.dll
 0002:000000f0       __imp_?data@QByteArray@@QAEPADXZ 0041a0f0     Qt5Core:Qt5Core.dll
 0002:000000f4       __imp_?data@QByteArray@@QBEPBDXZ 0041a0f4     Qt5Core:Qt5Core.dll
 0002:000000f8       __imp_?left@QByteArray@@QBE?AV1@H@Z 0041a0f8     Qt5Core:Qt5Core.dll
 0002:000000fc       __imp_?right@QByteArray@@QBE?AV1@H@Z 0041a0fc     Qt5Core:Qt5Core.dll
 0002:00000100       __imp_?append@QByteArray@@QAEAAV1@ABV1@@Z 0041a100     Qt5Core:Qt5Core.dll
 0002:00000104       __imp_?remove@QByteArray@@QAEAAV1@HH@Z 0041a104     Qt5Core:Qt5Core.dll
 0002:00000108       __imp_??0QString@@QAE@ABV0@@Z 0041a108     Qt5Core:Qt5Core.dll
 0002:0000010c       __imp_??4QString@@QAEAAV0@ABV0@@Z 0041a10c     Qt5Core:Qt5Core.dll
 0002:00000110       __imp_?at@QString@@QBE?BVQChar@@H@Z 0041a110     Qt5Core:Qt5Core.dll
 0002:00000114       __imp_?right@QString@@QBE?AV1@H@Z 0041a114     Qt5Core:Qt5Core.dll
 0002:00000118       __imp_?toInt@QString@@QBEHPA_NH@Z 0041a118     Qt5Core:Qt5Core.dll
 0002:0000011c       __imp_??8@YA_NABVQString@@0@Z 0041a11c     Qt5Core:Qt5Core.dll
 0002:00000120       __imp_??8QString@@QBE_NPBD@Z 0041a120     Qt5Core:Qt5Core.dll
 0002:00000124       __imp_?fromAscii_helper@QString@@CAPAU?$QTypedArrayData@G@@PBDH@Z 0041a124     Qt5Core:Qt5Core.dll
 0002:00000128       __imp_??0QJsonValue@@QAE@_N@Z 0041a128     Qt5Core:Qt5Core.dll
 0002:0000012c       __imp_??0QJsonValue@@QAE@H@Z 0041a12c     Qt5Core:Qt5Core.dll
 0002:00000130       __imp_??0QJsonValue@@QAE@ABVQString@@@Z 0041a130     Qt5Core:Qt5Core.dll
 0002:00000134       __imp_??0QJsonValue@@QAE@PBD@Z 0041a134     Qt5Core:Qt5Core.dll
 0002:00000138       __imp_??1QJsonValue@@QAE@XZ 0041a138     Qt5Core:Qt5Core.dll
 0002:0000013c       __imp_?toInt@QJsonValue@@QBEHH@Z 0041a13c     Qt5Core:Qt5Core.dll
 0002:00000140       __imp_?toString@QJsonValue@@QBE?AVQString@@XZ 0041a140     Qt5Core:Qt5Core.dll
 0002:00000144       __imp_?toArray@QJsonValue@@QBE?AVQJsonArray@@XZ 0041a144     Qt5Core:Qt5Core.dll
 0002:00000148       __imp_?toObject@QJsonValue@@QBE?AVQJsonObject@@XZ 0041a148     Qt5Core:Qt5Core.dll
 0002:0000014c       __imp_??4QJsonValueRef@@QAEAAV0@ABVQJsonValue@@@Z 0041a14c     Qt5Core:Qt5Core.dll
 0002:00000150       __imp_??4QJsonValueRef@@QAEAAV0@ABV0@@Z 0041a150     Qt5Core:Qt5Core.dll
 0002:00000154       __imp_?toString@QJsonValueRef@@QBE?AVQString@@XZ 0041a154     Qt5Core:Qt5Core.dll
 0002:00000158       __imp_?toArray@QJsonValueRef@@QBE?AVQJsonArray@@XZ 0041a158     Qt5Core:Qt5Core.dll
 0002:0000015c       __imp_?toObject@QJsonValueRef@@QBE?AVQJsonObject@@XZ 0041a15c     Qt5Core:Qt5Core.dll
 0002:00000160       __imp_?toValue@QJsonValueRef@@ABE?AVQJsonValue@@XZ 0041a160     Qt5Core:Qt5Core.dll
 0002:00000164       __imp_??0QJsonObject@@QAE@XZ 0041a164     Qt5Core:Qt5Core.dll
 0002:00000168       __imp_??1QJsonObject@@QAE@XZ 0041a168     Qt5Core:Qt5Core.dll
 0002:0000016c       __imp_??4QJsonObject@@QAEAAV0@ABV0@@Z 0041a16c     Qt5Core:Qt5Core.dll
 0002:00000170       __imp_??AQJsonObject@@QBE?AVQJsonValue@@ABVQString@@@Z 0041a170     Qt5Core:Qt5Core.dll
 0002:00000174       __imp_??AQJsonObject@@QAE?AVQJsonValueRef@@ABVQString@@@Z 0041a174     Qt5Core:Qt5Core.dll
 0002:00000178       __imp_??1Connection@QMetaObject@@QAE@XZ 0041a178     Qt5Core:Qt5Core.dll
 0002:0000017c       __imp_?detach@QListData@@QAEPAUData@1@H@Z 0041a17c     Qt5Core:Qt5Core.dll
 0002:00000180       __imp_?detach_grow@QListData@@QAEPAUData@1@PAHH@Z 0041a180     Qt5Core:Qt5Core.dll
 0002:00000184       __imp_?dispose@QListData@@SAXPAUData@1@@Z 0041a184     Qt5Core:Qt5Core.dll
 0002:00000188       __imp_?erase@QListData@@QAEPAPAXPAPAX@Z 0041a188     Qt5Core:Qt5Core.dll
 0002:0000018c       __imp_?append@QListData@@QAEPAPAXXZ 0041a18c     Qt5Core:Qt5Core.dll
 0002:00000190       __imp_?isEmpty@QListData@@QBE_NXZ 0041a190     Qt5Core:Qt5Core.dll
 0002:00000194       __imp_?begin@QListData@@QBEPAPAXXZ 0041a194     Qt5Core:Qt5Core.dll
 0002:00000198       __imp_?end@QListData@@QBEPAPAXXZ 0041a198     Qt5Core:Qt5Core.dll
 0002:0000019c       __imp_??0QObject@@QAE@PAV0@@Z 0041a19c     Qt5Core:Qt5Core.dll
 0002:000001a0       __imp_??1QObject@@UAE@XZ   0041a1a0     Qt5Core:Qt5Core.dll
 0002:000001a4       __imp_?moveToThread@QObject@@QAEXPAVQThread@@@Z 0041a1a4     Qt5Core:Qt5Core.dll
 0002:000001a8       __imp_?deleteLater@QObject@@QAEXXZ 0041a1a8     Qt5Core:Qt5Core.dll
 0002:000001ac       __imp_?connectImpl@QObject@@CA?AVConnection@QMetaObject@@PBV1@PAPAX01PAVQSlotObjectBase@QtPrivate@@W4ConnectionType@Qt@@PBHPBU3@@Z 0041a1ac     Qt5Core:Qt5Core.dll
 0002:000001b0       __imp_??0QThread@@QAE@PAVQObject@@@Z 0041a1b0     Qt5Core:Qt5Core.dll
 0002:000001b4       __imp_??1QThread@@UAE@XZ   0041a1b4     Qt5Core:Qt5Core.dll
 0002:000001b8       __imp_?isRunning@QThread@@QBE_NXZ 0041a1b8     Qt5Core:Qt5Core.dll
 0002:000001bc       __imp_?start@QThread@@QAEXW4Priority@1@@Z 0041a1bc     Qt5Core:Qt5Core.dll
 0002:000001c0       __imp_?quit@QThread@@QAEXXZ 0041a1c0     Qt5Core:Qt5Core.dll
 0002:000001c4       __imp_?wait@QThread@@QAE_NK@Z 0041a1c4     Qt5Core:Qt5Core.dll
 0002:000001c8       __imp_?msleep@QThread@@SAXK@Z 0041a1c8     Qt5Core:Qt5Core.dll
 0002:000001cc       __imp_?finished@QThread@@QAEXUQPrivateSignal@1@@Z 0041a1cc     Qt5Core:Qt5Core.dll
 0002:000001d0       __imp_?readAll@QIODevice@@QAE?AVQByteArray@@XZ 0041a1d0     Qt5Core:Qt5Core.dll
 0002:000001d4       __imp_?hex@@YAAAVQTextStream@@AAV1@@Z 0041a1d4     Qt5Core:Qt5Core.dll
 0002:000001d8       __imp_??1QDebug@@QAE@XZ    0041a1d8     Qt5Core:Qt5Core.dll
 0002:000001dc       __imp_??6QDebug@@QAEAAV0@H@Z 0041a1dc     Qt5Core:Qt5Core.dll
 0002:000001e0       __imp_??6QDebug@@QAEAAV0@PBD@Z 0041a1e0     Qt5Core:Qt5Core.dll
 0002:000001e4       __imp_??6QDebug@@QAEAAV0@ABVQByteArray@@@Z 0041a1e4     Qt5Core:Qt5Core.dll
 0002:000001e8       __imp_??6QDebug@@QAEAAV0@P6AAAVQTextStream@@AAV1@@Z@Z 0041a1e8     Qt5Core:Qt5Core.dll
 0002:000001ec       __imp_??0QEvent@@QAE@W4Type@0@@Z 0041a1ec     Qt5Core:Qt5Core.dll
 0002:000001f0       __imp_??1QEvent@@UAE@XZ    0041a1f0     Qt5Core:Qt5Core.dll
 0002:000001f4       __imp_??1QJsonDocument@@QAE@XZ 0041a1f4     Qt5Core:Qt5Core.dll
 0002:000001f8       __imp_?fromJson@QJsonDocument@@SA?AV1@ABVQByteArray@@PAUQJsonParseError@@@Z 0041a1f8     Qt5Core:Qt5Core.dll
 0002:000001fc       __imp_?object@QJsonDocument@@QBE?AVQJsonObject@@XZ 0041a1fc     Qt5Core:Qt5Core.dll
 0002:00000200       __imp_??1QJsonArray@@QAE@XZ 0041a200     Qt5Core:Qt5Core.dll
 0002:00000204       __imp_?size@QJsonArray@@QBEHXZ 0041a204     Qt5Core:Qt5Core.dll
 0002:00000208       __imp_??AQJsonArray@@QAE?AVQJsonValueRef@@H@Z 0041a208     Qt5Core:Qt5Core.dll
 0002:0000020c       __imp_?start@QElapsedTimer@@QAEXXZ 0041a20c     Qt5Core:Qt5Core.dll
 0002:00000210       __imp_?restart@QElapsedTimer@@QAE_JXZ 0041a210     Qt5Core:Qt5Core.dll
 0002:00000214       __imp_?elapsed@QElapsedTimer@@QBE_JXZ 0041a214     Qt5Core:Qt5Core.dll
 0002:00000218       __imp_?close@QFileDevice@@UAEXXZ 0041a218     Qt5Core:Qt5Core.dll
 0002:0000021c       __imp_??0QFile@@QAE@ABVQString@@@Z 0041a21c     Qt5Core:Qt5Core.dll
 0002:00000220       __imp_??1QFile@@UAE@XZ     0041a220     Qt5Core:Qt5Core.dll
 0002:00000224       __imp_?open@QFile@@UAE_NV?$QFlags@W4OpenModeFlag@QIODevice@@@@@Z 0041a224     Qt5Core:Qt5Core.dll
 0002:00000228       __imp_?postEvent@QCoreApplication@@SAXPAVQObject@@PAVQEvent@@H@Z 0041a228     Qt5Core:Qt5Core.dll
 0002:0000022c       __imp_?childEvent@QObject@@MAEXPAVQChildEvent@@@Z 0041a22c     Qt5Core:Qt5Core.dll
 0002:00000230       __imp_?connectNotify@QObject@@MAEXABVQMetaMethod@@@Z 0041a230     Qt5Core:Qt5Core.dll
 0002:00000234       __imp_?customEvent@QObject@@MAEXPAVQEvent@@@Z 0041a234     Qt5Core:Qt5Core.dll
 0002:00000238       __imp_?disconnectNotify@QObject@@MAEXABVQMetaMethod@@@Z 0041a238     Qt5Core:Qt5Core.dll
 0002:0000023c       __imp_?event@QObject@@UAE_NPAVQEvent@@@Z 0041a23c     Qt5Core:Qt5Core.dll
 0002:00000240       __imp_?eventFilter@QObject@@UAE_NPAV1@PAVQEvent@@@Z 0041a240     Qt5Core:Qt5Core.dll
 0002:00000244       __imp_?timerEvent@QObject@@MAEXPAVQTimerEvent@@@Z 0041a244     Qt5Core:Qt5Core.dll
 0002:00000248       __imp_?shared_null@QListData@@2UData@1@B 0041a248     Qt5Core:Qt5Core.dll
 0002:0000024c       __imp_?staticMetaObject@QThread@@2UQMetaObject@@B 0041a24c     Qt5Core:Qt5Core.dll
 0002:00000250       __imp_?self@QCoreApplication@@0PAV1@A 0041a250     Qt5Core:Qt5Core.dll
 0002:00000254       __imp_?fatal@QMessageLogger@@QBAXPBDZZ 0041a254     Qt5Core:Qt5Core.dll
 0002:00000258       __imp_?clear@QByteArray@@QAEXXZ 0041a258     Qt5Core:Qt5Core.dll
 0002:0000025c       __imp_??4QString@@QAEAAV0@$$QAV0@@Z 0041a25c     Qt5Core:Qt5Core.dll
 0002:00000260       __imp_?toLocal8Bit@QString@@QHAE?AVQByteArray@@XZ 0041a260     Qt5Core:Qt5Core.dll
 0002:00000264       __imp_?number@QString@@SA?AV1@HH@Z 0041a264     Qt5Core:Qt5Core.dll
 0002:00000268       __imp_?number@QString@@SA?AV1@NDH@Z 0041a268     Qt5Core:Qt5Core.dll
 0002:0000026c       __imp_??M@YA_NABVQString@@0@Z 0041a26c     Qt5Core:Qt5Core.dll
 0002:00000270       __imp_??0QJsonValue@@QAE@N@Z 0041a270     Qt5Core:Qt5Core.dll
 0002:00000274       __imp_??0QJsonValue@@QAE@ABVQJsonArray@@@Z 0041a274     Qt5Core:Qt5Core.dll
 0002:00000278       __imp_??0QJsonValue@@QAE@ABVQJsonObject@@@Z 0041a278     Qt5Core:Qt5Core.dll
 0002:0000027c       __imp_??0QJsonValue@@QAE@ABV0@@Z 0041a27c     Qt5Core:Qt5Core.dll
 0002:00000280       __imp_?toBool@QJsonValue@@QBE_N_N@Z 0041a280     Qt5Core:Qt5Core.dll
 0002:00000284       __imp_?toDouble@QJsonValue@@QBENN@Z 0041a284     Qt5Core:Qt5Core.dll
 0002:00000288       __imp_??BQJsonValueRef@@QBE?AVQJsonValue@@XZ 0041a288     Qt5Core:Qt5Core.dll
 0002:0000028c       __imp_?remove@QJsonObject@@QAEXABVQString@@@Z 0041a28c     Qt5Core:Qt5Core.dll
 0002:00000290       __imp_?begin@QJsonObject@@QAE?AViterator@1@XZ 0041a290     Qt5Core:Qt5Core.dll
 0002:00000294       __imp_?end@QJsonObject@@QAE?AViterator@1@XZ 0041a294     Qt5Core:Qt5Core.dll
 0002:00000298       __imp_?keyAt@QJsonObject@@ABE?AVQString@@H@Z 0041a298     Qt5Core:Qt5Core.dll
 0002:0000029c       __imp_?freeNodeAndRebalance@QMapDataBase@@QAEXPAUQMapNodeBase@@@Z 0041a29c     Qt5Core:Qt5Core.dll
 0002:000002a0       __imp_?recalcMostLeftNode@QMapDataBase@@QAEXXZ 0041a2a0     Qt5Core:Qt5Core.dll
 0002:000002a4       __imp_?createNode@QMapDataBase@@QAEPAUQMapNodeBase@@HHPAU2@_N@Z 0041a2a4     Qt5Core:Qt5Core.dll
 0002:000002a8       __imp_?freeTree@QMapDataBase@@QAEXPAUQMapNodeBase@@H@Z 0041a2a8     Qt5Core:Qt5Core.dll
 0002:000002ac       __imp_?createData@QMapDataBase@@SAPAU1@XZ 0041a2ac     Qt5Core:Qt5Core.dll
 0002:000002b0       __imp_?freeData@QMapDataBase@@SAXPAU1@@Z 0041a2b0     Qt5Core:Qt5Core.dll
 0002:000002b4       __imp_?resize@QFile@@SA_NABVQString@@_J@Z 0041a2b4     Qt5Core:Qt5Core.dll
 0002:000002b8       __imp_??0QJsonDocument@@QAE@ABVQJsonObject@@@Z 0041a2b8     Qt5Core:Qt5Core.dll
 0002:000002bc       __imp_?toJson@QJsonDocument@@QBE?AVQByteArray@@XZ 0041a2bc     Qt5Core:Qt5Core.dll
 0002:000002c0       __imp_??0QJsonArray@@QAE@XZ 0041a2c0     Qt5Core:Qt5Core.dll
 0002:000002c4       __imp_?at@QJsonArray@@QBE?AVQJsonValue@@H@Z 0041a2c4     Qt5Core:Qt5Core.dll
 0002:000002c8       __imp_?append@QJsonArray@@QAEXABVQJsonValue@@@Z 0041a2c8     Qt5Core:Qt5Core.dll
 0002:000002cc       __imp_?begin@QJsonArray@@QAE?AViterator@1@XZ 0041a2cc     Qt5Core:Qt5Core.dll
 0002:000002d0       __imp_?end@QJsonArray@@QAE?AViterator@1@XZ 0041a2d0     Qt5Core:Qt5Core.dll
 0002:000002d4       __imp_??0QCryptographicHash@@QAE@W4Algorithm@0@@Z 0041a2d4     Qt5Core:Qt5Core.dll
 0002:000002d8       __imp_??1QCryptographicHash@@QAE@XZ 0041a2d8     Qt5Core:Qt5Core.dll
 0002:000002dc       __imp_?hash@QCryptographicHash@@SA?AVQByteArray@@ABV2@W4Algorithm@1@@Z 0041a2dc     Qt5Core:Qt5Core.dll
 0002:000002e0       __imp_?shared_null@QMapDataBase@@2U1@B 0041a2e0     Qt5Core:Qt5Core.dll
 0002:000002e4       __imp_??0QString@@QAE@$$QAV0@@Z 0041a2e4     Qt5Core:Qt5Core.dll
 0002:000002e8       __imp_?append@QListData@@QAEPAPAXABU1@@Z 0041a2e8     Qt5Core:Qt5Core.dll
 0002:000002ec       __imp_?insert@QListData@@QAEPAPAXH@Z 0041a2ec     Qt5Core:Qt5Core.dll
 0002:000002f0       __imp_?remove@QListData@@QAEXH@Z 0041a2f0     Qt5Core:Qt5Core.dll
 0002:000002f4       __imp_?size@QListData@@QBEHXZ 0041a2f4     Qt5Core:Qt5Core.dll
 0002:000002f8       __imp_?at@QListData@@QBEPAPAXH@Z 0041a2f8     Qt5Core:Qt5Core.dll
 0002:000002fc       __imp_?nextNode@QMapNodeBase@@QBEPBU1@XZ 0041a2fc     Qt5Core:Qt5Core.dll
 0002:00000300       __imp_??1QVariant@@QAE@XZ  0041a300     Qt5Core:Qt5Core.dll
 0002:00000304       __imp_??0QVariant@@QAE@_N@Z 0041a304     Qt5Core:Qt5Core.dll
 0002:00000308       __imp_?toInt@QVariant@@QBEHPA_N@Z 0041a308     Qt5Core:Qt5Core.dll
 0002:0000030c       __imp_?toBool@QVariant@@QBE_NXZ 0041a30c     Qt5Core:Qt5Core.dll
 0002:00000310       __imp_?toDouble@QVariant@@QBENPA_N@Z 0041a310     Qt5Core:Qt5Core.dll
 0002:00000314       __imp_?qBadAlloc@@YAXXZ    0041a314     Qt5Core:Qt5Core.dll
 0002:00000318       __imp_?qputenv@@YA_NPBDABVQByteArray@@@Z 0041a318     Qt5Core:Qt5Core.dll
 0002:0000031c       __imp_?qInstallMessageHandler@@YAP6AXW4QtMsgType@@ABVQMessageLogContext@@ABVQString@@@ZP6AX012@Z@Z 0041a31c     Qt5Core:Qt5Core.dll
 0002:00000320       __imp_??0QChar@@QAE@UQLatin1Char@@@Z 0041a320     Qt5Core:Qt5Core.dll
 0002:00000324       __imp_?reserve@QByteArray@@QAEXH@Z 0041a324     Qt5Core:Qt5Core.dll
 0002:00000328       __imp_?append@QByteArray@@QAEAAV1@D@Z 0041a328     Qt5Core:Qt5Core.dll
 0002:0000032c       __imp_?append@QByteArray@@QAEAAV1@PBD@Z 0041a32c     Qt5Core:Qt5Core.dll
 0002:00000330       __imp_?arg@QString@@QBE?AV1@ABV1@HVQChar@@@Z 0041a330     Qt5Core:Qt5Core.dll
 0002:00000334       __imp_?indexOf@QString@@QBEHVQChar@@HW4CaseSensitivity@Qt@@@Z 0041a334     Qt5Core:Qt5Core.dll
 0002:00000338       __imp_?startsWith@QString@@QBE_NABV1@W4CaseSensitivity@Qt@@@Z 0041a338     Qt5Core:Qt5Core.dll
 0002:0000033c       __imp_?append@QString@@QAEAAV1@ABV1@@Z 0041a33c     Qt5Core:Qt5Core.dll
 0002:00000340       __imp_?fromUtf8@QString@@SA?AV1@PBDH@Z 0041a340     Qt5Core:Qt5Core.dll
 0002:00000344       __imp_?fromWCharArray@QString@@SA?AV1@PB_WH@Z 0041a344     Qt5Core:Qt5Core.dll
 0002:00000348       __imp_?className@QMetaObject@@QBEPBDXZ 0041a348     Qt5Core:Qt5Core.dll
 0002:0000034c       __imp_?registerNormalizedType@QMetaType@@SAHABVQByteArray@@P6AXPAX@ZP6APAX1PBX@ZHV?$QFlags@W4TypeFlag@QMetaType@@@@PBUQMetaObject@@@Z 0041a34c     Qt5Core:Qt5Core.dll
 0002:00000350       __imp_?registerNormalizedTypedef@QMetaType@@SAHABVQByteArray@@H@Z 0041a350     Qt5Core:Qt5Core.dll
 0002:00000354       __imp_?setApplicationName@QCoreApplication@@SAXABVQString@@@Z 0041a354     Qt5Core:Qt5Core.dll
 0002:00000358       __imp_?installTranslator@QCoreApplication@@SA_NPAVQTranslator@@@Z 0041a358     Qt5Core:Qt5Core.dll
 0002:0000035c       __imp_?quit@QCoreApplication@@SAXXZ 0041a35c     Qt5Core:Qt5Core.dll
 0002:00000360       __imp_??1QLocale@@QAE@XZ   0041a360     Qt5Core:Qt5Core.dll
 0002:00000364       __imp_?toDouble@QLocale@@QBENABVQString@@PA_N@Z 0041a364     Qt5Core:Qt5Core.dll
 0002:00000368       __imp_?decimalPoint@QLocale@@QBE?AVQChar@@XZ 0041a368     Qt5Core:Qt5Core.dll
 0002:0000036c       __imp_??0QSize@@QAE@HH@Z   0041a36c     Qt5Core:Qt5Core.dll
 0002:00000370       __imp_??6@YA?AVQDebug@@V0@ABVQSizeF@@@Z 0041a370     Qt5Core:Qt5Core.dll
 0002:00000374       __imp_??0QUrl@@QAE@ABVQString@@W4ParsingMode@0@@Z 0041a374     Qt5Core:Qt5Core.dll
 0002:00000378       __imp_??1QUrl@@QAE@XZ      0041a378     Qt5Core:Qt5Core.dll
 0002:0000037c       __imp_??0QTextStream@@QAE@PAVQIODevice@@@Z 0041a37c     Qt5Core:Qt5Core.dll
 0002:00000380       __imp_??1QTextStream@@UAE@XZ 0041a380     Qt5Core:Qt5Core.dll
 0002:00000384       __imp_??6QTextStream@@QAEAAV0@ABVQString@@@Z 0041a384     Qt5Core:Qt5Core.dll
 0002:00000388       __imp_?endl@@YAAAVQTextStream@@AAV1@@Z 0041a388     Qt5Core:Qt5Core.dll
 0002:0000038c       __imp_??6QDebug@@QAEAAV0@ABVQString@@@Z 0041a38c     Qt5Core:Qt5Core.dll
 0002:00000390       __imp_??0QTranslator@@QAE@PAVQObject@@@Z 0041a390     Qt5Core:Qt5Core.dll
 0002:00000394       __imp_??1QTranslator@@UAE@XZ 0041a394     Qt5Core:Qt5Core.dll
 0002:00000398       __imp_?load@QTranslator@@QAE_NABVQString@@000@Z 0041a398     Qt5Core:Qt5Core.dll
 0002:0000039c       __imp_?currentPath@QDir@@SA?AVQString@@XZ 0041a39c     Qt5Core:Qt5Core.dll
 0002:000003a0       __imp_?toString@QTime@@QBE?AVQString@@W4DateFormat@Qt@@@Z 0041a3a0     Qt5Core:Qt5Core.dll
 0002:000003a4       __imp_?currentTime@QTime@@SA?AV1@XZ 0041a3a4     Qt5Core:Qt5Core.dll
 0002:000003a8       \177Qt5Core_NULL_THUNK_DATA 0041a3a8     Qt5Core:Qt5Core.dll
 0002:000003ac       __imp_?setMinimumSize@QWindow@@QAEXABVQSize@@@Z 0041a3ac     Qt5Gui:Qt5Gui.dll
 0002:000003b0       __imp_?show@QWindow@@QAEXXZ 0041a3b0     Qt5Gui:Qt5Gui.dll
 0002:000003b4       __imp_?locale@QValidator@@QBE?AVQLocale@@XZ 0041a3b4     Qt5Gui:Qt5Gui.dll
 0002:000003b8       __imp_??0QDoubleValidator@@QAE@PAVQObject@@@Z 0041a3b8     Qt5Gui:Qt5Gui.dll
 0002:000003bc       __imp_??1QDoubleValidator@@UAE@XZ 0041a3bc     Qt5Gui:Qt5Gui.dll
 0002:000003c0       __imp_?addApplicationFont@QFontDatabase@@SAHABVQString@@@Z 0041a3c0     Qt5Gui:Qt5Gui.dll
 0002:000003c4       __imp_?physicalSize@QScreen@@QBE?AVQSizeF@@XZ 0041a3c4     Qt5Gui:Qt5Gui.dll
 0002:000003c8       __imp_?fixup@QValidator@@UBEXAAVQString@@@Z 0041a3c8     Qt5Gui:Qt5Gui.dll
 0002:000003cc       __imp_??0QGuiApplication@@QAE@AAHPAPADH@Z 0041a3cc     Qt5Gui:Qt5Gui.dll
 0002:000003d0       __imp_??1QGuiApplication@@UAE@XZ 0041a3d0     Qt5Gui:Qt5Gui.dll
 0002:000003d4       __imp_?setFont@QGuiApplication@@SAXABVQFont@@@Z 0041a3d4     Qt5Gui:Qt5Gui.dll
 0002:000003d8       __imp_?exec@QGuiApplication@@SAHXZ 0041a3d8     Qt5Gui:Qt5Gui.dll
 0002:000003dc       __imp_??0QFont@@QAE@XZ     0041a3dc     Qt5Gui:Qt5Gui.dll
 0002:000003e0       __imp_??1QFont@@QAE@XZ     0041a3e0     Qt5Gui:Qt5Gui.dll
 0002:000003e4       __imp_?setFamily@QFont@@QAEXABVQString@@@Z 0041a3e4     Qt5Gui:Qt5Gui.dll
 0002:000003e8       __imp_?staticMetaObject@QDoubleValidator@@2UQMetaObject@@B 0041a3e8     Qt5Gui:Qt5Gui.dll
 0002:000003ec       __imp_?setRange@QDoubleValidator@@UAEXNNH@Z 0041a3ec     Qt5Gui:Qt5Gui.dll
 0002:000003f0       __imp_?qt_metacast@QDoubleValidator@@UAEPAXPBD@Z 0041a3f0     Qt5Gui:Qt5Gui.dll
 0002:000003f4       __imp_?qt_metacall@QDoubleValidator@@UAEHW4Call@QMetaObject@@HPAPAX@Z 0041a3f4     Qt5Gui:Qt5Gui.dll
 0002:000003f8       __imp_?metaObject@QDoubleValidator@@UBEPBUQMetaObject@@XZ 0041a3f8     Qt5Gui:Qt5Gui.dll
 0002:000003fc       __imp_?screen@QWindow@@QBEPAVQScreen@@XZ 0041a3fc     Qt5Gui:Qt5Gui.dll
 0002:00000400       \177Qt5Gui_NULL_THUNK_DATA 0041a400     Qt5Gui:Qt5Gui.dll
 0002:00000404       __imp_??0QHostAddress@@QAE@ABVQString@@@Z 0041a404     Qt5Network:Qt5Network.dll
 0002:00000408       __imp_??1QHostAddress@@QAE@XZ 0041a408     Qt5Network:Qt5Network.dll
 0002:0000040c       __imp_??0QNetworkProxy@@QAE@W4ProxyType@0@ABVQString@@G11@Z 0041a40c     Qt5Network:Qt5Network.dll
 0002:00000410       __imp_??1QNetworkProxy@@QAE@XZ 0041a410     Qt5Network:Qt5Network.dll
 0002:00000414       __imp_??1QTcpSocket@@UAE@XZ 0041a414     Qt5Network:Qt5Network.dll
 0002:00000418       __imp_??0QTcpSocket@@QAE@PAVQObject@@@Z 0041a418     Qt5Network:Qt5Network.dll
 0002:0000041c       __imp_?setProxy@QAbstractSocket@@QAEXABVQNetworkProxy@@@Z 0041a41c     Qt5Network:Qt5Network.dll
 0002:00000420       \177Qt5Network_NULL_THUNK_DATA 0041a420     Qt5Network:Qt5Network.dll
 0002:00000424       __imp_?setContextProperty@QQmlContext@@QAEXABVQString@@ABVQVariant@@@Z 0041a424     Qt5Qml:Qt5Qml.dll
 0002:00000428       __imp_?qdeclarativeelement_destructor@QQmlPrivate@@YAXPAVQObject@@@Z 0041a428     Qt5Qml:Qt5Qml.dll
 0002:0000042c       __imp_?qmlregister@QQmlPrivate@@YAHW4RegistrationType@1@PAX@Z 0041a42c     Qt5Qml:Qt5Qml.dll
 0002:00000430       __imp_?quit@QQmlEngine@@QAEXXZ 0041a430     Qt5Qml:Qt5Qml.dll
 0002:00000434       __imp_?staticMetaObject@QQmlEngine@@2UQMetaObject@@B 0041a434     Qt5Qml:Qt5Qml.dll
 0002:00000438       __imp_?setContextProperty@QQmlContext@@QAEXABVQString@@PAVQObject@@@Z 0041a438     Qt5Qml:Qt5Qml.dll
 0002:0000043c       \177Qt5Qml_NULL_THUNK_DATA 0041a43c     Qt5Qml:Qt5Qml.dll
 0002:00000440       __imp_?setSource@QQuickView@@QAEXABVQUrl@@@Z 0041a440     Qt5Quick:Qt5Quick.dll
 0002:00000444       __imp_?setResizeMode@QQuickView@@QAEXW4ResizeMode@1@@Z 0041a444     Qt5Quick:Qt5Quick.dll
 0002:00000448       __imp_?rootContext@QQuickView@@QBEPAVQQmlContext@@XZ 0041a448     Qt5Quick:Qt5Quick.dll
 0002:0000044c       __imp_?engine@QQuickView@@QBEPAVQQmlEngine@@XZ 0041a44c     Qt5Quick:Qt5Quick.dll
 0002:00000450       __imp_??1QQuickView@@UAE@XZ 0041a450     Qt5Quick:Qt5Quick.dll
 0002:00000454       __imp_??0QQuickView@@QAE@PAVQWindow@@@Z 0041a454     Qt5Quick:Qt5Quick.dll
 0002:00000458       \177Qt5Quick_NULL_THUNK_DATA 0041a458     Qt5Quick:Qt5Quick.dll
 0002:0000045c       __imp__CommandLineToArgvW@8 0041a45c     shell32:SHELL32.dll
 0002:00000460       \177SHELL32_NULL_THUNK_DATA 0041a460     shell32:SHELL32.dll
 0002:00000464       __imp__memcpy              0041a464     vcruntime:VCRUNTIME140.dll
 0002:00000468       __imp____RTDynamicCast     0041a468     vcruntime:VCRUNTIME140.dll
 0002:0000046c       __imp____vcrt_InitializeCriticalSectionEx 0041a46c     vcruntime:VCRUNTIME140.dll
 0002:00000470       __imp____std_exception_copy 0041a470     vcruntime:VCRUNTIME140.dll
 0002:00000474       __imp____std_exception_destroy 0041a474     vcruntime:VCRUNTIME140.dll
 0002:00000478       __imp__memset              0041a478     vcruntime:VCRUNTIME140.dll
 0002:0000047c       __imp___except_handler4_common 0041a47c     vcruntime:VCRUNTIME140.dll
 0002:00000480       __imp___CxxThrowException@8 0041a480     vcruntime:VCRUNTIME140.dll
 0002:00000484       __imp____CxxFrameHandler3  0041a484     vcruntime:VCRUNTIME140.dll
 0002:00000488       __imp____std_terminate     0041a488     vcruntime:VCRUNTIME140.dll
 0002:0000048c       \177VCRUNTIME140_NULL_THUNK_DATA 0041a48c     vcruntime:VCRUNTIME140.dll
 0002:00000490       __imp___callnewh           0041a490     ucrt:api-ms-win-crt-heap-l1-1-0.dll
 0002:00000494       __imp__malloc              0041a494     ucrt:api-ms-win-crt-heap-l1-1-0.dll
 0002:00000498       __imp___set_new_mode       0041a498     ucrt:api-ms-win-crt-heap-l1-1-0.dll
 0002:0000049c       __imp__free                0041a49c     ucrt:api-ms-win-crt-heap-l1-1-0.dll
 0002:000004a0       \177api-ms-win-crt-heap-l1-1-0_NULL_THUNK_DATA 0041a4a0     ucrt:api-ms-win-crt-heap-l1-1-0.dll
 0002:000004a4       __imp___configthreadlocale 0041a4a4     ucrt:api-ms-win-crt-locale-l1-1-0.dll
 0002:000004a8       \177api-ms-win-crt-locale-l1-1-0_NULL_THUNK_DATA 0041a4a8     ucrt:api-ms-win-crt-locale-l1-1-0.dll
 0002:000004ac       __imp____setusermatherr    0041a4ac     ucrt:api-ms-win-crt-math-l1-1-0.dll
 0002:000004b0       \177api-ms-win-crt-math-l1-1-0_NULL_THUNK_DATA 0041a4b0     ucrt:api-ms-win-crt-math-l1-1-0.dll
 0002:000004b4       __imp___cexit              0041a4b4     ucrt:api-ms-win-crt-runtime-l1-1-0.dll
 0002:000004b8       __imp___seh_filter_exe     0041a4b8     ucrt:api-ms-win-crt-runtime-l1-1-0.dll
 0002:000004bc       __imp___set_app_type       0041a4bc     ucrt:api-ms-win-crt-runtime-l1-1-0.dll
 0002:000004c0       __imp___crt_atexit         0041a4c0     ucrt:api-ms-win-crt-runtime-l1-1-0.dll
 0002:000004c4       __imp___get_narrow_winmain_command_line 0041a4c4     ucrt:api-ms-win-crt-runtime-l1-1-0.dll
 0002:000004c8       __imp___initterm_e         0041a4c8     ucrt:api-ms-win-crt-runtime-l1-1-0.dll
 0002:000004cc       __imp__exit                0041a4cc     ucrt:api-ms-win-crt-runtime-l1-1-0.dll
 0002:000004d0       __imp___exit               0041a4d0     ucrt:api-ms-win-crt-runtime-l1-1-0.dll
 0002:000004d4       __imp___register_onexit_function 0041a4d4     ucrt:api-ms-win-crt-runtime-l1-1-0.dll
 0002:000004d8       __imp___c_exit             0041a4d8     ucrt:api-ms-win-crt-runtime-l1-1-0.dll
 0002:000004dc       __imp___register_thread_local_exe_atexit_callback 0041a4dc     ucrt:api-ms-win-crt-runtime-l1-1-0.dll
 0002:000004e0       __imp___initialize_onexit_table 0041a4e0     ucrt:api-ms-win-crt-runtime-l1-1-0.dll
 0002:000004e4       __imp___initialize_narrow_environment 0041a4e4     ucrt:api-ms-win-crt-runtime-l1-1-0.dll
 0002:000004e8       __imp___configure_narrow_argv 0041a4e8     ucrt:api-ms-win-crt-runtime-l1-1-0.dll
 0002:000004ec       __imp__terminate           0041a4ec     ucrt:api-ms-win-crt-runtime-l1-1-0.dll
 0002:000004f0       __imp___controlfp_s        0041a4f0     ucrt:api-ms-win-crt-runtime-l1-1-0.dll
 0002:000004f4       __imp___initterm           0041a4f4     ucrt:api-ms-win-crt-runtime-l1-1-0.dll
 0002:000004f8       __imp__abort               0041a4f8     ucrt:api-ms-win-crt-runtime-l1-1-0.dll
 0002:000004fc       \177api-ms-win-crt-runtime-l1-1-0_NULL_THUNK_DATA 0041a4fc     ucrt:api-ms-win-crt-runtime-l1-1-0.dll
 0002:00000500       __imp____p__commode        0041a500     ucrt:api-ms-win-crt-stdio-l1-1-0.dll
 0002:00000504       __imp___set_fmode          0041a504     ucrt:api-ms-win-crt-stdio-l1-1-0.dll
 0002:00000508       \177api-ms-win-crt-stdio-l1-1-0_NULL_THUNK_DATA 0041a508     ucrt:api-ms-win-crt-stdio-l1-1-0.dll
 0002:0000050c       __imp__MiniDumpWriteDump@28 0041a50c     DbgHelp:dbghelp.dll
 0002:00000510       \177dbghelp_NULL_THUNK_DATA 0041a510     DbgHelp:dbghelp.dll
 0002:00000514       ___guard_check_icall_fptr  0041a514     MSVCRT:guard_support.obj
 0002:00000518       ___xc_a                    0041a518     MSVCRT:initializers.obj
 0002:00000550       ___xc_z                    0041a550     MSVCRT:initializers.obj
 0002:00000554       ___xi_a                    0041a554     MSVCRT:initializers.obj
 0002:00000564       ___xi_z                    0041a564     MSVCRT:initializers.obj
 0002:00000568       ___xl_a                    0041a568     MSVCRT:tlssup.obj
 0002:0000056c       ___xl_z                    0041a56c     MSVCRT:tlssup.obj
 0002:00000570       ___xp_a                    0041a570     MSVCRT:initializers.obj
 0002:00000574       ___xp_z                    0041a574     MSVCRT:initializers.obj
 0002:00000578       ___xt_a                    0041a578     MSVCRT:initializers.obj
 0002:0000057c       ___xt_z                    0041a57c     MSVCRT:initializers.obj
 0002:00000580       ??_C@_0BE@OBLKMDCI@socket?5write?5error?$CB?$AA@ 0041a580     communication.obj
 0002:00000594       ??_C@_0BD@BGMNJBEK@socket?5read?5error?$CB?$AA@ 0041a594     communication.obj
 0002:000005a7       ??_C@_00CNPNBAHC@?$AA@     0041a5a7     workflowprotocol.obj
 0002:000005ac       ??_7SubThreadWorker@@6B@   0041a5ac     workflowprotocol.obj
 0002:000005dc       ??_7WorkflowController@@6B@ 0041a5dc     workflowprotocol.obj
 0002:0000060c       ??_7StatusChangeEvent@@6B@ 0041a60c     workflowprotocol.obj
 0002:00000614       ??_7RunningStateChangeEvent@@6B@ 0041a614     workflowprotocol.obj
 0002:00000618       ??_C@_0BL@HDECHFNK@Couldn?8t?5open?5config?5file?4?$AA@ 0041a618     workflowprotocol.obj
 0002:00000634       ??_C@_08NAKOFPNG@Protocol?$AA@ 0041a634     workflowprotocol.obj
 0002:00000640       ??_C@_0M@NNEGCPOA@send?5buffer?$AA@ 0041a640     workflowprotocol.obj
 0002:0000064c       ??_C@_09BOOHIMDB@operation?$AA@ 0041a64c     workflowprotocol.obj
 0002:00000658       ??_C@_04PJOLNDGD@data?$AA@ 0041a658     workflowprotocol.obj
 0002:00000660       ??_C@_06JMGHNNK@params?$AA@ 0041a660     workflowprotocol.obj
 0002:00000668       ??_C@_09NKOPJPKG@byte?5size?$AA@ 0041a668     workflowprotocol.obj
 0002:00000674       ??_C@_08IBBDGPOF@sequence?$AA@ 0041a674     workflowprotocol.obj
 0002:00000680       ??_C@_09MOEBNLDL@ackResult?$AA@ 0041a680     workflowprotocol.obj
 0002:0000068c       ??_C@_0BI@LHNHBKK@recv?5head?5code?5error?5?$CFd?$AA@ 0041a68c     workflowprotocol.obj
 0002:000006a4       ??_C@_0BK@JEOIEKEG@recv?5length?5code?5error?5?$CFd?$AA@ 0041a6a4     workflowprotocol.obj
 0002:000006c0       ??_C@_0P@HBMDFJEL@maxReceiveTime?$AA@ 0041a6c0     workflowprotocol.obj
 0002:000006d0       ??_C@_0L@FFNCMNID@operations?$AA@ 0041a6d0     workflowprotocol.obj
 0002:000006dc       ??_C@_0L@KCLLKANI@startIndex?$AA@ 0041a6dc     workflowprotocol.obj
 0002:000006e8       ??_C@_09OKOOLBCO@WaitArray?$AA@ 0041a6e8     workflowprotocol.obj
 0002:000006f4       ??_C@_04KLCPKPBE@Loop?$AA@ 0041a6f4     workflowprotocol.obj
 0002:000006fc       ??_C@_07CBLODBBN@EndLoop?$AA@ 0041a6fc     workflowprotocol.obj
 0002:00000704       ??_C@_08OAGMDKAF@position?$AA@ 0041a704     workflowprotocol.obj
 0002:00000710       ??_C@_04MIIPNNEF@send?$AA@ 0041a710     workflowprotocol.obj
 0002:00000718       ??_C@_03JBLJHHJA@ack?$AA@  0041a718     workflowprotocol.obj
 0002:0000071c       ??_C@_0BB@FNMNOOKH@newOperationItem?$AA@ 0041a71c     workflowprotocol.obj
 0002:00000730       ??_C@_0P@LBPHMCAN@logicalCommand?$AA@ 0041a730     workflowprotocol.obj
 0002:00000740       ??_C@_09KFLDLCPO@waitArray?$AA@ 0041a740     workflowprotocol.obj
 0002:0000074c       ??_C@_08DNGBEGEF@waitting?$AA@ 0041a74c     workflowprotocol.obj
 0002:00000758       ??_C@_09HGICMNBG@loopCount?$AA@ 0041a758     workflowprotocol.obj
 0002:00000764       ??_C@_0BA@EAIKJHPJ@remainLoopCount?$AA@ 0041a764     workflowprotocol.obj
 0002:00000774       ??_C@_08MMNALFJK@waitTime?$AA@ 0041a774     workflowprotocol.obj
 0002:00000780       ??_C@_0L@KLGDOJIH@cycleCount?$AA@ 0041a780     workflowprotocol.obj
 0002:0000078c       ??_C@_0O@IBBMKKDB@client?5write?5?$AA@ 0041a78c     workflowprotocol.obj
 0002:0000079c       ??_C@_06LCIDCBMH@?5bytes?$AA@ 0041a79c     workflowprotocol.obj
 0002:000007a4       ??_C@_08LGEOGOAO@recv?5ack?$AA@ 0041a7a4     workflowprotocol.obj
 0002:000007b0       ??_C@_0BH@JPFKMKFK@worker?5thread?5is?5dead?4?$AA@ 0041a7b0     workflowprotocol.obj
 0002:000007c8       ??_C@_04DDKJGDCM@bool?$AA@ 0041a7c8     configfilehandler.obj
 0002:000007d0       ??_C@_05KNFBNCOH@float?$AA@ 0041a7d0     configfilehandler.obj
 0002:000007d8       ??_C@_07DLHCIBDH@default?$AA@ 0041a7d8     configfilehandler.obj
 0002:000007e4       ??_7configFileHandler@@6B@ 0041a7e4     configfilehandler.obj
 0002:00000810       ??_C@_04GPMDFGEJ@type?$AA@ 0041a810     configfilehandler.obj
 0002:00000818       ??_C@_04DBJPMPLO@enum?$AA@ 0041a818     configfilehandler.obj
 0002:00000820       ??_C@_07GCCODDFC@display?$AA@ 0041a820     configfilehandler.obj
 0002:00000828       ??_C@_09EJEMLHI@valueEnum?$AA@ 0041a828     configfilehandler.obj
 0002:00000834       ??_C@_06DOPOGBGP@switch?$AA@ 0041a834     configfilehandler.obj
 0002:0000083c       ??_C@_04NPEDKLDA@unit?$AA@ 0041a83c     configfilehandler.obj
 0002:00000844       ??_C@_0M@HHONEJAF@bottomValue?$AA@ 0041a844     configfilehandler.obj
 0002:00000850       ??_C@_08BENPNDEB@topValue?$AA@ 0041a850     configfilehandler.obj
 0002:0000085c       ??_C@_06JJLAMBGK@target?$AA@ 0041a85c     configfilehandler.obj
 0002:00000864       ??_C@_02MFEOMNPG@IP?$AA@   0041a864     configfilehandler.obj
 0002:00000868       ??_C@_04LPGMAPLE@port?$AA@ 0041a868     configfilehandler.obj
 0002:00000870       ??_C@_04DJEEHKI@plan?$AA@  0041a870     configfilehandler.obj
 0002:00000878       ??_C@_07LKHFMGFB@integer?$AA@ 0041a878     configfilehandler.obj
 0002:00000880       ??_C@_06ICGJLFIM@string?$AA@ 0041a880     configfilehandler.obj
 0002:00000888       ??_C@_0BB@BFELOPJA@configFile?5error?$AA@ 0041a888     configfilehandler.obj
 0002:0000089c       ??_C@_0P@BDPDOPPG@sequenceNumber?$AA@ 0041a89c     configfilehandler.obj
 0002:000008ac       ??_C@_07LGCBPPLP@workers?$AA@ 0041a8ac     configfilehandler.obj
 0002:000008b4       ??_C@_05IOMEMJEC@count?$AA@ 0041a8b4     configfilehandler.obj
 0002:000008bc       ??_C@_0CN@MAPOHALH@ParseWorkLocationTypeList?5config@ 0041a8bc     configfilehandler.obj
 0002:000008ec       ??_C@_07EJMBNAEG@license?$AA@ 0041a8ec     configfilehandler.obj
 0002:000008f8       ??_7TargetMachineObject@@6B@ 0041a8f8     environmentvariant.obj
 0002:00000928       ??_7EnvironmentVariant@@6B@ 0041a928     environmentvariant.obj
 0002:00000954       ??_C@_0O@EPGPLFOI@OperationEnum?$AA@ 0041a954     environmentvariant.obj
 0002:00000964       ??_C@_0BD@DLJJAAOH@LogicalControlEnum?$AA@ 0041a964     environmentvariant.obj
 0002:00000978       ??_C@_0BA@ONCGMDLN@NormalOperation?$AA@ 0041a978     environmentvariant.obj
 0002:00000988       ??_C@_0P@NBCEFNBO@logicalControl?$AA@ 0041a988     environmentvariant.obj
 0002:00000998       ??_C@_0BH@PKBKIKLO@Operation?5Display?5Name?$AA@ 0041a998     environmentvariant.obj
 0002:000009b0       ??_C@_0BA@EMGBOHG@IPAddressObject?$AA@ 0041a9b0     environmentvariant.obj
 0002:000009c0       ??_C@_0BH@POMNOBFJ@isAdministratorAccount?$AA@ 0041a9c0     environmentvariant.obj
 0002:000009d8       __real@0000000000000000    0041a9d8     environmentvariant.obj
 0002:000009e0       __real@3fe0000000000000    0041a9e0     environmentvariant.obj
 0002:000009e8       __real@3ff0000000000000    0041a9e8     environmentvariant.obj
 0002:000009f0       __real@4024000000000000    0041a9f0     environmentvariant.obj
 0002:000009fc       ??_7OperationParamObject@@6B@ 0041a9fc     main.obj
 0002:00000a28       ??_C@_01JOAMLHOP@?9?$AA@   0041aa28     main.obj
 0002:00000a2c       ??_C@_1CE@ELGCFHOO@?$AAM?$AAi?$AAn?$AAd?$AAG?$AAo?$AAP?$AAr?$AAo?$AAj?$AAe?$AAc?$AAt?$AA?4?$AAd?$AAm?$AAp?$AA?$AA@ 0041aa2c     main.obj
 0002:00000a50       ??_C@_09BHMHBPLA@Debug?3?5?$CF1?$AA@ 0041aa50     main.obj
 0002:00000a5c       ??_C@_0M@IJCKPDBC@Warning?3?5?$CF1?$AA@ 0041aa5c     main.obj
 0002:00000a68       ??_C@_0N@KDKNECFL@Critical?3?5?$CF1?$AA@ 0041aa68     main.obj
 0002:00000a78       ??_C@_09NFMOODD@Fatal?3?5?$CF1?$AA@ 0041aa78     main.obj
 0002:00000a84       ??_C@_0BH@BFFDAMFM@?4?1customMessageLog?4txt?$AA@ 0041aa84     main.obj
 0002:00000a9c       ??_C@_0BN@CBPGFKKM@?4?1UserInterfaceLayer?1config?1?$AA@ 0041aa9c     main.obj
 0002:00000abc       ??_C@_0BC@DCBAKBKG@qtvirtualkeyboard?$AA@ 0041aabc     main.obj
 0002:00000ad0       ??_C@_0N@EPCEFELF@QT_IM_MODULE?$AA@ 0041aad0     main.obj
 0002:00000ae0       ??_C@_06FFAPGJBP@Mindgo?$AA@ 0041aae0     main.obj
 0002:00000ae8       ??_C@_05CDNCCFAE@cn?4qm?$AA@ 0041aae8     main.obj
 0002:00000af0       ??_C@_0BJ@PPJBDKBL@TextFieldDoubleValidator?$AA@ 0041aaf0     main.obj
 0002:00000b0c       ??_C@_06POMJKEPM@Common?$AA@ 0041ab0c     main.obj
 0002:00000b14       ??_C@_0BF@MDNPPLPL@OperationParamObject?$AA@ 0041ab14     main.obj
 0002:00000b2c       ??_C@_0BH@KAEEMKBC@OperationParamSelector?$AA@ 0041ab2c     main.obj
 0002:00000b44       ??_C@_0N@CJJLBEJF@PlanSelector?$AA@ 0041ab44     main.obj
 0002:00000b54       ??_C@_0BC@EJFMECEB@StatusViewWatcher?$AA@ 0041ab54     main.obj
 0002:00000b68       ??_C@_0P@DNBEODGJ@PlanController?$AA@ 0041ab68     main.obj
 0002:00000b78       ??_C@_0L@LGGNKCBK@FZHTJW?4TTF?$AA@ 0041ab78     main.obj
 0002:00000b84       ??_C@_1O@HOPADHDO@e?$LJkc?$JO?QOS?$HL?$IAOS?$AA?$AA@ 0041ab84     main.obj
 0002:00000b94       ??_C@_0BF@BIMDPFDG@OperationParams?4json?$AA@ 0041ab94     main.obj
 0002:00000bac       ??_C@_0BA@KONLPFIC@UserConfig?4json?$AA@ 0041abac     main.obj
 0002:00000bbc       ??_C@_0O@OIFOOOJE@Protocol?4json?$AA@ 0041abbc     main.obj
 0002:00000bcc       ??_C@_0O@BBFLGDHH@qrc?3?1main?4qml?$AA@ 0041abcc     main.obj
 0002:00000bdc       ??_C@_0BC@HDKLEFKN@QQmlListProperty?$DM?$AA@ 0041abdc     main.obj
 0002:00000bf4       ??_7?$QQmlElement@VTextFieldDoubleValidator@@@QQmlPrivate@@6B@ 0041abf4     main.obj
 0002:00000c30       ??_7?$QQmlElement@VOperationParamObject@@@QQmlPrivate@@6B@ 0041ac30     main.obj
 0002:00000c60       ??_7?$QQmlElement@VOperationParamSelector@@@QQmlPrivate@@6B@ 0041ac60     main.obj
 0002:00000c90       ??_7?$QQmlElement@VPlanSelector@@@QQmlPrivate@@6B@ 0041ac90     main.obj
 0002:00000cc0       ??_7?$QQmlElement@VStatusViewWatcher@@@QQmlPrivate@@6B@ 0041acc0     main.obj
 0002:00000cf0       ??_7?$QQmlElement@VPlanController@@@QQmlPrivate@@6B@ 0041acf0     main.obj
 0002:00000d20       __xmm@ffffffffffffffffffffffff00000000 0041ad20     main.obj
 0002:00000d30       ??_C@_0P@FAFDOLML@OperationModel?$AA@ 0041ad30     workmodels.obj
 0002:00000d40       ??_C@_0L@GBCCCODA@ParamModel?$AA@ 0041ad40     workmodels.obj
 0002:00000d50       ??_7OperationParamSelector@@6B@ 0041ad50     workmodels.obj
 0002:00000d80       ??_7PlanSelector@@6B@      0041ad80     workmodels.obj
 0002:00000db0       ??_7PlanController@@6B@    0041adb0     workmodels.obj
 0002:00000de0       ??_7StatusViewWatcher@@6B@ 0041ade0     workmodels.obj
 0002:00000e0c       ??_C@_0P@FJOBGDIA@LogicalControl?$AA@ 0041ae0c     workmodels.obj
 0002:000383b4       ??_C@_0CL@GGBGAILI@QtMetaTypePrivate?3?3QSequentialIt@ 004523b4     moc_workmodels.obj
 0002:000383e0       ??_C@_0BA@CGOONFIM@QList?$DMQObject?$CK?$DO?$AA@ 004523e0     moc_workmodels.obj
 0002:000383f0       ??_C@_0BD@GAKEODHA@OperationParamData?$AA@ 004523f0     moc_workmodels.obj
 0002:00038404       ??_C@_0BC@DJJLAPLC@MachineConfigData?$AA@ 00452404     moc_workmodels.obj
 0002:00038418       ??_C@_05EPCGOCDE@QList?$AA@ 00452418     moc_workmodels.obj
 0002:00038420       __real@3f1a36e2eb1c432d    00452420     moc_workmodels.obj
 0002:00038430       __xmm@7fffffffffffffff7fffffffffffffff 00452430     moc_workmodels.obj
 0002:00038440       ??_C@_1BK@MGMFAEKH@?$AAk?$AAe?$AAr?$AAn?$AAe?$AAl?$AA3?$AA2?$AA?4?$AAd?$AAl?$AAl?$AA?$AA@ 00452440     MSVCRT:thread_safe_statics.obj
 0002:0003845c       ??_C@_0BM@HLJJNPAH@InitializeConditionVariable?$AA@ 0045245c     MSVCRT:thread_safe_statics.obj
 0002:00038478       ??_C@_0BJ@JEBJOJFJ@SleepConditionVariableCS?$AA@ 00452478     MSVCRT:thread_safe_statics.obj
 0002:00038494       ??_C@_0BJ@PGPPEPCC@WakeAllConditionVariable?$AA@ 00452494     MSVCRT:thread_safe_statics.obj
 0002:000384b4       ??_7type_info@@6B@         004524b4     MSVCRT:std_type_info_static.obj
 0002:000384c4       ??_7exception@std@@6B@     004524c4     MSVCRT:throw_bad_alloc.obj
 0002:000384cc       ??_C@_0BC@EOODALEL@Unknown?5exception?$AA@ 004524cc     MSVCRT:throw_bad_alloc.obj
 0002:000384e4       ??_7bad_alloc@std@@6B@     004524e4     MSVCRT:throw_bad_alloc.obj
 0002:000384ec       ??_C@_0P@GHFPNOJB@bad?5allocation?$AA@ 004524ec     MSVCRT:throw_bad_alloc.obj
 0002:00038500       ??_7bad_array_new_length@std@@6B@ 00452500     MSVCRT:throw_bad_alloc.obj
 0002:00038508       ??_C@_0BF@KINCDENJ@bad?5array?5new?5length?$AA@ 00452508     MSVCRT:throw_bad_alloc.obj
 0002:00038578       __load_config_used         00452578     MSVCRT:loadcfg.obj
 0002:000385d4       __tls_used                 004525d4     MSVCRT:tlssup.obj
 0002:000385ec       ??_R4SubThreadWorker@@6B@  004525ec     workflowprotocol.obj
 0002:00038600       ??_R3SubThreadWorker@@8    00452600     workflowprotocol.obj
 0002:00038610       ??_R2SubThreadWorker@@8    00452610     workflowprotocol.obj
 0002:0003861c       ??_R1A@?0A@EA@SubThreadWorker@@8 0045261c     workflowprotocol.obj
 0002:00038638       ??_R1A@?0A@EA@QObject@@8   00452638     workflowprotocol.obj
 0002:00038654       ??_R3QObject@@8            00452654     workflowprotocol.obj
 0002:00038664       ??_R2QObject@@8            00452664     workflowprotocol.obj
 0002:0003866c       ??_R4WorkflowController@@6B@ 0045266c     workflowprotocol.obj
 0002:00038680       ??_R3WorkflowController@@8 00452680     workflowprotocol.obj
 0002:00038690       ??_R2WorkflowController@@8 00452690     workflowprotocol.obj
 0002:0003869c       ??_R1A@?0A@EA@WorkflowController@@8 0045269c     workflowprotocol.obj
 0002:000386b8       ??_R4StatusChangeEvent@@6B@ 004526b8     workflowprotocol.obj
 0002:000386cc       ??_R3StatusChangeEvent@@8  004526cc     workflowprotocol.obj
 0002:000386dc       ??_R2StatusChangeEvent@@8  004526dc     workflowprotocol.obj
 0002:000386e8       ??_R1A@?0A@EA@StatusChangeEvent@@8 004526e8     workflowprotocol.obj
 0002:00038704       ??_R1A@?0A@EA@QEvent@@8    00452704     workflowprotocol.obj
 0002:00038720       ??_R3QEvent@@8             00452720     workflowprotocol.obj
 0002:00038730       ??_R2QEvent@@8             00452730     workflowprotocol.obj
 0002:00038738       ??_R4RunningStateChangeEvent@@6B@ 00452738     workflowprotocol.obj
 0002:0003874c       ??_R3RunningStateChangeEvent@@8 0045274c     workflowprotocol.obj
 0002:0003875c       ??_R2RunningStateChangeEvent@@8 0045275c     workflowprotocol.obj
 0002:00038768       ??_R1A@?0A@EA@RunningStateChangeEvent@@8 00452768     workflowprotocol.obj
 0002:00038784       ??_R4configFileHandler@@6B@ 00452784     configfilehandler.obj
 0002:00038798       ??_R3configFileHandler@@8  00452798     configfilehandler.obj
 0002:000387a8       ??_R2configFileHandler@@8  004527a8     configfilehandler.obj
 0002:000387b4       ??_R1A@?0A@EA@configFileHandler@@8 004527b4     configfilehandler.obj
 0002:000387d0       ??_R4TargetMachineObject@@6B@ 004527d0     environmentvariant.obj
 0002:000387e4       ??_R3TargetMachineObject@@8 004527e4     environmentvariant.obj
 0002:000387f4       ??_R2TargetMachineObject@@8 004527f4     environmentvariant.obj
 0002:00038804       ??_R1A@?0A@EA@TargetMachineObject@@8 00452804     environmentvariant.obj
 0002:00038820       ??_R17?0A@EA@MachineConfigData@@8 00452820     environmentvariant.obj
 0002:0003883c       ??_R3MachineConfigData@@8  0045283c     environmentvariant.obj
 0002:0003884c       ??_R2MachineConfigData@@8  0045284c     environmentvariant.obj
 0002:00038854       ??_R1A@?0A@EA@MachineConfigData@@8 00452854     environmentvariant.obj
 0002:00038870       ??_R4EnvironmentVariant@@6B@ 00452870     environmentvariant.obj
 0002:00038884       ??_R3EnvironmentVariant@@8 00452884     environmentvariant.obj
 0002:00038894       ??_R2EnvironmentVariant@@8 00452894     environmentvariant.obj
 0002:000388a0       ??_R1A@?0A@EA@EnvironmentVariant@@8 004528a0     environmentvariant.obj
 0002:000388bc       ??_R4OperationParamObject@@6B@ 004528bc     main.obj
 0002:000388d0       ??_R3OperationParamObject@@8 004528d0     main.obj
 0002:000388e0       ??_R2OperationParamObject@@8 004528e0     main.obj
 0002:000388f0       ??_R1A@?0A@EA@OperationParamObject@@8 004528f0     main.obj
 0002:0003890c       ??_R17?0A@EA@OperationParamData@@8 0045290c     main.obj
 0002:00038928       ??_R3OperationParamData@@8 00452928     main.obj
 0002:00038938       ??_R2OperationParamData@@8 00452938     main.obj
 0002:00038940       ??_R1A@?0A@EA@OperationParamData@@8 00452940     main.obj
 0002:0003895c       ??_R3TextFieldDoubleValidator@@8 0045295c     main.obj
 0002:0003896c       ??_R2TextFieldDoubleValidator@@8 0045296c     main.obj
 0002:00038980       ??_R1A@?0A@EA@TextFieldDoubleValidator@@8 00452980     main.obj
 0002:0003899c       ??_R1A@?0A@EA@QDoubleValidator@@8 0045299c     main.obj
 0002:000389b8       ??_R3QDoubleValidator@@8   004529b8     main.obj
 0002:000389c8       ??_R2QDoubleValidator@@8   004529c8     main.obj
 0002:000389d8       ??_R1A@?0A@EA@QValidator@@8 004529d8     main.obj
 0002:000389f4       ??_R3QValidator@@8         004529f4     main.obj
 0002:00038a04       ??_R2QValidator@@8         00452a04     main.obj
 0002:00038a10       ??_R4?$QQmlElement@VTextFieldDoubleValidator@@@QQmlPrivate@@6B@ 00452a10     main.obj
 0002:00038a24       ??_R3?$QQmlElement@VTextFieldDoubleValidator@@@QQmlPrivate@@8 00452a24     main.obj
 0002:00038a34       ??_R2?$QQmlElement@VTextFieldDoubleValidator@@@QQmlPrivate@@8 00452a34     main.obj
 0002:00038a4c       ??_R1A@?0A@EA@?$QQmlElement@VTextFieldDoubleValidator@@@QQmlPrivate@@8 00452a4c     main.obj
 0002:00038a68       ??_R4?$QQmlElement@VOperationParamObject@@@QQmlPrivate@@6B@ 00452a68     main.obj
 0002:00038a7c       ??_R3?$QQmlElement@VOperationParamObject@@@QQmlPrivate@@8 00452a7c     main.obj
 0002:00038a8c       ??_R2?$QQmlElement@VOperationParamObject@@@QQmlPrivate@@8 00452a8c     main.obj
 0002:00038aa0       ??_R1A@?0A@EA@?$QQmlElement@VOperationParamObject@@@QQmlPrivate@@8 00452aa0     main.obj
 0002:00038abc       ??_R4?$QQmlElement@VOperationParamSelector@@@QQmlPrivate@@6B@ 00452abc     main.obj
 0002:00038ad0       ??_R3?$QQmlElement@VOperationParamSelector@@@QQmlPrivate@@8 00452ad0     main.obj
 0002:00038ae0       ??_R2?$QQmlElement@VOperationParamSelector@@@QQmlPrivate@@8 00452ae0     main.obj
 0002:00038af0       ??_R1A@?0A@EA@?$QQmlElement@VOperationParamSelector@@@QQmlPrivate@@8 00452af0     main.obj
 0002:00038b0c       ??_R1A@?0A@EA@OperationParamSelector@@8 00452b0c     main.obj
 0002:00038b28       ??_R3OperationParamSelector@@8 00452b28     main.obj
 0002:00038b38       ??_R2OperationParamSelector@@8 00452b38     main.obj
 0002:00038b44       ??_R4?$QQmlElement@VPlanSelector@@@QQmlPrivate@@6B@ 00452b44     main.obj
 0002:00038b58       ??_R3?$QQmlElement@VPlanSelector@@@QQmlPrivate@@8 00452b58     main.obj
 0002:00038b68       ??_R2?$QQmlElement@VPlanSelector@@@QQmlPrivate@@8 00452b68     main.obj
 0002:00038b78       ??_R1A@?0A@EA@?$QQmlElement@VPlanSelector@@@QQmlPrivate@@8 00452b78     main.obj
 0002:00038b94       ??_R1A@?0A@EA@PlanSelector@@8 00452b94     main.obj
 0002:00038bb0       ??_R3PlanSelector@@8       00452bb0     main.obj
 0002:00038bc0       ??_R2PlanSelector@@8       00452bc0     main.obj
 0002:00038bcc       ??_R4?$QQmlElement@VStatusViewWatcher@@@QQmlPrivate@@6B@ 00452bcc     main.obj
 0002:00038be0       ??_R3?$QQmlElement@VStatusViewWatcher@@@QQmlPrivate@@8 00452be0     main.obj
 0002:00038bf0       ??_R2?$QQmlElement@VStatusViewWatcher@@@QQmlPrivate@@8 00452bf0     main.obj
 0002:00038c00       ??_R1A@?0A@EA@?$QQmlElement@VStatusViewWatcher@@@QQmlPrivate@@8 00452c00     main.obj
 0002:00038c1c       ??_R1A@?0A@EA@StatusViewWatcher@@8 00452c1c     main.obj
 0002:00038c38       ??_R3StatusViewWatcher@@8  00452c38     main.obj
 0002:00038c48       ??_R2StatusViewWatcher@@8  00452c48     main.obj
 0002:00038c54       ??_R4?$QQmlElement@VPlanController@@@QQmlPrivate@@6B@ 00452c54     main.obj
 0002:00038c68       ??_R3?$QQmlElement@VPlanController@@@QQmlPrivate@@8 00452c68     main.obj
 0002:00038c78       ??_R2?$QQmlElement@VPlanController@@@QQmlPrivate@@8 00452c78     main.obj
 0002:00038c88       ??_R1A@?0A@EA@?$QQmlElement@VPlanController@@@QQmlPrivate@@8 00452c88     main.obj
 0002:00038ca4       ??_R1A@?0A@EA@PlanController@@8 00452ca4     main.obj
 0002:00038cc0       ??_R3PlanController@@8     00452cc0     main.obj
 0002:00038cd0       ??_R2PlanController@@8     00452cd0     main.obj
 0002:00038cdc       ??_R4OperationParamSelector@@6B@ 00452cdc     workmodels.obj
 0002:00038cf0       ??_R4PlanSelector@@6B@     00452cf0     workmodels.obj
 0002:00038d04       ??_R4PlanController@@6B@   00452d04     workmodels.obj
 0002:00038d18       ??_R4StatusViewWatcher@@6B@ 00452d18     workmodels.obj
 0002:00038d2c       ??_R4type_info@@6B@        00452d2c     MSVCRT:std_type_info_static.obj
 0002:00038d40       ??_R3type_info@@8          00452d40     MSVCRT:std_type_info_static.obj
 0002:00038d50       ??_R2type_info@@8          00452d50     MSVCRT:std_type_info_static.obj
 0002:00038d58       ??_R1A@?0A@EA@type_info@@8 00452d58     MSVCRT:std_type_info_static.obj
 0002:00038d74       ??_R4exception@std@@6B@    00452d74     MSVCRT:throw_bad_alloc.obj
 0002:00038d88       ??_R3exception@std@@8      00452d88     MSVCRT:throw_bad_alloc.obj
 0002:00038d98       ??_R2exception@std@@8      00452d98     MSVCRT:throw_bad_alloc.obj
 0002:00038da0       ??_R1A@?0A@EA@exception@std@@8 00452da0     MSVCRT:throw_bad_alloc.obj
 0002:00038dbc       ??_R4bad_alloc@std@@6B@    00452dbc     MSVCRT:throw_bad_alloc.obj
 0002:00038dd0       ??_R3bad_alloc@std@@8      00452dd0     MSVCRT:throw_bad_alloc.obj
 0002:00038de0       ??_R2bad_alloc@std@@8      00452de0     MSVCRT:throw_bad_alloc.obj
 0002:00038dec       ??_R1A@?0A@EA@bad_alloc@std@@8 00452dec     MSVCRT:throw_bad_alloc.obj
 0002:00038e08       ??_R4bad_array_new_length@std@@6B@ 00452e08     MSVCRT:throw_bad_alloc.obj
 0002:00038e1c       ??_R3bad_array_new_length@std@@8 00452e1c     MSVCRT:throw_bad_alloc.obj
 0002:00038e2c       ??_R2bad_array_new_length@std@@8 00452e2c     MSVCRT:throw_bad_alloc.obj
 0002:00038e3c       ??_R1A@?0A@EA@bad_array_new_length@std@@8 00452e3c     MSVCRT:throw_bad_alloc.obj
 0002:00038e60       ___safe_se_handler_table   00452e60     <linker-defined>
 0002:00039424       ___rtc_iaa                 00453424     MSVCRT:_initsect_.obj
 0002:00039428       ___rtc_izz                 00453428     MSVCRT:_initsect_.obj
 0002:0003942c       ___rtc_taa                 0045342c     MSVCRT:_initsect_.obj
 0002:00039430       ___rtc_tzz                 00453430     MSVCRT:_initsect_.obj
 0002:0003c71c       __TI2?AVbad_alloc@std@@    0045671c     MSVCRT:throw_bad_alloc.obj
 0002:0003c72c       __CTA2?AVbad_alloc@std@@   0045672c     MSVCRT:throw_bad_alloc.obj
 0002:0003c738       __CT??_R0?AVbad_alloc@std@@@8??0bad_alloc@std@@QAE@ABV01@@Z12 00456738     MSVCRT:throw_bad_alloc.obj
 0002:0003c754       __CT??_R0?AVexception@std@@@8??0exception@std@@QAE@ABV01@@Z12 00456754     MSVCRT:throw_bad_alloc.obj
 0002:0003c770       __TI3?AVbad_array_new_length@std@@ 00456770     MSVCRT:throw_bad_alloc.obj
 0002:0003c780       __CTA3?AVbad_array_new_length@std@@ 00456780     MSVCRT:throw_bad_alloc.obj
 0002:0003c790       __CT??_R0?AVbad_array_new_length@std@@@8??0bad_array_new_length@std@@QAE@ABV01@@Z12 00456790     MSVCRT:throw_bad_alloc.obj
 0002:0003c7ac       __IMPORT_DESCRIPTOR_dbghelp 004567ac     DbgHelp:dbghelp.dll
 0002:0003c7c0       __IMPORT_DESCRIPTOR_Qt5Quick 004567c0     Qt5Quick:Qt5Quick.dll
 0002:0003c7d4       __IMPORT_DESCRIPTOR_Qt5Gui 004567d4     Qt5Gui:Qt5Gui.dll
 0002:0003c7e8       __IMPORT_DESCRIPTOR_Qt5Qml 004567e8     Qt5Qml:Qt5Qml.dll
 0002:0003c7fc       __IMPORT_DESCRIPTOR_Qt5Network 004567fc     Qt5Network:Qt5Network.dll
 0002:0003c810       __IMPORT_DESCRIPTOR_Qt5Core 00456810     Qt5Core:Qt5Core.dll
 0002:0003c824       __IMPORT_DESCRIPTOR_KERNEL32 00456824     kernel32:KERNEL32.dll
 0002:0003c838       __IMPORT_DESCRIPTOR_VCRUNTIME140 00456838     vcruntime:VCRUNTIME140.dll
 0002:0003c84c       __IMPORT_DESCRIPTOR_api-ms-win-crt-heap-l1-1-0 0045684c     ucrt:api-ms-win-crt-heap-l1-1-0.dll
 0002:0003c860       __IMPORT_DESCRIPTOR_api-ms-win-crt-runtime-l1-1-0 00456860     ucrt:api-ms-win-crt-runtime-l1-1-0.dll
 0002:0003c874       __IMPORT_DESCRIPTOR_api-ms-win-crt-math-l1-1-0 00456874     ucrt:api-ms-win-crt-math-l1-1-0.dll
 0002:0003c888       __IMPORT_DESCRIPTOR_api-ms-win-crt-stdio-l1-1-0 00456888     ucrt:api-ms-win-crt-stdio-l1-1-0.dll
 0002:0003c89c       __IMPORT_DESCRIPTOR_api-ms-win-crt-locale-l1-1-0 0045689c     ucrt:api-ms-win-crt-locale-l1-1-0.dll
 0002:0003c8b0       __IMPORT_DESCRIPTOR_SHELL32 004568b0     shell32:SHELL32.dll
 0002:0003c8c4       __NULL_IMPORT_DESCRIPTOR   004568c4     DbgHelp:dbghelp.dll
 0003:00000000       ?operationModelName@@3PBDB 0045a000     workmodels.obj
 0003:00000004       ?paramModelName@@3PBDB     0045a004     workmodels.obj
 0003:00000008       ?staticMetaObject@SubThreadWorker@@2UQMetaObject@@B 0045a008     moc_workflowprotocol.obj
 0003:00000020       ?staticMetaObject@WorkflowController@@2UQMetaObject@@B 0045a020     moc_workflowprotocol.obj
 0003:00000038       ?staticMetaObject@configFileHandler@@2UQMetaObject@@B 0045a038     moc_configfilehandler.obj
 0003:00000050       ?staticMetaObject@EnvironmentVariant@@2UQMetaObject@@B 0045a050     moc_environmentvariant.obj
 0003:00000068       ?staticMetaObject@OperationParamObject@@2UQMetaObject@@B 0045a068     moc_workmodels.obj
 0003:00000080       ?staticMetaObject@OperationParamSelector@@2UQMetaObject@@B 0045a080     moc_workmodels.obj
 0003:00000098       ?staticMetaObject@SingleOperationObject@@2UQMetaObject@@B 0045a098     moc_workmodels.obj
 0003:000000b0       ?staticMetaObject@PlanSelector@@2UQMetaObject@@B 0045a0b0     moc_workmodels.obj
 0003:000000c8       ?staticMetaObject@PlanController@@2UQMetaObject@@B 0045a0c8     moc_workmodels.obj
 0003:000000e0       ?staticMetaObject@StatusViewWatcher@@2UQMetaObject@@B 0045a0e0     moc_workmodels.obj
 0003:000000f8       ?staticMetaObject@TargetMachineObject@@2UQMetaObject@@B 0045a0f8     moc_workmodels.obj
 0003:00000110       ___security_cookie_complement 0045a110     MSVCRT:gs_cookie.obj
 0003:00000114       ___security_cookie         0045a114     MSVCRT:gs_cookie.obj
 0003:00000118       __Init_global_epoch        0045a118     MSVCRT:thread_safe_statics.obj
 0003:0000011c       __fltused                  0045a11c     MSVCRT:fltused.obj
 0003:00000120       ___scrt_native_dllmain_reason 0045a120     MSVCRT:utility.obj
 0003:00000124       ___isa_enabled             0045a124     MSVCRT:_cpu_disp_.obj
 0003:00000130       ___scrt_default_matherr    0045a130     MSVCRT:matherr.obj
 0003:00000134       ___scrt_ucrt_dll_is_in_use 0045a134     MSVCRT:ucrt_stubs.obj
 0003:00000138       ??_R0?AVSubThreadWorker@@@8 0045a138     workflowprotocol.obj
 0003:00000158       ??_R0?AVQObject@@@8        0045a158     workflowprotocol.obj
 0003:00000170       ??_R0?AVWorkflowController@@@8 0045a170     workflowprotocol.obj
 0003:00000194       ??_R0?AVStatusChangeEvent@@@8 0045a194     workflowprotocol.obj
 0003:000001b4       ??_R0?AVQEvent@@@8         0045a1b4     workflowprotocol.obj
 0003:000001cc       ??_R0?AVRunningStateChangeEvent@@@8 0045a1cc     workflowprotocol.obj
 0003:000001f4       ??_R0?AVconfigFileHandler@@@8 0045a1f4     configfilehandler.obj
 0003:00000214       ??_R0?AVTargetMachineObject@@@8 0045a214     environmentvariant.obj
 0003:00000238       ??_R0?AVMachineConfigData@@@8 0045a238     environmentvariant.obj
 0003:00000258       ??_R0?AVEnvironmentVariant@@@8 0045a258     environmentvariant.obj
 0003:0000027c       ??_R0?AVOperationParamObject@@@8 0045a27c     main.obj
 0003:000002a0       ??_R0?AVOperationParamData@@@8 0045a2a0     main.obj
 0003:000002c4       ??_R0?AVTextFieldDoubleValidator@@@8 0045a2c4     main.obj
 0003:000002ec       ??_R0?AVQDoubleValidator@@@8 0045a2ec     main.obj
 0003:0000030c       ??_R0?AVQValidator@@@8     0045a30c     main.obj
 0003:00000328       ??_R0?AV?$QQmlElement@VTextFieldDoubleValidator@@@QQmlPrivate@@@8 0045a328     main.obj
 0003:00000370       ??_R0?AV?$QQmlElement@VOperationParamObject@@@QQmlPrivate@@@8 0045a370     main.obj
 0003:000003b0       ??_R0?AV?$QQmlElement@VOperationParamSelector@@@QQmlPrivate@@@8 0045a3b0     main.obj
 0003:000003f4       ??_R0?AVOperationParamSelector@@@8 0045a3f4     main.obj
 0003:0000041c       ??_R0?AV?$QQmlElement@VPlanSelector@@@QQmlPrivate@@@8 0045a41c     main.obj
 0003:00000454       ??_R0?AVPlanSelector@@@8   0045a454     main.obj
 0003:00000470       ??_R0?AV?$QQmlElement@VStatusViewWatcher@@@QQmlPrivate@@@8 0045a470     main.obj
 0003:000004b0       ??_R0?AVStatusViewWatcher@@@8 0045a4b0     main.obj
 0003:000004d0       ??_R0?AV?$QQmlElement@VPlanController@@@QQmlPrivate@@@8 0045a4d0     main.obj
 0003:0000050c       ??_R0?AVPlanController@@@8 0045a50c     main.obj
 0003:0000052c       ??_R0?AVtype_info@@@8      0045a52c     MSVCRT:std_type_info_static.obj
 0003:00000544       ??_R0?AVbad_alloc@std@@@8  0045a544     MSVCRT:throw_bad_alloc.obj
 0003:00000560       ??_R0?AVexception@std@@@8  0045a560     MSVCRT:throw_bad_alloc.obj
 0003:0000057c       ??_R0?AVbad_array_new_length@std@@@8 0045a57c     MSVCRT:throw_bad_alloc.obj
 0003:000005a8       ?t@?1??types@?$ConnectionTypes@U?$List@_NH@QtPrivate@@$00@QtPrivate@@SAPBHXZ@4QBHB 0045a5a8     workflowprotocol.obj
 0003:000005b4       ?$TSS0@?1??types@?$ConnectionTypes@U?$List@_NH@QtPrivate@@$00@QtPrivate@@SAPBHXZ@4HA 0045a5b4     workflowprotocol.obj
 0003:000005b8       ?t@?1??types@?$ConnectionTypes@U?$List@ABVQString@@@QtPrivate@@$00@QtPrivate@@SAPBHXZ@4QBHB 0045a5b8     workflowprotocol.obj
 0003:000005c0       ?$TSS0@?1??types@?$ConnectionTypes@U?$List@ABVQString@@@QtPrivate@@$00@QtPrivate@@SAPBHXZ@4HA 0045a5c0     workflowprotocol.obj
 0003:000005c4       ?t@?1??types@?$ConnectionTypes@U?$List@ABVQString@@G@QtPrivate@@$00@QtPrivate@@SAPBHXZ@4QBHB 0045a5c4     workflowprotocol.obj
 0003:000005d0       ?$TSS0@?1??types@?$ConnectionTypes@U?$List@ABVQString@@G@QtPrivate@@$00@QtPrivate@@SAPBHXZ@4HA 0045a5d0     workflowprotocol.obj
 0003:000005d4       ?t@?1??types@?$ConnectionTypes@U?$List@ABVQJsonObject@@@QtPrivate@@$00@QtPrivate@@SAPBHXZ@4QBHB 0045a5d4     workflowprotocol.obj
 0003:000005dc       ?$TSS0@?1??types@?$ConnectionTypes@U?$List@ABVQJsonObject@@@QtPrivate@@$00@QtPrivate@@SAPBHXZ@4HA 0045a5dc     workflowprotocol.obj
 0003:000005e0       ?m_instance@EnvironmentVariant@@0PAV1@A 0045a5e0     environmentvariant.obj
 0003:000005e4       ?metatype_id@?1??qt_metatype_id@?$QMetaTypeIdQObject@PAVPlanController@@$07@@SAHXZ@4V?$QBasicAtomicInteger@H@@A 0045a5e4     main.obj
 0003:000005e8       ?metatype_id@?1??qt_metatype_id@?$QMetaTypeIdQObject@PAVStatusViewWatcher@@$07@@SAHXZ@4V?$QBasicAtomicInteger@H@@A 0045a5e8     main.obj
 0003:000005ec       ?metatype_id@?1??qt_metatype_id@?$QMetaTypeIdQObject@PAVPlanSelector@@$07@@SAHXZ@4V?$QBasicAtomicInteger@H@@A 0045a5ec     main.obj
 0003:000005f0       ?metatype_id@?1??qt_metatype_id@?$QMetaTypeIdQObject@PAVOperationParamSelector@@$07@@SAHXZ@4V?$QBasicAtomicInteger@H@@A 0045a5f0     main.obj
 0003:000005f4       ?metatype_id@?1??qt_metatype_id@?$QMetaTypeIdQObject@PAVOperationParamObject@@$07@@SAHXZ@4V?$QBasicAtomicInteger@H@@A 0045a5f4     main.obj
 0003:000005f8       ?metatype_id@?1??qt_metatype_id@?$QMetaTypeIdQObject@PAVTextFieldDoubleValidator@@$07@@SAHXZ@4V?$QBasicAtomicInteger@H@@A 0045a5f8     main.obj
 0003:000005fc       ?dummy@?A0x60b45615@@3Uinitializer@1@A 0045a5fc     qrc_qml.obj
 0003:00000600       ?metatype_id@?1??qt_metatype_id@?$QMetaTypeId@VQSequentialIterableImpl@QtMetaTypePrivate@@@@SAHXZ@4V?$QBasicAtomicInteger@H@@A 0045a600     moc_workmodels.obj
 0003:00000604       ?metatype_id@?1??qt_metatype_id@?$QMetaTypeId@V?$QList@PAVQObject@@@@@@SAHXZ@4V?$QBasicAtomicInteger@H@@A 0045a604     moc_workmodels.obj
 0003:00000608       ?f@?4??registerConverter@?$ValueTypeIsMetaType@V?$QList@PAVQObject@@@@$00@QtPrivate@@SA_NH@Z@4U?$ConverterFunctor@V?$QList@PAVQObject@@@@VQSequentialIterableImpl@QtMetaTypePrivate@@U?$QSequentialIterableConvertFunctor@V?$QList@PAVQObject@@@@@3@@3@B 0045a608     moc_workmodels.obj
 0003:00000610       ?$TSS0@?4??registerConverter@?$ValueTypeIsMetaType@V?$QList@PAVQObject@@@@$00@QtPrivate@@SA_NH@Z@4HA 0045a610     moc_workmodels.obj
 0003:00000614       ?metatype_id@?1??qt_metatype_id@?$QMetaTypeId@V?$QList@H@@@@SAHXZ@4V?$QBasicAtomicInteger@H@@A 0045a614     moc_workmodels.obj
 0003:00000618       ?f@?4??registerConverter@?$ValueTypeIsMetaType@V?$QList@H@@$00@QtPrivate@@SA_NH@Z@4U?$ConverterFunctor@V?$QList@H@@VQSequentialIterableImpl@QtMetaTypePrivate@@U?$QSequentialIterableConvertFunctor@V?$QList@H@@@3@@3@B 0045a618     moc_workmodels.obj
 0003:00000620       ?$TSS0@?4??registerConverter@?$ValueTypeIsMetaType@V?$QList@H@@$00@QtPrivate@@SA_NH@Z@4HA 0045a620     moc_workmodels.obj
 0003:0000064c       __tls_index                0045a64c     MSVCRT:tlssup.obj
 0003:00000650       ___scrt_current_native_startup_state 0045a650     MSVCRT:utility.obj
 0003:00000654       ___scrt_native_startup_lock 0045a654     MSVCRT:utility.obj
 0003:00000994       ___scrt_debugger_hook_flag 0045a994     MSVCRT:utility_desktop.obj
 0003:00000998       ___isa_available           0045a998     MSVCRT:_cpu_disp_.obj
 0003:0000099c       ___favor                   0045a99c     MSVCRT:_cpu_disp_.obj
 0003:000009a0       ?__type_info_root_node@@3U__type_info_node@@A 0045a9a0     MSVCRT:tncleanup.obj
 0003:000009a8       ?_OptionsStorage@?1??__local_stdio_printf_options@@9@4_KA 0045a9a8     MSVCRT:default_local_stdio_options.obj
 0003:000009b0       ?_OptionsStorage@?1??__local_stdio_scanf_options@@9@4_KA 0045a9b0     MSVCRT:default_local_stdio_options.obj
 0003:000009b8       ___dyn_tls_dtor_callback   0045a9b8     <common>
 0003:000009bc       ___dyn_tls_init_callback   0045a9bc     <common>
 0004:00000000       __tls_start                0045b000     MSVCRT:tlssup.obj
 0004:00000004       __Init_thread_epoch        0045b004     MSVCRT:thread_safe_statics.obj
 0004:00000008       __tls_end                  0045b008     MSVCRT:tlssup.obj

 entry point at        0001:000157dd

 Static symbols

 0000:fff9e000       .debug$S                   00400000     ucrt:api-ms-win-crt-stdio-l1-1-0.dll
 0000:fff9e000       .debug$S                   00400000     vcruntime:VCRUNTIME140.dll
 0000:fff9e000       .debug$S                   00400000     vcruntime:VCRUNTIME140.dll
 0000:fff9e000       .debug$S                   00400000     vcruntime:VCRUNTIME140.dll
 0000:fff9e000       .debug$S                   00400000     vcruntime:VCRUNTIME140.dll
 0000:fff9e000       .debug$S                   00400000     vcruntime:VCRUNTIME140.dll
 0000:fff9e000       .debug$S                   00400000     vcruntime:VCRUNTIME140.dll
 0000:fff9e000       .debug$S                   00400000     vcruntime:VCRUNTIME140.dll
 0000:fff9e000       .debug$S                   00400000     vcruntime:VCRUNTIME140.dll
 0000:fff9e000       .debug$S                   00400000     vcruntime:VCRUNTIME140.dll
 0000:fff9e000       .debug$S                   00400000     vcruntime:VCRUNTIME140.dll
 0000:fff9e000       .debug$S                   00400000     vcruntime:VCRUNTIME140.dll
 0000:fff9e000       .debug$S                   00400000     kernel32:KERNEL32.dll
 0000:fff9e000       .debug$S                   00400000     kernel32:KERNEL32.dll
 0000:fff9e000       .debug$S                   00400000     kernel32:KERNEL32.dll
 0000:fff9e000       .debug$S                   00400000     shell32:SHELL32.dll
 0000:fff9e000       .debug$S                   00400000     ucrt:api-ms-win-crt-heap-l1-1-0.dll
 0000:fff9e000       .debug$S                   00400000     DbgHelp:dbghelp.dll
 0000:fff9e000       .debug$S                   00400000     Qt5Quick:Qt5Quick.dll
 0000:fff9e000       .debug$S                   00400000     Qt5Quick:Qt5Quick.dll
 0000:fff9e000       .debug$S                   00400000     Qt5Quick:Qt5Quick.dll
 0000:fff9e000       .debug$S                   00400000     Qt5Quick:Qt5Quick.dll
 0000:fff9e000       .debug$S                   00400000     kernel32:KERNEL32.dll
 0000:fff9e000       .debug$S                   00400000     kernel32:KERNEL32.dll
 0000:fff9e000       .debug$S                   00400000     Qt5Quick:Qt5Quick.dll
 0000:fff9e000       .debug$S                   00400000     Qt5Quick:Qt5Quick.dll
 0000:fff9e000       .debug$S                   00400000     kernel32:KERNEL32.dll
 0000:fff9e000       .debug$S                   00400000     kernel32:KERNEL32.dll
 0000:fff9e000       .debug$S                   00400000     Qt5Gui:Qt5Gui.dll
 0000:fff9e000       .debug$S                   00400000     Qt5Gui:Qt5Gui.dll
 0000:fff9e000       .debug$S                   00400000     Qt5Gui:Qt5Gui.dll
 0000:fff9e000       .debug$S                   00400000     Qt5Gui:Qt5Gui.dll
 0000:fff9e000       .debug$S                   00400000     Qt5Gui:Qt5Gui.dll
 0000:fff9e000       .debug$S                   00400000     kernel32:KERNEL32.dll
 0000:fff9e000       .debug$S                   00400000     kernel32:KERNEL32.dll
 0000:fff9e000       .debug$S                   00400000     Qt5Gui:Qt5Gui.dll
 0000:fff9e000       .debug$S                   00400000     kernel32:KERNEL32.dll
 0000:fff9e000       .debug$S                   00400000     kernel32:KERNEL32.dll
 0000:fff9e000       .debug$S                   00400000     Qt5Gui:Qt5Gui.dll
 0000:fff9e000       .debug$S                   00400000     kernel32:KERNEL32.dll
 0000:fff9e000       .debug$S                   00400000     kernel32:KERNEL32.dll
 0000:fff9e000       .debug$S                   00400000     Qt5Gui:Qt5Gui.dll
 0000:fff9e000       .debug$S                   00400000     Qt5Gui:Qt5Gui.dll
 0000:fff9e000       .debug$S                   00400000     kernel32:KERNEL32.dll
 0000:fff9e000       .debug$S                   00400000     kernel32:KERNEL32.dll
 0000:fff9e000       .debug$S                   00400000     kernel32:KERNEL32.dll
 0000:fff9e000       .debug$S                   00400000     kernel32:KERNEL32.dll
 0000:fff9e000       .debug$S                   00400000     kernel32:KERNEL32.dll
 0000:fff9e000       .debug$S                   00400000     kernel32:KERNEL32.dll
 0000:fff9e000       .debug$S                   00400000     kernel32:KERNEL32.dll
 0000:fff9e000       .debug$S                   00400000     kernel32:KERNEL32.dll
 0000:fff9e000       .debug$S                   00400000     kernel32:KERNEL32.dll
 0000:fff9e000       .debug$S                   00400000     kernel32:KERNEL32.dll
 0000:fff9e000       .debug$S                   00400000     kernel32:KERNEL32.dll
 0000:fff9e000       .debug$S                   00400000     kernel32:KERNEL32.dll
 0000:fff9e000       .debug$S                   00400000     kernel32:KERNEL32.dll
 0000:fff9e000       .debug$S                   00400000     ucrt:api-ms-win-crt-stdio-l1-1-0.dll
 0000:fff9e000       .debug$S                   00400000     ucrt:api-ms-win-crt-runtime-l1-1-0.dll
 0000:fff9e000       .debug$S                   00400000     Qt5Gui:Qt5Gui.dll
 0000:fff9e000       .debug$S                   00400000     ucrt:api-ms-win-crt-runtime-l1-1-0.dll
 0000:fff9e000       .debug$S                   00400000     ucrt:api-ms-win-crt-runtime-l1-1-0.dll
 0000:fff9e000       .debug$S                   00400000     ucrt:api-ms-win-crt-runtime-l1-1-0.dll
 0000:fff9e000       .debug$S                   00400000     Qt5Gui:Qt5Gui.dll
 0000:fff9e000       .debug$S                   00400000     ucrt:api-ms-win-crt-runtime-l1-1-0.dll
 0000:fff9e000       .debug$S                   00400000     ucrt:api-ms-win-crt-runtime-l1-1-0.dll
 0000:fff9e000       .debug$S                   00400000     ucrt:api-ms-win-crt-runtime-l1-1-0.dll
 0000:fff9e000       .debug$S                   00400000     Qt5Gui:Qt5Gui.dll
 0000:fff9e000       .debug$S                   00400000     Qt5Gui:Qt5Gui.dll
 0000:fff9e000       .debug$S                   00400000     Qt5Gui:Qt5Gui.dll
 0000:fff9e000       .debug$S                   00400000     ucrt:api-ms-win-crt-runtime-l1-1-0.dll
 0000:fff9e000       .debug$S                   00400000     ucrt:api-ms-win-crt-runtime-l1-1-0.dll
 0000:fff9e000       .debug$S                   00400000     ucrt:api-ms-win-crt-runtime-l1-1-0.dll
 0000:fff9e000       .debug$S                   00400000     ucrt:api-ms-win-crt-runtime-l1-1-0.dll
 0000:fff9e000       .debug$S                   00400000     ucrt:api-ms-win-crt-runtime-l1-1-0.dll
 0000:fff9e000       .debug$S                   00400000     ucrt:api-ms-win-crt-runtime-l1-1-0.dll
 0000:fff9e000       .debug$S                   00400000     Qt5Gui:Qt5Gui.dll
 0000:fff9e000       .debug$S                   00400000     ucrt:api-ms-win-crt-runtime-l1-1-0.dll
 0000:fff9e000       .debug$S                   00400000     Qt5Gui:Qt5Gui.dll
 0000:fff9e000       .debug$S                   00400000     ucrt:api-ms-win-crt-runtime-l1-1-0.dll
 0000:fff9e000       .debug$S                   00400000     ucrt:api-ms-win-crt-runtime-l1-1-0.dll
 0000:fff9e000       .debug$S                   00400000     ucrt:api-ms-win-crt-runtime-l1-1-0.dll
 0000:fff9e000       .debug$S                   00400000     ucrt:api-ms-win-crt-runtime-l1-1-0.dll
 0000:fff9e000       .debug$S                   00400000     ucrt:api-ms-win-crt-runtime-l1-1-0.dll
 0000:fff9e000       .debug$S                   00400000     ucrt:api-ms-win-crt-runtime-l1-1-0.dll
 0000:fff9e000       .debug$S                   00400000     ucrt:api-ms-win-crt-runtime-l1-1-0.dll
 0000:fff9e000       .debug$S                   00400000     ucrt:api-ms-win-crt-runtime-l1-1-0.dll
 0000:fff9e000       .debug$S                   00400000     ucrt:api-ms-win-crt-math-l1-1-0.dll
 0000:fff9e000       .debug$S                   00400000     ucrt:api-ms-win-crt-locale-l1-1-0.dll
 0000:fff9e000       .debug$S                   00400000     ucrt:api-ms-win-crt-heap-l1-1-0.dll
 0000:fff9e000       .debug$S                   00400000     ucrt:api-ms-win-crt-heap-l1-1-0.dll
 0000:fff9e000       .debug$S                   00400000     ucrt:api-ms-win-crt-heap-l1-1-0.dll
 0000:fff9e000       .debug$S                   00400000     Qt5Gui:Qt5Gui.dll
 0000:fff9e000       .debug$S                   00400000     Qt5Core:Qt5Core.dll
 0000:fff9e000       .debug$S                   00400000     Qt5Core:Qt5Core.dll
 0000:fff9e000       .debug$S                   00400000     Qt5Gui:Qt5Gui.dll
 0000:fff9e000       .debug$S                   00400000     Qt5Core:Qt5Core.dll
 0000:fff9e000       .debug$S                   00400000     Qt5Core:Qt5Core.dll
 0000:fff9e000       .debug$S                   00400000     Qt5Core:Qt5Core.dll
 0000:fff9e000       .debug$S                   00400000     Qt5Gui:Qt5Gui.dll
 0000:fff9e000       .debug$S                   00400000     Qt5Core:Qt5Core.dll
 0000:fff9e000       .debug$S                   00400000     Qt5Core:Qt5Core.dll
 0000:fff9e000       .debug$S                   00400000     Qt5Core:Qt5Core.dll
 0000:fff9e000       .debug$S                   00400000     Qt5Core:Qt5Core.dll
 0000:fff9e000       .debug$S                   00400000     Qt5Core:Qt5Core.dll
 0000:fff9e000       .debug$S                   00400000     Qt5Gui:Qt5Gui.dll
 0000:fff9e000       .debug$S                   00400000     Qt5Gui:Qt5Gui.dll
 0000:fff9e000       .debug$S                   00400000     Qt5Qml:Qt5Qml.dll
 0000:fff9e000       .debug$S                   00400000     Qt5Qml:Qt5Qml.dll
 0000:fff9e000       .debug$S                   00400000     Qt5Core:Qt5Core.dll
 0000:fff9e000       .debug$S                   00400000     Qt5Core:Qt5Core.dll
 0000:fff9e000       .debug$S                   00400000     Qt5Core:Qt5Core.dll
 0000:fff9e000       .debug$S                   00400000     Qt5Core:Qt5Core.dll
 0000:fff9e000       .debug$S                   00400000     Qt5Core:Qt5Core.dll
 0000:fff9e000       .debug$S                   00400000     Qt5Qml:Qt5Qml.dll
 0000:fff9e000       .debug$S                   00400000     Qt5Core:Qt5Core.dll
 0000:fff9e000       .debug$S                   00400000     Qt5Core:Qt5Core.dll
 0000:fff9e000       .debug$S                   00400000     Qt5Core:Qt5Core.dll
 0000:fff9e000       .debug$S                   00400000     Qt5Core:Qt5Core.dll
 0000:fff9e000       .debug$S                   00400000     Qt5Core:Qt5Core.dll
 0000:fff9e000       .debug$S                   00400000     Qt5Core:Qt5Core.dll
 0000:fff9e000       .debug$S                   00400000     Qt5Qml:Qt5Qml.dll
 0000:fff9e000       .debug$S                   00400000     Qt5Qml:Qt5Qml.dll
 0000:fff9e000       .debug$S                   00400000     Qt5Core:Qt5Core.dll
 0000:fff9e000       .debug$S                   00400000     Qt5Core:Qt5Core.dll
 0000:fff9e000       .debug$S                   00400000     Qt5Qml:Qt5Qml.dll
 0000:fff9e000       .debug$S                   00400000     Qt5Core:Qt5Core.dll
 0000:fff9e000       .debug$S                   00400000     Qt5Network:Qt5Network.dll
 0000:fff9e000       .debug$S                   00400000     Qt5Network:Qt5Network.dll
 0000:fff9e000       .debug$S                   00400000     Qt5Core:Qt5Core.dll
 0000:fff9e000       .debug$S                   00400000     Qt5Core:Qt5Core.dll
 0000:fff9e000       .debug$S                   00400000     Qt5Core:Qt5Core.dll
 0000:fff9e000       .debug$S                   00400000     Qt5Core:Qt5Core.dll
 0000:fff9e000       .debug$S                   00400000     Qt5Core:Qt5Core.dll
 0000:fff9e000       .debug$S                   00400000     Qt5Core:Qt5Core.dll
 0000:fff9e000       .debug$S                   00400000     Qt5Core:Qt5Core.dll
 0000:fff9e000       .debug$S                   00400000     Qt5Core:Qt5Core.dll
 0000:fff9e000       .debug$S                   00400000     Qt5Core:Qt5Core.dll
 0000:fff9e000       .debug$S                   00400000     Qt5Core:Qt5Core.dll
 0000:fff9e000       .debug$S                   00400000     Qt5Core:Qt5Core.dll
 0000:fff9e000       .debug$S                   00400000     Qt5Core:Qt5Core.dll
 0000:fff9e000       .debug$S                   00400000     Qt5Core:Qt5Core.dll
 0000:fff9e000       .debug$S                   00400000     Qt5Core:Qt5Core.dll
 0000:fff9e000       .debug$S                   00400000     Qt5Core:Qt5Core.dll
 0000:fff9e000       .debug$S                   00400000     Qt5Core:Qt5Core.dll
 0000:fff9e000       .debug$S                   00400000     Qt5Core:Qt5Core.dll
 0000:fff9e000       .debug$S                   00400000     Qt5Core:Qt5Core.dll
 0000:fff9e000       .debug$S                   00400000     Qt5Core:Qt5Core.dll
 0000:fff9e000       .debug$S                   00400000     Qt5Core:Qt5Core.dll
 0000:fff9e000       .debug$S                   00400000     Qt5Core:Qt5Core.dll
 0000:fff9e000       .debug$S                   00400000     Qt5Core:Qt5Core.dll
 0000:fff9e000       .debug$S                   00400000     Qt5Core:Qt5Core.dll
 0000:fff9e000       .debug$S                   00400000     Qt5Core:Qt5Core.dll
 0000:fff9e000       .debug$S                   00400000     Qt5Core:Qt5Core.dll
 0000:fff9e000       .debug$S                   00400000     Qt5Core:Qt5Core.dll
 0000:fff9e000       .debug$S                   00400000     Qt5Core:Qt5Core.dll
 0000:fff9e000       .debug$S                   00400000     Qt5Core:Qt5Core.dll
 0000:fff9e000       .debug$S                   00400000     Qt5Core:Qt5Core.dll
 0000:fff9e000       .debug$S                   00400000     Qt5Core:Qt5Core.dll
 0000:fff9e000       .debug$S                   00400000     Qt5Core:Qt5Core.dll
 0000:fff9e000       .debug$S                   00400000     Qt5Core:Qt5Core.dll
 0000:fff9e000       .debug$S                   00400000     Qt5Core:Qt5Core.dll
 0000:fff9e000       .debug$S                   00400000     Qt5Core:Qt5Core.dll
 0000:fff9e000       .debug$S                   00400000     Qt5Core:Qt5Core.dll
 0000:fff9e000       .debug$S                   00400000     Qt5Core:Qt5Core.dll
 0000:fff9e000       .debug$S                   00400000     Qt5Core:Qt5Core.dll
 0000:fff9e000       .debug$S                   00400000     Qt5Core:Qt5Core.dll
 0000:fff9e000       .debug$S                   00400000     Qt5Core:Qt5Core.dll
 0000:fff9e000       .debug$S                   00400000     Qt5Core:Qt5Core.dll
 0000:fff9e000       .debug$S                   00400000     Qt5Core:Qt5Core.dll
 0000:fff9e000       .debug$S                   00400000     Qt5Core:Qt5Core.dll
 0000:fff9e000       .debug$S                   00400000     Qt5Core:Qt5Core.dll
 0000:fff9e000       .debug$S                   00400000     Qt5Core:Qt5Core.dll
 0000:fff9e000       .debug$S                   00400000     Qt5Core:Qt5Core.dll
 0000:fff9e000       .debug$S                   00400000     Qt5Core:Qt5Core.dll
 0000:fff9e000       .debug$S                   00400000     Qt5Core:Qt5Core.dll
 0000:fff9e000       .debug$S                   00400000     Qt5Core:Qt5Core.dll
 0000:fff9e000       .debug$S                   00400000     Qt5Core:Qt5Core.dll
 0000:fff9e000       .debug$S                   00400000     Qt5Core:Qt5Core.dll
 0000:fff9e000       .debug$S                   00400000     Qt5Core:Qt5Core.dll
 0000:fff9e000       .debug$S                   00400000     Qt5Core:Qt5Core.dll
 0000:fff9e000       .debug$S                   00400000     Qt5Core:Qt5Core.dll
 0000:fff9e000       .debug$S                   00400000     Qt5Core:Qt5Core.dll
 0000:fff9e000       .debug$S                   00400000     Qt5Core:Qt5Core.dll
 0000:fff9e000       .debug$S                   00400000     Qt5Core:Qt5Core.dll
 0000:fff9e000       .debug$S                   00400000     Qt5Core:Qt5Core.dll
 0000:fff9e000       .debug$S                   00400000     Qt5Core:Qt5Core.dll
 0000:fff9e000       .debug$S                   00400000     Qt5Core:Qt5Core.dll
 0000:fff9e000       .debug$S                   00400000     Qt5Core:Qt5Core.dll
 0000:fff9e000       .debug$S                   00400000     Qt5Core:Qt5Core.dll
 0000:fff9e000       .debug$S                   00400000     Qt5Core:Qt5Core.dll
 0000:fff9e000       .debug$S                   00400000     Qt5Core:Qt5Core.dll
 0000:fff9e000       .debug$S                   00400000     Qt5Core:Qt5Core.dll
 0000:fff9e000       .debug$S                   00400000     Qt5Core:Qt5Core.dll
 0000:fff9e000       .debug$S                   00400000     Qt5Core:Qt5Core.dll
 0000:fff9e000       .debug$S                   00400000     Qt5Core:Qt5Core.dll
 0000:fff9e000       .debug$S                   00400000     Qt5Core:Qt5Core.dll
 0000:fff9e000       .debug$S                   00400000     Qt5Core:Qt5Core.dll
 0000:fff9e000       .debug$S                   00400000     Qt5Core:Qt5Core.dll
 0000:fff9e000       .debug$S                   00400000     Qt5Network:Qt5Network.dll
 0000:fff9e000       .debug$S                   00400000     Qt5Network:Qt5Network.dll
 0000:fff9e000       .debug$S                   00400000     Qt5Core:Qt5Core.dll
 0000:fff9e000       .debug$S                   00400000     Qt5Core:Qt5Core.dll
 0000:fff9e000       .debug$S                   00400000     Qt5Core:Qt5Core.dll
 0000:fff9e000       .debug$S                   00400000     Qt5Core:Qt5Core.dll
 0000:fff9e000       .debug$S                   00400000     Qt5Core:Qt5Core.dll
 0000:fff9e000       .debug$S                   00400000     Qt5Core:Qt5Core.dll
 0000:fff9e000       .debug$S                   00400000     Qt5Core:Qt5Core.dll
 0000:fff9e000       .debug$S                   00400000     Qt5Core:Qt5Core.dll
 0000:fff9e000       .debug$S                   00400000     Qt5Core:Qt5Core.dll
 0000:fff9e000       .debug$S                   00400000     Qt5Core:Qt5Core.dll
 0000:fff9e000       .debug$S                   00400000     Qt5Core:Qt5Core.dll
 0000:fff9e000       .debug$S                   00400000     Qt5Core:Qt5Core.dll
 0000:fff9e000       .debug$S                   00400000     Qt5Core:Qt5Core.dll
 0000:fff9e000       .debug$S                   00400000     Qt5Core:Qt5Core.dll
 0000:fff9e000       .debug$S                   00400000     Qt5Core:Qt5Core.dll
 0000:fff9e000       .debug$S                   00400000     Qt5Core:Qt5Core.dll
 0000:fff9e000       .debug$S                   00400000     Qt5Core:Qt5Core.dll
 0000:fff9e000       .debug$S                   00400000     Qt5Core:Qt5Core.dll
 0000:fff9e000       .debug$S                   00400000     Qt5Core:Qt5Core.dll
 0000:fff9e000       .debug$S                   00400000     Qt5Core:Qt5Core.dll
 0000:fff9e000       .debug$S                   00400000     Qt5Core:Qt5Core.dll
 0000:fff9e000       .debug$S                   00400000     Qt5Core:Qt5Core.dll
 0000:fff9e000       .debug$S                   00400000     Qt5Core:Qt5Core.dll
 0000:fff9e000       .debug$S                   00400000     Qt5Core:Qt5Core.dll
 0000:fff9e000       .debug$S                   00400000     Qt5Core:Qt5Core.dll
 0000:fff9e000       .debug$S                   00400000     Qt5Core:Qt5Core.dll
 0000:fff9e000       .debug$S                   00400000     Qt5Core:Qt5Core.dll
 0000:fff9e000       .debug$S                   00400000     Qt5Core:Qt5Core.dll
 0000:fff9e000       .debug$S                   00400000     Qt5Core:Qt5Core.dll
 0000:fff9e000       .debug$S                   00400000     Qt5Core:Qt5Core.dll
 0000:fff9e000       .debug$S                   00400000     Qt5Core:Qt5Core.dll
 0000:fff9e000       .debug$S                   00400000     Qt5Core:Qt5Core.dll
 0000:fff9e000       .debug$S                   00400000     Qt5Core:Qt5Core.dll
 0000:fff9e000       .debug$S                   00400000     Qt5Core:Qt5Core.dll
 0000:fff9e000       .debug$S                   00400000     Qt5Core:Qt5Core.dll
 0000:fff9e000       .debug$S                   00400000     Qt5Core:Qt5Core.dll
 0000:fff9e000       .debug$S                   00400000     Qt5Core:Qt5Core.dll
 0000:fff9e000       .debug$S                   00400000     Qt5Core:Qt5Core.dll
 0000:fff9e000       .debug$S                   00400000     Qt5Core:Qt5Core.dll
 0000:fff9e000       .debug$S                   00400000     Qt5Core:Qt5Core.dll
 0000:fff9e000       .debug$S                   00400000     Qt5Core:Qt5Core.dll
 0000:fff9e000       .debug$S                   00400000     Qt5Core:Qt5Core.dll
 0000:fff9e000       .debug$S                   00400000     Qt5Core:Qt5Core.dll
 0000:fff9e000       .debug$S                   00400000     Qt5Core:Qt5Core.dll
 0000:fff9e000       .debug$S                   00400000     Qt5Core:Qt5Core.dll
 0000:fff9e000       .debug$S                   00400000     Qt5Core:Qt5Core.dll
 0000:fff9e000       .debug$S                   00400000     Qt5Core:Qt5Core.dll
 0000:fff9e000       .debug$S                   00400000     Qt5Core:Qt5Core.dll
 0000:fff9e000       .debug$S                   00400000     Qt5Core:Qt5Core.dll
 0000:fff9e000       .debug$S                   00400000     Qt5Core:Qt5Core.dll
 0000:fff9e000       .debug$S                   00400000     Qt5Core:Qt5Core.dll
 0000:fff9e000       .debug$S                   00400000     Qt5Core:Qt5Core.dll
 0000:fff9e000       .debug$S                   00400000     Qt5Core:Qt5Core.dll
 0000:fff9e000       .debug$S                   00400000     Qt5Core:Qt5Core.dll
 0000:fff9e000       .debug$S                   00400000     Qt5Core:Qt5Core.dll
 0000:fff9e000       .debug$S                   00400000     Qt5Core:Qt5Core.dll
 0000:fff9e000       .debug$S                   00400000     Qt5Core:Qt5Core.dll
 0000:fff9e000       .debug$S                   00400000     Qt5Core:Qt5Core.dll
 0000:fff9e000       .debug$S                   00400000     Qt5Network:Qt5Network.dll
 0000:fff9e000       .debug$S                   00400000     Qt5Core:Qt5Core.dll
 0000:fff9e000       .debug$S                   00400000     Qt5Core:Qt5Core.dll
 0000:fff9e000       .debug$S                   00400000     Qt5Core:Qt5Core.dll
 0000:fff9e000       .debug$S                   00400000     Qt5Core:Qt5Core.dll
 0000:fff9e000       .debug$S                   00400000     Qt5Core:Qt5Core.dll
 0000:fff9e000       .debug$S                   00400000     Qt5Core:Qt5Core.dll
 0000:fff9e000       .debug$S                   00400000     Qt5Core:Qt5Core.dll
 0000:fff9e000       .debug$S                   00400000     Qt5Core:Qt5Core.dll
 0000:fff9e000       .debug$S                   00400000     Qt5Core:Qt5Core.dll
 0000:fff9e000       .debug$S                   00400000     Qt5Core:Qt5Core.dll
 0000:fff9e000       .debug$S                   00400000     Qt5Core:Qt5Core.dll
 0000:fff9e000       .debug$S                   00400000     Qt5Core:Qt5Core.dll
 0000:fff9e000       .debug$S                   00400000     Qt5Core:Qt5Core.dll
 0000:fff9e000       .debug$S                   00400000     Qt5Core:Qt5Core.dll
 0000:fff9e000       .debug$S                   00400000     Qt5Core:Qt5Core.dll
 0000:fff9e000       .debug$S                   00400000     Qt5Core:Qt5Core.dll
 0000:fff9e000       .debug$S                   00400000     Qt5Core:Qt5Core.dll
 0000:fff9e000       .debug$S                   00400000     Qt5Core:Qt5Core.dll
 0000:fff9e000       .debug$S                   00400000     Qt5Core:Qt5Core.dll
 0000:fff9e000       .debug$S                   00400000     Qt5Core:Qt5Core.dll
 0000:fff9e000       .debug$S                   00400000     Qt5Core:Qt5Core.dll
 0000:fff9e000       .debug$S                   00400000     Qt5Core:Qt5Core.dll
 0000:fff9e000       .debug$S                   00400000     Qt5Core:Qt5Core.dll
 0000:fff9e000       .debug$S                   00400000     Qt5Core:Qt5Core.dll
 0000:fff9e000       .debug$S                   00400000     Qt5Core:Qt5Core.dll
 0000:fff9e000       .debug$S                   00400000     Qt5Core:Qt5Core.dll
 0000:fff9e000       .debug$S                   00400000     Qt5Core:Qt5Core.dll
 0000:fff9e000       .debug$S                   00400000     Qt5Core:Qt5Core.dll
 0000:fff9e000       .debug$S                   00400000     Qt5Core:Qt5Core.dll
 0000:fff9e000       .debug$S                   00400000     Qt5Core:Qt5Core.dll
 0000:fff9e000       .debug$S                   00400000     Qt5Core:Qt5Core.dll
 0000:fff9e000       .debug$S                   00400000     Qt5Core:Qt5Core.dll
 0000:fff9e000       .debug$S                   00400000     Qt5Core:Qt5Core.dll
 0000:fff9e000       .debug$S                   00400000     Qt5Core:Qt5Core.dll
 0000:fff9e000       .debug$S                   00400000     Qt5Core:Qt5Core.dll
 0000:fff9e000       .debug$S                   00400000     Qt5Core:Qt5Core.dll
 0000:fff9e000       .debug$S                   00400000     Qt5Core:Qt5Core.dll
 0000:fff9e000       .debug$S                   00400000     Qt5Core:Qt5Core.dll
 0000:fff9e000       .debug$S                   00400000     Qt5Core:Qt5Core.dll
 0000:fff9e000       .debug$S                   00400000     Qt5Core:Qt5Core.dll
 0000:fff9e000       .debug$S                   00400000     Qt5Core:Qt5Core.dll
 0000:fff9e000       .debug$S                   00400000     Qt5Core:Qt5Core.dll
 0000:fff9e000       .debug$S                   00400000     Qt5Core:Qt5Core.dll
 0000:fff9e000       .debug$S                   00400000     Qt5Core:Qt5Core.dll
 0000:fff9e000       .debug$S                   00400000     Qt5Core:Qt5Core.dll
 0000:fff9e000       .debug$S                   00400000     Qt5Core:Qt5Core.dll
 0000:fff9e000       .debug$S                   00400000     Qt5Core:Qt5Core.dll
 0000:fff9e000       .debug$S                   00400000     Qt5Core:Qt5Core.dll
 0000:fff9e000       .debug$S                   00400000     Qt5Core:Qt5Core.dll
 0000:fff9e000       .debug$S                   00400000     Qt5Core:Qt5Core.dll
 0000:fff9e000       .debug$S                   00400000     Qt5Core:Qt5Core.dll
 0000:fff9e000       .debug$S                   00400000     Qt5Core:Qt5Core.dll
 0000:fff9e000       .debug$S                   00400000     Qt5Core:Qt5Core.dll
 0000:fff9e000       .debug$S                   00400000     Qt5Core:Qt5Core.dll
 0000:fff9e000       .debug$S                   00400000     Qt5Core:Qt5Core.dll
 0000:fff9e000       .debug$S                   00400000     Qt5Network:Qt5Network.dll
 0000:fff9e000       .debug$S                   00400000     Qt5Network:Qt5Network.dll
 0001:00000000       ??__Edummy@?A0x60b45615@@YAXXZ 00401000 f   qrc_qml.obj
 0001:00000030       ??__E?staticMetaObject@SubThreadWorker@@2UQMetaObject@@B@@YAXXZ 00401030 f   moc_workflowprotocol.obj
 0001:00000040       ??__E?staticMetaObject@WorkflowController@@2UQMetaObject@@B@@YAXXZ 00401040 f   moc_workflowprotocol.obj
 0001:00000050       ??__E?staticMetaObject@configFileHandler@@2UQMetaObject@@B@@YAXXZ 00401050 f   moc_configfilehandler.obj
 0001:00000060       ??__E?staticMetaObject@EnvironmentVariant@@2UQMetaObject@@B@@YAXXZ 00401060 f   moc_environmentvariant.obj
 0001:00000070       ??__E?staticMetaObject@OperationParamObject@@2UQMetaObject@@B@@YAXXZ 00401070 f   moc_workmodels.obj
 0001:00000080       ??__E?staticMetaObject@OperationParamSelector@@2UQMetaObject@@B@@YAXXZ 00401080 f   moc_workmodels.obj
 0001:00000090       ??__E?staticMetaObject@PlanController@@2UQMetaObject@@B@@YAXXZ 00401090 f   moc_workmodels.obj
 0001:000000a0       ??__E?staticMetaObject@PlanSelector@@2UQMetaObject@@B@@YAXXZ 004010a0 f   moc_workmodels.obj
 0001:000000b0       ??__E?staticMetaObject@SingleOperationObject@@2UQMetaObject@@B@@YAXXZ 004010b0 f   moc_workmodels.obj
 0001:000000c0       ??__E?staticMetaObject@StatusViewWatcher@@2UQMetaObject@@B@@YAXXZ 004010c0 f   moc_workmodels.obj
 0001:000000d0       ??__E?staticMetaObject@TargetMachineObject@@2UQMetaObject@@B@@YAXXZ 004010d0 f   moc_workmodels.obj
 0001:00000771       __catch$??0?$QList@VQString@@@@QAE@ABV0@@Z$0 00401771 f i workflowprotocol.obj
 0001:00000d50       __catch$?append@?$QList@UloopControl@SubThreadWorker@@@@QAEXABUloopControl@SubThreadWorker@@@Z$0 00401d50 f i workflowprotocol.obj
 0001:00000d50       __catch$?append@?$QList@UloopControl@SubThreadWorker@@@@QAEXABUloopControl@SubThreadWorker@@@Z$2 00401d50 f i workflowprotocol.obj
 0001:00000e4b       __catch$?append@?$QList@VQString@@@@QAEXABVQString@@@Z$4 00401e4b f i workflowprotocol.obj
 0001:00001025       __catch$?detach_helper@?$QList@UloopControl@SubThreadWorker@@@@AAEXH@Z$0 00402025 f i workflowprotocol.obj
 0001:0000113d       __catch$?detach_helper_grow@?$QList@UloopControl@SubThreadWorker@@@@AAEPAUNode@1@HH@Z$2 0040213d f i workflowprotocol.obj
 0001:00001178       __catch$?detach_helper_grow@?$QList@UloopControl@SubThreadWorker@@@@AAEPAUNode@1@HH@Z$0 00402178 f i workflowprotocol.obj
 0001:000012be       __catch$?detach_helper_grow@?$QList@VQString@@@@AAEPAUNode@1@HH@Z$2 004022be f i workflowprotocol.obj
 0001:000012f9       __catch$?detach_helper_grow@?$QList@VQString@@@@AAEPAUNode@1@HH@Z$0 004022f9 f i workflowprotocol.obj
 0001:000037f6       __catch$?node_copy@?$QList@UloopControl@SubThreadWorker@@@@AAEXPAUNode@1@00@Z$0 004047f6 f i workflowprotocol.obj
 0001:00004831       __catch$??0?$QList@H@@QAE@ABV0@@Z$0 00405831 f i configfilehandler.obj
 0001:00004831       __catch$??0?$QList@PAVQObject@@@@QAE@ABV0@@Z$0 00405831 f i workmodels.obj
 0001:000048e1       __catch$??0?$QList@VOperationParamData@@@@QAE@ABV0@@Z$0 004058e1 f i configfilehandler.obj
 0001:00004991       __catch$??0?$QList@VSingleOperationData@@@@QAE@ABV0@@Z$0 00405991 f i configfilehandler.obj
 0001:00008535       __catch$?append@?$QList@H@@QAEXABH@Z$4 00409535 f i configfilehandler.obj
 0001:00008535       __catch$?append@?$QList@PAVQObject@@@@QAEXABQAVQObject@@@Z$4 00409535 f i workmodels.obj
 0001:000085b1       __catch$?append@?$QList@U?$QPair@VQString@@V?$QList@VSingleOperationData@@@@@@@@QAEXABU?$QPair@VQString@@V?$QList@VSingleOperationData@@@@@@@Z$2 004095b1 f i configfilehandler.obj
 0001:000085b1       __catch$?append@?$QList@U?$QPair@VQString@@V?$QList@VSingleOperationData@@@@@@@@QAEXABU?$QPair@VQString@@V?$QList@VSingleOperationData@@@@@@@Z$0 004095b1 f i configfilehandler.obj
 0001:00008683       __catch$?append@?$QList@VOperationParamData@@@@QAEXABVOperationParamData@@@Z$2 00409683 f i configfilehandler.obj
 0001:00008683       __catch$?append@?$QList@VOperationParamData@@@@QAEXABVOperationParamData@@@Z$0 00409683 f i configfilehandler.obj
 0001:00008751       __catch$?append@?$QList@VSingleOperationData@@@@QAEXABVSingleOperationData@@@Z$0 00409751 f i configfilehandler.obj
 0001:00008751       __catch$?append@?$QList@VSingleOperationData@@@@QAEXABVSingleOperationData@@@Z$2 00409751 f i configfilehandler.obj
 0001:00008b36       __catch$?createNode@?$QMapData@VQString@@VOperationParamData@@@@QAEPAU?$QMapNode@VQString@@VOperationParamData@@@@ABVQString@@ABVOperationParamData@@PAU2@_N@Z$0 00409b36 f i configfilehandler.obj
 0001:00008b4b       __catch$?createNode@?$QMapData@VQString@@VOperationParamData@@@@QAEPAU?$QMapNode@VQString@@VOperationParamData@@@@ABVQString@@ABVOperationParamData@@PAU2@_N@Z$2 00409b4b f i configfilehandler.obj
 0001:00008bf6       __catch$?createNode@?$QMapData@VQString@@VQStringList@@@@QAEPAU?$QMapNode@VQString@@VQStringList@@@@ABVQString@@ABVQStringList@@PAU2@_N@Z$0 00409bf6 f i configfilehandler.obj
 0001:00008c0b       __catch$?createNode@?$QMapData@VQString@@VQStringList@@@@QAEPAU?$QMapNode@VQString@@VQStringList@@@@ABVQString@@ABVQStringList@@PAU2@_N@Z$2 00409c0b f i configfilehandler.obj
 0001:00008fcf       __catch$?detach_helper_grow@?$QList@PAVQObject@@@@AAEPAUNode@1@HH@Z$2 00409fcf f i workmodels.obj
 0001:00008fcf       __catch$?detach_helper_grow@?$QList@H@@AAEPAUNode@1@HH@Z$2 00409fcf f i configfilehandler.obj
 0001:00008ffb       __catch$?detach_helper_grow@?$QList@PAVQObject@@@@AAEPAUNode@1@HH@Z$0 00409ffb f i workmodels.obj
 0001:00008ffb       __catch$?detach_helper_grow@?$QList@H@@AAEPAUNode@1@HH@Z$0 00409ffb f i configfilehandler.obj
 0001:0000912a       __catch$?detach_helper_grow@?$QList@U?$QPair@VQString@@V?$QList@VSingleOperationData@@@@@@@@AAEPAUNode@1@HH@Z$2 0040a12a f i configfilehandler.obj
 0001:00009165       __catch$?detach_helper_grow@?$QList@U?$QPair@VQString@@V?$QList@VSingleOperationData@@@@@@@@AAEPAUNode@1@HH@Z$0 0040a165 f i configfilehandler.obj
 0001:0000927d       __catch$?detach_helper_grow@?$QList@VOperationParamData@@@@AAEPAUNode@1@HH@Z$2 0040a27d f i configfilehandler.obj
 0001:000092b8       __catch$?detach_helper_grow@?$QList@VOperationParamData@@@@AAEPAUNode@1@HH@Z$0 0040a2b8 f i configfilehandler.obj
 0001:000093ea       __catch$?detach_helper_grow@?$QList@VSingleOperationData@@@@AAEPAUNode@1@HH@Z$2 0040a3ea f i configfilehandler.obj
 0001:00009425       __catch$?detach_helper_grow@?$QList@VSingleOperationData@@@@AAEPAUNode@1@HH@Z$0 0040a425 f i configfilehandler.obj
 0001:000098ec       __catch$?node_copy@?$QList@U?$QPair@VQString@@V?$QList@VSingleOperationData@@@@@@@@AAEXPAUNode@1@00@Z$0 0040a8ec f i configfilehandler.obj
 0001:0000999f       __catch$?node_copy@?$QList@VOperationParamData@@@@AAEXPAUNode@1@00@Z$0 0040a99f f i configfilehandler.obj
 0001:00009a82       __catch$?node_copy@?$QList@VSingleOperationData@@@@AAEXPAUNode@1@00@Z$0 0040aa82 f i configfilehandler.obj
 0001:0000a6c6       __catch$??Y?$QList@VQString@@@@QAEAAV0@ABV0@@Z$0 0040b6c6 f i environmentvariant.obj
 0001:0000c1f7       __catch$?detach_helper@?$QList@H@@AAEXH@Z$0 0040d1f7 f i environmentvariant.obj
 0001:0000c2e2       __catch$?detach_helper@?$QList@U?$QPair@VQString@@V?$QList@VSingleOperationData@@@@@@@@AAEXH@Z$0 0040d2e2 f i environmentvariant.obj
 0001:0000c3a5       __catch$?detach_helper@?$QList@VOperationParamData@@@@AAEXH@Z$0 0040d3a5 f i environmentvariant.obj
 0001:0000c49d       __catch$?detach_helper@?$QList@VQString@@@@AAEXH@Z$0 0040d49d f i environmentvariant.obj
 0001:0000c582       __catch$?detach_helper@?$QList@VSingleOperationData@@@@AAEXH@Z$0 0040d582 f i environmentvariant.obj
 0001:0000d0af       __catch$?insert@?$QList@VSingleOperationData@@@@QAEXHABVSingleOperationData@@@Z$2 0040e0af f i environmentvariant.obj
 0001:0000d0af       __catch$?insert@?$QList@VSingleOperationData@@@@QAEXHABVSingleOperationData@@@Z$0 0040e0af f i environmentvariant.obj
 0001:0000fc1c       $LN98                      00410c1c     main.obj
 0001:0001247c       $LN20                      0041347c     moc_workflowprotocol.obj
 0001:00012598       $LN23                      00413598     moc_workflowprotocol.obj
 0001:00013ec0       $LN162                     00414ec0     moc_workmodels.obj
 0001:00013ef4       $LN163                     00414ef4     moc_workmodels.obj
 0001:00013f28       $LN164                     00414f28     moc_workmodels.obj
 0001:000140d0       $LN62                      004150d0     moc_workmodels.obj
 0001:00014164       $LN16                      00415164     moc_workmodels.obj
 0001:00014404       $LN89                      00415404     moc_workmodels.obj
 0001:000145c8       $LN31                      004155c8     moc_workmodels.obj
 0001:000150f0       ?__scrt_initialize_thread_safe_statics@@YAHXZ 004160f0 f   MSVCRT:thread_safe_statics.obj
 0001:000151cd       ?__scrt_uninitialize_thread_safe_statics@@YAXXZ 004161cd f   MSVCRT:thread_safe_statics.obj
 0001:0001534f       ?find_pe_section@@YAPAU_IMAGE_SECTION_HEADER@@QAEI@Z 0041634f f   MSVCRT:utility.obj
 0001:000155b7       ?pre_c_initialization@@YAHXZ 004165b7 f   MSVCRT:exe_winmain.obj
 0001:0001565b       ?post_pgo_initialization@@YAHXZ 0041665b f   MSVCRT:exe_winmain.obj
 0001:00015663       ?pre_cpp_initialization@@YAXXZ 00416663 f   MSVCRT:exe_winmain.obj
 0001:00015675       ?__scrt_common_main_seh@@YAHXZ 00416675 f   MSVCRT:exe_winmain.obj
 0001:00015dc0       $$000000                   00416dc0     MSVCRT:_sehprolg4_.obj
 0001:000161c0       __unwindfunclet$?connectToServer@Communication@@QAE_NABVQString@@G@Z$0 004171c0 f   communication.obj
 0001:000161c9       __unwindfunclet$?connectToServer@Communication@@QAE_NABVQString@@G@Z$1 004171c9 f   communication.obj
 0001:000161d2       __unwindfunclet$?connectToServer@Communication@@QAE_NABVQString@@G@Z$2 004171d2 f   communication.obj
 0001:000161db       __unwindfunclet$?connectToServer@Communication@@QAE_NABVQString@@G@Z$3 004171db f   communication.obj
 0001:000161e4       __unwindfunclet$?connectToServer@Communication@@QAE_NABVQString@@G@Z$4 004171e4 f   communication.obj
 0001:000161ed       __ehhandler$?connectToServer@Communication@@QAE_NABVQString@@G@Z 004171ed f   communication.obj
 0001:00016210       __ehhandler$??0?$QList@VQString@@@@QAE@ABV0@@Z 00417210 f   workflowprotocol.obj
 0001:00016230       __unwindfunclet$??0WorkflowController@@QAE@PAVQObject@@@Z$0 00417230 f   workflowprotocol.obj
 0001:00016239       __unwindfunclet$??0WorkflowController@@QAE@PAVQObject@@@Z$1 00417239 f   workflowprotocol.obj
 0001:00016245       __unwindfunclet$??0WorkflowController@@QAE@PAVQObject@@@Z$2 00417245 f   workflowprotocol.obj
 0001:00016254       __unwindfunclet$??0WorkflowController@@QAE@PAVQObject@@@Z$3 00417254 f   workflowprotocol.obj
 0001:00016263       __ehhandler$??0WorkflowController@@QAE@PAVQObject@@@Z 00417263 f   workflowprotocol.obj
 0001:00016280       __unwindfunclet$??4?$QList@UloopControl@SubThreadWorker@@@@QAEAAV0@$$QAV0@@Z$8 00417280 f   workflowprotocol.obj
 0001:00016286       __ehhandler$??4?$QList@UloopControl@SubThreadWorker@@@@QAEAAV0@$$QAV0@@Z 00417286 f   workflowprotocol.obj
 0001:000162b0       __unwindfunclet$??_G?$QPair@VQString@@V?$QList@VSingleOperationData@@@@@@QAEPAXI@Z$1 004172b0 f   configfilehandler.obj
 0001:000162b0       __unwindfunclet$??4?$QList@U?$QPair@VQString@@V?$QList@VSingleOperationData@@@@@@@@QAEAAV0@$$QAV0@@Z$8 004172b0 f   configfilehandler.obj
 0001:000162b0       __unwindfunclet$??4?$QList@PAVQObject@@@@QAEAAV0@$$QAV0@@Z$8 004172b0 f   moc_workmodels.obj
 0001:000162b0       __unwindfunclet$??_GWorkflowController@@UAEPAXI@Z$0 004172b0 f   workflowprotocol.obj
 0001:000162b0       __unwindfunclet$??4?$QList@H@@QAEAAV0@$$QAV0@@Z$8 004172b0 f   moc_workmodels.obj
 0001:000162b0       __unwindfunclet$??1SubThreadWorker@@UAE@XZ$2 004172b0 f   workflowprotocol.obj
 0001:000162b0       __unwindfunclet$??1?$QPair@VQString@@V?$QList@VSingleOperationData@@@@@@QAE@XZ$0 004172b0 f   configfilehandler.obj
 0001:000162b0       __unwindfunclet$??4SingleOperationData@@QAEAAV0@$$QAV0@@Z$9 004172b0 f   environmentvariant.obj
 0001:000162b6       __ehhandler$??4?$QList@PAVQObject@@@@QAEAAV0@$$QAV0@@Z 004172b6 f   moc_workmodels.obj
 0001:000162b6       __ehhandler$??_G?$QPair@VQString@@V?$QList@VSingleOperationData@@@@@@QAEPAXI@Z 004172b6 f   configfilehandler.obj
 0001:000162b6       __ehhandler$??4?$QList@U?$QPair@VQString@@V?$QList@VSingleOperationData@@@@@@@@QAEAAV0@$$QAV0@@Z 004172b6 f   configfilehandler.obj
 0001:000162b6       __ehhandler$??4?$QList@H@@QAEAAV0@$$QAV0@@Z 004172b6 f   moc_workmodels.obj
 0001:000162b6       __ehhandler$??4SingleOperationData@@QAEAAV0@$$QAV0@@Z 004172b6 f   environmentvariant.obj
 0001:000162b6       __ehhandler$??_GWorkflowController@@UAEPAXI@Z 004172b6 f   workflowprotocol.obj
 0001:000162b6       __ehhandler$??1?$QPair@VQString@@V?$QList@VSingleOperationData@@@@@@QAE@XZ 004172b6 f   configfilehandler.obj
 0001:000162b6       __ehhandler$??1SubThreadWorker@@UAE@XZ 004172b6 f   workflowprotocol.obj
 0001:000162e0       __ehhandler$?append@?$QList@UloopControl@SubThreadWorker@@@@QAEXABUloopControl@SubThreadWorker@@@Z 004172e0 f   workflowprotocol.obj
 0001:00016300       __ehhandler$?append@?$QList@VQString@@@@QAEXABVQString@@@Z 00417300 f   workflowprotocol.obj
 0001:00016320       __ehhandler$?detach_helper@?$QList@UloopControl@SubThreadWorker@@@@AAEXH@Z 00417320 f   workflowprotocol.obj
 0001:00016340       __ehhandler$?detach_helper_grow@?$QList@UloopControl@SubThreadWorker@@@@AAEPAUNode@1@HH@Z 00417340 f   workflowprotocol.obj
 0001:00016360       __ehhandler$?detach_helper_grow@?$QList@VQString@@@@AAEPAUNode@1@HH@Z 00417360 f   workflowprotocol.obj
 0001:00016380       __unwindfunclet$?doTunning@SubThreadWorker@@QAEXABVQJsonObject@@@Z$0 00417380 f   workflowprotocol.obj
 0001:00016388       __unwindfunclet$?doTunning@SubThreadWorker@@QAEXABVQJsonObject@@@Z$1 00417388 f   workflowprotocol.obj
 0001:00016391       __unwindfunclet$?doTunning@SubThreadWorker@@QAEXABVQJsonObject@@@Z$2 00417391 f   workflowprotocol.obj
 0001:0001639a       __unwindfunclet$?doTunning@SubThreadWorker@@QAEXABVQJsonObject@@@Z$3 0041739a f   workflowprotocol.obj
 0001:000163a3       __unwindfunclet$?doTunning@SubThreadWorker@@QAEXABVQJsonObject@@@Z$4 004173a3 f   workflowprotocol.obj
 0001:000163ac       __unwindfunclet$?doTunning@SubThreadWorker@@QAEXABVQJsonObject@@@Z$5 004173ac f   workflowprotocol.obj
 0001:000163b5       __ehhandler$?doTunning@SubThreadWorker@@QAEXABVQJsonObject@@@Z 004173b5 f   workflowprotocol.obj
 0001:000163d0       __unwindfunclet$?doWork@SubThreadWorker@@QAEXABVQJsonObject@@@Z$0 004173d0 f   workflowprotocol.obj
 0001:000163d8       __unwindfunclet$?doWork@SubThreadWorker@@QAEXABVQJsonObject@@@Z$1 004173d8 f   workflowprotocol.obj
 0001:000163e1       __unwindfunclet$?doWork@SubThreadWorker@@QAEXABVQJsonObject@@@Z$2 004173e1 f   workflowprotocol.obj
 0001:000163ea       __unwindfunclet$?doWork@SubThreadWorker@@QAEXABVQJsonObject@@@Z$3 004173ea f   workflowprotocol.obj
 0001:000163f3       __unwindfunclet$?doWork@SubThreadWorker@@QAEXABVQJsonObject@@@Z$4 004173f3 f   workflowprotocol.obj
 0001:000163fc       __unwindfunclet$?doWork@SubThreadWorker@@QAEXABVQJsonObject@@@Z$5 004173fc f   workflowprotocol.obj
 0001:00016405       __unwindfunclet$?doWork@SubThreadWorker@@QAEXABVQJsonObject@@@Z$6 00417405 f   workflowprotocol.obj
 0001:0001640e       __unwindfunclet$?doWork@SubThreadWorker@@QAEXABVQJsonObject@@@Z$7 0041740e f   workflowprotocol.obj
 0001:00016417       __unwindfunclet$?doWork@SubThreadWorker@@QAEXABVQJsonObject@@@Z$8 00417417 f   workflowprotocol.obj
 0001:00016420       __unwindfunclet$?doWork@SubThreadWorker@@QAEXABVQJsonObject@@@Z$9 00417420 f   workflowprotocol.obj
 0001:00016429       __unwindfunclet$?doWork@SubThreadWorker@@QAEXABVQJsonObject@@@Z$10 00417429 f   workflowprotocol.obj
 0001:00016432       __ehhandler$?doWork@SubThreadWorker@@QAEXABVQJsonObject@@@Z 00417432 f   workflowprotocol.obj
 0001:00016450       __unwindfunclet$?formatRecvFrameToJsonObject@WorkflowProtocol@@QAE_NAAVQJsonObject@@@Z$0 00417450 f   workflowprotocol.obj
 0001:00016459       __unwindfunclet$?formatRecvFrameToJsonObject@WorkflowProtocol@@QAE_NAAVQJsonObject@@@Z$1 00417459 f   workflowprotocol.obj
 0001:00016462       __ehhandler$?formatRecvFrameToJsonObject@WorkflowProtocol@@QAE_NAAVQJsonObject@@@Z 00417462 f   workflowprotocol.obj
 0001:00016480       __unwindfunclet$?handleControlCommand@SubThreadWorker@@IAE_NAAVCommunication@@AAVQJsonObject@@@Z$0 00417480 f   workflowprotocol.obj
 0001:00016489       __unwindfunclet$?handleControlCommand@SubThreadWorker@@IAE_NAAVCommunication@@AAVQJsonObject@@@Z$1 00417489 f   workflowprotocol.obj
 0001:00016492       __unwindfunclet$?handleControlCommand@SubThreadWorker@@IAE_NAAVCommunication@@AAVQJsonObject@@@Z$2 00417492 f   workflowprotocol.obj
 0001:0001649b       __unwindfunclet$?handleControlCommand@SubThreadWorker@@IAE_NAAVCommunication@@AAVQJsonObject@@@Z$3 0041749b f   workflowprotocol.obj
 0001:000164a4       __unwindfunclet$?handleControlCommand@SubThreadWorker@@IAE_NAAVCommunication@@AAVQJsonObject@@@Z$4 004174a4 f   workflowprotocol.obj
 0001:000164ad       __unwindfunclet$?handleControlCommand@SubThreadWorker@@IAE_NAAVCommunication@@AAVQJsonObject@@@Z$5 004174ad f   workflowprotocol.obj
 0001:000164b6       __unwindfunclet$?handleControlCommand@SubThreadWorker@@IAE_NAAVCommunication@@AAVQJsonObject@@@Z$43 004174b6 f   workflowprotocol.obj
 0001:000164c2       __unwindfunclet$?handleControlCommand@SubThreadWorker@@IAE_NAAVCommunication@@AAVQJsonObject@@@Z$6 004174c2 f   workflowprotocol.obj
 0001:000164cb       __unwindfunclet$?handleControlCommand@SubThreadWorker@@IAE_NAAVCommunication@@AAVQJsonObject@@@Z$7 004174cb f   workflowprotocol.obj
 0001:000164d4       __unwindfunclet$?handleControlCommand@SubThreadWorker@@IAE_NAAVCommunication@@AAVQJsonObject@@@Z$8 004174d4 f   workflowprotocol.obj
 0001:000164dd       __unwindfunclet$?handleControlCommand@SubThreadWorker@@IAE_NAAVCommunication@@AAVQJsonObject@@@Z$9 004174dd f   workflowprotocol.obj
 0001:000164e6       __unwindfunclet$?handleControlCommand@SubThreadWorker@@IAE_NAAVCommunication@@AAVQJsonObject@@@Z$10 004174e6 f   workflowprotocol.obj
 0001:000164ef       __unwindfunclet$?handleControlCommand@SubThreadWorker@@IAE_NAAVCommunication@@AAVQJsonObject@@@Z$11 004174ef f   workflowprotocol.obj
 0001:000164f8       __unwindfunclet$?handleControlCommand@SubThreadWorker@@IAE_NAAVCommunication@@AAVQJsonObject@@@Z$12 004174f8 f   workflowprotocol.obj
 0001:00016501       __unwindfunclet$?handleControlCommand@SubThreadWorker@@IAE_NAAVCommunication@@AAVQJsonObject@@@Z$13 00417501 f   workflowprotocol.obj
 0001:0001650a       __unwindfunclet$?handleControlCommand@SubThreadWorker@@IAE_NAAVCommunication@@AAVQJsonObject@@@Z$14 0041750a f   workflowprotocol.obj
 0001:00016513       __unwindfunclet$?handleControlCommand@SubThreadWorker@@IAE_NAAVCommunication@@AAVQJsonObject@@@Z$15 00417513 f   workflowprotocol.obj
 0001:0001651c       __unwindfunclet$?handleControlCommand@SubThreadWorker@@IAE_NAAVCommunication@@AAVQJsonObject@@@Z$16 0041751c f   workflowprotocol.obj
 0001:00016525       __unwindfunclet$?handleControlCommand@SubThreadWorker@@IAE_NAAVCommunication@@AAVQJsonObject@@@Z$17 00417525 f   workflowprotocol.obj
 0001:0001652e       __unwindfunclet$?handleControlCommand@SubThreadWorker@@IAE_NAAVCommunication@@AAVQJsonObject@@@Z$18 0041752e f   workflowprotocol.obj
 0001:00016537       __unwindfunclet$?handleControlCommand@SubThreadWorker@@IAE_NAAVCommunication@@AAVQJsonObject@@@Z$19 00417537 f   workflowprotocol.obj
 0001:00016540       __unwindfunclet$?handleControlCommand@SubThreadWorker@@IAE_NAAVCommunication@@AAVQJsonObject@@@Z$20 00417540 f   workflowprotocol.obj
 0001:00016549       __unwindfunclet$?handleControlCommand@SubThreadWorker@@IAE_NAAVCommunication@@AAVQJsonObject@@@Z$21 00417549 f   workflowprotocol.obj
 0001:00016552       __unwindfunclet$?handleControlCommand@SubThreadWorker@@IAE_NAAVCommunication@@AAVQJsonObject@@@Z$22 00417552 f   workflowprotocol.obj
 0001:0001655b       __unwindfunclet$?handleControlCommand@SubThreadWorker@@IAE_NAAVCommunication@@AAVQJsonObject@@@Z$23 0041755b f   workflowprotocol.obj
 0001:00016564       __unwindfunclet$?handleControlCommand@SubThreadWorker@@IAE_NAAVCommunication@@AAVQJsonObject@@@Z$24 00417564 f   workflowprotocol.obj
 0001:0001656d       __unwindfunclet$?handleControlCommand@SubThreadWorker@@IAE_NAAVCommunication@@AAVQJsonObject@@@Z$25 0041756d f   workflowprotocol.obj
 0001:00016576       __unwindfunclet$?handleControlCommand@SubThreadWorker@@IAE_NAAVCommunication@@AAVQJsonObject@@@Z$26 00417576 f   workflowprotocol.obj
 0001:0001657f       __unwindfunclet$?handleControlCommand@SubThreadWorker@@IAE_NAAVCommunication@@AAVQJsonObject@@@Z$27 0041757f f   workflowprotocol.obj
 0001:00016588       __unwindfunclet$?handleControlCommand@SubThreadWorker@@IAE_NAAVCommunication@@AAVQJsonObject@@@Z$28 00417588 f   workflowprotocol.obj
 0001:00016591       __unwindfunclet$?handleControlCommand@SubThreadWorker@@IAE_NAAVCommunication@@AAVQJsonObject@@@Z$29 00417591 f   workflowprotocol.obj
 0001:0001659a       __unwindfunclet$?handleControlCommand@SubThreadWorker@@IAE_NAAVCommunication@@AAVQJsonObject@@@Z$30 0041759a f   workflowprotocol.obj
 0001:000165a3       __unwindfunclet$?handleControlCommand@SubThreadWorker@@IAE_NAAVCommunication@@AAVQJsonObject@@@Z$32 004175a3 f   workflowprotocol.obj
 0001:000165ac       __unwindfunclet$?handleControlCommand@SubThreadWorker@@IAE_NAAVCommunication@@AAVQJsonObject@@@Z$33 004175ac f   workflowprotocol.obj
 0001:000165b5       __unwindfunclet$?handleControlCommand@SubThreadWorker@@IAE_NAAVCommunication@@AAVQJsonObject@@@Z$34 004175b5 f   workflowprotocol.obj
 0001:000165be       __unwindfunclet$?handleControlCommand@SubThreadWorker@@IAE_NAAVCommunication@@AAVQJsonObject@@@Z$35 004175be f   workflowprotocol.obj
 0001:000165c7       __unwindfunclet$?handleControlCommand@SubThreadWorker@@IAE_NAAVCommunication@@AAVQJsonObject@@@Z$36 004175c7 f   workflowprotocol.obj
 0001:000165d0       __unwindfunclet$?handleControlCommand@SubThreadWorker@@IAE_NAAVCommunication@@AAVQJsonObject@@@Z$37 004175d0 f   workflowprotocol.obj
 0001:000165d9       __unwindfunclet$?handleControlCommand@SubThreadWorker@@IAE_NAAVCommunication@@AAVQJsonObject@@@Z$38 004175d9 f   workflowprotocol.obj
 0001:000165e2       __unwindfunclet$?handleControlCommand@SubThreadWorker@@IAE_NAAVCommunication@@AAVQJsonObject@@@Z$39 004175e2 f   workflowprotocol.obj
 0001:000165eb       __unwindfunclet$?handleControlCommand@SubThreadWorker@@IAE_NAAVCommunication@@AAVQJsonObject@@@Z$40 004175eb f   workflowprotocol.obj
 0001:000165f4       __unwindfunclet$?handleControlCommand@SubThreadWorker@@IAE_NAAVCommunication@@AAVQJsonObject@@@Z$41 004175f4 f   workflowprotocol.obj
 0001:000165fd       __unwindfunclet$?handleControlCommand@SubThreadWorker@@IAE_NAAVCommunication@@AAVQJsonObject@@@Z$42 004175fd f   workflowprotocol.obj
 0001:00016606       __ehhandler$?handleControlCommand@SubThreadWorker@@IAE_NAAVCommunication@@AAVQJsonObject@@@Z 00417606 f   workflowprotocol.obj
 0001:00016630       __unwindfunclet$?handleLogicalCommand@SubThreadWorker@@IAE_NAAVQJsonObject@@AAH@Z$0 00417630 f   workflowprotocol.obj
 0001:00016639       __unwindfunclet$?handleLogicalCommand@SubThreadWorker@@IAE_NAAVQJsonObject@@AAH@Z$1 00417639 f   workflowprotocol.obj
 0001:00016642       __unwindfunclet$?handleLogicalCommand@SubThreadWorker@@IAE_NAAVQJsonObject@@AAH@Z$2 00417642 f   workflowprotocol.obj
 0001:0001664b       __unwindfunclet$?handleLogicalCommand@SubThreadWorker@@IAE_NAAVQJsonObject@@AAH@Z$3 0041764b f   workflowprotocol.obj
 0001:00016654       __unwindfunclet$?handleLogicalCommand@SubThreadWorker@@IAE_NAAVQJsonObject@@AAH@Z$4 00417654 f   workflowprotocol.obj
 0001:0001665d       __unwindfunclet$?handleLogicalCommand@SubThreadWorker@@IAE_NAAVQJsonObject@@AAH@Z$5 0041765d f   workflowprotocol.obj
 0001:00016666       __unwindfunclet$?handleLogicalCommand@SubThreadWorker@@IAE_NAAVQJsonObject@@AAH@Z$6 00417666 f   workflowprotocol.obj
 0001:0001666f       __unwindfunclet$?handleLogicalCommand@SubThreadWorker@@IAE_NAAVQJsonObject@@AAH@Z$7 0041766f f   workflowprotocol.obj
 0001:0001667b       __unwindfunclet$?handleLogicalCommand@SubThreadWorker@@IAE_NAAVQJsonObject@@AAH@Z$8 0041767b f   workflowprotocol.obj
 0001:00016684       __unwindfunclet$?handleLogicalCommand@SubThreadWorker@@IAE_NAAVQJsonObject@@AAH@Z$9 00417684 f   workflowprotocol.obj
 0001:00016690       __unwindfunclet$?handleLogicalCommand@SubThreadWorker@@IAE_NAAVQJsonObject@@AAH@Z$10 00417690 f   workflowprotocol.obj
 0001:00016699       __unwindfunclet$?handleLogicalCommand@SubThreadWorker@@IAE_NAAVQJsonObject@@AAH@Z$11 00417699 f   workflowprotocol.obj
 0001:000166a5       __unwindfunclet$?handleLogicalCommand@SubThreadWorker@@IAE_NAAVQJsonObject@@AAH@Z$12 004176a5 f   workflowprotocol.obj
 0001:000166ae       __unwindfunclet$?handleLogicalCommand@SubThreadWorker@@IAE_NAAVQJsonObject@@AAH@Z$13 004176ae f   workflowprotocol.obj
 0001:000166ba       __unwindfunclet$?handleLogicalCommand@SubThreadWorker@@IAE_NAAVQJsonObject@@AAH@Z$14 004176ba f   workflowprotocol.obj
 0001:000166c3       __unwindfunclet$?handleLogicalCommand@SubThreadWorker@@IAE_NAAVQJsonObject@@AAH@Z$15 004176c3 f   workflowprotocol.obj
 0001:000166cf       __unwindfunclet$?handleLogicalCommand@SubThreadWorker@@IAE_NAAVQJsonObject@@AAH@Z$16 004176cf f   workflowprotocol.obj
 0001:000166d8       __unwindfunclet$?handleLogicalCommand@SubThreadWorker@@IAE_NAAVQJsonObject@@AAH@Z$17 004176d8 f   workflowprotocol.obj
 0001:000166e4       __unwindfunclet$?handleLogicalCommand@SubThreadWorker@@IAE_NAAVQJsonObject@@AAH@Z$18 004176e4 f   workflowprotocol.obj
 0001:000166ed       __unwindfunclet$?handleLogicalCommand@SubThreadWorker@@IAE_NAAVQJsonObject@@AAH@Z$19 004176ed f   workflowprotocol.obj
 0001:000166f6       __unwindfunclet$?handleLogicalCommand@SubThreadWorker@@IAE_NAAVQJsonObject@@AAH@Z$20 004176f6 f   workflowprotocol.obj
 0001:000166ff       __unwindfunclet$?handleLogicalCommand@SubThreadWorker@@IAE_NAAVQJsonObject@@AAH@Z$21 004176ff f   workflowprotocol.obj
 0001:0001670b       __unwindfunclet$?handleLogicalCommand@SubThreadWorker@@IAE_NAAVQJsonObject@@AAH@Z$22 0041770b f   workflowprotocol.obj
 0001:00016714       __unwindfunclet$?handleLogicalCommand@SubThreadWorker@@IAE_NAAVQJsonObject@@AAH@Z$23 00417714 f   workflowprotocol.obj
 0001:0001671d       __unwindfunclet$?handleLogicalCommand@SubThreadWorker@@IAE_NAAVQJsonObject@@AAH@Z$24 0041771d f   workflowprotocol.obj
 0001:00016726       __unwindfunclet$?handleLogicalCommand@SubThreadWorker@@IAE_NAAVQJsonObject@@AAH@Z$25 00417726 f   workflowprotocol.obj
 0001:0001672f       __unwindfunclet$?handleLogicalCommand@SubThreadWorker@@IAE_NAAVQJsonObject@@AAH@Z$26 0041772f f   workflowprotocol.obj
 0001:00016738       __unwindfunclet$?handleLogicalCommand@SubThreadWorker@@IAE_NAAVQJsonObject@@AAH@Z$27 00417738 f   workflowprotocol.obj
 0001:00016741       __unwindfunclet$?handleLogicalCommand@SubThreadWorker@@IAE_NAAVQJsonObject@@AAH@Z$28 00417741 f   workflowprotocol.obj
 0001:0001674a       __unwindfunclet$?handleLogicalCommand@SubThreadWorker@@IAE_NAAVQJsonObject@@AAH@Z$29 0041774a f   workflowprotocol.obj
 0001:00016753       __unwindfunclet$?handleLogicalCommand@SubThreadWorker@@IAE_NAAVQJsonObject@@AAH@Z$38 00417753 f   workflowprotocol.obj
 0001:0001675f       __unwindfunclet$?handleLogicalCommand@SubThreadWorker@@IAE_NAAVQJsonObject@@AAH@Z$30 0041775f f   workflowprotocol.obj
 0001:00016768       __unwindfunclet$?handleLogicalCommand@SubThreadWorker@@IAE_NAAVQJsonObject@@AAH@Z$31 00417768 f   workflowprotocol.obj
 0001:00016771       __unwindfunclet$?handleLogicalCommand@SubThreadWorker@@IAE_NAAVQJsonObject@@AAH@Z$32 00417771 f   workflowprotocol.obj
 0001:0001677a       __unwindfunclet$?handleLogicalCommand@SubThreadWorker@@IAE_NAAVQJsonObject@@AAH@Z$33 0041777a f   workflowprotocol.obj
 0001:00016783       __unwindfunclet$?handleLogicalCommand@SubThreadWorker@@IAE_NAAVQJsonObject@@AAH@Z$34 00417783 f   workflowprotocol.obj
 0001:0001678c       __unwindfunclet$?handleLogicalCommand@SubThreadWorker@@IAE_NAAVQJsonObject@@AAH@Z$35 0041778c f   workflowprotocol.obj
 0001:00016795       __unwindfunclet$?handleLogicalCommand@SubThreadWorker@@IAE_NAAVQJsonObject@@AAH@Z$36 00417795 f   workflowprotocol.obj
 0001:0001679e       __unwindfunclet$?handleLogicalCommand@SubThreadWorker@@IAE_NAAVQJsonObject@@AAH@Z$37 0041779e f   workflowprotocol.obj
 0001:000167a7       __ehhandler$?handleLogicalCommand@SubThreadWorker@@IAE_NAAVQJsonObject@@AAH@Z 004177a7 f   workflowprotocol.obj
 0001:000167d0       __unwindfunclet$?handleLoopCommand@SubThreadWorker@@IAE_NAAVQJsonObject@@AAH@Z$0 004177d0 f   workflowprotocol.obj
 0001:000167d9       __unwindfunclet$?handleLoopCommand@SubThreadWorker@@IAE_NAAVQJsonObject@@AAH@Z$1 004177d9 f   workflowprotocol.obj
 0001:000167e2       __unwindfunclet$?handleLoopCommand@SubThreadWorker@@IAE_NAAVQJsonObject@@AAH@Z$2 004177e2 f   workflowprotocol.obj
 0001:000167eb       __unwindfunclet$?handleLoopCommand@SubThreadWorker@@IAE_NAAVQJsonObject@@AAH@Z$3 004177eb f   workflowprotocol.obj
 0001:000167f4       __unwindfunclet$?handleLoopCommand@SubThreadWorker@@IAE_NAAVQJsonObject@@AAH@Z$4 004177f4 f   workflowprotocol.obj
 0001:000167fd       __unwindfunclet$?handleLoopCommand@SubThreadWorker@@IAE_NAAVQJsonObject@@AAH@Z$5 004177fd f   workflowprotocol.obj
 0001:00016806       __unwindfunclet$?handleLoopCommand@SubThreadWorker@@IAE_NAAVQJsonObject@@AAH@Z$6 00417806 f   workflowprotocol.obj
 0001:0001680f       __unwindfunclet$?handleLoopCommand@SubThreadWorker@@IAE_NAAVQJsonObject@@AAH@Z$7 0041780f f   workflowprotocol.obj
 0001:00016818       __unwindfunclet$?handleLoopCommand@SubThreadWorker@@IAE_NAAVQJsonObject@@AAH@Z$8 00417818 f   workflowprotocol.obj
 0001:00016821       __unwindfunclet$?handleLoopCommand@SubThreadWorker@@IAE_NAAVQJsonObject@@AAH@Z$9 00417821 f   workflowprotocol.obj
 0001:0001682a       __unwindfunclet$?handleLoopCommand@SubThreadWorker@@IAE_NAAVQJsonObject@@AAH@Z$10 0041782a f   workflowprotocol.obj
 0001:00016833       __unwindfunclet$?handleLoopCommand@SubThreadWorker@@IAE_NAAVQJsonObject@@AAH@Z$11 00417833 f   workflowprotocol.obj
 0001:0001683c       __unwindfunclet$?handleLoopCommand@SubThreadWorker@@IAE_NAAVQJsonObject@@AAH@Z$12 0041783c f   workflowprotocol.obj
 0001:00016845       __unwindfunclet$?handleLoopCommand@SubThreadWorker@@IAE_NAAVQJsonObject@@AAH@Z$13 00417845 f   workflowprotocol.obj
 0001:0001684e       __unwindfunclet$?handleLoopCommand@SubThreadWorker@@IAE_NAAVQJsonObject@@AAH@Z$14 0041784e f   workflowprotocol.obj
 0001:00016857       __unwindfunclet$?handleLoopCommand@SubThreadWorker@@IAE_NAAVQJsonObject@@AAH@Z$15 00417857 f   workflowprotocol.obj
 0001:00016860       __unwindfunclet$?handleLoopCommand@SubThreadWorker@@IAE_NAAVQJsonObject@@AAH@Z$16 00417860 f   workflowprotocol.obj
 0001:00016869       __unwindfunclet$?handleLoopCommand@SubThreadWorker@@IAE_NAAVQJsonObject@@AAH@Z$17 00417869 f   workflowprotocol.obj
 0001:00016872       __unwindfunclet$?handleLoopCommand@SubThreadWorker@@IAE_NAAVQJsonObject@@AAH@Z$18 00417872 f   workflowprotocol.obj
 0001:0001687b       __unwindfunclet$?handleLoopCommand@SubThreadWorker@@IAE_NAAVQJsonObject@@AAH@Z$19 0041787b f   workflowprotocol.obj
 0001:00016884       __unwindfunclet$?handleLoopCommand@SubThreadWorker@@IAE_NAAVQJsonObject@@AAH@Z$20 00417884 f   workflowprotocol.obj
 0001:0001688d       __unwindfunclet$?handleLoopCommand@SubThreadWorker@@IAE_NAAVQJsonObject@@AAH@Z$21 0041788d f   workflowprotocol.obj
 0001:00016896       __unwindfunclet$?handleLoopCommand@SubThreadWorker@@IAE_NAAVQJsonObject@@AAH@Z$22 00417896 f   workflowprotocol.obj
 0001:0001689f       __unwindfunclet$?handleLoopCommand@SubThreadWorker@@IAE_NAAVQJsonObject@@AAH@Z$23 0041789f f   workflowprotocol.obj
 0001:000168a8       __unwindfunclet$?handleLoopCommand@SubThreadWorker@@IAE_NAAVQJsonObject@@AAH@Z$24 004178a8 f   workflowprotocol.obj
 0001:000168b1       __unwindfunclet$?handleLoopCommand@SubThreadWorker@@IAE_NAAVQJsonObject@@AAH@Z$25 004178b1 f   workflowprotocol.obj
 0001:000168ba       __unwindfunclet$?handleLoopCommand@SubThreadWorker@@IAE_NAAVQJsonObject@@AAH@Z$26 004178ba f   workflowprotocol.obj
 0001:000168c3       __unwindfunclet$?handleLoopCommand@SubThreadWorker@@IAE_NAAVQJsonObject@@AAH@Z$27 004178c3 f   workflowprotocol.obj
 0001:000168cc       __unwindfunclet$?handleLoopCommand@SubThreadWorker@@IAE_NAAVQJsonObject@@AAH@Z$28 004178cc f   workflowprotocol.obj
 0001:000168d5       __unwindfunclet$?handleLoopCommand@SubThreadWorker@@IAE_NAAVQJsonObject@@AAH@Z$29 004178d5 f   workflowprotocol.obj
 0001:000168de       __unwindfunclet$?handleLoopCommand@SubThreadWorker@@IAE_NAAVQJsonObject@@AAH@Z$36 004178de f   workflowprotocol.obj
 0001:000168e7       __unwindfunclet$?handleLoopCommand@SubThreadWorker@@IAE_NAAVQJsonObject@@AAH@Z$30 004178e7 f   workflowprotocol.obj
 0001:000168f0       __unwindfunclet$?handleLoopCommand@SubThreadWorker@@IAE_NAAVQJsonObject@@AAH@Z$31 004178f0 f   workflowprotocol.obj
 0001:000168f9       __unwindfunclet$?handleLoopCommand@SubThreadWorker@@IAE_NAAVQJsonObject@@AAH@Z$32 004178f9 f   workflowprotocol.obj
 0001:00016902       __unwindfunclet$?handleLoopCommand@SubThreadWorker@@IAE_NAAVQJsonObject@@AAH@Z$33 00417902 f   workflowprotocol.obj
 0001:0001690b       __unwindfunclet$?handleLoopCommand@SubThreadWorker@@IAE_NAAVQJsonObject@@AAH@Z$34 0041790b f   workflowprotocol.obj
 0001:00016914       __unwindfunclet$?handleLoopCommand@SubThreadWorker@@IAE_NAAVQJsonObject@@AAH@Z$35 00417914 f   workflowprotocol.obj
 0001:0001691d       __ehhandler$?handleLoopCommand@SubThreadWorker@@IAE_NAAVQJsonObject@@AAH@Z 0041791d f   workflowprotocol.obj
 0001:00016940       __unwindfunclet$?initProtocol@WorkflowProtocol@@QAE_NABVQString@@@Z$0 00417940 f   workflowprotocol.obj
 0001:00016949       __unwindfunclet$?initProtocol@WorkflowProtocol@@QAE_NABVQString@@@Z$1 00417949 f   workflowprotocol.obj
 0001:00016952       __unwindfunclet$?initProtocol@WorkflowProtocol@@QAE_NABVQString@@@Z$2 00417952 f   workflowprotocol.obj
 0001:0001695b       __unwindfunclet$?initProtocol@WorkflowProtocol@@QAE_NABVQString@@@Z$3 0041795b f   workflowprotocol.obj
 0001:00016964       __unwindfunclet$?initProtocol@WorkflowProtocol@@QAE_NABVQString@@@Z$4 00417964 f   workflowprotocol.obj
 0001:0001696d       __unwindfunclet$?initProtocol@WorkflowProtocol@@QAE_NABVQString@@@Z$5 0041796d f   workflowprotocol.obj
 0001:00016976       __ehhandler$?initProtocol@WorkflowProtocol@@QAE_NABVQString@@@Z 00417976 f   workflowprotocol.obj
 0001:000169a0       __unwindfunclet$?isLogicalCommand@SubThreadWorker@@IAE_NABVQString@@@Z$0 004179a0 f   workflowprotocol.obj
 0001:000169a8       __unwindfunclet$?isLogicalCommand@SubThreadWorker@@IAE_NABVQString@@@Z$1 004179a8 f   workflowprotocol.obj
 0001:000169b1       __unwindfunclet$?isLogicalCommand@SubThreadWorker@@IAE_NABVQString@@@Z$16 004179b1 f   workflowprotocol.obj
 0001:000169b7       __unwindfunclet$?isLogicalCommand@SubThreadWorker@@IAE_NABVQString@@@Z$25 004179b7 f   workflowprotocol.obj
 0001:000169bd       __unwindfunclet$?isLogicalCommand@SubThreadWorker@@IAE_NABVQString@@@Z$6 004179bd f   workflowprotocol.obj
 0001:000169c3       __ehhandler$?isLogicalCommand@SubThreadWorker@@IAE_NABVQString@@@Z 004179c3 f   workflowprotocol.obj
 0001:000169e0       __unwindfunclet$?isLoopCommand@SubThreadWorker@@IAE_NABVQString@@@Z$0 004179e0 f   workflowprotocol.obj
 0001:000169e8       __unwindfunclet$?isLoopCommand@SubThreadWorker@@IAE_NABVQString@@@Z$1 004179e8 f   workflowprotocol.obj
 0001:000169f1       __unwindfunclet$?isLoopCommand@SubThreadWorker@@IAE_NABVQString@@@Z$2 004179f1 f   workflowprotocol.obj
 0001:000169fa       __unwindfunclet$?isLoopCommand@SubThreadWorker@@IAE_NABVQString@@@Z$17 004179fa f   workflowprotocol.obj
 0001:00016a00       __unwindfunclet$?isLoopCommand@SubThreadWorker@@IAE_NABVQString@@@Z$26 00417a00 f   workflowprotocol.obj
 0001:00016a06       __unwindfunclet$?isLoopCommand@SubThreadWorker@@IAE_NABVQString@@@Z$7 00417a06 f   workflowprotocol.obj
 0001:00016a0c       __ehhandler$?isLoopCommand@SubThreadWorker@@IAE_NABVQString@@@Z 00417a0c f   workflowprotocol.obj
 0001:00016a30       __ehhandler$?node_copy@?$QList@UloopControl@SubThreadWorker@@@@AAEXPAUNode@1@00@Z 00417a30 f   workflowprotocol.obj
 0001:00016a50       __unwindfunclet$?parseAckFrame@WorkflowProtocol@@QAE_NABVQByteArray@@AAVQJsonObject@@@Z$0 00417a50 f   workflowprotocol.obj
 0001:00016a59       __ehhandler$?parseAckFrame@WorkflowProtocol@@QAE_NABVQByteArray@@AAVQJsonObject@@@Z 00417a59 f   workflowprotocol.obj
 0001:00016a80       __unwindfunclet$?parseJsonObjectToSendFrame@WorkflowProtocol@@QAE_NABVQJsonObject@@AAV2@@Z$0 00417a80 f   workflowprotocol.obj
 0001:00016a89       __unwindfunclet$?parseJsonObjectToSendFrame@WorkflowProtocol@@QAE_NABVQJsonObject@@AAV2@@Z$1 00417a89 f   workflowprotocol.obj
 0001:00016a92       __unwindfunclet$?parseJsonObjectToSendFrame@WorkflowProtocol@@QAE_NABVQJsonObject@@AAV2@@Z$2 00417a92 f   workflowprotocol.obj
 0001:00016a9b       __unwindfunclet$?parseJsonObjectToSendFrame@WorkflowProtocol@@QAE_NABVQJsonObject@@AAV2@@Z$3 00417a9b f   workflowprotocol.obj
 0001:00016aa4       __unwindfunclet$?parseJsonObjectToSendFrame@WorkflowProtocol@@QAE_NABVQJsonObject@@AAV2@@Z$4 00417aa4 f   workflowprotocol.obj
 0001:00016aad       __unwindfunclet$?parseJsonObjectToSendFrame@WorkflowProtocol@@QAE_NABVQJsonObject@@AAV2@@Z$5 00417aad f   workflowprotocol.obj
 0001:00016ab6       __unwindfunclet$?parseJsonObjectToSendFrame@WorkflowProtocol@@QAE_NABVQJsonObject@@AAV2@@Z$6 00417ab6 f   workflowprotocol.obj
 0001:00016abf       __unwindfunclet$?parseJsonObjectToSendFrame@WorkflowProtocol@@QAE_NABVQJsonObject@@AAV2@@Z$7 00417abf f   workflowprotocol.obj
 0001:00016acb       __unwindfunclet$?parseJsonObjectToSendFrame@WorkflowProtocol@@QAE_NABVQJsonObject@@AAV2@@Z$8 00417acb f   workflowprotocol.obj
 0001:00016ad7       __unwindfunclet$?parseJsonObjectToSendFrame@WorkflowProtocol@@QAE_NABVQJsonObject@@AAV2@@Z$9 00417ad7 f   workflowprotocol.obj
 0001:00016ae0       __unwindfunclet$?parseJsonObjectToSendFrame@WorkflowProtocol@@QAE_NABVQJsonObject@@AAV2@@Z$10 00417ae0 f   workflowprotocol.obj
 0001:00016ae9       __unwindfunclet$?parseJsonObjectToSendFrame@WorkflowProtocol@@QAE_NABVQJsonObject@@AAV2@@Z$11 00417ae9 f   workflowprotocol.obj
 0001:00016af2       __unwindfunclet$?parseJsonObjectToSendFrame@WorkflowProtocol@@QAE_NABVQJsonObject@@AAV2@@Z$12 00417af2 f   workflowprotocol.obj
 0001:00016afe       __unwindfunclet$?parseJsonObjectToSendFrame@WorkflowProtocol@@QAE_NABVQJsonObject@@AAV2@@Z$13 00417afe f   workflowprotocol.obj
 0001:00016b07       __unwindfunclet$?parseJsonObjectToSendFrame@WorkflowProtocol@@QAE_NABVQJsonObject@@AAV2@@Z$14 00417b07 f   workflowprotocol.obj
 0001:00016b10       __unwindfunclet$?parseJsonObjectToSendFrame@WorkflowProtocol@@QAE_NABVQJsonObject@@AAV2@@Z$31 00417b10 f   workflowprotocol.obj
 0001:00016b1c       __unwindfunclet$?parseJsonObjectToSendFrame@WorkflowProtocol@@QAE_NABVQJsonObject@@AAV2@@Z$15 00417b1c f   workflowprotocol.obj
 0001:00016b25       __unwindfunclet$?parseJsonObjectToSendFrame@WorkflowProtocol@@QAE_NABVQJsonObject@@AAV2@@Z$16 00417b25 f   workflowprotocol.obj
 0001:00016b2e       __unwindfunclet$?parseJsonObjectToSendFrame@WorkflowProtocol@@QAE_NABVQJsonObject@@AAV2@@Z$17 00417b2e f   workflowprotocol.obj
 0001:00016b36       __unwindfunclet$?parseJsonObjectToSendFrame@WorkflowProtocol@@QAE_NABVQJsonObject@@AAV2@@Z$18 00417b36 f   workflowprotocol.obj
 0001:00016b3f       __unwindfunclet$?parseJsonObjectToSendFrame@WorkflowProtocol@@QAE_NABVQJsonObject@@AAV2@@Z$19 00417b3f f   workflowprotocol.obj
 0001:00016b48       __unwindfunclet$?parseJsonObjectToSendFrame@WorkflowProtocol@@QAE_NABVQJsonObject@@AAV2@@Z$20 00417b48 f   workflowprotocol.obj
 0001:00016b51       __unwindfunclet$?parseJsonObjectToSendFrame@WorkflowProtocol@@QAE_NABVQJsonObject@@AAV2@@Z$21 00417b51 f   workflowprotocol.obj
 0001:00016b5a       __unwindfunclet$?parseJsonObjectToSendFrame@WorkflowProtocol@@QAE_NABVQJsonObject@@AAV2@@Z$22 00417b5a f   workflowprotocol.obj
 0001:00016b63       __unwindfunclet$?parseJsonObjectToSendFrame@WorkflowProtocol@@QAE_NABVQJsonObject@@AAV2@@Z$23 00417b63 f   workflowprotocol.obj
 0001:00016b6c       __unwindfunclet$?parseJsonObjectToSendFrame@WorkflowProtocol@@QAE_NABVQJsonObject@@AAV2@@Z$24 00417b6c f   workflowprotocol.obj
 0001:00016b75       __unwindfunclet$?parseJsonObjectToSendFrame@WorkflowProtocol@@QAE_NABVQJsonObject@@AAV2@@Z$25 00417b75 f   workflowprotocol.obj
 0001:00016b7e       __unwindfunclet$?parseJsonObjectToSendFrame@WorkflowProtocol@@QAE_NABVQJsonObject@@AAV2@@Z$26 00417b7e f   workflowprotocol.obj
 0001:00016b87       __unwindfunclet$?parseJsonObjectToSendFrame@WorkflowProtocol@@QAE_NABVQJsonObject@@AAV2@@Z$27 00417b87 f   workflowprotocol.obj
 0001:00016b90       __unwindfunclet$?parseJsonObjectToSendFrame@WorkflowProtocol@@QAE_NABVQJsonObject@@AAV2@@Z$28 00417b90 f   workflowprotocol.obj
 0001:00016b98       __unwindfunclet$?parseJsonObjectToSendFrame@WorkflowProtocol@@QAE_NABVQJsonObject@@AAV2@@Z$35 00417b98 f   workflowprotocol.obj
 0001:00016ba1       __unwindfunclet$?parseJsonObjectToSendFrame@WorkflowProtocol@@QAE_NABVQJsonObject@@AAV2@@Z$38 00417ba1 f   workflowprotocol.obj
 0001:00016ba7       __unwindfunclet$?parseJsonObjectToSendFrame@WorkflowProtocol@@QAE_NABVQJsonObject@@AAV2@@Z$48 00417ba7 f   workflowprotocol.obj
 0001:00016bad       __ehhandler$?parseJsonObjectToSendFrame@WorkflowProtocol@@QAE_NABVQJsonObject@@AAV2@@Z 00417bad f   workflowprotocol.obj
 0001:00016bd0       __unwindfunclet$?serializeSendFrame@WorkflowProtocol@@QAE?AVQByteArray@@XZ$0 00417bd0 f   workflowprotocol.obj
 0001:00016bea       __unwindfunclet$?serializeSendFrame@WorkflowProtocol@@QAE?AVQByteArray@@XZ$1 00417bea f   workflowprotocol.obj
 0001:00016bf3       __unwindfunclet$?serializeSendFrame@WorkflowProtocol@@QAE?AVQByteArray@@XZ$2 00417bf3 f   workflowprotocol.obj
 0001:00016bfc       __unwindfunclet$?serializeSendFrame@WorkflowProtocol@@QAE?AVQByteArray@@XZ$3 00417bfc f   workflowprotocol.obj
 0001:00016c05       __unwindfunclet$?serializeSendFrame@WorkflowProtocol@@QAE?AVQByteArray@@XZ$4 00417c05 f   workflowprotocol.obj
 0001:00016c0e       __unwindfunclet$?serializeSendFrame@WorkflowProtocol@@QAE?AVQByteArray@@XZ$5 00417c0e f   workflowprotocol.obj
 0001:00016c17       __ehhandler$?serializeSendFrame@WorkflowProtocol@@QAE?AVQByteArray@@XZ 00417c17 f   workflowprotocol.obj
 0001:00016c40       __unwindfunclet$?statusChanged@WorkflowController@@QAEXABVQJsonObject@@@Z$0 00417c40 f   workflowprotocol.obj
 0001:00016c4f       __unwindfunclet$?statusChanged@WorkflowController@@QAEXABVQJsonObject@@@Z$1 00417c4f f   workflowprotocol.obj
 0001:00016c58       __ehhandler$?statusChanged@WorkflowController@@QAEXABVQJsonObject@@@Z 00417c58 f   workflowprotocol.obj
 0001:00016c80       __unwindfunclet$?taskStateChanged@WorkflowController@@QAEX_NH@Z$0 00417c80 f   workflowprotocol.obj
 0001:00016c8f       __ehhandler$?taskStateChanged@WorkflowController@@QAEX_NH@Z 00417c8f f   workflowprotocol.obj
 0001:00016cb0       __unwindfunclet$?unserializeRecvFrame@WorkflowProtocol@@QAEXABVQByteArray@@@Z$0 00417cb0 f   workflowprotocol.obj
 0001:00016cb9       __ehhandler$?unserializeRecvFrame@WorkflowProtocol@@QAEXABVQByteArray@@@Z 00417cb9 f   workflowprotocol.obj
 0001:00016ce0       __unwindfunclet$??$qMakePair@VQString@@V?$QList@VSingleOperationData@@@@@@YA?AU?$QPair@VQString@@V?$QList@VSingleOperationData@@@@@@ABVQString@@ABV?$QList@VSingleOperationData@@@@@Z$1 00417ce0 f   configfilehandler.obj
 0001:00016ce9       __ehhandler$??$qMakePair@VQString@@V?$QList@VSingleOperationData@@@@@@YA?AU?$QPair@VQString@@V?$QList@VSingleOperationData@@@@@@ABVQString@@ABV?$QList@VSingleOperationData@@@@@Z 00417ce9 f   configfilehandler.obj
 0001:00016d10       __ehhandler$??0?$QList@PAVQObject@@@@QAE@ABV0@@Z 00417d10 f   workmodels.obj
 0001:00016d10       __ehhandler$??0?$QList@H@@QAE@ABV0@@Z 00417d10 f   configfilehandler.obj
 0001:00016d30       __ehhandler$??0?$QList@VOperationParamData@@@@QAE@ABV0@@Z 00417d30 f   configfilehandler.obj
 0001:00016d50       __ehhandler$??0?$QList@VSingleOperationData@@@@QAE@ABV0@@Z 00417d50 f   configfilehandler.obj
 0001:00016d70       __unwindfunclet$??0OperationParamData@@QAE@ABV0@@Z$0 00417d70 f   configfilehandler.obj
 0001:00016d79       __unwindfunclet$??0OperationParamData@@QAE@ABV0@@Z$1 00417d79 f   configfilehandler.obj
 0001:00016d85       __unwindfunclet$??0OperationParamData@@QAE@ABV0@@Z$2 00417d85 f   configfilehandler.obj
 0001:00016d91       __unwindfunclet$??0OperationParamData@@QAE@ABV0@@Z$3 00417d91 f   configfilehandler.obj
 0001:00016d9c       __unwindfunclet$??0OperationParamData@@QAE@ABV0@@Z$4 00417d9c f   configfilehandler.obj
 0001:00016da8       __unwindfunclet$??0OperationParamData@@QAE@ABV0@@Z$5 00417da8 f   configfilehandler.obj
 0001:00016db3       __unwindfunclet$??0OperationParamData@@QAE@ABV0@@Z$6 00417db3 f   configfilehandler.obj
 0001:00016dbf       __unwindfunclet$??0OperationParamData@@QAE@ABV0@@Z$7 00417dbf f   configfilehandler.obj
 0001:00016dcb       __unwindfunclet$??0OperationParamData@@QAE@ABV0@@Z$25 00417dcb f   configfilehandler.obj
 0001:00016dd1       __ehhandler$??0OperationParamData@@QAE@ABV0@@Z 00417dd1 f   configfilehandler.obj
 0001:00016df0       __unwindfunclet$??0OperationParamData@@QAE@ABVQString@@00ABVQStringList@@_NHH0V?$QList@H@@00HH@Z$0 00417df0 f   configfilehandler.obj
 0001:00016df8       __unwindfunclet$??0OperationParamData@@QAE@ABVQString@@00ABVQStringList@@_NHH0V?$QList@H@@00HH@Z$1 00417df8 f   configfilehandler.obj
 0001:00016e01       __unwindfunclet$??0OperationParamData@@QAE@ABVQString@@00ABVQStringList@@_NHH0V?$QList@H@@00HH@Z$2 00417e01 f   configfilehandler.obj
 0001:00016e0d       __unwindfunclet$??0OperationParamData@@QAE@ABVQString@@00ABVQStringList@@_NHH0V?$QList@H@@00HH@Z$3 00417e0d f   configfilehandler.obj
 0001:00016e19       __unwindfunclet$??0OperationParamData@@QAE@ABVQString@@00ABVQStringList@@_NHH0V?$QList@H@@00HH@Z$4 00417e19 f   configfilehandler.obj
 0001:00016e24       __unwindfunclet$??0OperationParamData@@QAE@ABVQString@@00ABVQStringList@@_NHH0V?$QList@H@@00HH@Z$5 00417e24 f   configfilehandler.obj
 0001:00016e30       __unwindfunclet$??0OperationParamData@@QAE@ABVQString@@00ABVQStringList@@_NHH0V?$QList@H@@00HH@Z$6 00417e30 f   configfilehandler.obj
 0001:00016e3b       __unwindfunclet$??0OperationParamData@@QAE@ABVQString@@00ABVQStringList@@_NHH0V?$QList@H@@00HH@Z$7 00417e3b f   configfilehandler.obj
 0001:00016e47       __unwindfunclet$??0OperationParamData@@QAE@ABVQString@@00ABVQStringList@@_NHH0V?$QList@H@@00HH@Z$8 00417e47 f   configfilehandler.obj
 0001:00016e53       __unwindfunclet$??0OperationParamData@@QAE@ABVQString@@00ABVQStringList@@_NHH0V?$QList@H@@00HH@Z$26 00417e53 f   configfilehandler.obj
 0001:00016e59       __unwindfunclet$??0OperationParamData@@QAE@ABVQString@@00ABVQStringList@@_NHH0V?$QList@H@@00HH@Z$33 00417e59 f   configfilehandler.obj
 0001:00016e5f       __ehhandler$??0OperationParamData@@QAE@ABVQString@@00ABVQStringList@@_NHH0V?$QList@H@@00HH@Z 00417e5f f   configfilehandler.obj
 0001:00016e80       __unwindfunclet$??1?$QForeachContainer@V?$QList@PAVQObject@@@@@QtPrivate@@QAE@XZ$0 00417e80 f   workmodels.obj
 0001:00016e80       __unwindfunclet$??1?$QForeachContainer@V?$QList@VOperationParamData@@@@@QtPrivate@@QAE@XZ$0 00417e80 f   configfilehandler.obj
 0001:00016e86       __ehhandler$??1?$QForeachContainer@V?$QList@VOperationParamData@@@@@QtPrivate@@QAE@XZ 00417e86 f   configfilehandler.obj
 0001:00016e86       __ehhandler$??1?$QForeachContainer@V?$QList@PAVQObject@@@@@QtPrivate@@QAE@XZ 00417e86 f   workmodels.obj
 0001:00016eb0       __ehhandler$??1?$QMap@VQString@@VQStringList@@@@QAE@XZ 00417eb0 f   configfilehandler.obj
 0001:00016eb0       __ehhandler$??1?$QMap@VQString@@VOperationParamData@@@@QAE@XZ 00417eb0 f   configfilehandler.obj
 0001:00016eb0       __ehhandler$??1WorkflowController@@UAE@XZ 00417eb0 f   workflowprotocol.obj
 0001:00016ed0       __unwindfunclet$??A?$QMap@VQString@@V1@@@QAEAAVQString@@ABV1@@Z$0 00417ed0 f   configfilehandler.obj
 0001:00016ed9       __ehhandler$??A?$QMap@VQString@@V1@@@QAEAAVQString@@ABV1@@Z 00417ed9 f   configfilehandler.obj
 0001:00016f00       __unwindfunclet$??A?$QMap@VQString@@VOperationParamData@@@@QBE?BVOperationParamData@@ABVQString@@@Z$0 00417f00 f   configfilehandler.obj
 0001:00016f08       __ehhandler$??A?$QMap@VQString@@VOperationParamData@@@@QBE?BVOperationParamData@@ABVQString@@@Z 00417f08 f   configfilehandler.obj
 0001:00016f30       __unwindfunclet$??A?$QMap@VQString@@VQStringList@@@@QAEAAVQStringList@@ABVQString@@@Z$0 00417f30 f   configfilehandler.obj
 0001:00016f38       __ehhandler$??A?$QMap@VQString@@VQStringList@@@@QAEAAVQStringList@@ABVQString@@@Z 00417f38 f   configfilehandler.obj
 0001:00016f60       __unwindfunclet$?ParseHostIP@configFileHandler@@QAE?AVQString@@XZ$0 00417f60 f   configfilehandler.obj
 0001:00016f69       __unwindfunclet$?ParseHostIP@configFileHandler@@QAE?AVQString@@XZ$1 00417f69 f   configfilehandler.obj
 0001:00016f72       __unwindfunclet$?ParseHostIP@configFileHandler@@QAE?AVQString@@XZ$2 00417f72 f   configfilehandler.obj
 0001:00016f7b       __ehhandler$?ParseHostIP@configFileHandler@@QAE?AVQString@@XZ 00417f7b f   configfilehandler.obj
 0001:00016fa0       __unwindfunclet$?ParseHostPort@configFileHandler@@QAEFXZ$0 00417fa0 f   configfilehandler.obj
 0001:00016fa0       __unwindfunclet$?ParseHostSingleOperationThreshold@configFileHandler@@QAEHXZ$0 00417fa0 f   configfilehandler.obj
 0001:00016fa9       __unwindfunclet$?ParseHostPort@configFileHandler@@QAEFXZ$1 00417fa9 f   configfilehandler.obj
 0001:00016fa9       __unwindfunclet$?ParseHostSingleOperationThreshold@configFileHandler@@QAEHXZ$1 00417fa9 f   configfilehandler.obj
 0001:00016fb2       __unwindfunclet$?ParseHostPort@configFileHandler@@QAEFXZ$2 00417fb2 f   configfilehandler.obj
 0001:00016fb2       __unwindfunclet$?ParseHostSingleOperationThreshold@configFileHandler@@QAEHXZ$2 00417fb2 f   configfilehandler.obj
 0001:00016fbb       __unwindfunclet$?ParseHostPort@configFileHandler@@QAEFXZ$3 00417fbb f   configfilehandler.obj
 0001:00016fbb       __unwindfunclet$?ParseHostSingleOperationThreshold@configFileHandler@@QAEHXZ$3 00417fbb f   configfilehandler.obj
 0001:00016fc4       __ehhandler$?ParseHostSingleOperationThreshold@configFileHandler@@QAEHXZ 00417fc4 f   configfilehandler.obj
 0001:00016fc4       __ehhandler$?ParseHostPort@configFileHandler@@QAEFXZ 00417fc4 f   configfilehandler.obj
 0001:00016fe0       __unwindfunclet$?ParseLicense@configFileHandler@@QAEXAAVQByteArray@@@Z$0 00417fe0 f   configfilehandler.obj
 0001:00016fe9       __unwindfunclet$?ParseLicense@configFileHandler@@QAEXAAVQByteArray@@@Z$1 00417fe9 f   configfilehandler.obj
 0001:00016ff2       __unwindfunclet$?ParseLicense@configFileHandler@@QAEXAAVQByteArray@@@Z$2 00417ff2 f   configfilehandler.obj
 0001:00016ffb       __unwindfunclet$?ParseLicense@configFileHandler@@QAEXAAVQByteArray@@@Z$3 00417ffb f   configfilehandler.obj
 0001:00017004       __ehhandler$?ParseLicense@configFileHandler@@QAEXAAVQByteArray@@@Z 00418004 f   configfilehandler.obj
 0001:00017020       __unwindfunclet$?ParseListMap@configFileHandler@@QAE?AV?$QMap@VQString@@VQStringList@@@@ABVQString@@@Z$0 00418020 f   configfilehandler.obj
 0001:00017039       __unwindfunclet$?ParseListMap@configFileHandler@@QAE?AV?$QMap@VQString@@VQStringList@@@@ABVQString@@@Z$1 00418039 f   configfilehandler.obj
 0001:00017042       __unwindfunclet$?ParseListMap@configFileHandler@@QAE?AV?$QMap@VQString@@VQStringList@@@@ABVQString@@@Z$2 00418042 f   configfilehandler.obj
 0001:0001704b       __unwindfunclet$?ParseListMap@configFileHandler@@QAE?AV?$QMap@VQString@@VQStringList@@@@ABVQString@@@Z$3 0041804b f   configfilehandler.obj
 0001:00017054       __unwindfunclet$?ParseListMap@configFileHandler@@QAE?AV?$QMap@VQString@@VQStringList@@@@ABVQString@@@Z$4 00418054 f   configfilehandler.obj
 0001:0001705c       __unwindfunclet$?ParseListMap@configFileHandler@@QAE?AV?$QMap@VQString@@VQStringList@@@@ABVQString@@@Z$5 0041805c f   configfilehandler.obj
 0001:00017065       __unwindfunclet$?ParseListMap@configFileHandler@@QAE?AV?$QMap@VQString@@VQStringList@@@@ABVQString@@@Z$6 00418065 f   configfilehandler.obj
 0001:0001706e       __unwindfunclet$?ParseListMap@configFileHandler@@QAE?AV?$QMap@VQString@@VQStringList@@@@ABVQString@@@Z$7 0041806e f   configfilehandler.obj
 0001:00017077       __unwindfunclet$?ParseListMap@configFileHandler@@QAE?AV?$QMap@VQString@@VQStringList@@@@ABVQString@@@Z$18 00418077 f   configfilehandler.obj
 0001:0001707d       __unwindfunclet$?ParseListMap@configFileHandler@@QAE?AV?$QMap@VQString@@VQStringList@@@@ABVQString@@@Z$28 0041807d f   configfilehandler.obj
 0001:00017083       __ehhandler$?ParseListMap@configFileHandler@@QAE?AV?$QMap@VQString@@VQStringList@@@@ABVQString@@@Z 00418083 f   configfilehandler.obj
 0001:000170a0       __unwindfunclet$?ParseMap@configFileHandler@@QAE?AV?$QMap@VQString@@V1@@@ABVQString@@@Z$0 004180a0 f   configfilehandler.obj
 0001:000170a0       __unwindfunclet$?ParseMapRevertKeyValue@configFileHandler@@QAE?AV?$QMap@VQString@@V1@@@ABVQString@@@Z$0 004180a0 f   configfilehandler.obj
 0001:000170b9       __unwindfunclet$?ParseMapRevertKeyValue@configFileHandler@@QAE?AV?$QMap@VQString@@V1@@@ABVQString@@@Z$1 004180b9 f   configfilehandler.obj
 0001:000170b9       __unwindfunclet$?ParseMap@configFileHandler@@QAE?AV?$QMap@VQString@@V1@@@ABVQString@@@Z$1 004180b9 f   configfilehandler.obj
 0001:000170c2       __unwindfunclet$?ParseMap@configFileHandler@@QAE?AV?$QMap@VQString@@V1@@@ABVQString@@@Z$2 004180c2 f   configfilehandler.obj
 0001:000170c2       __unwindfunclet$?ParseMapRevertKeyValue@configFileHandler@@QAE?AV?$QMap@VQString@@V1@@@ABVQString@@@Z$2 004180c2 f   configfilehandler.obj
 0001:000170cb       __unwindfunclet$?ParseMap@configFileHandler@@QAE?AV?$QMap@VQString@@V1@@@ABVQString@@@Z$3 004180cb f   configfilehandler.obj
 0001:000170cb       __unwindfunclet$?ParseMapRevertKeyValue@configFileHandler@@QAE?AV?$QMap@VQString@@V1@@@ABVQString@@@Z$3 004180cb f   configfilehandler.obj
 0001:000170d4       __unwindfunclet$?ParseMap@configFileHandler@@QAE?AV?$QMap@VQString@@V1@@@ABVQString@@@Z$4 004180d4 f   configfilehandler.obj
 0001:000170d4       __unwindfunclet$?ParseMapRevertKeyValue@configFileHandler@@QAE?AV?$QMap@VQString@@V1@@@ABVQString@@@Z$4 004180d4 f   configfilehandler.obj
 0001:000170dd       __unwindfunclet$?ParseMap@configFileHandler@@QAE?AV?$QMap@VQString@@V1@@@ABVQString@@@Z$5 004180dd f   configfilehandler.obj
 0001:000170dd       __unwindfunclet$?ParseMapRevertKeyValue@configFileHandler@@QAE?AV?$QMap@VQString@@V1@@@ABVQString@@@Z$5 004180dd f   configfilehandler.obj
 0001:000170e6       __ehhandler$?ParseMap@configFileHandler@@QAE?AV?$QMap@VQString@@V1@@@ABVQString@@@Z 004180e6 f   configfilehandler.obj
 0001:000170e6       __ehhandler$?ParseMapRevertKeyValue@configFileHandler@@QAE?AV?$QMap@VQString@@V1@@@ABVQString@@@Z 004180e6 f   configfilehandler.obj
 0001:00017110       __unwindfunclet$?ParseParamValue@configFileHandler@@QAE?AV?$QMap@VQString@@VOperationParamData@@@@ABVQString@@@Z$0 00418110 f   configfilehandler.obj
 0001:00017129       __unwindfunclet$?ParseParamValue@configFileHandler@@QAE?AV?$QMap@VQString@@VOperationParamData@@@@ABVQString@@@Z$1 00418129 f   configfilehandler.obj
 0001:00017135       __unwindfunclet$?ParseParamValue@configFileHandler@@QAE?AV?$QMap@VQString@@VOperationParamData@@@@ABVQString@@@Z$2 00418135 f   configfilehandler.obj
 0001:00017141       __unwindfunclet$?ParseParamValue@configFileHandler@@QAE?AV?$QMap@VQString@@VOperationParamData@@@@ABVQString@@@Z$3 00418141 f   configfilehandler.obj
 0001:0001714a       __unwindfunclet$?ParseParamValue@configFileHandler@@QAE?AV?$QMap@VQString@@VOperationParamData@@@@ABVQString@@@Z$4 0041814a f   configfilehandler.obj
 0001:00017153       __unwindfunclet$?ParseParamValue@configFileHandler@@QAE?AV?$QMap@VQString@@VOperationParamData@@@@ABVQString@@@Z$5 00418153 f   configfilehandler.obj
 0001:0001715c       __unwindfunclet$?ParseParamValue@configFileHandler@@QAE?AV?$QMap@VQString@@VOperationParamData@@@@ABVQString@@@Z$6 0041815c f   configfilehandler.obj
 0001:00017165       __unwindfunclet$?ParseParamValue@configFileHandler@@QAE?AV?$QMap@VQString@@VOperationParamData@@@@ABVQString@@@Z$7 00418165 f   configfilehandler.obj
 0001:0001716d       __unwindfunclet$?ParseParamValue@configFileHandler@@QAE?AV?$QMap@VQString@@VOperationParamData@@@@ABVQString@@@Z$8 0041816d f   configfilehandler.obj
 0001:00017175       __unwindfunclet$?ParseParamValue@configFileHandler@@QAE?AV?$QMap@VQString@@VOperationParamData@@@@ABVQString@@@Z$9 00418175 f   configfilehandler.obj
 0001:0001717e       __unwindfunclet$?ParseParamValue@configFileHandler@@QAE?AV?$QMap@VQString@@VOperationParamData@@@@ABVQString@@@Z$10 0041817e f   configfilehandler.obj
 0001:00017187       __unwindfunclet$?ParseParamValue@configFileHandler@@QAE?AV?$QMap@VQString@@VOperationParamData@@@@ABVQString@@@Z$11 00418187 f   configfilehandler.obj
 0001:00017190       __unwindfunclet$?ParseParamValue@configFileHandler@@QAE?AV?$QMap@VQString@@VOperationParamData@@@@ABVQString@@@Z$12 00418190 f   configfilehandler.obj
 0001:00017199       __unwindfunclet$?ParseParamValue@configFileHandler@@QAE?AV?$QMap@VQString@@VOperationParamData@@@@ABVQString@@@Z$14 00418199 f   configfilehandler.obj
 0001:000171a2       __unwindfunclet$?ParseParamValue@configFileHandler@@QAE?AV?$QMap@VQString@@VOperationParamData@@@@ABVQString@@@Z$37 004181a2 f   configfilehandler.obj
 0001:000171ae       __unwindfunclet$?ParseParamValue@configFileHandler@@QAE?AV?$QMap@VQString@@VOperationParamData@@@@ABVQString@@@Z$38 004181ae f   configfilehandler.obj
 0001:000171ba       __unwindfunclet$?ParseParamValue@configFileHandler@@QAE?AV?$QMap@VQString@@VOperationParamData@@@@ABVQString@@@Z$39 004181ba f   configfilehandler.obj
 0001:000171c6       __unwindfunclet$?ParseParamValue@configFileHandler@@QAE?AV?$QMap@VQString@@VOperationParamData@@@@ABVQString@@@Z$16 004181c6 f   configfilehandler.obj
 0001:000171cf       __unwindfunclet$?ParseParamValue@configFileHandler@@QAE?AV?$QMap@VQString@@VOperationParamData@@@@ABVQString@@@Z$50 004181cf f   configfilehandler.obj
 0001:000171d5       __unwindfunclet$?ParseParamValue@configFileHandler@@QAE?AV?$QMap@VQString@@VOperationParamData@@@@ABVQString@@@Z$59 004181d5 f   configfilehandler.obj
 0001:000171db       __unwindfunclet$?ParseParamValue@configFileHandler@@QAE?AV?$QMap@VQString@@VOperationParamData@@@@ABVQString@@@Z$17 004181db f   configfilehandler.obj
 0001:000171e4       __unwindfunclet$?ParseParamValue@configFileHandler@@QAE?AV?$QMap@VQString@@VOperationParamData@@@@ABVQString@@@Z$18 004181e4 f   configfilehandler.obj
 0001:000171ed       __unwindfunclet$?ParseParamValue@configFileHandler@@QAE?AV?$QMap@VQString@@VOperationParamData@@@@ABVQString@@@Z$19 004181ed f   configfilehandler.obj
 0001:000171f6       __unwindfunclet$?ParseParamValue@configFileHandler@@QAE?AV?$QMap@VQString@@VOperationParamData@@@@ABVQString@@@Z$21 004181f6 f   configfilehandler.obj
 0001:000171ff       __unwindfunclet$?ParseParamValue@configFileHandler@@QAE?AV?$QMap@VQString@@VOperationParamData@@@@ABVQString@@@Z$22 004181ff f   configfilehandler.obj
 0001:00017208       __unwindfunclet$?ParseParamValue@configFileHandler@@QAE?AV?$QMap@VQString@@VOperationParamData@@@@ABVQString@@@Z$68 00418208 f   configfilehandler.obj
 0001:00017214       __unwindfunclet$?ParseParamValue@configFileHandler@@QAE?AV?$QMap@VQString@@VOperationParamData@@@@ABVQString@@@Z$23 00418214 f   configfilehandler.obj
 0001:0001721d       __unwindfunclet$?ParseParamValue@configFileHandler@@QAE?AV?$QMap@VQString@@VOperationParamData@@@@ABVQString@@@Z$25 0041821d f   configfilehandler.obj
 0001:00017226       __unwindfunclet$?ParseParamValue@configFileHandler@@QAE?AV?$QMap@VQString@@VOperationParamData@@@@ABVQString@@@Z$27 00418226 f   configfilehandler.obj
 0001:0001722f       __unwindfunclet$?ParseParamValue@configFileHandler@@QAE?AV?$QMap@VQString@@VOperationParamData@@@@ABVQString@@@Z$69 0041822f f   configfilehandler.obj
 0001:0001723b       __unwindfunclet$?ParseParamValue@configFileHandler@@QAE?AV?$QMap@VQString@@VOperationParamData@@@@ABVQString@@@Z$28 0041823b f   configfilehandler.obj
 0001:00017244       __unwindfunclet$?ParseParamValue@configFileHandler@@QAE?AV?$QMap@VQString@@VOperationParamData@@@@ABVQString@@@Z$70 00418244 f   configfilehandler.obj
 0001:00017250       __unwindfunclet$?ParseParamValue@configFileHandler@@QAE?AV?$QMap@VQString@@VOperationParamData@@@@ABVQString@@@Z$29 00418250 f   configfilehandler.obj
 0001:00017258       __unwindfunclet$?ParseParamValue@configFileHandler@@QAE?AV?$QMap@VQString@@VOperationParamData@@@@ABVQString@@@Z$30 00418258 f   configfilehandler.obj
 0001:00017261       __unwindfunclet$?ParseParamValue@configFileHandler@@QAE?AV?$QMap@VQString@@VOperationParamData@@@@ABVQString@@@Z$31 00418261 f   configfilehandler.obj
 0001:0001726c       __unwindfunclet$?ParseParamValue@configFileHandler@@QAE?AV?$QMap@VQString@@VOperationParamData@@@@ABVQString@@@Z$32 0041826c f   configfilehandler.obj
 0001:00017275       __unwindfunclet$?ParseParamValue@configFileHandler@@QAE?AV?$QMap@VQString@@VOperationParamData@@@@ABVQString@@@Z$71 00418275 f   configfilehandler.obj
 0001:00017280       __unwindfunclet$?ParseParamValue@configFileHandler@@QAE?AV?$QMap@VQString@@VOperationParamData@@@@ABVQString@@@Z$79 00418280 f   configfilehandler.obj
 0001:00017286       __unwindfunclet$?ParseParamValue@configFileHandler@@QAE?AV?$QMap@VQString@@VOperationParamData@@@@ABVQString@@@Z$87 00418286 f   configfilehandler.obj
 0001:0001728c       __unwindfunclet$?ParseParamValue@configFileHandler@@QAE?AV?$QMap@VQString@@VOperationParamData@@@@ABVQString@@@Z$97 0041828c f   configfilehandler.obj
 0001:00017292       __unwindfunclet$?ParseParamValue@configFileHandler@@QAE?AV?$QMap@VQString@@VOperationParamData@@@@ABVQString@@@Z$105 00418292 f   configfilehandler.obj
 0001:00017298       __unwindfunclet$?ParseParamValue@configFileHandler@@QAE?AV?$QMap@VQString@@VOperationParamData@@@@ABVQString@@@Z$114 00418298 f   configfilehandler.obj
 0001:0001729e       __unwindfunclet$?ParseParamValue@configFileHandler@@QAE?AV?$QMap@VQString@@VOperationParamData@@@@ABVQString@@@Z$122 0041829e f   configfilehandler.obj
 0001:000172a4       __ehhandler$?ParseParamValue@configFileHandler@@QAE?AV?$QMap@VQString@@VOperationParamData@@@@ABVQString@@@Z 004182a4 f   configfilehandler.obj
 0001:000172d0       __unwindfunclet$?ParsePlanList@configFileHandler@@QAEXAAV?$QList@U?$QPair@VQString@@V?$QList@VSingleOperationData@@@@@@@@ABV?$QMap@VQString@@VOperationParamData@@@@@Z$0 004182d0 f   configfilehandler.obj
 0001:000172d9       __unwindfunclet$?ParsePlanList@configFileHandler@@QAEXAAV?$QList@U?$QPair@VQString@@V?$QList@VSingleOperationData@@@@@@@@ABV?$QMap@VQString@@VOperationParamData@@@@@Z$1 004182d9 f   configfilehandler.obj
 0001:000172e2       __unwindfunclet$?ParsePlanList@configFileHandler@@QAEXAAV?$QList@U?$QPair@VQString@@V?$QList@VSingleOperationData@@@@@@@@ABV?$QMap@VQString@@VOperationParamData@@@@@Z$2 004182e2 f   configfilehandler.obj
 0001:000172eb       __unwindfunclet$?ParsePlanList@configFileHandler@@QAEXAAV?$QList@U?$QPair@VQString@@V?$QList@VSingleOperationData@@@@@@@@ABV?$QMap@VQString@@VOperationParamData@@@@@Z$3 004182eb f   configfilehandler.obj
 0001:000172f4       __unwindfunclet$?ParsePlanList@configFileHandler@@QAEXAAV?$QList@U?$QPair@VQString@@V?$QList@VSingleOperationData@@@@@@@@ABV?$QMap@VQString@@VOperationParamData@@@@@Z$4 004182f4 f   configfilehandler.obj
 0001:000172fc       __unwindfunclet$?ParsePlanList@configFileHandler@@QAEXAAV?$QList@U?$QPair@VQString@@V?$QList@VSingleOperationData@@@@@@@@ABV?$QMap@VQString@@VOperationParamData@@@@@Z$5 004182fc f   configfilehandler.obj
 0001:00017308       __unwindfunclet$?ParsePlanList@configFileHandler@@QAEXAAV?$QList@U?$QPair@VQString@@V?$QList@VSingleOperationData@@@@@@@@ABV?$QMap@VQString@@VOperationParamData@@@@@Z$6 00418308 f   configfilehandler.obj
 0001:00017311       __unwindfunclet$?ParsePlanList@configFileHandler@@QAEXAAV?$QList@U?$QPair@VQString@@V?$QList@VSingleOperationData@@@@@@@@ABV?$QMap@VQString@@VOperationParamData@@@@@Z$7 00418311 f   configfilehandler.obj
 0001:0001731a       __unwindfunclet$?ParsePlanList@configFileHandler@@QAEXAAV?$QList@U?$QPair@VQString@@V?$QList@VSingleOperationData@@@@@@@@ABV?$QMap@VQString@@VOperationParamData@@@@@Z$8 0041831a f   configfilehandler.obj
 0001:00017322       __unwindfunclet$?ParsePlanList@configFileHandler@@QAEXAAV?$QList@U?$QPair@VQString@@V?$QList@VSingleOperationData@@@@@@@@ABV?$QMap@VQString@@VOperationParamData@@@@@Z$9 00418322 f   configfilehandler.obj
 0001:0001732b       __unwindfunclet$?ParsePlanList@configFileHandler@@QAEXAAV?$QList@U?$QPair@VQString@@V?$QList@VSingleOperationData@@@@@@@@ABV?$QMap@VQString@@VOperationParamData@@@@@Z$11 0041832b f   configfilehandler.obj
 0001:00017333       __unwindfunclet$?ParsePlanList@configFileHandler@@QAEXAAV?$QList@U?$QPair@VQString@@V?$QList@VSingleOperationData@@@@@@@@ABV?$QMap@VQString@@VOperationParamData@@@@@Z$13 00418333 f   configfilehandler.obj
 0001:0001733e       __unwindfunclet$?ParsePlanList@configFileHandler@@QAEXAAV?$QList@U?$QPair@VQString@@V?$QList@VSingleOperationData@@@@@@@@ABV?$QMap@VQString@@VOperationParamData@@@@@Z$24 0041833e f   configfilehandler.obj
 0001:0001734a       __unwindfunclet$?ParsePlanList@configFileHandler@@QAEXAAV?$QList@U?$QPair@VQString@@V?$QList@VSingleOperationData@@@@@@@@ABV?$QMap@VQString@@VOperationParamData@@@@@Z$25 0041834a f   configfilehandler.obj
 0001:00017356       __unwindfunclet$?ParsePlanList@configFileHandler@@QAEXAAV?$QList@U?$QPair@VQString@@V?$QList@VSingleOperationData@@@@@@@@ABV?$QMap@VQString@@VOperationParamData@@@@@Z$26 00418356 f   configfilehandler.obj
 0001:00017362       __unwindfunclet$?ParsePlanList@configFileHandler@@QAEXAAV?$QList@U?$QPair@VQString@@V?$QList@VSingleOperationData@@@@@@@@ABV?$QMap@VQString@@VOperationParamData@@@@@Z$27 00418362 f   configfilehandler.obj
 0001:0001736e       __unwindfunclet$?ParsePlanList@configFileHandler@@QAEXAAV?$QList@U?$QPair@VQString@@V?$QList@VSingleOperationData@@@@@@@@ABV?$QMap@VQString@@VOperationParamData@@@@@Z$29 0041836e f   configfilehandler.obj
 0001:00017374       __unwindfunclet$?ParsePlanList@configFileHandler@@QAEXAAV?$QList@U?$QPair@VQString@@V?$QList@VSingleOperationData@@@@@@@@ABV?$QMap@VQString@@VOperationParamData@@@@@Z$37 00418374 f   configfilehandler.obj
 0001:0001737a       __unwindfunclet$?ParsePlanList@configFileHandler@@QAEXAAV?$QList@U?$QPair@VQString@@V?$QList@VSingleOperationData@@@@@@@@ABV?$QMap@VQString@@VOperationParamData@@@@@Z$47 0041837a f   configfilehandler.obj
 0001:00017380       __unwindfunclet$?ParsePlanList@configFileHandler@@QAEXAAV?$QList@U?$QPair@VQString@@V?$QList@VSingleOperationData@@@@@@@@ABV?$QMap@VQString@@VOperationParamData@@@@@Z$55 00418380 f   configfilehandler.obj
 0001:00017386       __unwindfunclet$?ParsePlanList@configFileHandler@@QAEXAAV?$QList@U?$QPair@VQString@@V?$QList@VSingleOperationData@@@@@@@@ABV?$QMap@VQString@@VOperationParamData@@@@@Z$65 00418386 f   configfilehandler.obj
 0001:0001738c       __unwindfunclet$?ParsePlanList@configFileHandler@@QAEXAAV?$QList@U?$QPair@VQString@@V?$QList@VSingleOperationData@@@@@@@@ABV?$QMap@VQString@@VOperationParamData@@@@@Z$73 0041838c f   configfilehandler.obj
 0001:00017392       __unwindfunclet$?ParsePlanList@configFileHandler@@QAEXAAV?$QList@U?$QPair@VQString@@V?$QList@VSingleOperationData@@@@@@@@ABV?$QMap@VQString@@VOperationParamData@@@@@Z$81 00418392 f   configfilehandler.obj
 0001:00017398       __unwindfunclet$?ParsePlanList@configFileHandler@@QAEXAAV?$QList@U?$QPair@VQString@@V?$QList@VSingleOperationData@@@@@@@@ABV?$QMap@VQString@@VOperationParamData@@@@@Z$17 00418398 f   configfilehandler.obj
 0001:000173a0       __unwindfunclet$?ParsePlanList@configFileHandler@@QAEXAAV?$QList@U?$QPair@VQString@@V?$QList@VSingleOperationData@@@@@@@@ABV?$QMap@VQString@@VOperationParamData@@@@@Z$111 004183a0 f   configfilehandler.obj
 0001:000173a6       __unwindfunclet$?ParsePlanList@configFileHandler@@QAEXAAV?$QList@U?$QPair@VQString@@V?$QList@VSingleOperationData@@@@@@@@ABV?$QMap@VQString@@VOperationParamData@@@@@Z$118 004183a6 f   configfilehandler.obj
 0001:000173ac       __ehhandler$?ParsePlanList@configFileHandler@@QAEXAAV?$QList@U?$QPair@VQString@@V?$QList@VSingleOperationData@@@@@@@@ABV?$QMap@VQString@@VOperationParamData@@@@@Z 004183ac f   configfilehandler.obj
 0001:000173d0       __unwindfunclet$?ParseWorkLocationTypeList@configFileHandler@@QAEXAAVQStringList@@@Z$0 004183d0 f   configfilehandler.obj
 0001:000173d9       __unwindfunclet$?ParseWorkLocationTypeList@configFileHandler@@QAEXAAVQStringList@@@Z$1 004183d9 f   configfilehandler.obj
 0001:000173e2       __unwindfunclet$?ParseWorkLocationTypeList@configFileHandler@@QAEXAAVQStringList@@@Z$2 004183e2 f   configfilehandler.obj
 0001:000173eb       __unwindfunclet$?ParseWorkLocationTypeList@configFileHandler@@QAEXAAVQStringList@@@Z$18 004183eb f   configfilehandler.obj
 0001:000173f4       __unwindfunclet$?ParseWorkLocationTypeList@configFileHandler@@QAEXAAVQStringList@@@Z$3 004183f4 f   configfilehandler.obj
 0001:000173fd       __unwindfunclet$?ParseWorkLocationTypeList@configFileHandler@@QAEXAAVQStringList@@@Z$4 004183fd f   configfilehandler.obj
 0001:00017406       __unwindfunclet$?ParseWorkLocationTypeList@configFileHandler@@QAEXAAVQStringList@@@Z$5 00418406 f   configfilehandler.obj
 0001:0001740f       __unwindfunclet$?ParseWorkLocationTypeList@configFileHandler@@QAEXAAVQStringList@@@Z$6 0041840f f   configfilehandler.obj
 0001:00017418       __unwindfunclet$?ParseWorkLocationTypeList@configFileHandler@@QAEXAAVQStringList@@@Z$7 00418418 f   configfilehandler.obj
 0001:00017421       __ehhandler$?ParseWorkLocationTypeList@configFileHandler@@QAEXAAVQStringList@@@Z 00418421 f   configfilehandler.obj
 0001:00017440       __unwindfunclet$?SaveMachineConfig@configFileHandler@@QAEXABVQString@@ABVMachineConfigData@@ABVQStringList@@@Z$0 00418440 f   configfilehandler.obj
 0001:00017449       __unwindfunclet$?SaveMachineConfig@configFileHandler@@QAEXABVQString@@ABVMachineConfigData@@ABVQStringList@@@Z$1 00418449 f   configfilehandler.obj
 0001:00017452       __unwindfunclet$?SaveMachineConfig@configFileHandler@@QAEXABVQString@@ABVMachineConfigData@@ABVQStringList@@@Z$2 00418452 f   configfilehandler.obj
 0001:0001745b       __unwindfunclet$?SaveMachineConfig@configFileHandler@@QAEXABVQString@@ABVMachineConfigData@@ABVQStringList@@@Z$3 0041845b f   configfilehandler.obj
 0001:00017464       __unwindfunclet$?SaveMachineConfig@configFileHandler@@QAEXABVQString@@ABVMachineConfigData@@ABVQStringList@@@Z$4 00418464 f   configfilehandler.obj
 0001:0001746d       __unwindfunclet$?SaveMachineConfig@configFileHandler@@QAEXABVQString@@ABVMachineConfigData@@ABVQStringList@@@Z$5 0041846d f   configfilehandler.obj
 0001:00017476       __unwindfunclet$?SaveMachineConfig@configFileHandler@@QAEXABVQString@@ABVMachineConfigData@@ABVQStringList@@@Z$6 00418476 f   configfilehandler.obj
 0001:0001747f       __unwindfunclet$?SaveMachineConfig@configFileHandler@@QAEXABVQString@@ABVMachineConfigData@@ABVQStringList@@@Z$7 0041847f f   configfilehandler.obj
 0001:00017488       __unwindfunclet$?SaveMachineConfig@configFileHandler@@QAEXABVQString@@ABVMachineConfigData@@ABVQStringList@@@Z$8 00418488 f   configfilehandler.obj
 0001:00017491       __unwindfunclet$?SaveMachineConfig@configFileHandler@@QAEXABVQString@@ABVMachineConfigData@@ABVQStringList@@@Z$9 00418491 f   configfilehandler.obj
 0001:0001749a       __unwindfunclet$?SaveMachineConfig@configFileHandler@@QAEXABVQString@@ABVMachineConfigData@@ABVQStringList@@@Z$10 0041849a f   configfilehandler.obj
 0001:000174a3       __unwindfunclet$?SaveMachineConfig@configFileHandler@@QAEXABVQString@@ABVMachineConfigData@@ABVQStringList@@@Z$11 004184a3 f   configfilehandler.obj
 0001:000174ac       __unwindfunclet$?SaveMachineConfig@configFileHandler@@QAEXABVQString@@ABVMachineConfigData@@ABVQStringList@@@Z$12 004184ac f   configfilehandler.obj
 0001:000174b5       __unwindfunclet$?SaveMachineConfig@configFileHandler@@QAEXABVQString@@ABVMachineConfigData@@ABVQStringList@@@Z$13 004184b5 f   configfilehandler.obj
 0001:000174be       __unwindfunclet$?SaveMachineConfig@configFileHandler@@QAEXABVQString@@ABVMachineConfigData@@ABVQStringList@@@Z$14 004184be f   configfilehandler.obj
 0001:000174c7       __unwindfunclet$?SaveMachineConfig@configFileHandler@@QAEXABVQString@@ABVMachineConfigData@@ABVQStringList@@@Z$15 004184c7 f   configfilehandler.obj
 0001:000174d0       __unwindfunclet$?SaveMachineConfig@configFileHandler@@QAEXABVQString@@ABVMachineConfigData@@ABVQStringList@@@Z$16 004184d0 f   configfilehandler.obj
 0001:000174d9       __unwindfunclet$?SaveMachineConfig@configFileHandler@@QAEXABVQString@@ABVMachineConfigData@@ABVQStringList@@@Z$17 004184d9 f   configfilehandler.obj
 0001:000174e2       __unwindfunclet$?SaveMachineConfig@configFileHandler@@QAEXABVQString@@ABVMachineConfigData@@ABVQStringList@@@Z$18 004184e2 f   configfilehandler.obj
 0001:000174eb       __unwindfunclet$?SaveMachineConfig@configFileHandler@@QAEXABVQString@@ABVMachineConfigData@@ABVQStringList@@@Z$19 004184eb f   configfilehandler.obj
 0001:000174f3       __unwindfunclet$?SaveMachineConfig@configFileHandler@@QAEXABVQString@@ABVMachineConfigData@@ABVQStringList@@@Z$20 004184f3 f   configfilehandler.obj
 0001:000174fc       __unwindfunclet$?SaveMachineConfig@configFileHandler@@QAEXABVQString@@ABVMachineConfigData@@ABVQStringList@@@Z$31 004184fc f   configfilehandler.obj
 0001:00017502       __unwindfunclet$?SaveMachineConfig@configFileHandler@@QAEXABVQString@@ABVMachineConfigData@@ABVQStringList@@@Z$21 00418502 f   configfilehandler.obj
 0001:0001750b       __unwindfunclet$?SaveMachineConfig@configFileHandler@@QAEXABVQString@@ABVMachineConfigData@@ABVQStringList@@@Z$22 0041850b f   configfilehandler.obj
 0001:00017514       __unwindfunclet$?SaveMachineConfig@configFileHandler@@QAEXABVQString@@ABVMachineConfigData@@ABVQStringList@@@Z$23 00418514 f   configfilehandler.obj
 0001:0001751d       __unwindfunclet$?SaveMachineConfig@configFileHandler@@QAEXABVQString@@ABVMachineConfigData@@ABVQStringList@@@Z$24 0041851d f   configfilehandler.obj
 0001:00017526       __unwindfunclet$?SaveMachineConfig@configFileHandler@@QAEXABVQString@@ABVMachineConfigData@@ABVQStringList@@@Z$25 00418526 f   configfilehandler.obj
 0001:0001752f       __unwindfunclet$?SaveMachineConfig@configFileHandler@@QAEXABVQString@@ABVMachineConfigData@@ABVQStringList@@@Z$26 0041852f f   configfilehandler.obj
 0001:00017538       __ehhandler$?SaveMachineConfig@configFileHandler@@QAEXABVQString@@ABVMachineConfigData@@ABVQStringList@@@Z 00418538 f   configfilehandler.obj
 0001:00017560       __unwindfunclet$?SavePlanList@configFileHandler@@QAEXABVQString@@ABV?$QList@U?$QPair@VQString@@V?$QList@VSingleOperationData@@@@@@@@ABV?$QMap@VQString@@VQStringList@@@@@Z$0 00418560 f   configfilehandler.obj
 0001:00017569       __unwindfunclet$?SavePlanList@configFileHandler@@QAEXABVQString@@ABV?$QList@U?$QPair@VQString@@V?$QList@VSingleOperationData@@@@@@@@ABV?$QMap@VQString@@VQStringList@@@@@Z$1 00418569 f   configfilehandler.obj
 0001:00017572       __unwindfunclet$?SavePlanList@configFileHandler@@QAEXABVQString@@ABV?$QList@U?$QPair@VQString@@V?$QList@VSingleOperationData@@@@@@@@ABV?$QMap@VQString@@VQStringList@@@@@Z$2 00418572 f   configfilehandler.obj
 0001:0001757b       __unwindfunclet$?SavePlanList@configFileHandler@@QAEXABVQString@@ABV?$QList@U?$QPair@VQString@@V?$QList@VSingleOperationData@@@@@@@@ABV?$QMap@VQString@@VQStringList@@@@@Z$3 0041857b f   configfilehandler.obj
 0001:00017584       __unwindfunclet$?SavePlanList@configFileHandler@@QAEXABVQString@@ABV?$QList@U?$QPair@VQString@@V?$QList@VSingleOperationData@@@@@@@@ABV?$QMap@VQString@@VQStringList@@@@@Z$4 00418584 f   configfilehandler.obj
 0001:0001758d       __unwindfunclet$?SavePlanList@configFileHandler@@QAEXABVQString@@ABV?$QList@U?$QPair@VQString@@V?$QList@VSingleOperationData@@@@@@@@ABV?$QMap@VQString@@VQStringList@@@@@Z$5 0041858d f   configfilehandler.obj
 0001:00017596       __unwindfunclet$?SavePlanList@configFileHandler@@QAEXABVQString@@ABV?$QList@U?$QPair@VQString@@V?$QList@VSingleOperationData@@@@@@@@ABV?$QMap@VQString@@VQStringList@@@@@Z$6 00418596 f   configfilehandler.obj
 0001:0001759f       __unwindfunclet$?SavePlanList@configFileHandler@@QAEXABVQString@@ABV?$QList@U?$QPair@VQString@@V?$QList@VSingleOperationData@@@@@@@@ABV?$QMap@VQString@@VQStringList@@@@@Z$7 0041859f f   configfilehandler.obj
 0001:000175a8       __unwindfunclet$?SavePlanList@configFileHandler@@QAEXABVQString@@ABV?$QList@U?$QPair@VQString@@V?$QList@VSingleOperationData@@@@@@@@ABV?$QMap@VQString@@VQStringList@@@@@Z$8 004185a8 f   configfilehandler.obj
 0001:000175b1       __unwindfunclet$?SavePlanList@configFileHandler@@QAEXABVQString@@ABV?$QList@U?$QPair@VQString@@V?$QList@VSingleOperationData@@@@@@@@ABV?$QMap@VQString@@VQStringList@@@@@Z$9 004185b1 f   configfilehandler.obj
 0001:000175ba       __unwindfunclet$?SavePlanList@configFileHandler@@QAEXABVQString@@ABV?$QList@U?$QPair@VQString@@V?$QList@VSingleOperationData@@@@@@@@ABV?$QMap@VQString@@VQStringList@@@@@Z$10 004185ba f   configfilehandler.obj
 0001:000175c3       __unwindfunclet$?SavePlanList@configFileHandler@@QAEXABVQString@@ABV?$QList@U?$QPair@VQString@@V?$QList@VSingleOperationData@@@@@@@@ABV?$QMap@VQString@@VQStringList@@@@@Z$11 004185c3 f   configfilehandler.obj
 0001:000175cc       __unwindfunclet$?SavePlanList@configFileHandler@@QAEXABVQString@@ABV?$QList@U?$QPair@VQString@@V?$QList@VSingleOperationData@@@@@@@@ABV?$QMap@VQString@@VQStringList@@@@@Z$12 004185cc f   configfilehandler.obj
 0001:000175d5       __unwindfunclet$?SavePlanList@configFileHandler@@QAEXABVQString@@ABV?$QList@U?$QPair@VQString@@V?$QList@VSingleOperationData@@@@@@@@ABV?$QMap@VQString@@VQStringList@@@@@Z$13 004185d5 f   configfilehandler.obj
 0001:000175de       __unwindfunclet$?SavePlanList@configFileHandler@@QAEXABVQString@@ABV?$QList@U?$QPair@VQString@@V?$QList@VSingleOperationData@@@@@@@@ABV?$QMap@VQString@@VQStringList@@@@@Z$14 004185de f   configfilehandler.obj
 0001:000175e6       __unwindfunclet$?SavePlanList@configFileHandler@@QAEXABVQString@@ABV?$QList@U?$QPair@VQString@@V?$QList@VSingleOperationData@@@@@@@@ABV?$QMap@VQString@@VQStringList@@@@@Z$16 004185e6 f   configfilehandler.obj
 0001:000175ef       __unwindfunclet$?SavePlanList@configFileHandler@@QAEXABVQString@@ABV?$QList@U?$QPair@VQString@@V?$QList@VSingleOperationData@@@@@@@@ABV?$QMap@VQString@@VQStringList@@@@@Z$17 004185ef f   configfilehandler.obj
 0001:000175f8       __unwindfunclet$?SavePlanList@configFileHandler@@QAEXABVQString@@ABV?$QList@U?$QPair@VQString@@V?$QList@VSingleOperationData@@@@@@@@ABV?$QMap@VQString@@VQStringList@@@@@Z$18 004185f8 f   configfilehandler.obj
 0001:00017604       __unwindfunclet$?SavePlanList@configFileHandler@@QAEXABVQString@@ABV?$QList@U?$QPair@VQString@@V?$QList@VSingleOperationData@@@@@@@@ABV?$QMap@VQString@@VQStringList@@@@@Z$15 00418604 f   configfilehandler.obj
 0001:00017610       __unwindfunclet$?SavePlanList@configFileHandler@@QAEXABVQString@@ABV?$QList@U?$QPair@VQString@@V?$QList@VSingleOperationData@@@@@@@@ABV?$QMap@VQString@@VQStringList@@@@@Z$42 00418610 f   configfilehandler.obj
 0001:00017616       __unwindfunclet$?SavePlanList@configFileHandler@@QAEXABVQString@@ABV?$QList@U?$QPair@VQString@@V?$QList@VSingleOperationData@@@@@@@@ABV?$QMap@VQString@@VQStringList@@@@@Z$50 00418616 f   configfilehandler.obj
 0001:0001761c       __unwindfunclet$?SavePlanList@configFileHandler@@QAEXABVQString@@ABV?$QList@U?$QPair@VQString@@V?$QList@VSingleOperationData@@@@@@@@ABV?$QMap@VQString@@VQStringList@@@@@Z$58 0041861c f   configfilehandler.obj
 0001:00017622       __unwindfunclet$?SavePlanList@configFileHandler@@QAEXABVQString@@ABV?$QList@U?$QPair@VQString@@V?$QList@VSingleOperationData@@@@@@@@ABV?$QMap@VQString@@VQStringList@@@@@Z$19 00418622 f   configfilehandler.obj
 0001:0001762e       __unwindfunclet$?SavePlanList@configFileHandler@@QAEXABVQString@@ABV?$QList@U?$QPair@VQString@@V?$QList@VSingleOperationData@@@@@@@@ABV?$QMap@VQString@@VQStringList@@@@@Z$20 0041862e f   configfilehandler.obj
 0001:00017637       __unwindfunclet$?SavePlanList@configFileHandler@@QAEXABVQString@@ABV?$QList@U?$QPair@VQString@@V?$QList@VSingleOperationData@@@@@@@@ABV?$QMap@VQString@@VQStringList@@@@@Z$21 00418637 f   configfilehandler.obj
 0001:00017643       __unwindfunclet$?SavePlanList@configFileHandler@@QAEXABVQString@@ABV?$QList@U?$QPair@VQString@@V?$QList@VSingleOperationData@@@@@@@@ABV?$QMap@VQString@@VQStringList@@@@@Z$22 00418643 f   configfilehandler.obj
 0001:0001764c       __unwindfunclet$?SavePlanList@configFileHandler@@QAEXABVQString@@ABV?$QList@U?$QPair@VQString@@V?$QList@VSingleOperationData@@@@@@@@ABV?$QMap@VQString@@VQStringList@@@@@Z$23 0041864c f   configfilehandler.obj
 0001:00017655       __unwindfunclet$?SavePlanList@configFileHandler@@QAEXABVQString@@ABV?$QList@U?$QPair@VQString@@V?$QList@VSingleOperationData@@@@@@@@ABV?$QMap@VQString@@VQStringList@@@@@Z$24 00418655 f   configfilehandler.obj
 0001:0001765e       __unwindfunclet$?SavePlanList@configFileHandler@@QAEXABVQString@@ABV?$QList@U?$QPair@VQString@@V?$QList@VSingleOperationData@@@@@@@@ABV?$QMap@VQString@@VQStringList@@@@@Z$25 0041865e f   configfilehandler.obj
 0001:00017667       __unwindfunclet$?SavePlanList@configFileHandler@@QAEXABVQString@@ABV?$QList@U?$QPair@VQString@@V?$QList@VSingleOperationData@@@@@@@@ABV?$QMap@VQString@@VQStringList@@@@@Z$26 00418667 f   configfilehandler.obj
 0001:00017670       __ehhandler$?SavePlanList@configFileHandler@@QAEXABVQString@@ABV?$QList@U?$QPair@VQString@@V?$QList@VSingleOperationData@@@@@@@@ABV?$QMap@VQString@@VQStringList@@@@@Z 00418670 f   configfilehandler.obj
 0001:00017690       __ehhandler$?append@?$QList@H@@QAEXABH@Z 00418690 f   configfilehandler.obj
 0001:00017690       __ehhandler$?append@?$QList@PAVQObject@@@@QAEXABQAVQObject@@@Z 00418690 f   workmodels.obj
 0001:000176b0       __unwindfunclet$?append@?$QList@U?$QPair@VQString@@V?$QList@VSingleOperationData@@@@@@@@QAEXABU?$QPair@VQString@@V?$QList@VSingleOperationData@@@@@@@Z$9 004186b0 f   configfilehandler.obj
 0001:000176bf       __unwindfunclet$?append@?$QList@U?$QPair@VQString@@V?$QList@VSingleOperationData@@@@@@@@QAEXABU?$QPair@VQString@@V?$QList@VSingleOperationData@@@@@@@Z$11 004186bf f   configfilehandler.obj
 0001:000176c8       __unwindfunclet$?append@?$QList@U?$QPair@VQString@@V?$QList@VSingleOperationData@@@@@@@@QAEXABU?$QPair@VQString@@V?$QList@VSingleOperationData@@@@@@@Z$15 004186c8 f   configfilehandler.obj
 0001:000176d7       __unwindfunclet$?append@?$QList@U?$QPair@VQString@@V?$QList@VSingleOperationData@@@@@@@@QAEXABU?$QPair@VQString@@V?$QList@VSingleOperationData@@@@@@@Z$17 004186d7 f   configfilehandler.obj
 0001:000176e0       __ehhandler$?append@?$QList@U?$QPair@VQString@@V?$QList@VSingleOperationData@@@@@@@@QAEXABU?$QPair@VQString@@V?$QList@VSingleOperationData@@@@@@@Z 004186e0 f   configfilehandler.obj
 0001:00017700       __unwindfunclet$?append@?$QList@VOperationParamData@@@@QAEXABVOperationParamData@@@Z$9 00418700 f   configfilehandler.obj
 0001:0001770f       __unwindfunclet$?append@?$QList@VOperationParamData@@@@QAEXABVOperationParamData@@@Z$11 0041870f f   configfilehandler.obj
 0001:0001771e       __ehhandler$?append@?$QList@VOperationParamData@@@@QAEXABVOperationParamData@@@Z 0041871e f   configfilehandler.obj
 0001:00017740       __unwindfunclet$?append@?$QList@VSingleOperationData@@@@QAEXABVSingleOperationData@@@Z$9 00418740 f   configfilehandler.obj
 0001:0001774f       __unwindfunclet$?append@?$QList@VSingleOperationData@@@@QAEXABVSingleOperationData@@@Z$11 0041874f f   configfilehandler.obj
 0001:00017758       __unwindfunclet$?append@?$QList@VSingleOperationData@@@@QAEXABVSingleOperationData@@@Z$15 00418758 f   configfilehandler.obj
 0001:00017767       __unwindfunclet$?append@?$QList@VSingleOperationData@@@@QAEXABVSingleOperationData@@@Z$17 00418767 f   configfilehandler.obj
 0001:00017770       __ehhandler$?append@?$QList@VSingleOperationData@@@@QAEXABVSingleOperationData@@@Z 00418770 f   configfilehandler.obj
 0001:00017790       __unwindfunclet$?clear@?$QList@H@@QAEXXZ$11 00418790 f   configfilehandler.obj
 0001:00017796       __unwindfunclet$?clear@?$QList@H@@QAEXXZ$18 00418796 f   configfilehandler.obj
 0001:0001779c       __ehhandler$?clear@?$QList@H@@QAEXXZ 0041879c f   configfilehandler.obj
 0001:000177c0       __unwindfunclet$??4SingleOperationData@@QAEAAV0@ABV0@@Z$7 004187c0 f   environmentvariant.obj
 0001:000177c0       __unwindfunclet$?clear@?$QList@U?$QPair@VQString@@V?$QList@VSingleOperationData@@@@@@@@QAEXXZ$2 004187c0 f   configfilehandler.obj
 0001:000177c0       __unwindfunclet$??4?$QList@VSingleOperationData@@@@QAEAAV0@ABV0@@Z$7 004187c0 f   environmentvariant.obj
 0001:000177c6       __ehhandler$??4?$QList@VSingleOperationData@@@@QAEAAV0@ABV0@@Z 004187c6 f   environmentvariant.obj
 0001:000177c6       __ehhandler$??4SingleOperationData@@QAEAAV0@ABV0@@Z 004187c6 f   environmentvariant.obj
 0001:000177c6       __ehhandler$?clear@?$QList@U?$QPair@VQString@@V?$QList@VSingleOperationData@@@@@@@@QAEXXZ 004187c6 f   configfilehandler.obj
 0001:000177f0       __unwindfunclet$?createNode@?$QMapData@VQString@@VOperationParamData@@@@QAEPAU?$QMapNode@VQString@@VOperationParamData@@@@ABVQString@@ABVOperationParamData@@PAU2@_N@Z$4 004187f0 f   configfilehandler.obj
 0001:00017804       __ehhandler$?createNode@?$QMapData@VQString@@VOperationParamData@@@@QAEPAU?$QMapNode@VQString@@VOperationParamData@@@@ABVQString@@ABVOperationParamData@@PAU2@_N@Z 00418804 f   configfilehandler.obj
 0001:00017820       __unwindfunclet$?createNode@?$QMapData@VQString@@VQStringList@@@@QAEPAU?$QMapNode@VQString@@VQStringList@@@@ABVQString@@ABVQStringList@@PAU2@_N@Z$4 00418820 f   configfilehandler.obj
 0001:00017834       __ehhandler$?createNode@?$QMapData@VQString@@VQStringList@@@@QAEPAU?$QMapNode@VQString@@VQStringList@@@@ABVQString@@ABVQStringList@@PAU2@_N@Z 00418834 f   configfilehandler.obj
 0001:00017850       __ehhandler$?detach_helper_grow@?$QList@H@@AAEPAUNode@1@HH@Z 00418850 f   configfilehandler.obj
 0001:00017850       __ehhandler$?detach_helper_grow@?$QList@PAVQObject@@@@AAEPAUNode@1@HH@Z 00418850 f   workmodels.obj
 0001:00017870       __ehhandler$?detach_helper_grow@?$QList@U?$QPair@VQString@@V?$QList@VSingleOperationData@@@@@@@@AAEPAUNode@1@HH@Z 00418870 f   configfilehandler.obj
 0001:00017890       __ehhandler$?detach_helper_grow@?$QList@VOperationParamData@@@@AAEPAUNode@1@HH@Z 00418890 f   configfilehandler.obj
 0001:000178b0       __ehhandler$?detach_helper_grow@?$QList@VSingleOperationData@@@@AAEPAUNode@1@HH@Z 004188b0 f   configfilehandler.obj
 0001:000178d0       __unwindfunclet$?loadConfigFile@configFileHandler@@QAE_NABVQString@@@Z$0 004188d0 f   configfilehandler.obj
 0001:000178d9       __unwindfunclet$?loadConfigFile@configFileHandler@@QAE_NABVQString@@@Z$1 004188d9 f   configfilehandler.obj
 0001:000178e2       __unwindfunclet$?loadConfigFile@configFileHandler@@QAE_NABVQString@@@Z$2 004188e2 f   configfilehandler.obj
 0001:000178eb       __unwindfunclet$?loadConfigFile@configFileHandler@@QAE_NABVQString@@@Z$3 004188eb f   configfilehandler.obj
 0001:000178f4       __ehhandler$?loadConfigFile@configFileHandler@@QAE_NABVQString@@@Z 004188f4 f   configfilehandler.obj
 0001:00017910       __unwindfunclet$?node_copy@?$QList@U?$QPair@VQString@@V?$QList@VSingleOperationData@@@@@@@@AAEXPAUNode@1@00@Z$4 00418910 f   configfilehandler.obj
 0001:0001791f       __unwindfunclet$?node_copy@?$QList@U?$QPair@VQString@@V?$QList@VSingleOperationData@@@@@@@@AAEXPAUNode@1@00@Z$6 0041891f f   configfilehandler.obj
 0001:00017928       __ehhandler$?node_copy@?$QList@U?$QPair@VQString@@V?$QList@VSingleOperationData@@@@@@@@AAEXPAUNode@1@00@Z 00418928 f   configfilehandler.obj
 0001:00017950       __unwindfunclet$?node_copy@?$QList@VOperationParamData@@@@AAEXPAUNode@1@00@Z$4 00418950 f   configfilehandler.obj
 0001:0001795f       __ehhandler$?node_copy@?$QList@VOperationParamData@@@@AAEXPAUNode@1@00@Z 0041895f f   configfilehandler.obj
 0001:00017980       __unwindfunclet$?node_copy@?$QList@VSingleOperationData@@@@AAEXPAUNode@1@00@Z$4 00418980 f   configfilehandler.obj
 0001:0001798f       __unwindfunclet$?node_copy@?$QList@VSingleOperationData@@@@AAEXPAUNode@1@00@Z$6 0041898f f   configfilehandler.obj
 0001:00017998       __ehhandler$?node_copy@?$QList@VSingleOperationData@@@@AAEXPAUNode@1@00@Z 00418998 f   configfilehandler.obj
 0001:000179c0       __unwindfunclet$?node_destruct@?$QList@U?$QPair@VQString@@V?$QList@VSingleOperationData@@@@@@@@AAEXPAUNode@1@0@Z$2 004189c0 f   configfilehandler.obj
 0001:000179c0       __unwindfunclet$?node_destruct@?$QList@VSingleOperationData@@@@AAEXPAUNode@1@0@Z$2 004189c0 f   configfilehandler.obj
 0001:000179c6       __ehhandler$?node_destruct@?$QList@U?$QPair@VQString@@V?$QList@VSingleOperationData@@@@@@@@AAEXPAUNode@1@0@Z 004189c6 f   configfilehandler.obj
 0001:000179c6       __ehhandler$?node_destruct@?$QList@VSingleOperationData@@@@AAEXPAUNode@1@0@Z 004189c6 f   configfilehandler.obj
 0001:000179f0       __unwindfunclet$?toList@configFileHandler@@QAE?AVQStringList@@ABVQString@@@Z$0 004189f0 f   configfilehandler.obj
 0001:00017a09       __unwindfunclet$?toList@configFileHandler@@QAE?AVQStringList@@ABVQString@@@Z$1 00418a09 f   configfilehandler.obj
 0001:00017a12       __unwindfunclet$?toList@configFileHandler@@QAE?AVQStringList@@ABVQString@@@Z$2 00418a12 f   configfilehandler.obj
 0001:00017a1b       __ehhandler$?toList@configFileHandler@@QAE?AVQStringList@@ABVQString@@@Z 00418a1b f   configfilehandler.obj
 0001:00017a40       __unwindfunclet$??0EnvironmentVariant@@AAE@XZ$0 00418a40 f   environmentvariant.obj
 0001:00017a49       __unwindfunclet$??0EnvironmentVariant@@AAE@XZ$1 00418a49 f   environmentvariant.obj
 0001:00017a54       __unwindfunclet$??0EnvironmentVariant@@AAE@XZ$2 00418a54 f   environmentvariant.obj
 0001:00017a5f       __unwindfunclet$??0EnvironmentVariant@@AAE@XZ$3 00418a5f f   environmentvariant.obj
 0001:00017a6a       __unwindfunclet$??0EnvironmentVariant@@AAE@XZ$4 00418a6a f   environmentvariant.obj
 0001:00017a75       __unwindfunclet$??0EnvironmentVariant@@AAE@XZ$5 00418a75 f   environmentvariant.obj
 0001:00017a80       __unwindfunclet$??0EnvironmentVariant@@AAE@XZ$6 00418a80 f   environmentvariant.obj
 0001:00017a8b       __unwindfunclet$??0EnvironmentVariant@@AAE@XZ$7 00418a8b f   environmentvariant.obj
 0001:00017a96       __unwindfunclet$??0EnvironmentVariant@@AAE@XZ$8 00418a96 f   environmentvariant.obj
 0001:00017aa2       __unwindfunclet$??0EnvironmentVariant@@AAE@XZ$9 00418aa2 f   environmentvariant.obj
 0001:00017aad       __unwindfunclet$??0EnvironmentVariant@@AAE@XZ$10 00418aad f   environmentvariant.obj
 0001:00017ab9       __ehhandler$??0EnvironmentVariant@@AAE@XZ 00418ab9 f   environmentvariant.obj
 0001:00017ae0       __unwindfunclet$??0SingleOperationData@@QAE@ABV0@@Z$0 00418ae0 f   environmentvariant.obj
 0001:00017ae9       __ehhandler$??0SingleOperationData@@QAE@ABV0@@Z 00418ae9 f   environmentvariant.obj
 0001:00017b10       __unwindfunclet$??1EnvironmentVariant@@EAE@XZ$3 00418b10 f   environmentvariant.obj
 0001:00017b16       __unwindfunclet$??1EnvironmentVariant@@EAE@XZ$10 00418b16 f   environmentvariant.obj
 0001:00017b1c       __unwindfunclet$??1EnvironmentVariant@@EAE@XZ$16 00418b1c f   environmentvariant.obj
 0001:00017b22       __ehhandler$??1EnvironmentVariant@@EAE@XZ 00418b22 f   environmentvariant.obj
 0001:00017b40       __unwindfunclet$??A?$QMap@VQString@@VOperationParamData@@@@QAEAAVOperationParamData@@ABVQString@@@Z$0 00418b40 f   environmentvariant.obj
 0001:00017b48       __ehhandler$??A?$QMap@VQString@@VOperationParamData@@@@QAEAAVOperationParamData@@ABVQString@@@Z 00418b48 f   environmentvariant.obj
 0001:00017b70       __ehhandler$??Y?$QList@VQString@@@@QAEAAV0@ABV0@@Z 00418b70 f   environmentvariant.obj
 0001:00017b90       __unwindfunclet$?AddPlan@EnvironmentVariant@@QAEXABVQString@@@Z$0 00418b90 f   environmentvariant.obj
 0001:00017b98       __unwindfunclet$?AddPlan@EnvironmentVariant@@QAEXABVQString@@@Z$1 00418b98 f   environmentvariant.obj
 0001:00017ba0       __unwindfunclet$?AddPlan@EnvironmentVariant@@QAEXABVQString@@@Z$4 00418ba0 f   environmentvariant.obj
 0001:00017ba6       __unwindfunclet$?AddPlan@EnvironmentVariant@@QAEXABVQString@@@Z$11 00418ba6 f   environmentvariant.obj
 0001:00017bac       __ehhandler$?AddPlan@EnvironmentVariant@@QAEXABVQString@@@Z 00418bac f   environmentvariant.obj
 0001:00017bd0       __unwindfunclet$?AddPlanStep@EnvironmentVariant@@QAEXHHH@Z$6 00418bd0 f   environmentvariant.obj
 0001:00017bd9       __unwindfunclet$?AddPlanStep@EnvironmentVariant@@QAEXHHH@Z$0 00418bd9 f   environmentvariant.obj
 0001:00017be1       __unwindfunclet$?AddPlanStep@EnvironmentVariant@@QAEXHHH@Z$1 00418be1 f   environmentvariant.obj
 0001:00017be9       __unwindfunclet$?AddPlanStep@EnvironmentVariant@@QAEXHHH@Z$16 00418be9 f   environmentvariant.obj
 0001:00017bef       __ehhandler$?AddPlanStep@EnvironmentVariant@@QAEXHHH@Z 00418bef f   environmentvariant.obj
 0001:00017c10       __unwindfunclet$?LogicalControlList@EnvironmentVariant@@QAE?AVQStringList@@XZ$0 00418c10 f   environmentvariant.obj
 0001:00017c10       __unwindfunclet$?OperationNameList@EnvironmentVariant@@QAE?AVQStringList@@XZ$0 00418c10 f   environmentvariant.obj
 0001:00017c29       __unwindfunclet$?OperationNameList@EnvironmentVariant@@QAE?AVQStringList@@XZ$1 00418c29 f   environmentvariant.obj
 0001:00017c29       __unwindfunclet$?LogicalControlList@EnvironmentVariant@@QAE?AVQStringList@@XZ$1 00418c29 f   environmentvariant.obj
 0001:00017c31       __unwindfunclet$?LogicalControlList@EnvironmentVariant@@QAE?AVQStringList@@XZ$7 00418c31 f   environmentvariant.obj
 0001:00017c31       __unwindfunclet$?OperationNameList@EnvironmentVariant@@QAE?AVQStringList@@XZ$7 00418c31 f   environmentvariant.obj
 0001:00017c37       __ehhandler$?LogicalControlList@EnvironmentVariant@@QAE?AVQStringList@@XZ 00418c37 f   environmentvariant.obj
 0001:00017c37       __ehhandler$?OperationNameList@EnvironmentVariant@@QAE?AVQStringList@@XZ 00418c37 f   environmentvariant.obj
 0001:00017c60       __unwindfunclet$?SetPlanStepToDefault@EnvironmentVariant@@QAEXHHH@Z$0 00418c60 f   environmentvariant.obj
 0001:00017c60       __unwindfunclet$?MovePlanStep@EnvironmentVariant@@QAEXHHH@Z$0 00418c60 f   environmentvariant.obj
 0001:00017c68       __ehhandler$?SetPlanStepToDefault@EnvironmentVariant@@QAEXHHH@Z 00418c68 f   environmentvariant.obj
 0001:00017c68       __ehhandler$?MovePlanStep@EnvironmentVariant@@QAEXHHH@Z 00418c68 f   environmentvariant.obj
 0001:00017c90       __unwindfunclet$?PlanList@EnvironmentVariant@@QAE?AVQStringList@@XZ$0 00418c90 f   environmentvariant.obj
 0001:00017ca9       __ehhandler$?PlanList@EnvironmentVariant@@QAE?AVQStringList@@XZ 00418ca9 f   environmentvariant.obj
 0001:00017cd0       __unwindfunclet$?SaveMachineConfig@EnvironmentVariant@@QAEXABVMachineConfigData@@@Z$0 00418cd0 f   environmentvariant.obj
 0001:00017cd8       __ehhandler$?SaveMachineConfig@EnvironmentVariant@@QAEXABVMachineConfigData@@@Z 00418cd8 f   environmentvariant.obj
 0001:00017d00       __unwindfunclet$?SavePlan@EnvironmentVariant@@QAEXXZ$0 00418d00 f   environmentvariant.obj
 0001:00017d08       __ehhandler$?SavePlan@EnvironmentVariant@@QAEXXZ 00418d08 f   environmentvariant.obj
 0001:00017d30       __unwindfunclet$?StartPlan@EnvironmentVariant@@QAEXHH@Z$0 00418d30 f   environmentvariant.obj
 0001:00017d39       __unwindfunclet$?StartPlan@EnvironmentVariant@@QAEXHH@Z$1 00418d39 f   environmentvariant.obj
 0001:00017d42       __unwindfunclet$?StartPlan@EnvironmentVariant@@QAEXHH@Z$2 00418d42 f   environmentvariant.obj
 0001:00017d4a       __unwindfunclet$?StartPlan@EnvironmentVariant@@QAEXHH@Z$3 00418d4a f   environmentvariant.obj
 0001:00017d53       __unwindfunclet$?StartPlan@EnvironmentVariant@@QAEXHH@Z$4 00418d53 f   environmentvariant.obj
 0001:00017d5c       __unwindfunclet$?StartPlan@EnvironmentVariant@@QAEXHH@Z$5 00418d5c f   environmentvariant.obj
 0001:00017d65       __unwindfunclet$?StartPlan@EnvironmentVariant@@QAEXHH@Z$6 00418d65 f   environmentvariant.obj
 0001:00017d6e       __unwindfunclet$?StartPlan@EnvironmentVariant@@QAEXHH@Z$7 00418d6e f   environmentvariant.obj
 0001:00017d77       __unwindfunclet$?StartPlan@EnvironmentVariant@@QAEXHH@Z$8 00418d77 f   environmentvariant.obj
 0001:00017d80       __unwindfunclet$?StartPlan@EnvironmentVariant@@QAEXHH@Z$9 00418d80 f   environmentvariant.obj
 0001:00017d88       __unwindfunclet$?StartPlan@EnvironmentVariant@@QAEXHH@Z$27 00418d88 f   environmentvariant.obj
 0001:00017d90       __unwindfunclet$?StartPlan@EnvironmentVariant@@QAEXHH@Z$35 00418d90 f   environmentvariant.obj
 0001:00017d96       __unwindfunclet$?StartPlan@EnvironmentVariant@@QAEXHH@Z$43 00418d96 f   environmentvariant.obj
 0001:00017d9c       __unwindfunclet$?StartPlan@EnvironmentVariant@@QAEXHH@Z$10 00418d9c f   environmentvariant.obj
 0001:00017da5       __unwindfunclet$?StartPlan@EnvironmentVariant@@QAEXHH@Z$11 00418da5 f   environmentvariant.obj
 0001:00017db1       __unwindfunclet$?StartPlan@EnvironmentVariant@@QAEXHH@Z$12 00418db1 f   environmentvariant.obj
 0001:00017dbd       __unwindfunclet$?StartPlan@EnvironmentVariant@@QAEXHH@Z$13 00418dbd f   environmentvariant.obj
 0001:00017dc9       __unwindfunclet$?StartPlan@EnvironmentVariant@@QAEXHH@Z$14 00418dc9 f   environmentvariant.obj
 0001:00017dd5       __unwindfunclet$?StartPlan@EnvironmentVariant@@QAEXHH@Z$56 00418dd5 f   environmentvariant.obj
 0001:00017ddb       __unwindfunclet$?StartPlan@EnvironmentVariant@@QAEXHH@Z$64 00418ddb f   environmentvariant.obj
 0001:00017de1       __unwindfunclet$?StartPlan@EnvironmentVariant@@QAEXHH@Z$72 00418de1 f   environmentvariant.obj
 0001:00017de7       __unwindfunclet$?StartPlan@EnvironmentVariant@@QAEXHH@Z$15 00418de7 f   environmentvariant.obj
 0001:00017df3       __unwindfunclet$?StartPlan@EnvironmentVariant@@QAEXHH@Z$16 00418df3 f   environmentvariant.obj
 0001:00017dfc       __unwindfunclet$?StartPlan@EnvironmentVariant@@QAEXHH@Z$17 00418dfc f   environmentvariant.obj
 0001:00017e05       __unwindfunclet$?StartPlan@EnvironmentVariant@@QAEXHH@Z$102 00418e05 f   environmentvariant.obj
 0001:00017e0b       __unwindfunclet$?StartPlan@EnvironmentVariant@@QAEXHH@Z$18 00418e0b f   environmentvariant.obj
 0001:00017e14       __unwindfunclet$?StartPlan@EnvironmentVariant@@QAEXHH@Z$19 00418e14 f   environmentvariant.obj
 0001:00017e1d       __unwindfunclet$?StartPlan@EnvironmentVariant@@QAEXHH@Z$20 00418e1d f   environmentvariant.obj
 0001:00017e26       __unwindfunclet$?StartPlan@EnvironmentVariant@@QAEXHH@Z$21 00418e26 f   environmentvariant.obj
 0001:00017e2f       __unwindfunclet$?StartPlan@EnvironmentVariant@@QAEXHH@Z$22 00418e2f f   environmentvariant.obj
 0001:00017e38       __unwindfunclet$?StartPlan@EnvironmentVariant@@QAEXHH@Z$23 00418e38 f   environmentvariant.obj
 0001:00017e41       __unwindfunclet$?StartPlan@EnvironmentVariant@@QAEXHH@Z$109 00418e41 f   environmentvariant.obj
 0001:00017e4a       __ehhandler$?StartPlan@EnvironmentVariant@@QAEXHH@Z 00418e4a f   environmentvariant.obj
 0001:00017e70       __unwindfunclet$?StartTunning@EnvironmentVariant@@QAEXABVSingleOperationData@@@Z$1 00418e70 f   environmentvariant.obj
 0001:00017e7f       __unwindfunclet$?StartTunning@EnvironmentVariant@@QAEXABVSingleOperationData@@@Z$0 00418e7f f   environmentvariant.obj
 0001:00017e88       __unwindfunclet$?StartTunning@EnvironmentVariant@@QAEXABVSingleOperationData@@@Z$2 00418e88 f   environmentvariant.obj
 0001:00017e97       __unwindfunclet$?StartTunning@EnvironmentVariant@@QAEXABVSingleOperationData@@@Z$3 00418e97 f   environmentvariant.obj
 0001:00017ea0       __ehhandler$?StartTunning@EnvironmentVariant@@QAEXABVSingleOperationData@@@Z 00418ea0 f   environmentvariant.obj
 0001:00017ec0       __unwindfunclet$?StepList@EnvironmentVariant@@QAE?AVQStringList@@H@Z$0 00418ec0 f   environmentvariant.obj
 0001:00017ed9       __unwindfunclet$?StepList@EnvironmentVariant@@QAE?AVQStringList@@H@Z$1 00418ed9 f   environmentvariant.obj
 0001:00017ee1       __unwindfunclet$?StepList@EnvironmentVariant@@QAE?AVQStringList@@H@Z$10 00418ee1 f   environmentvariant.obj
 0001:00017ee7       __ehhandler$?StepList@EnvironmentVariant@@QAE?AVQStringList@@H@Z 00418ee7 f   environmentvariant.obj
 0001:00017f10       __unwindfunclet$?defaultValue@EnvironmentVariant@@QAE?AVSingleOperationData@@ABVQString@@@Z$0 00418f10 f   environmentvariant.obj
 0001:00017f18       __unwindfunclet$?defaultValue@EnvironmentVariant@@QAE?AVSingleOperationData@@ABVQString@@@Z$1 00418f18 f   environmentvariant.obj
 0001:00017f20       __unwindfunclet$?defaultValue@EnvironmentVariant@@QAE?AVSingleOperationData@@ABVQString@@@Z$8 00418f20 f   environmentvariant.obj
 0001:00017f26       __unwindfunclet$?defaultValue@EnvironmentVariant@@QAE?AVSingleOperationData@@ABVQString@@@Z$20 00418f26 f   environmentvariant.obj
 0001:00017f2c       __ehhandler$?defaultValue@EnvironmentVariant@@QAE?AVSingleOperationData@@ABVQString@@@Z 00418f2c f   environmentvariant.obj
 0001:00017f50       __ehhandler$?detach_helper@?$QList@H@@AAEXH@Z 00418f50 f   environmentvariant.obj
 0001:00017f70       __ehhandler$?detach_helper@?$QList@U?$QPair@VQString@@V?$QList@VSingleOperationData@@@@@@@@AAEXH@Z 00418f70 f   environmentvariant.obj
 0001:00017f90       __ehhandler$?detach_helper@?$QList@VOperationParamData@@@@AAEXH@Z 00418f90 f   environmentvariant.obj
 0001:00017fb0       __ehhandler$?detach_helper@?$QList@VQString@@@@AAEXH@Z 00418fb0 f   environmentvariant.obj
 0001:00017fd0       __ehhandler$?detach_helper@?$QList@VSingleOperationData@@@@AAEXH@Z 00418fd0 f   environmentvariant.obj
 0001:00017ff0       __unwindfunclet$?formatSingleOperationParam@EnvironmentVariant@@QAE?AVQJsonObject@@ABVSingleOperationData@@@Z$0 00418ff0 f   environmentvariant.obj
 0001:0001800a       __unwindfunclet$?formatSingleOperationParam@EnvironmentVariant@@QAE?AVQJsonObject@@ABVSingleOperationData@@@Z$1 0041900a f   environmentvariant.obj
 0001:00018013       __unwindfunclet$?formatSingleOperationParam@EnvironmentVariant@@QAE?AVQJsonObject@@ABVSingleOperationData@@@Z$2 00419013 f   environmentvariant.obj
 0001:0001801c       __unwindfunclet$?formatSingleOperationParam@EnvironmentVariant@@QAE?AVQJsonObject@@ABVSingleOperationData@@@Z$3 0041901c f   environmentvariant.obj
 0001:00018025       __unwindfunclet$?formatSingleOperationParam@EnvironmentVariant@@QAE?AVQJsonObject@@ABVSingleOperationData@@@Z$4 00419025 f   environmentvariant.obj
 0001:0001802e       __unwindfunclet$?formatSingleOperationParam@EnvironmentVariant@@QAE?AVQJsonObject@@ABVSingleOperationData@@@Z$5 0041902e f   environmentvariant.obj
 0001:00018037       __unwindfunclet$?formatSingleOperationParam@EnvironmentVariant@@QAE?AVQJsonObject@@ABVSingleOperationData@@@Z$6 00419037 f   environmentvariant.obj
 0001:00018040       __unwindfunclet$?formatSingleOperationParam@EnvironmentVariant@@QAE?AVQJsonObject@@ABVSingleOperationData@@@Z$7 00419040 f   environmentvariant.obj
 0001:00018048       __unwindfunclet$?formatSingleOperationParam@EnvironmentVariant@@QAE?AVQJsonObject@@ABVSingleOperationData@@@Z$8 00419048 f   environmentvariant.obj
 0001:00018051       __unwindfunclet$?formatSingleOperationParam@EnvironmentVariant@@QAE?AVQJsonObject@@ABVSingleOperationData@@@Z$9 00419051 f   environmentvariant.obj
 0001:0001805a       __unwindfunclet$?formatSingleOperationParam@EnvironmentVariant@@QAE?AVQJsonObject@@ABVSingleOperationData@@@Z$10 0041905a f   environmentvariant.obj
 0001:00018063       __unwindfunclet$?formatSingleOperationParam@EnvironmentVariant@@QAE?AVQJsonObject@@ABVSingleOperationData@@@Z$11 00419063 f   environmentvariant.obj
 0001:0001806c       __unwindfunclet$?formatSingleOperationParam@EnvironmentVariant@@QAE?AVQJsonObject@@ABVSingleOperationData@@@Z$12 0041906c f   environmentvariant.obj
 0001:00018075       __unwindfunclet$?formatSingleOperationParam@EnvironmentVariant@@QAE?AVQJsonObject@@ABVSingleOperationData@@@Z$21 00419075 f   environmentvariant.obj
 0001:0001807b       __unwindfunclet$?formatSingleOperationParam@EnvironmentVariant@@QAE?AVQJsonObject@@ABVSingleOperationData@@@Z$29 0041907b f   environmentvariant.obj
 0001:00018081       __unwindfunclet$?formatSingleOperationParam@EnvironmentVariant@@QAE?AVQJsonObject@@ABVSingleOperationData@@@Z$37 00419081 f   environmentvariant.obj
 0001:00018087       __unwindfunclet$?formatSingleOperationParam@EnvironmentVariant@@QAE?AVQJsonObject@@ABVSingleOperationData@@@Z$13 00419087 f   environmentvariant.obj
 0001:00018090       __unwindfunclet$?formatSingleOperationParam@EnvironmentVariant@@QAE?AVQJsonObject@@ABVSingleOperationData@@@Z$14 00419090 f   environmentvariant.obj
 0001:00018099       __unwindfunclet$?formatSingleOperationParam@EnvironmentVariant@@QAE?AVQJsonObject@@ABVSingleOperationData@@@Z$15 00419099 f   environmentvariant.obj
 0001:000180a2       __unwindfunclet$?formatSingleOperationParam@EnvironmentVariant@@QAE?AVQJsonObject@@ABVSingleOperationData@@@Z$16 004190a2 f   environmentvariant.obj
 0001:000180ab       __unwindfunclet$?formatSingleOperationParam@EnvironmentVariant@@QAE?AVQJsonObject@@ABVSingleOperationData@@@Z$17 004190ab f   environmentvariant.obj
 0001:000180b4       __unwindfunclet$?formatSingleOperationParam@EnvironmentVariant@@QAE?AVQJsonObject@@ABVSingleOperationData@@@Z$18 004190b4 f   environmentvariant.obj
 0001:000180bd       __ehhandler$?formatSingleOperationParam@EnvironmentVariant@@QAE?AVQJsonObject@@ABVSingleOperationData@@@Z 004190bd f   environmentvariant.obj
 0001:000180e0       __unwindfunclet$?getOperationParams@EnvironmentVariant@@QAE?AV?$QList@VOperationParamData@@@@H@Z$0 004190e0 f   environmentvariant.obj
 0001:000180f9       __unwindfunclet$?getOperationParams@EnvironmentVariant@@QAE?AV?$QList@VOperationParamData@@@@H@Z$1 004190f9 f   environmentvariant.obj
 0001:00018101       __unwindfunclet$?getOperationParams@EnvironmentVariant@@QAE?AV?$QList@VOperationParamData@@@@H@Z$10 00419101 f   environmentvariant.obj
 0001:00018107       __ehhandler$?getOperationParams@EnvironmentVariant@@QAE?AV?$QList@VOperationParamData@@@@H@Z 00419107 f   environmentvariant.obj
 0001:00018130       __unwindfunclet$?initModels@EnvironmentVariant@@QAEXPAVQQmlContext@@@Z$0 00419130 f   environmentvariant.obj
 0001:00018139       __unwindfunclet$?initModels@EnvironmentVariant@@QAEXPAVQQmlContext@@@Z$1 00419139 f   environmentvariant.obj
 0001:00018142       __unwindfunclet$?initModels@EnvironmentVariant@@QAEXPAVQQmlContext@@@Z$2 00419142 f   environmentvariant.obj
 0001:0001814b       __ehhandler$?initModels@EnvironmentVariant@@QAEXPAVQQmlContext@@@Z 0041914b f   environmentvariant.obj
 0001:00018170       __unwindfunclet$?initProtocol@EnvironmentVariant@@QAEXABVQString@@@Z$0 00419170 f   environmentvariant.obj
 0001:00018179       __ehhandler$?initProtocol@EnvironmentVariant@@QAEXABVQString@@@Z 00419179 f   environmentvariant.obj
 0001:000181a0       __unwindfunclet$?initUserConfig@EnvironmentVariant@@QAEXABVQString@@@Z$0 004191a0 f   environmentvariant.obj
 0001:000181a8       __unwindfunclet$?initUserConfig@EnvironmentVariant@@QAEXABVQString@@@Z$1 004191a8 f   environmentvariant.obj
 0001:000181b1       __unwindfunclet$?initUserConfig@EnvironmentVariant@@QAEXABVQString@@@Z$2 004191b1 f   environmentvariant.obj
 0001:000181ba       __ehhandler$?initUserConfig@EnvironmentVariant@@QAEXABVQString@@@Z 004191ba f   environmentvariant.obj
 0001:000181e0       __unwindfunclet$?insert@?$QList@VSingleOperationData@@@@QAEXHABVSingleOperationData@@@Z$9 004191e0 f   environmentvariant.obj
 0001:000181ef       __unwindfunclet$?insert@?$QList@VSingleOperationData@@@@QAEXHABVSingleOperationData@@@Z$11 004191ef f   environmentvariant.obj
 0001:000181f8       __unwindfunclet$?insert@?$QList@VSingleOperationData@@@@QAEXHABVSingleOperationData@@@Z$15 004191f8 f   environmentvariant.obj
 0001:00018207       __unwindfunclet$?insert@?$QList@VSingleOperationData@@@@QAEXHABVSingleOperationData@@@Z$17 00419207 f   environmentvariant.obj
 0001:00018210       __ehhandler$?insert@?$QList@VSingleOperationData@@@@QAEXHABVSingleOperationData@@@Z 00419210 f   environmentvariant.obj
 0001:00018230       __unwindfunclet$?instance@EnvironmentVariant@@SAPAV1@XZ$0 00419230 f   environmentvariant.obj
 0001:0001823f       __ehhandler$?instance@EnvironmentVariant@@SAPAV1@XZ 0041923f f   environmentvariant.obj
 0001:00018260       __unwindfunclet$?node_destruct@?$QList@VSingleOperationData@@@@AAEXPAUNode@1@@Z$2 00419260 f   environmentvariant.obj
 0001:00018266       __ehhandler$?node_destruct@?$QList@VSingleOperationData@@@@AAEXPAUNode@1@@Z 00419266 f   environmentvariant.obj
 0001:00018290       __unwindfunclet$?parseConfigFile@EnvironmentVariant@@QAEXABVQString@@@Z$0 00419290 f   environmentvariant.obj
 0001:00018298       __unwindfunclet$?parseConfigFile@EnvironmentVariant@@QAEXABVQString@@@Z$1 00419298 f   environmentvariant.obj
 0001:000182a1       __unwindfunclet$?parseConfigFile@EnvironmentVariant@@QAEXABVQString@@@Z$3 004192a1 f   environmentvariant.obj
 0001:000182aa       __unwindfunclet$?parseConfigFile@EnvironmentVariant@@QAEXABVQString@@@Z$4 004192aa f   environmentvariant.obj
 0001:000182b2       __unwindfunclet$?parseConfigFile@EnvironmentVariant@@QAEXABVQString@@@Z$5 004192b2 f   environmentvariant.obj
 0001:000182bb       __unwindfunclet$?parseConfigFile@EnvironmentVariant@@QAEXABVQString@@@Z$7 004192bb f   environmentvariant.obj
 0001:000182c4       __unwindfunclet$?parseConfigFile@EnvironmentVariant@@QAEXABVQString@@@Z$8 004192c4 f   environmentvariant.obj
 0001:000182cc       __unwindfunclet$?parseConfigFile@EnvironmentVariant@@QAEXABVQString@@@Z$56 004192cc f   environmentvariant.obj
 0001:000182d2       __unwindfunclet$?parseConfigFile@EnvironmentVariant@@QAEXABVQString@@@Z$9 004192d2 f   environmentvariant.obj
 0001:000182db       __unwindfunclet$?parseConfigFile@EnvironmentVariant@@QAEXABVQString@@@Z$74 004192db f   environmentvariant.obj
 0001:000182e1       __unwindfunclet$?parseConfigFile@EnvironmentVariant@@QAEXABVQString@@@Z$84 004192e1 f   environmentvariant.obj
 0001:000182e7       __unwindfunclet$?parseConfigFile@EnvironmentVariant@@QAEXABVQString@@@Z$11 004192e7 f   environmentvariant.obj
 0001:000182f0       __unwindfunclet$?parseConfigFile@EnvironmentVariant@@QAEXABVQString@@@Z$103 004192f0 f   environmentvariant.obj
 0001:000182f6       __unwindfunclet$?parseConfigFile@EnvironmentVariant@@QAEXABVQString@@@Z$113 004192f6 f   environmentvariant.obj
 0001:000182fc       __unwindfunclet$?parseConfigFile@EnvironmentVariant@@QAEXABVQString@@@Z$13 004192fc f   environmentvariant.obj
 0001:00018305       __unwindfunclet$?parseConfigFile@EnvironmentVariant@@QAEXABVQString@@@Z$132 00419305 f   environmentvariant.obj
 0001:0001830b       __unwindfunclet$?parseConfigFile@EnvironmentVariant@@QAEXABVQString@@@Z$142 0041930b f   environmentvariant.obj
 0001:00018311       __unwindfunclet$?parseConfigFile@EnvironmentVariant@@QAEXABVQString@@@Z$152 00419311 f   environmentvariant.obj
 0001:00018317       __ehhandler$?parseConfigFile@EnvironmentVariant@@QAEXABVQString@@@Z 00419317 f   environmentvariant.obj
 0001:00018340       __unwindfunclet$?planStepParam@EnvironmentVariant@@QAE?AVSingleOperationData@@HH@Z$0 00419340 f   environmentvariant.obj
 0001:00018348       __unwindfunclet$?planStepParam@EnvironmentVariant@@QAE?AVSingleOperationData@@HH@Z$3 00419348 f   environmentvariant.obj
 0001:00018350       __unwindfunclet$?planStepParam@EnvironmentVariant@@QAE?AVSingleOperationData@@HH@Z$4 00419350 f   environmentvariant.obj
 0001:00018358       __unwindfunclet$?planStepParam@EnvironmentVariant@@QAE?AVSingleOperationData@@HH@Z$38 00419358 f   environmentvariant.obj
 0001:0001835e       __unwindfunclet$?planStepParam@EnvironmentVariant@@QAE?AVSingleOperationData@@HH@Z$48 0041935e f   environmentvariant.obj
 0001:00018364       __unwindfunclet$?planStepParam@EnvironmentVariant@@QAE?AVSingleOperationData@@HH@Z$25 00419364 f   environmentvariant.obj
 0001:0001836a       __unwindfunclet$?planStepParam@EnvironmentVariant@@QAE?AVSingleOperationData@@HH@Z$11 0041936a f   environmentvariant.obj
 0001:00018370       __ehhandler$?planStepParam@EnvironmentVariant@@QAE?AVSingleOperationData@@HH@Z 00419370 f   environmentvariant.obj
 0001:00018390       __unwindfunclet$??$createInto@VTextFieldDoubleValidator@@@QQmlPrivate@@YAXPAX@Z$0 00419390 f   main.obj
 0001:00018390       __unwindfunclet$??$createInto@VOperationParamSelector@@@QQmlPrivate@@YAXPAX@Z$0 00419390 f   main.obj
 0001:00018390       __unwindfunclet$??$createInto@VStatusViewWatcher@@@QQmlPrivate@@YAXPAX@Z$0 00419390 f   main.obj
 0001:00018390       __unwindfunclet$??$createInto@VPlanController@@@QQmlPrivate@@YAXPAX@Z$0 00419390 f   main.obj
 0001:00018390       __unwindfunclet$??$createInto@VOperationParamObject@@@QQmlPrivate@@YAXPAX@Z$0 00419390 f   main.obj
 0001:00018390       __unwindfunclet$??$createInto@VPlanSelector@@@QQmlPrivate@@YAXPAX@Z$0 00419390 f   main.obj
 0001:000183a1       __ehhandler$??$createInto@VOperationParamObject@@@QQmlPrivate@@YAXPAX@Z 004193a1 f   main.obj
 0001:000183a1       __ehhandler$??$createInto@VPlanSelector@@@QQmlPrivate@@YAXPAX@Z 004193a1 f   main.obj
 0001:000183a1       __ehhandler$??$createInto@VTextFieldDoubleValidator@@@QQmlPrivate@@YAXPAX@Z 004193a1 f   main.obj
 0001:000183a1       __ehhandler$??$createInto@VStatusViewWatcher@@@QQmlPrivate@@YAXPAX@Z 004193a1 f   main.obj
 0001:000183a1       __ehhandler$??$createInto@VPlanController@@@QQmlPrivate@@YAXPAX@Z 004193a1 f   main.obj
 0001:000183a1       __ehhandler$??$createInto@VOperationParamSelector@@@QQmlPrivate@@YAXPAX@Z 004193a1 f   main.obj
 0001:000183c0       __unwindfunclet$??$qmlRegisterType@VOperationParamSelector@@@@YAHPBDHH0@Z$0 004193c0 f   main.obj
 0001:000183c0       __unwindfunclet$??$qmlRegisterType@VOperationParamObject@@@@YAHPBDHH0@Z$0 004193c0 f   main.obj
 0001:000183c0       __unwindfunclet$??$qmlRegisterType@VPlanSelector@@@@YAHPBDHH0@Z$0 004193c0 f   main.obj
 0001:000183c0       __unwindfunclet$??$qmlRegisterType@VPlanController@@@@YAHPBDHH0@Z$0 004193c0 f   main.obj
 0001:000183c0       __unwindfunclet$??$qmlRegisterType@VStatusViewWatcher@@@@YAHPBDHH0@Z$0 004193c0 f   main.obj
 0001:000183c0       __unwindfunclet$??$qmlRegisterType@VTextFieldDoubleValidator@@@@YAHPBDHH0@Z$0 004193c0 f   main.obj
 0001:000183c8       __unwindfunclet$??$qmlRegisterType@VStatusViewWatcher@@@@YAHPBDHH0@Z$1 004193c8 f   main.obj
 0001:000183c8       __unwindfunclet$??$qmlRegisterType@VOperationParamObject@@@@YAHPBDHH0@Z$1 004193c8 f   main.obj
 0001:000183c8       __unwindfunclet$??$qmlRegisterType@VPlanSelector@@@@YAHPBDHH0@Z$1 004193c8 f   main.obj
 0001:000183c8       __unwindfunclet$??$qmlRegisterType@VOperationParamSelector@@@@YAHPBDHH0@Z$1 004193c8 f   main.obj
 0001:000183c8       __unwindfunclet$??$qmlRegisterType@VTextFieldDoubleValidator@@@@YAHPBDHH0@Z$1 004193c8 f   main.obj
 0001:000183c8       __unwindfunclet$??$qmlRegisterType@VPlanController@@@@YAHPBDHH0@Z$1 004193c8 f   main.obj
 0001:000183d3       __unwindfunclet$??$qmlRegisterType@VTextFieldDoubleValidator@@@@YAHPBDHH0@Z$2 004193d3 f   main.obj
 0001:000183d3       __unwindfunclet$??$qmlRegisterType@VPlanController@@@@YAHPBDHH0@Z$2 004193d3 f   main.obj
 0001:000183d3       __unwindfunclet$??$qmlRegisterType@VStatusViewWatcher@@@@YAHPBDHH0@Z$2 004193d3 f   main.obj
 0001:000183d3       __unwindfunclet$??$qmlRegisterType@VOperationParamObject@@@@YAHPBDHH0@Z$2 004193d3 f   main.obj
 0001:000183d3       __unwindfunclet$??$qmlRegisterType@VPlanSelector@@@@YAHPBDHH0@Z$2 004193d3 f   main.obj
 0001:000183d3       __unwindfunclet$??$qmlRegisterType@VOperationParamSelector@@@@YAHPBDHH0@Z$2 004193d3 f   main.obj
 0001:000183dc       __unwindfunclet$??$qmlRegisterType@VPlanController@@@@YAHPBDHH0@Z$3 004193dc f   main.obj
 0001:000183dc       __unwindfunclet$??$qmlRegisterType@VOperationParamSelector@@@@YAHPBDHH0@Z$3 004193dc f   main.obj
 0001:000183dc       __unwindfunclet$??$qmlRegisterType@VOperationParamObject@@@@YAHPBDHH0@Z$3 004193dc f   main.obj
 0001:000183dc       __unwindfunclet$??$qmlRegisterType@VStatusViewWatcher@@@@YAHPBDHH0@Z$3 004193dc f   main.obj
 0001:000183dc       __unwindfunclet$??$qmlRegisterType@VTextFieldDoubleValidator@@@@YAHPBDHH0@Z$3 004193dc f   main.obj
 0001:000183dc       __unwindfunclet$??$qmlRegisterType@VPlanSelector@@@@YAHPBDHH0@Z$3 004193dc f   main.obj
 0001:000183e5       __unwindfunclet$??$qmlRegisterType@VPlanSelector@@@@YAHPBDHH0@Z$5 004193e5 f   main.obj
 0001:000183e5       __unwindfunclet$??$qmlRegisterType@VTextFieldDoubleValidator@@@@YAHPBDHH0@Z$5 004193e5 f   main.obj
 0001:000183e5       __unwindfunclet$??$qmlRegisterType@VOperationParamObject@@@@YAHPBDHH0@Z$5 004193e5 f   main.obj
 0001:000183e5       __unwindfunclet$??$qmlRegisterType@VPlanController@@@@YAHPBDHH0@Z$5 004193e5 f   main.obj
 0001:000183e5       __unwindfunclet$??$qmlRegisterType@VStatusViewWatcher@@@@YAHPBDHH0@Z$5 004193e5 f   main.obj
 0001:000183e5       __unwindfunclet$??$qmlRegisterType@VOperationParamSelector@@@@YAHPBDHH0@Z$5 004193e5 f   main.obj
 0001:000183ed       __ehhandler$??$qmlRegisterType@VOperationParamSelector@@@@YAHPBDHH0@Z 004193ed f   main.obj
 0001:000183ed       __ehhandler$??$qmlRegisterType@VPlanSelector@@@@YAHPBDHH0@Z 004193ed f   main.obj
 0001:000183ed       __ehhandler$??$qmlRegisterType@VOperationParamObject@@@@YAHPBDHH0@Z 004193ed f   main.obj
 0001:000183ed       __ehhandler$??$qmlRegisterType@VPlanController@@@@YAHPBDHH0@Z 004193ed f   main.obj
 0001:000183ed       __ehhandler$??$qmlRegisterType@VStatusViewWatcher@@@@YAHPBDHH0@Z 004193ed f   main.obj
 0001:000183ed       __ehhandler$??$qmlRegisterType@VTextFieldDoubleValidator@@@@YAHPBDHH0@Z 004193ed f   main.obj
 0001:00018410       __unwindfunclet$??1OperationParamSelector@@UAE@XZ$0 00419410 f   main.obj
 0001:00018416       __unwindfunclet$??1OperationParamSelector@@UAE@XZ$7 00419416 f   main.obj
 0001:0001841c       __ehhandler$??1OperationParamSelector@@UAE@XZ 0041941c f   main.obj
 0001:00018440       __unwindfunclet$??1PlanSelector@@UAE@XZ$1 00419440 f   main.obj
 0001:00018446       __unwindfunclet$??1PlanSelector@@UAE@XZ$8 00419446 f   main.obj
 0001:0001844c       __ehhandler$??1PlanSelector@@UAE@XZ 0041944c f   main.obj
 0001:00018470       __unwindfunclet$??H@YA?BVQString@@ABV0@0@Z$0 00419470 f   main.obj
 0001:0001848a       __ehhandler$??H@YA?BVQString@@ABV0@0@Z 0041948a f   main.obj
 0001:000184b0       __unwindfunclet$??H@YA?BVQString@@ABV0@PBD@Z$0 004194b0 f   main.obj
 0001:000184ca       __unwindfunclet$??H@YA?BVQString@@ABV0@PBD@Z$1 004194ca f   main.obj
 0001:000184d3       __ehhandler$??H@YA?BVQString@@ABV0@PBD@Z 004194d3 f   main.obj
 0001:000184f0       __unwindfunclet$??_G?$QQmlElement@VPlanSelector@@@QQmlPrivate@@UAEPAXI@Z$0 004194f0 f   main.obj
 0001:000184f0       __unwindfunclet$??_G?$QQmlElement@VPlanController@@@QQmlPrivate@@UAEPAXI@Z$0 004194f0 f   main.obj
 0001:000184f0       __unwindfunclet$??_G?$QQmlElement@VStatusViewWatcher@@@QQmlPrivate@@UAEPAXI@Z$0 004194f0 f   main.obj
 0001:000184f0       __unwindfunclet$??_G?$QQmlElement@VTextFieldDoubleValidator@@@QQmlPrivate@@UAEPAXI@Z$0 004194f0 f   main.obj
 0001:000184f0       __unwindfunclet$??_G?$QQmlElement@VOperationParamObject@@@QQmlPrivate@@UAEPAXI@Z$0 004194f0 f   main.obj
 0001:000184f0       __unwindfunclet$??1?$QForeachContainer@V?$QList@VSingleOperationData@@@@@QtPrivate@@QAE@XZ$0 004194f0 f   environmentvariant.obj
 0001:000184f0       __unwindfunclet$??1SingleOperationData@@QAE@XZ$0 004194f0 f   configfilehandler.obj
 0001:000184f0       __unwindfunclet$??_G?$QQmlElement@VOperationParamSelector@@@QQmlPrivate@@UAEPAXI@Z$0 004194f0 f   main.obj
 0001:000184f0       __unwindfunclet$??1OperationParamData@@QAE@XZ$0 004194f0 f   configfilehandler.obj
 0001:000184f0       __unwindfunclet$??_GPlanController@@UAEPAXI@Z$0 004194f0 f   workmodels.obj
 0001:000184f0       __unwindfunclet$??_GSingleOperationData@@QAEPAXI@Z$1 004194f0 f   configfilehandler.obj
 0001:000184f6       __ehhandler$??_G?$QQmlElement@VPlanSelector@@@QQmlPrivate@@UAEPAXI@Z 004194f6 f   main.obj
 0001:000184f6       __ehhandler$??1OperationParamData@@QAE@XZ 004194f6 f   configfilehandler.obj
 0001:000184f6       __ehhandler$??_G?$QQmlElement@VOperationParamSelector@@@QQmlPrivate@@UAEPAXI@Z 004194f6 f   main.obj
 0001:000184f6       __ehhandler$??1SingleOperationData@@QAE@XZ 004194f6 f   configfilehandler.obj
 0001:000184f6       __ehhandler$??1?$QForeachContainer@V?$QList@VSingleOperationData@@@@@QtPrivate@@QAE@XZ 004194f6 f   environmentvariant.obj
 0001:000184f6       __ehhandler$??_GPlanController@@UAEPAXI@Z 004194f6 f   workmodels.obj
 0001:000184f6       __ehhandler$??_G?$QQmlElement@VTextFieldDoubleValidator@@@QQmlPrivate@@UAEPAXI@Z 004194f6 f   main.obj
 0001:000184f6       __ehhandler$??_G?$QQmlElement@VStatusViewWatcher@@@QQmlPrivate@@UAEPAXI@Z 004194f6 f   main.obj
 0001:000184f6       __ehhandler$??_G?$QQmlElement@VPlanController@@@QQmlPrivate@@UAEPAXI@Z 004194f6 f   main.obj
 0001:000184f6       __ehhandler$??_G?$QQmlElement@VOperationParamObject@@@QQmlPrivate@@UAEPAXI@Z 004194f6 f   main.obj
 0001:000184f6       __ehhandler$??_GSingleOperationData@@QAEPAXI@Z 004194f6 f   configfilehandler.obj
 0001:00018520       __unwindfunclet$?customMessageHandler@@YAXW4QtMsgType@@ABVQMessageLogContext@@ABVQString@@@Z$0 00419520 f   main.obj
 0001:00018529       __unwindfunclet$?customMessageHandler@@YAXW4QtMsgType@@ABVQMessageLogContext@@ABVQString@@@Z$1 00419529 f   main.obj
 0001:00018532       __unwindfunclet$?customMessageHandler@@YAXW4QtMsgType@@ABVQMessageLogContext@@ABVQString@@@Z$2 00419532 f   main.obj
 0001:0001853b       __unwindfunclet$?customMessageHandler@@YAXW4QtMsgType@@ABVQMessageLogContext@@ABVQString@@@Z$3 0041953b f   main.obj
 0001:00018544       __unwindfunclet$?customMessageHandler@@YAXW4QtMsgType@@ABVQMessageLogContext@@ABVQString@@@Z$21 00419544 f   main.obj
 0001:0001854d       __unwindfunclet$?customMessageHandler@@YAXW4QtMsgType@@ABVQMessageLogContext@@ABVQString@@@Z$22 0041954d f   main.obj
 0001:00018556       __unwindfunclet$?customMessageHandler@@YAXW4QtMsgType@@ABVQMessageLogContext@@ABVQString@@@Z$23 00419556 f   main.obj
 0001:0001855f       __unwindfunclet$?customMessageHandler@@YAXW4QtMsgType@@ABVQMessageLogContext@@ABVQString@@@Z$5 0041955f f   main.obj
 0001:00018568       __unwindfunclet$?customMessageHandler@@YAXW4QtMsgType@@ABVQMessageLogContext@@ABVQString@@@Z$6 00419568 f   main.obj
 0001:00018571       __unwindfunclet$?customMessageHandler@@YAXW4QtMsgType@@ABVQMessageLogContext@@ABVQString@@@Z$7 00419571 f   main.obj
 0001:0001857a       __unwindfunclet$?customMessageHandler@@YAXW4QtMsgType@@ABVQMessageLogContext@@ABVQString@@@Z$9 0041957a f   main.obj
 0001:00018583       __unwindfunclet$?customMessageHandler@@YAXW4QtMsgType@@ABVQMessageLogContext@@ABVQString@@@Z$10 00419583 f   main.obj
 0001:0001858c       __unwindfunclet$?customMessageHandler@@YAXW4QtMsgType@@ABVQMessageLogContext@@ABVQString@@@Z$11 0041958c f   main.obj
 0001:00018595       __unwindfunclet$?customMessageHandler@@YAXW4QtMsgType@@ABVQMessageLogContext@@ABVQString@@@Z$13 00419595 f   main.obj
 0001:0001859e       __unwindfunclet$?customMessageHandler@@YAXW4QtMsgType@@ABVQMessageLogContext@@ABVQString@@@Z$14 0041959e f   main.obj
 0001:000185a7       __unwindfunclet$?customMessageHandler@@YAXW4QtMsgType@@ABVQMessageLogContext@@ABVQString@@@Z$15 004195a7 f   main.obj
 0001:000185b0       __unwindfunclet$?customMessageHandler@@YAXW4QtMsgType@@ABVQMessageLogContext@@ABVQString@@@Z$17 004195b0 f   main.obj
 0001:000185b9       __unwindfunclet$?customMessageHandler@@YAXW4QtMsgType@@ABVQMessageLogContext@@ABVQString@@@Z$18 004195b9 f   main.obj
 0001:000185c2       __unwindfunclet$?customMessageHandler@@YAXW4QtMsgType@@ABVQMessageLogContext@@ABVQString@@@Z$19 004195c2 f   main.obj
 0001:000185cb       __ehhandler$?customMessageHandler@@YAXW4QtMsgType@@ABVQMessageLogContext@@ABVQString@@@Z 004195cb f   main.obj
 0001:000185f0       __unwindfunclet$?getConfigFullName@@YA?AVQString@@PBD@Z$0 004195f0 f   main.obj
 0001:000185f9       __ehhandler$?getConfigFullName@@YA?AVQString@@PBD@Z 004195f9 f   main.obj
 0001:00018620       __unwindfunclet$?qt_metatype_id@?$QMetaTypeIdQObject@PAVTextFieldDoubleValidator@@$07@@SAHXZ$0 00419620 f   main.obj
 0001:00018620       __unwindfunclet$?qt_metatype_id@?$QMetaTypeIdQObject@PAVOperationParamSelector@@$07@@SAHXZ$0 00419620 f   main.obj
 0001:00018620       __unwindfunclet$?qt_metatype_id@?$QMetaTypeIdQObject@PAVPlanController@@$07@@SAHXZ$0 00419620 f   main.obj
 0001:00018620       __unwindfunclet$?qt_metatype_id@?$QMetaTypeIdQObject@PAVPlanSelector@@$07@@SAHXZ$0 00419620 f   main.obj
 0001:00018620       __unwindfunclet$?qt_metatype_id@?$QMetaTypeIdQObject@PAVOperationParamObject@@$07@@SAHXZ$0 00419620 f   main.obj
 0001:00018620       __unwindfunclet$?qt_metatype_id@?$QMetaTypeIdQObject@PAVStatusViewWatcher@@$07@@SAHXZ$0 00419620 f   main.obj
 0001:00018629       __ehhandler$?qt_metatype_id@?$QMetaTypeIdQObject@PAVOperationParamSelector@@$07@@SAHXZ 00419629 f   main.obj
 0001:00018629       __ehhandler$?qt_metatype_id@?$QMetaTypeIdQObject@PAVOperationParamObject@@$07@@SAHXZ 00419629 f   main.obj
 0001:00018629       __ehhandler$?qt_metatype_id@?$QMetaTypeIdQObject@PAVTextFieldDoubleValidator@@$07@@SAHXZ 00419629 f   main.obj
 0001:00018629       __ehhandler$?qt_metatype_id@?$QMetaTypeIdQObject@PAVPlanSelector@@$07@@SAHXZ 00419629 f   main.obj
 0001:00018629       __ehhandler$?qt_metatype_id@?$QMetaTypeIdQObject@PAVStatusViewWatcher@@$07@@SAHXZ 00419629 f   main.obj
 0001:00018629       __ehhandler$?qt_metatype_id@?$QMetaTypeIdQObject@PAVPlanController@@$07@@SAHXZ 00419629 f   main.obj
 0001:00018650       __unwindfunclet$?validate@TextFieldDoubleValidator@@UBE?AW4State@QValidator@@AAVQString@@AAH@Z$0 00419650 f   main.obj
 0001:0001866a       __unwindfunclet$?validate@TextFieldDoubleValidator@@UBE?AW4State@QValidator@@AAVQString@@AAH@Z$1 0041966a f   main.obj
 0001:00018673       __unwindfunclet$?validate@TextFieldDoubleValidator@@UBE?AW4State@QValidator@@AAVQString@@AAH@Z$2 00419673 f   main.obj
 0001:0001867c       __ehhandler$?validate@TextFieldDoubleValidator@@UBE?AW4State@QValidator@@AAVQString@@AAH@Z 0041967c f   main.obj
 0001:000186a0       __unwindfunclet$_main$0    004196a0 f   main.obj
 0001:000186a9       __unwindfunclet$_main$1    004196a9 f   main.obj
 0001:000186b2       __unwindfunclet$_main$2    004196b2 f   main.obj
 0001:000186bb       __unwindfunclet$_main$3    004196bb f   main.obj
 0001:000186c4       __unwindfunclet$_main$4    004196c4 f   main.obj
 0001:000186cd       __unwindfunclet$_main$5    004196cd f   main.obj
 0001:000186d6       __unwindfunclet$_main$6    004196d6 f   main.obj
 0001:000186df       __unwindfunclet$_main$7    004196df f   main.obj
 0001:000186e8       __unwindfunclet$_main$8    004196e8 f   main.obj
 0001:000186f1       __unwindfunclet$_main$9    004196f1 f   main.obj
 0001:000186fa       __unwindfunclet$_main$10   004196fa f   main.obj
 0001:00018703       __unwindfunclet$_main$11   00419703 f   main.obj
 0001:0001870c       __unwindfunclet$_main$12   0041970c f   main.obj
 0001:00018715       __unwindfunclet$_main$13   00419715 f   main.obj
 0001:0001871e       __unwindfunclet$_main$14   0041971e f   main.obj
 0001:00018727       __unwindfunclet$_main$15   00419727 f   main.obj
 0001:00018730       __unwindfunclet$_main$16   00419730 f   main.obj
 0001:00018739       __unwindfunclet$_main$18   00419739 f   main.obj
 0001:00018742       __unwindfunclet$_main$19   00419742 f   main.obj
 0001:0001874b       __ehhandler$_main          0041974b f   main.obj
 0001:00018770       __unwindfunclet$??0PlanController@@QAE@PAVQObject@@@Z$0 00419770 f   workmodels.obj
 0001:00018770       __unwindfunclet$??0StatusViewWatcher@@QAE@PAVQObject@@@Z$0 00419770 f   workmodels.obj
 0001:00018770       __unwindfunclet$??0configFileHandler@@QAE@PAVQObject@@@Z$0 00419770 f   configfilehandler.obj
 0001:00018779       __ehhandler$??0StatusViewWatcher@@QAE@PAVQObject@@@Z 00419779 f   workmodels.obj
 0001:00018779       __ehhandler$??0configFileHandler@@QAE@PAVQObject@@@Z 00419779 f   configfilehandler.obj
 0001:00018779       __ehhandler$??0PlanController@@QAE@PAVQObject@@@Z 00419779 f   workmodels.obj
 0001:000187a0       __unwindfunclet$??0PlanSelector@@QAE@PAVQObject@@@Z$0 004197a0 f   workmodels.obj
 0001:000187a9       __unwindfunclet$??0PlanSelector@@QAE@PAVQObject@@@Z$1 004197a9 f   workmodels.obj
 0001:000187b4       __unwindfunclet$??0PlanSelector@@QAE@PAVQObject@@@Z$2 004197b4 f   workmodels.obj
 0001:000187bf       __unwindfunclet$??0PlanSelector@@QAE@PAVQObject@@@Z$3 004197bf f   workmodels.obj
 0001:000187ca       __ehhandler$??0PlanSelector@@QAE@PAVQObject@@@Z 004197ca f   workmodels.obj
 0001:000187f0       __ehhandler$??1?$QList@PAVQObject@@@@QAE@XZ 004197f0 f   workmodels.obj
 0001:000187f0       __ehhandler$??1?$QList@VOperationParamData@@@@QAE@XZ 004197f0 f   environmentvariant.obj
 0001:000187f0       __ehhandler$??1?$QList@H@@QAE@XZ 004197f0 f   configfilehandler.obj
 0001:00018810       __ehhandler$??1?$QMap@VQString@@V1@@@QAE@XZ 00419810 f   configfilehandler.obj
 0001:00018810       __ehhandler$??1?$QList@U?$QPair@VQString@@V?$QList@VSingleOperationData@@@@@@@@QAE@XZ 00419810 f   environmentvariant.obj
 0001:00018810       __ehhandler$??1PlanController@@UAE@XZ 00419810 f   workmodels.obj
 0001:00018810       __ehhandler$??1?$QList@VSingleOperationData@@@@QAE@XZ 00419810 f   configfilehandler.obj
 0001:00018830       __ehhandler$??1?$QList@VQString@@@@QAE@XZ 00419830 f   workflowprotocol.obj
 0001:00018830       __ehhandler$??1StatusViewWatcher@@UAE@XZ 00419830 f   workmodels.obj
 0001:00018850       __unwindfunclet$??_GStatusViewWatcher@@UAEPAXI@Z$0 00419850 f   workmodels.obj
 0001:00018856       __ehhandler$??_GStatusViewWatcher@@UAEPAXI@Z 00419856 f   workmodels.obj
 0001:00018880       __unwindfunclet$?getSwitch@OperationParamSelector@@QAEPAVQObject@@ABVQString@@@Z$0 00419880 f   workmodels.obj
 0001:00018880       __unwindfunclet$?getSwitch@PlanSelector@@QAEPAVQObject@@ABVQString@@@Z$0 00419880 f   workmodels.obj
 0001:00018888       __unwindfunclet$?getSwitch@PlanSelector@@QAEPAVQObject@@ABVQString@@@Z$12 00419888 f   workmodels.obj
 0001:00018888       __unwindfunclet$?getSwitch@OperationParamSelector@@QAEPAVQObject@@ABVQString@@@Z$12 00419888 f   workmodels.obj
 0001:0001888e       __unwindfunclet$?getSwitch@OperationParamSelector@@QAEPAVQObject@@ABVQString@@@Z$4 0041988e f   workmodels.obj
 0001:0001888e       __unwindfunclet$?getSwitch@PlanSelector@@QAEPAVQObject@@ABVQString@@@Z$4 0041988e f   workmodels.obj
 0001:00018894       __ehhandler$?getSwitch@OperationParamSelector@@QAEPAVQObject@@ABVQString@@@Z 00419894 f   workmodels.obj
 0001:00018894       __ehhandler$?getSwitch@PlanSelector@@QAEPAVQObject@@ABVQString@@@Z 00419894 f   workmodels.obj
 0001:000188b0       __unwindfunclet$?onCompleteSingleOperation@OperationParamSelector@@QAEXXZ$0 004198b0 f   workmodels.obj
 0001:000188b8       __unwindfunclet$?onCompleteSingleOperation@OperationParamSelector@@QAEXXZ$2 004198b8 f   workmodels.obj
 0001:000188c0       __unwindfunclet$?onCompleteSingleOperation@OperationParamSelector@@QAEXXZ$8 004198c0 f   workmodels.obj
 0001:000188c6       __unwindfunclet$?onCompleteSingleOperation@OperationParamSelector@@QAEXXZ$16 004198c6 f   workmodels.obj
 0001:000188cc       __unwindfunclet$?onCompleteSingleOperation@OperationParamSelector@@QAEXXZ$24 004198cc f   workmodels.obj
 0001:000188d2       __unwindfunclet$?onCompleteSingleOperation@OperationParamSelector@@QAEXXZ$32 004198d2 f   workmodels.obj
 0001:000188d8       __ehhandler$?onCompleteSingleOperation@OperationParamSelector@@QAEXXZ 004198d8 f   workmodels.obj
 0001:00018900       __unwindfunclet$?onMachineConfigChanged@TargetMachineObject@@QAEXXZ$0 00419900 f   workmodels.obj
 0001:00018908       __ehhandler$?onMachineConfigChanged@TargetMachineObject@@QAEXXZ 00419908 f   workmodels.obj
 0001:00018930       __unwindfunclet$?setSelectedOperation@OperationParamSelector@@QAEXH@Z$13 00419930 f   workmodels.obj
 0001:00018936       __unwindfunclet$?setSelectedOperation@OperationParamSelector@@QAEXH@Z$20 00419936 f   workmodels.obj
 0001:0001893c       __unwindfunclet$?setSelectedOperation@OperationParamSelector@@QAEXH@Z$29 0041993c f   workmodels.obj
 0001:00018942       __unwindfunclet$?setSelectedOperation@OperationParamSelector@@QAEXH@Z$47 00419942 f   workmodels.obj
 0001:00018948       __unwindfunclet$?setSelectedOperation@OperationParamSelector@@QAEXH@Z$54 00419948 f   workmodels.obj
 0001:0001894e       __unwindfunclet$?setSelectedOperation@OperationParamSelector@@QAEXH@Z$2 0041994e f   workmodels.obj
 0001:00018956       __unwindfunclet$?setSelectedOperation@OperationParamSelector@@QAEXH@Z$3 00419956 f   workmodels.obj
 0001:00018965       __unwindfunclet$?setSelectedOperation@OperationParamSelector@@QAEXH@Z$62 00419965 f   workmodels.obj
 0001:0001896e       __unwindfunclet$?setSelectedOperation@OperationParamSelector@@QAEXH@Z$65 0041996e f   workmodels.obj
 0001:00018974       __unwindfunclet$?setSelectedOperation@OperationParamSelector@@QAEXH@Z$73 00419974 f   workmodels.obj
 0001:0001897a       __unwindfunclet$?setSelectedOperation@OperationParamSelector@@QAEXH@Z$81 0041997a f   workmodels.obj
 0001:00018980       __ehhandler$?setSelectedOperation@OperationParamSelector@@QAEXH@Z 00419980 f   workmodels.obj
 0001:000189a0       __unwindfunclet$?setSelectedOperation@PlanSelector@@QAEXHHH@Z$0 004199a0 f   workmodels.obj
 0001:000189a8       __unwindfunclet$?setSelectedOperation@PlanSelector@@QAEXHHH@Z$7 004199a8 f   workmodels.obj
 0001:000189ae       __unwindfunclet$?setSelectedOperation@PlanSelector@@QAEXHHH@Z$25 004199ae f   workmodels.obj
 0001:000189b4       __unwindfunclet$?setSelectedOperation@PlanSelector@@QAEXHHH@Z$32 004199b4 f   workmodels.obj
 0001:000189ba       __unwindfunclet$?setSelectedOperation@PlanSelector@@QAEXHHH@Z$2 004199ba f   workmodels.obj
 0001:000189c2       __unwindfunclet$?setSelectedOperation@PlanSelector@@QAEXHHH@Z$3 004199c2 f   workmodels.obj
 0001:000189d1       __unwindfunclet$?setSelectedOperation@PlanSelector@@QAEXHHH@Z$40 004199d1 f   workmodels.obj
 0001:000189da       __unwindfunclet$?setSelectedOperation@PlanSelector@@QAEXHHH@Z$43 004199da f   workmodels.obj
 0001:000189e0       __unwindfunclet$?setSelectedOperation@PlanSelector@@QAEXHHH@Z$51 004199e0 f   workmodels.obj
 0001:000189e6       __unwindfunclet$?setSelectedOperation@PlanSelector@@QAEXHHH@Z$59 004199e6 f   workmodels.obj
 0001:000189ec       __unwindfunclet$?setSelectedOperation@PlanSelector@@QAEXHHH@Z$88 004199ec f   workmodels.obj
 0001:000189f2       __unwindfunclet$?setSelectedOperation@PlanSelector@@QAEXHHH@Z$96 004199f2 f   workmodels.obj
 0001:000189f8       __unwindfunclet$?setSelectedOperation@PlanSelector@@QAEXHHH@Z$104 004199f8 f   workmodels.obj
 0001:000189fe       __ehhandler$?setSelectedOperation@PlanSelector@@QAEXHHH@Z 004199fe f   workmodels.obj
 0001:00018a20       __unwindfunclet$?setSelectedStep@PlanSelector@@QAEXHH@Z$14 00419a20 f   workmodels.obj
 0001:00018a26       __unwindfunclet$?setSelectedStep@PlanSelector@@QAEXHH@Z$22 00419a26 f   workmodels.obj
 0001:00018a2c       __unwindfunclet$?setSelectedStep@PlanSelector@@QAEXHH@Z$31 00419a2c f   workmodels.obj
 0001:00018a32       __unwindfunclet$?setSelectedStep@PlanSelector@@QAEXHH@Z$49 00419a32 f   workmodels.obj
 0001:00018a38       __unwindfunclet$?setSelectedStep@PlanSelector@@QAEXHH@Z$56 00419a38 f   workmodels.obj
 0001:00018a3e       __unwindfunclet$?setSelectedStep@PlanSelector@@QAEXHH@Z$2 00419a3e f   workmodels.obj
 0001:00018a46       __unwindfunclet$?setSelectedStep@PlanSelector@@QAEXHH@Z$3 00419a46 f   workmodels.obj
 0001:00018a55       __unwindfunclet$?setSelectedStep@PlanSelector@@QAEXHH@Z$64 00419a55 f   workmodels.obj
 0001:00018a5e       __unwindfunclet$?setSelectedStep@PlanSelector@@QAEXHH@Z$67 00419a5e f   workmodels.obj
 0001:00018a64       __unwindfunclet$?setSelectedStep@PlanSelector@@QAEXHH@Z$75 00419a64 f   workmodels.obj
 0001:00018a6a       __unwindfunclet$?setSelectedStep@PlanSelector@@QAEXHH@Z$83 00419a6a f   workmodels.obj
 0001:00018a70       __ehhandler$?setSelectedStep@PlanSelector@@QAEXHH@Z 00419a70 f   workmodels.obj
 0001:00018a90       __unwindfunclet$??__Ff@?4??registerConverter@?$ValueTypeIsMetaType@V?$QList@H@@$00@QtPrivate@@SA_NH@Z@YAXXZ$0 00419a90 f   moc_workmodels.obj
 0001:00018a90       __unwindfunclet$?Destruct@?$QMetaTypeFunctionHelper@V?$QList@PAVQObject@@@@$00@QtMetaTypePrivate@@SAXPAX@Z$1 00419a90 f   moc_workmodels.obj
 0001:00018a90       __unwindfunclet$??__Fdummy@?A0x60b45615@@YAXXZ$0 00419a90 f   qrc_qml.obj
 0001:00018a90       __unwindfunclet$?Destruct@?$QMetaTypeFunctionHelper@V?$QList@H@@$00@QtMetaTypePrivate@@SAXPAX@Z$1 00419a90 f   moc_workmodels.obj
 0001:00018a90       __unwindfunclet$??__Ff@?4??registerConverter@?$ValueTypeIsMetaType@V?$QList@PAVQObject@@@@$00@QtPrivate@@SA_NH@Z@YAXXZ$0 00419a90 f   moc_workmodels.obj
 0001:00018a96       __ehhandler$??__Ff@?4??registerConverter@?$ValueTypeIsMetaType@V?$QList@PAVQObject@@@@$00@QtPrivate@@SA_NH@Z@YAXXZ 00419a96 f   moc_workmodels.obj
 0001:00018a96       __ehhandler$??__Ff@?4??registerConverter@?$ValueTypeIsMetaType@V?$QList@H@@$00@QtPrivate@@SA_NH@Z@YAXXZ 00419a96 f   moc_workmodels.obj
 0001:00018a96       __ehhandler$?Destruct@?$QMetaTypeFunctionHelper@V?$QList@PAVQObject@@@@$00@QtMetaTypePrivate@@SAXPAX@Z 00419a96 f   moc_workmodels.obj
 0001:00018a96       __ehhandler$?Destruct@?$QMetaTypeFunctionHelper@V?$QList@H@@$00@QtMetaTypePrivate@@SAXPAX@Z 00419a96 f   moc_workmodels.obj
 0001:00018a96       __ehhandler$??__Fdummy@?A0x60b45615@@YAXXZ 00419a96 f   qrc_qml.obj
 0001:00018ac0       __unwindfunclet$?Construct@?$QMetaTypeFunctionHelper@V?$QList@PAVQObject@@@@$00@QtMetaTypePrivate@@SAPAXPAXPBX@Z$0 00419ac0 f   moc_workmodels.obj
 0001:00018ac0       __unwindfunclet$?Construct@?$QMetaTypeFunctionHelper@V?$QList@H@@$00@QtMetaTypePrivate@@SAPAXPAXPBX@Z$0 00419ac0 f   moc_workmodels.obj
 0001:00018ad1       __ehhandler$?Construct@?$QMetaTypeFunctionHelper@V?$QList@PAVQObject@@@@$00@QtMetaTypePrivate@@SAPAXPAXPBX@Z 00419ad1 f   moc_workmodels.obj
 0001:00018ad1       __ehhandler$?Construct@?$QMetaTypeFunctionHelper@V?$QList@H@@$00@QtMetaTypePrivate@@SAPAXPAXPBX@Z 00419ad1 f   moc_workmodels.obj
 0001:00018af0       __unwindfunclet$?qt_metatype_id@?$QMetaTypeId@V?$QList@H@@@@SAHXZ$0 00419af0 f   moc_workmodels.obj
 0001:00018af9       __ehhandler$?qt_metatype_id@?$QMetaTypeId@V?$QList@H@@@@SAHXZ 00419af9 f   moc_workmodels.obj
 0001:00018b20       __unwindfunclet$?qt_metatype_id@?$QMetaTypeId@V?$QList@PAVQObject@@@@@@SAHXZ$2 00419b20 f   moc_workmodels.obj
 0001:00018b20       __unwindfunclet$?qt_metatype_id@?$QMetaTypeId@VQSequentialIterableImpl@QtMetaTypePrivate@@@@SAHXZ$2 00419b20 f   moc_workmodels.obj
 0001:00018b29       __ehhandler$?qt_metatype_id@?$QMetaTypeId@V?$QList@PAVQObject@@@@@@SAHXZ 00419b29 f   moc_workmodels.obj
 0001:00018b29       __ehhandler$?qt_metatype_id@?$QMetaTypeId@VQSequentialIterableImpl@QtMetaTypePrivate@@@@SAHXZ 00419b29 f   moc_workmodels.obj
 0001:00018b50       __unwindfunclet$?setParamListModel@PlanSelector@@QAEXABV?$QList@PAVQObject@@@@@Z$7 00419b50 f   moc_workmodels.obj
 0001:00018b50       __unwindfunclet$?clear@?$QList@UloopControl@SubThreadWorker@@@@QAEXXZ$2 00419b50 f   workflowprotocol.obj
 0001:00018b50       __unwindfunclet$??4OperationParamData@@QAEAAV0@ABV0@@Z$14 00419b50 f   configfilehandler.obj
 0001:00018b50       __unwindfunclet$?setParamModel@OperationParamSelector@@QAEXABV?$QList@PAVQObject@@@@@Z$7 00419b50 f   moc_workmodels.obj
 0001:00018b50       __unwindfunclet$?setIntListValue@OperationParamObject@@QAEXABV?$QList@H@@@Z$7 00419b50 f   moc_workmodels.obj
 0001:00018b56       __ehhandler$?setParamModel@OperationParamSelector@@QAEXABV?$QList@PAVQObject@@@@@Z 00419b56 f   moc_workmodels.obj
 0001:00018b56       __ehhandler$?setIntListValue@OperationParamObject@@QAEXABV?$QList@H@@@Z 00419b56 f   moc_workmodels.obj
 0001:00018b56       __ehhandler$?clear@?$QList@UloopControl@SubThreadWorker@@@@QAEXXZ 00419b56 f   workflowprotocol.obj
 0001:00018b56       __ehhandler$??4OperationParamData@@QAEAAV0@ABV0@@Z 00419b56 f   configfilehandler.obj
 0001:00018b56       __ehhandler$?setParamListModel@PlanSelector@@QAEXABV?$QList@PAVQObject@@@@@Z 00419b56 f   moc_workmodels.obj
 0001:00018b80       ??__Fdummy@?A0x60b45615@@YAXXZ 00419b80 f   qrc_qml.obj
 0002:0000051c       ?pre_cpp_initializer@@3P6AXXZA 0041a51c     MSVCRT:exe_winmain.obj
 0002:00000520       ?dummy$initializer$@?A0x60b45615@@3P6AXXZA 0041a520     qrc_qml.obj
 0002:00000524       ??staticMetaObject$initializer$@SubThreadWorker@@2P6AXXZA@@3P6AXXZA 0041a524     moc_workflowprotocol.obj
 0002:00000528       ??staticMetaObject$initializer$@WorkflowController@@2P6AXXZA@@3P6AXXZA 0041a528     moc_workflowprotocol.obj
 0002:0000052c       ??staticMetaObject$initializer$@configFileHandler@@2P6AXXZA@@3P6AXXZA 0041a52c     moc_configfilehandler.obj
 0002:00000530       ??staticMetaObject$initializer$@EnvironmentVariant@@2P6AXXZA@@3P6AXXZA 0041a530     moc_environmentvariant.obj
 0002:00000534       ??staticMetaObject$initializer$@OperationParamObject@@2P6AXXZA@@3P6AXXZA 0041a534     moc_workmodels.obj
 0002:00000538       ??staticMetaObject$initializer$@OperationParamSelector@@2P6AXXZA@@3P6AXXZA 0041a538     moc_workmodels.obj
 0002:0000053c       ??staticMetaObject$initializer$@SingleOperationObject@@2P6AXXZA@@3P6AXXZA 0041a53c     moc_workmodels.obj
 0002:00000540       ??staticMetaObject$initializer$@PlanSelector@@2P6AXXZA@@3P6AXXZA 0041a540     moc_workmodels.obj
 0002:00000544       ??staticMetaObject$initializer$@PlanController@@2P6AXXZA@@3P6AXXZA 0041a544     moc_workmodels.obj
 0002:00000548       ??staticMetaObject$initializer$@StatusViewWatcher@@2P6AXXZA@@3P6AXXZA 0041a548     moc_workmodels.obj
 0002:0000054c       ??staticMetaObject$initializer$@TargetMachineObject@@2P6AXXZA@@3P6AXXZA 0041a54c     moc_workmodels.obj
 0002:00000558       ?pre_c_initializer@@3P6AHXZA 0041a558     MSVCRT:exe_winmain.obj
 0002:0000055c       ?post_pgo_initializer@@3P6AHXZA 0041a55c     MSVCRT:exe_winmain.obj
 0002:00000560       ?__scrt_initialize_tss_var@@3P6AHXZA 0041a560     MSVCRT:thread_safe_statics.obj
 0002:00000e20       ?qt_resource_data@@3QBEB   0041ae20     qrc_qml.obj
 0002:00036440       ?qt_resource_name@@3QBEB   00450440     qrc_qml.obj
 0002:00036740       ?qt_resource_struct@@3QBEB 00450740     qrc_qml.obj
 0002:00036998       ?qt_meta_stringdata_SubThreadWorker@@3Uqt_meta_stringdata_SubThreadWorker_t@@B 00450998     moc_workflowprotocol.obj
 0002:00036ae8       ?qt_meta_data_SubThreadWorker@@3QBIB 00450ae8     moc_workflowprotocol.obj
 0002:00036c10       ?qt_meta_stringdata_WorkflowController@@3Uqt_meta_stringdata_WorkflowController_t@@B 00450c10     moc_workflowprotocol.obj
 0002:00036d68       ?qt_meta_data_WorkflowController@@3QBIB 00450d68     moc_workflowprotocol.obj
 0002:00036e8c       ?qt_meta_stringdata_configFileHandler@@3Uqt_meta_stringdata_configFileHandler_t@@B 00450e8c     moc_configfilehandler.obj
 0002:00036eb0       ?qt_meta_data_configFileHandler@@3QBIB 00450eb0     moc_configfilehandler.obj
 0002:00036ef0       ?qt_meta_stringdata_EnvironmentVariant@@3Uqt_meta_stringdata_EnvironmentVariant_t@@B 00450ef0     moc_environmentvariant.obj
 0002:00036f50       ?qt_meta_data_EnvironmentVariant@@3QBIB 00450f50     moc_environmentvariant.obj
 0002:00036fa8       ?qt_meta_stringdata_SingleOperationObject@@3Uqt_meta_stringdata_SingleOperationObject_t@@B 00450fa8     moc_workmodels.obj
 0002:00037028       ?qt_meta_data_SingleOperationObject@@3QBIB 00451028     moc_workmodels.obj
 0002:00037090       ?qt_meta_stringdata_PlanSelector@@3Uqt_meta_stringdata_PlanSelector_t@@B 00451090     moc_workmodels.obj
 0002:000373b0       ?qt_meta_data_PlanSelector@@3QBIB 004513b0     moc_workmodels.obj
 0002:00037650       ?qt_meta_stringdata_OperationParamObject@@3Uqt_meta_stringdata_OperationParamObject_t@@B 00451650     moc_workmodels.obj
 0002:000379a8       ?qt_meta_stringdata_PlanController@@3Uqt_meta_stringdata_PlanController_t@@B 004519a8     moc_workmodels.obj
 0002:00037aa0       ?qt_meta_data_OperationParamObject@@3QBIB 00451aa0     moc_workmodels.obj
 0002:00037ce8       ?qt_meta_data_PlanController@@3QBIB 00451ce8     moc_workmodels.obj
 0002:00037da0       ?qt_meta_stringdata_StatusViewWatcher@@3Uqt_meta_stringdata_StatusViewWatcher_t@@B 00451da0     moc_workmodels.obj
 0002:00037ea8       ?qt_meta_data_StatusViewWatcher@@3QBIB 00451ea8     moc_workmodels.obj
 0002:00037f60       ?qt_meta_stringdata_TargetMachineObject@@3Uqt_meta_stringdata_TargetMachineObject_t@@B 00451f60     moc_workmodels.obj
 0002:00038030       ?qt_meta_data_TargetMachineObject@@3QBIB 00452030     moc_workmodels.obj
 0002:000380d0       ?qt_meta_stringdata_OperationParamSelector@@3Uqt_meta_stringdata_OperationParamSelector_t@@B 004520d0     moc_workmodels.obj
 0002:00038290       ?qt_meta_data_OperationParamSelector@@3QBIB 00452290     moc_workmodels.obj
 0002:000384b8       _GS_ExceptionPointers      004524b8     MSVCRT:gs_report.obj
 0002:00039438       __ehfuncinfo$?connectToServer@Communication@@QAE_NABVQString@@G@Z 00453438     communication.obj
 0002:0003945c       __unwindtable$?connectToServer@Communication@@QAE_NABVQString@@G@Z 0045345c     communication.obj
 0002:00039484       __catchsym$??0?$QList@VQString@@@@QAE@ABV0@@Z$7 00453484     workflowprotocol.obj
 0002:00039494       __unwindtable$??0?$QList@VQString@@@@QAE@ABV0@@Z 00453494     workflowprotocol.obj
 0002:000394a4       __tryblocktable$??0?$QList@VQString@@@@QAE@ABV0@@Z 004534a4     workflowprotocol.obj
 0002:000394b8       __ehfuncinfo$??0?$QList@VQString@@@@QAE@ABV0@@Z 004534b8     workflowprotocol.obj
 0002:000394dc       __catchsym$?append@?$QList@VQString@@@@QAEXABVQString@@@Z$11 004534dc     workflowprotocol.obj
 0002:000394ec       __tryblocktable$?append@?$QList@VQString@@@@QAEXABVQString@@@Z 004534ec     workflowprotocol.obj
 0002:00039500       __ehfuncinfo$?append@?$QList@VQString@@@@QAEXABVQString@@@Z 00453500     workflowprotocol.obj
 0002:00039524       __unwindtable$?append@?$QList@VQString@@@@QAEXABVQString@@@Z 00453524     workflowprotocol.obj
 0002:00039554       __catchsym$?detach_helper_grow@?$QList@VQString@@@@AAEPAUNode@1@HH@Z$12 00453554     workflowprotocol.obj
 0002:00039564       __catchsym$?detach_helper_grow@?$QList@VQString@@@@AAEPAUNode@1@HH@Z$11 00453564     workflowprotocol.obj
 0002:00039574       __unwindtable$?detach_helper_grow@?$QList@VQString@@@@AAEPAUNode@1@HH@Z 00453574     workflowprotocol.obj
 0002:00039594       __ehfuncinfo$?detach_helper_grow@?$QList@VQString@@@@AAEPAUNode@1@HH@Z 00453594     workflowprotocol.obj
 0002:000395b8       __tryblocktable$?detach_helper_grow@?$QList@VQString@@@@AAEPAUNode@1@HH@Z 004535b8     workflowprotocol.obj
 0002:000395e0       __ehfuncinfo$?initProtocol@WorkflowProtocol@@QAE_NABVQString@@@Z 004535e0     workflowprotocol.obj
 0002:00039604       __unwindtable$?initProtocol@WorkflowProtocol@@QAE_NABVQString@@@Z 00453604     workflowprotocol.obj
 0002:00039634       __ehfuncinfo$?parseJsonObjectToSendFrame@WorkflowProtocol@@QAE_NABVQJsonObject@@AAV2@@Z 00453634     workflowprotocol.obj
 0002:00039658       __unwindtable$?parseJsonObjectToSendFrame@WorkflowProtocol@@QAE_NABVQJsonObject@@AAV2@@Z 00453658     workflowprotocol.obj
 0002:000397c0       __unwindtable$?formatRecvFrameToJsonObject@WorkflowProtocol@@QAE_NAAVQJsonObject@@@Z 004537c0     workflowprotocol.obj
 0002:000397d0       __ehfuncinfo$?formatRecvFrameToJsonObject@WorkflowProtocol@@QAE_NAAVQJsonObject@@@Z 004537d0     workflowprotocol.obj
 0002:000397f4       __unwindtable$?parseAckFrame@WorkflowProtocol@@QAE_NABVQByteArray@@AAVQJsonObject@@@Z 004537f4     workflowprotocol.obj
 0002:000397fc       __ehfuncinfo$?parseAckFrame@WorkflowProtocol@@QAE_NABVQByteArray@@AAVQJsonObject@@@Z 004537fc     workflowprotocol.obj
 0002:00039820       __ehfuncinfo$?serializeSendFrame@WorkflowProtocol@@QAE?AVQByteArray@@XZ 00453820     workflowprotocol.obj
 0002:00039844       __unwindtable$?serializeSendFrame@WorkflowProtocol@@QAE?AVQByteArray@@XZ 00453844     workflowprotocol.obj
 0002:00039874       __unwindtable$?unserializeRecvFrame@WorkflowProtocol@@QAEXABVQByteArray@@@Z 00453874     workflowprotocol.obj
 0002:0003987c       __ehfuncinfo$?unserializeRecvFrame@WorkflowProtocol@@QAEXABVQByteArray@@@Z 0045387c     workflowprotocol.obj
 0002:000398a0       __ehfuncinfo$?doTunning@SubThreadWorker@@QAEXABVQJsonObject@@@Z 004538a0     workflowprotocol.obj
 0002:000398c4       __unwindtable$?doTunning@SubThreadWorker@@QAEXABVQJsonObject@@@Z 004538c4     workflowprotocol.obj
 0002:00039904       __ehfuncinfo$?doWork@SubThreadWorker@@QAEXABVQJsonObject@@@Z 00453904     workflowprotocol.obj
 0002:00039928       __unwindtable$?doWork@SubThreadWorker@@QAEXABVQJsonObject@@@Z 00453928     workflowprotocol.obj
 0002:00039998       __ehfuncinfo$?handleControlCommand@SubThreadWorker@@IAE_NAAVCommunication@@AAVQJsonObject@@@Z 00453998     workflowprotocol.obj
 0002:000399bc       __unwindtable$?handleControlCommand@SubThreadWorker@@IAE_NAAVCommunication@@AAVQJsonObject@@@Z 004539bc     workflowprotocol.obj
 0002:00039b14       __ehfuncinfo$?handleLogicalCommand@SubThreadWorker@@IAE_NAAVQJsonObject@@AAH@Z 00453b14     workflowprotocol.obj
 0002:00039b38       __unwindtable$?handleLogicalCommand@SubThreadWorker@@IAE_NAAVQJsonObject@@AAH@Z 00453b38     workflowprotocol.obj
 0002:00039c80       __ehfuncinfo$?isLogicalCommand@SubThreadWorker@@IAE_NABVQString@@@Z 00453c80     workflowprotocol.obj
 0002:00039ca4       __unwindtable$?isLogicalCommand@SubThreadWorker@@IAE_NABVQString@@@Z 00453ca4     workflowprotocol.obj
 0002:00039ccc       __ehfuncinfo$?isLoopCommand@SubThreadWorker@@IAE_NABVQString@@@Z 00453ccc     workflowprotocol.obj
 0002:00039cf0       __unwindtable$?isLoopCommand@SubThreadWorker@@IAE_NABVQString@@@Z 00453cf0     workflowprotocol.obj
 0002:00039d20       __ehfuncinfo$?handleLoopCommand@SubThreadWorker@@IAE_NAAVQJsonObject@@AAH@Z 00453d20     workflowprotocol.obj
 0002:00039d44       __unwindtable$?handleLoopCommand@SubThreadWorker@@IAE_NAAVQJsonObject@@AAH@Z 00453d44     workflowprotocol.obj
 0002:00039e7c       __unwindtable$??4?$QList@UloopControl@SubThreadWorker@@@@QAEAAV0@$$QAV0@@Z 00453e7c     workflowprotocol.obj
 0002:00039e84       __ehfuncinfo$??4?$QList@UloopControl@SubThreadWorker@@@@QAEAAV0@$$QAV0@@Z 00453e84     workflowprotocol.obj
 0002:00039ea8       __catchsym$?append@?$QList@UloopControl@SubThreadWorker@@@@QAEXABUloopControl@SubThreadWorker@@@Z$10 00453ea8     workflowprotocol.obj
 0002:00039eb8       __catchsym$?append@?$QList@UloopControl@SubThreadWorker@@@@QAEXABUloopControl@SubThreadWorker@@@Z$9 00453eb8     workflowprotocol.obj
 0002:00039ec8       __ehfuncinfo$?append@?$QList@UloopControl@SubThreadWorker@@@@QAEXABUloopControl@SubThreadWorker@@@Z 00453ec8     workflowprotocol.obj
 0002:00039eec       __tryblocktable$?append@?$QList@UloopControl@SubThreadWorker@@@@QAEXABUloopControl@SubThreadWorker@@@Z 00453eec     workflowprotocol.obj
 0002:00039f14       __unwindtable$?append@?$QList@UloopControl@SubThreadWorker@@@@QAEXABUloopControl@SubThreadWorker@@@Z 00453f14     workflowprotocol.obj
 0002:00039f44       __catchsym$?detach_helper_grow@?$QList@UloopControl@SubThreadWorker@@@@AAEPAUNode@1@HH@Z$10 00453f44     workflowprotocol.obj
 0002:00039f54       __catchsym$?detach_helper_grow@?$QList@UloopControl@SubThreadWorker@@@@AAEPAUNode@1@HH@Z$9 00453f54     workflowprotocol.obj
 0002:00039f64       __unwindtable$?detach_helper_grow@?$QList@UloopControl@SubThreadWorker@@@@AAEPAUNode@1@HH@Z 00453f64     workflowprotocol.obj
 0002:00039f84       __ehfuncinfo$?detach_helper_grow@?$QList@UloopControl@SubThreadWorker@@@@AAEPAUNode@1@HH@Z 00453f84     workflowprotocol.obj
 0002:00039fa8       __tryblocktable$?detach_helper_grow@?$QList@UloopControl@SubThreadWorker@@@@AAEPAUNode@1@HH@Z 00453fa8     workflowprotocol.obj
 0002:00039fd0       __catchsym$?detach_helper@?$QList@UloopControl@SubThreadWorker@@@@AAEXH@Z$7 00453fd0     workflowprotocol.obj
 0002:00039fe0       __unwindtable$?detach_helper@?$QList@UloopControl@SubThreadWorker@@@@AAEXH@Z 00453fe0     workflowprotocol.obj
 0002:00039ff0       __tryblocktable$?detach_helper@?$QList@UloopControl@SubThreadWorker@@@@AAEXH@Z 00453ff0     workflowprotocol.obj
 0002:0003a004       __ehfuncinfo$?detach_helper@?$QList@UloopControl@SubThreadWorker@@@@AAEXH@Z 00454004     workflowprotocol.obj
 0002:0003a028       __catchsym$?node_copy@?$QList@UloopControl@SubThreadWorker@@@@AAEXPAUNode@1@00@Z$4 00454028     workflowprotocol.obj
 0002:0003a038       __tryblocktable$?node_copy@?$QList@UloopControl@SubThreadWorker@@@@AAEXPAUNode@1@00@Z 00454038     workflowprotocol.obj
 0002:0003a04c       __unwindtable$?node_copy@?$QList@UloopControl@SubThreadWorker@@@@AAEXPAUNode@1@00@Z 0045404c     workflowprotocol.obj
 0002:0003a06c       __ehfuncinfo$?node_copy@?$QList@UloopControl@SubThreadWorker@@@@AAEXPAUNode@1@00@Z 0045406c     workflowprotocol.obj
 0002:0003a090       __unwindtable$??0WorkflowController@@QAE@PAVQObject@@@Z 00454090     workflowprotocol.obj
 0002:0003a0b0       __ehfuncinfo$??0WorkflowController@@QAE@PAVQObject@@@Z 004540b0     workflowprotocol.obj
 0002:0003a0d4       __unwindtable$?statusChanged@WorkflowController@@QAEXABVQJsonObject@@@Z 004540d4     workflowprotocol.obj
 0002:0003a0e4       __ehfuncinfo$?statusChanged@WorkflowController@@QAEXABVQJsonObject@@@Z 004540e4     workflowprotocol.obj
 0002:0003a108       __unwindtable$?taskStateChanged@WorkflowController@@QAEX_NH@Z 00454108     workflowprotocol.obj
 0002:0003a110       __ehfuncinfo$?taskStateChanged@WorkflowController@@QAEX_NH@Z 00454110     workflowprotocol.obj
 0002:0003a134       __unwindtable$??4?$QList@U?$QPair@VQString@@V?$QList@VSingleOperationData@@@@@@@@QAEAAV0@$$QAV0@@Z 00454134     configfilehandler.obj
 0002:0003a134       __unwindtable$??4?$QList@H@@QAEAAV0@$$QAV0@@Z 00454134     moc_workmodels.obj
 0002:0003a134       __unwindtable$??1SubThreadWorker@@UAE@XZ 00454134     workflowprotocol.obj
 0002:0003a134       __unwindtable$??_G?$QPair@VQString@@V?$QList@VSingleOperationData@@@@@@QAEPAXI@Z 00454134     configfilehandler.obj
 0002:0003a134       __unwindtable$??1?$QPair@VQString@@V?$QList@VSingleOperationData@@@@@@QAE@XZ 00454134     configfilehandler.obj
 0002:0003a134       __unwindtable$??_GWorkflowController@@UAEPAXI@Z 00454134     workflowprotocol.obj
 0002:0003a134       __unwindtable$??4?$QList@PAVQObject@@@@QAEAAV0@$$QAV0@@Z 00454134     moc_workmodels.obj
 0002:0003a134       __unwindtable$??4SingleOperationData@@QAEAAV0@$$QAV0@@Z 00454134     environmentvariant.obj
 0002:0003a13c       __ehfuncinfo$??1?$QPair@VQString@@V?$QList@VSingleOperationData@@@@@@QAE@XZ 0045413c     configfilehandler.obj
 0002:0003a13c       __ehfuncinfo$??1SubThreadWorker@@UAE@XZ 0045413c     workflowprotocol.obj
 0002:0003a13c       __ehfuncinfo$??_G?$QPair@VQString@@V?$QList@VSingleOperationData@@@@@@QAEPAXI@Z 0045413c     configfilehandler.obj
 0002:0003a13c       __ehfuncinfo$??4?$QList@PAVQObject@@@@QAEAAV0@$$QAV0@@Z 0045413c     moc_workmodels.obj
 0002:0003a13c       __ehfuncinfo$??4?$QList@H@@QAEAAV0@$$QAV0@@Z 0045413c     moc_workmodels.obj
 0002:0003a13c       __ehfuncinfo$??_GWorkflowController@@UAEPAXI@Z 0045413c     workflowprotocol.obj
 0002:0003a13c       __ehfuncinfo$??4?$QList@U?$QPair@VQString@@V?$QList@VSingleOperationData@@@@@@@@QAEAAV0@$$QAV0@@Z 0045413c     configfilehandler.obj
 0002:0003a13c       __ehfuncinfo$??4SingleOperationData@@QAEAAV0@$$QAV0@@Z 0045413c     environmentvariant.obj
 0002:0003a160       __ehfuncinfo$??0OperationParamData@@QAE@ABVQString@@00ABVQStringList@@_NHH0V?$QList@H@@00HH@Z 00454160     configfilehandler.obj
 0002:0003a184       __unwindtable$??0OperationParamData@@QAE@ABVQString@@00ABVQStringList@@_NHH0V?$QList@H@@00HH@Z 00454184     configfilehandler.obj
 0002:0003a1dc       __ehfuncinfo$??0OperationParamData@@QAE@ABV0@@Z 004541dc     configfilehandler.obj
 0002:0003a200       __unwindtable$??0OperationParamData@@QAE@ABV0@@Z 00454200     configfilehandler.obj
 0002:0003a248       __catchsym$??0?$QList@H@@QAE@ABV0@@Z$7 00454248     configfilehandler.obj
 0002:0003a248       __catchsym$??0?$QList@PAVQObject@@@@QAE@ABV0@@Z$7 00454248     workmodels.obj
 0002:0003a258       __unwindtable$??0?$QList@H@@QAE@ABV0@@Z 00454258     configfilehandler.obj
 0002:0003a258       __unwindtable$??0?$QList@PAVQObject@@@@QAE@ABV0@@Z 00454258     workmodels.obj
 0002:0003a268       __tryblocktable$??0?$QList@PAVQObject@@@@QAE@ABV0@@Z 00454268     workmodels.obj
 0002:0003a268       __tryblocktable$??0?$QList@H@@QAE@ABV0@@Z 00454268     configfilehandler.obj
 0002:0003a27c       __ehfuncinfo$??0?$QList@PAVQObject@@@@QAE@ABV0@@Z 0045427c     workmodels.obj
 0002:0003a27c       __ehfuncinfo$??0?$QList@H@@QAE@ABV0@@Z 0045427c     configfilehandler.obj
 0002:0003a2a0       __unwindtable$?clear@?$QList@H@@QAEXXZ 004542a0     configfilehandler.obj
 0002:0003a2b0       __ehfuncinfo$?clear@?$QList@H@@QAEXXZ 004542b0     configfilehandler.obj
 0002:0003a2d4       __catchsym$?append@?$QList@PAVQObject@@@@QAEXABQAVQObject@@@Z$9 004542d4     workmodels.obj
 0002:0003a2d4       __catchsym$?append@?$QList@H@@QAEXABH@Z$9 004542d4     configfilehandler.obj
 0002:0003a2e4       __tryblocktable$?append@?$QList@PAVQObject@@@@QAEXABQAVQObject@@@Z 004542e4     workmodels.obj
 0002:0003a2e4       __tryblocktable$?append@?$QList@H@@QAEXABH@Z 004542e4     configfilehandler.obj
 0002:0003a2f8       __ehfuncinfo$?append@?$QList@PAVQObject@@@@QAEXABQAVQObject@@@Z 004542f8     workmodels.obj
 0002:0003a2f8       __ehfuncinfo$?append@?$QList@H@@QAEXABH@Z 004542f8     configfilehandler.obj
 0002:0003a31c       __unwindtable$?append@?$QList@PAVQObject@@@@QAEXABQAVQObject@@@Z 0045431c     workmodels.obj
 0002:0003a31c       __unwindtable$?append@?$QList@H@@QAEXABH@Z 0045431c     configfilehandler.obj
 0002:0003a34c       __catchsym$?detach_helper_grow@?$QList@H@@AAEPAUNode@1@HH@Z$10 0045434c     configfilehandler.obj
 0002:0003a34c       __catchsym$?detach_helper_grow@?$QList@PAVQObject@@@@AAEPAUNode@1@HH@Z$10 0045434c     workmodels.obj
 0002:0003a35c       __catchsym$?detach_helper_grow@?$QList@H@@AAEPAUNode@1@HH@Z$9 0045435c     configfilehandler.obj
 0002:0003a35c       __catchsym$?detach_helper_grow@?$QList@PAVQObject@@@@AAEPAUNode@1@HH@Z$9 0045435c     workmodels.obj
 0002:0003a36c       __unwindtable$?detach_helper_grow@?$QList@PAVQObject@@@@AAEPAUNode@1@HH@Z 0045436c     workmodels.obj
 0002:0003a36c       __unwindtable$?detach_helper_grow@?$QList@H@@AAEPAUNode@1@HH@Z 0045436c     configfilehandler.obj
 0002:0003a38c       __ehfuncinfo$?detach_helper_grow@?$QList@PAVQObject@@@@AAEPAUNode@1@HH@Z 0045438c     workmodels.obj
 0002:0003a38c       __ehfuncinfo$?detach_helper_grow@?$QList@H@@AAEPAUNode@1@HH@Z 0045438c     configfilehandler.obj
 0002:0003a3b0       __tryblocktable$?detach_helper_grow@?$QList@PAVQObject@@@@AAEPAUNode@1@HH@Z 004543b0     workmodels.obj
 0002:0003a3b0       __tryblocktable$?detach_helper_grow@?$QList@H@@AAEPAUNode@1@HH@Z 004543b0     configfilehandler.obj
 0002:0003a3d8       __catchsym$??0?$QList@VOperationParamData@@@@QAE@ABV0@@Z$7 004543d8     configfilehandler.obj
 0002:0003a3e8       __unwindtable$??0?$QList@VOperationParamData@@@@QAE@ABV0@@Z 004543e8     configfilehandler.obj
 0002:0003a3f8       __tryblocktable$??0?$QList@VOperationParamData@@@@QAE@ABV0@@Z 004543f8     configfilehandler.obj
 0002:0003a40c       __ehfuncinfo$??0?$QList@VOperationParamData@@@@QAE@ABV0@@Z 0045440c     configfilehandler.obj
 0002:0003a430       __catchsym$?append@?$QList@VOperationParamData@@@@QAEXABVOperationParamData@@@Z$16 00454430     configfilehandler.obj
 0002:0003a440       __catchsym$?append@?$QList@VOperationParamData@@@@QAEXABVOperationParamData@@@Z$15 00454440     configfilehandler.obj
 0002:0003a450       __ehfuncinfo$?append@?$QList@VOperationParamData@@@@QAEXABVOperationParamData@@@Z 00454450     configfilehandler.obj
 0002:0003a474       __tryblocktable$?append@?$QList@VOperationParamData@@@@QAEXABVOperationParamData@@@Z 00454474     configfilehandler.obj
 0002:0003a49c       __unwindtable$?append@?$QList@VOperationParamData@@@@QAEXABVOperationParamData@@@Z 0045449c     configfilehandler.obj
 0002:0003a4fc       __catchsym$?detach_helper_grow@?$QList@VOperationParamData@@@@AAEPAUNode@1@HH@Z$10 004544fc     configfilehandler.obj
 0002:0003a50c       __catchsym$?detach_helper_grow@?$QList@VOperationParamData@@@@AAEPAUNode@1@HH@Z$9 0045450c     configfilehandler.obj
 0002:0003a51c       __unwindtable$?detach_helper_grow@?$QList@VOperationParamData@@@@AAEPAUNode@1@HH@Z 0045451c     configfilehandler.obj
 0002:0003a53c       __ehfuncinfo$?detach_helper_grow@?$QList@VOperationParamData@@@@AAEPAUNode@1@HH@Z 0045453c     configfilehandler.obj
 0002:0003a560       __tryblocktable$?detach_helper_grow@?$QList@VOperationParamData@@@@AAEPAUNode@1@HH@Z 00454560     configfilehandler.obj
 0002:0003a588       __catchsym$?node_copy@?$QList@VOperationParamData@@@@AAEXPAUNode@1@00@Z$8 00454588     configfilehandler.obj
 0002:0003a598       __tryblocktable$?node_copy@?$QList@VOperationParamData@@@@AAEXPAUNode@1@00@Z 00454598     configfilehandler.obj
 0002:0003a5ac       __ehfuncinfo$?node_copy@?$QList@VOperationParamData@@@@AAEXPAUNode@1@00@Z 004545ac     configfilehandler.obj
 0002:0003a5d0       __unwindtable$?node_copy@?$QList@VOperationParamData@@@@AAEXPAUNode@1@00@Z 004545d0     configfilehandler.obj
 0002:0003a600       __unwindtable$?loadConfigFile@configFileHandler@@QAE_NABVQString@@@Z 00454600     configfilehandler.obj
 0002:0003a620       __ehfuncinfo$?loadConfigFile@configFileHandler@@QAE_NABVQString@@@Z 00454620     configfilehandler.obj
 0002:0003a644       __unwindtable$?toList@configFileHandler@@QAE?AVQStringList@@ABVQString@@@Z 00454644     configfilehandler.obj
 0002:0003a65c       __ehfuncinfo$?toList@configFileHandler@@QAE?AVQStringList@@ABVQString@@@Z 0045465c     configfilehandler.obj
 0002:0003a680       __ehfuncinfo$?ParseListMap@configFileHandler@@QAE?AV?$QMap@VQString@@VQStringList@@@@ABVQString@@@Z 00454680     configfilehandler.obj
 0002:0003a6a4       __unwindtable$?ParseListMap@configFileHandler@@QAE?AV?$QMap@VQString@@VQStringList@@@@ABVQString@@@Z 004546a4     configfilehandler.obj
 0002:0003a6fc       __ehfuncinfo$?ParseMapRevertKeyValue@configFileHandler@@QAE?AV?$QMap@VQString@@V1@@@ABVQString@@@Z 004546fc     configfilehandler.obj
 0002:0003a6fc       __ehfuncinfo$?ParseMap@configFileHandler@@QAE?AV?$QMap@VQString@@V1@@@ABVQString@@@Z 004546fc     configfilehandler.obj
 0002:0003a720       __unwindtable$?ParseMap@configFileHandler@@QAE?AV?$QMap@VQString@@V1@@@ABVQString@@@Z 00454720     configfilehandler.obj
 0002:0003a720       __unwindtable$?ParseMapRevertKeyValue@configFileHandler@@QAE?AV?$QMap@VQString@@V1@@@ABVQString@@@Z 00454720     configfilehandler.obj
 0002:0003a758       __ehfuncinfo$?ParseParamValue@configFileHandler@@QAE?AV?$QMap@VQString@@VOperationParamData@@@@ABVQString@@@Z 00454758     configfilehandler.obj
 0002:0003a77c       __unwindtable$?ParseParamValue@configFileHandler@@QAE?AV?$QMap@VQString@@VOperationParamData@@@@ABVQString@@@Z 0045477c     configfilehandler.obj
 0002:0003a8e4       __unwindtable$?ParseHostIP@configFileHandler@@QAE?AVQString@@XZ 004548e4     configfilehandler.obj
 0002:0003a904       __ehfuncinfo$?ParseHostIP@configFileHandler@@QAE?AVQString@@XZ 00454904     configfilehandler.obj
 0002:0003a928       __ehfuncinfo$?ParseHostPort@configFileHandler@@QAEFXZ 00454928     configfilehandler.obj
 0002:0003a928       __ehfuncinfo$?ParseHostSingleOperationThreshold@configFileHandler@@QAEHXZ 00454928     configfilehandler.obj
 0002:0003a94c       __unwindtable$?ParseHostSingleOperationThreshold@configFileHandler@@QAEHXZ 0045494c     configfilehandler.obj
 0002:0003a94c       __unwindtable$?ParseHostPort@configFileHandler@@QAEFXZ 0045494c     configfilehandler.obj
 0002:0003a974       __ehfuncinfo$?ParsePlanList@configFileHandler@@QAEXAAV?$QList@U?$QPair@VQString@@V?$QList@VSingleOperationData@@@@@@@@ABV?$QMap@VQString@@VOperationParamData@@@@@Z 00454974     configfilehandler.obj
 0002:0003a998       __unwindtable$?ParsePlanList@configFileHandler@@QAEXAAV?$QList@U?$QPair@VQString@@V?$QList@VSingleOperationData@@@@@@@@ABV?$QMap@VQString@@VOperationParamData@@@@@Z 00454998     configfilehandler.obj
 0002:0003aa88       __ehfuncinfo$?SavePlanList@configFileHandler@@QAEXABVQString@@ABV?$QList@U?$QPair@VQString@@V?$QList@VSingleOperationData@@@@@@@@ABV?$QMap@VQString@@VQStringList@@@@@Z 00454a88     configfilehandler.obj
 0002:0003aaac       __unwindtable$?SavePlanList@configFileHandler@@QAEXABVQString@@ABV?$QList@U?$QPair@VQString@@V?$QList@VSingleOperationData@@@@@@@@ABV?$QMap@VQString@@VQStringList@@@@@Z 00454aac     configfilehandler.obj
 0002:0003abac       __ehfuncinfo$?SaveMachineConfig@configFileHandler@@QAEXABVQString@@ABVMachineConfigData@@ABVQStringList@@@Z 00454bac     configfilehandler.obj
 0002:0003abd0       __unwindtable$?SaveMachineConfig@configFileHandler@@QAEXABVQString@@ABVMachineConfigData@@ABVQStringList@@@Z 00454bd0     configfilehandler.obj
 0002:0003acb8       __ehfuncinfo$?ParseWorkLocationTypeList@configFileHandler@@QAEXAAVQStringList@@@Z 00454cb8     configfilehandler.obj
 0002:0003acdc       __unwindtable$?ParseWorkLocationTypeList@configFileHandler@@QAEXAAVQStringList@@@Z 00454cdc     configfilehandler.obj
 0002:0003ad3c       __ehfuncinfo$?ParseLicense@configFileHandler@@QAEXAAVQByteArray@@@Z 00454d3c     configfilehandler.obj
 0002:0003ad60       __unwindtable$?ParseLicense@configFileHandler@@QAEXAAVQByteArray@@@Z 00454d60     configfilehandler.obj
 0002:0003ad90       __unwindtable$??A?$QMap@VQString@@VQStringList@@@@QAEAAVQStringList@@ABVQString@@@Z 00454d90     configfilehandler.obj
 0002:0003ad98       __ehfuncinfo$??A?$QMap@VQString@@VQStringList@@@@QAEAAVQStringList@@ABVQString@@@Z 00454d98     configfilehandler.obj
 0002:0003adbc       __unwindtable$??A?$QMap@VQString@@V1@@@QAEAAVQString@@ABV1@@Z 00454dbc     configfilehandler.obj
 0002:0003adc4       __ehfuncinfo$??A?$QMap@VQString@@V1@@@QAEAAVQString@@ABV1@@Z 00454dc4     configfilehandler.obj
 0002:0003ade8       __unwindtable$??A?$QMap@VQString@@VOperationParamData@@@@QBE?BVOperationParamData@@ABVQString@@@Z 00454de8     configfilehandler.obj
 0002:0003adf0       __ehfuncinfo$??A?$QMap@VQString@@VOperationParamData@@@@QBE?BVOperationParamData@@ABVQString@@@Z 00454df0     configfilehandler.obj
 0002:0003ae14       __unwindtable$?clear@?$QList@U?$QPair@VQString@@V?$QList@VSingleOperationData@@@@@@@@QAEXXZ 00454e14     configfilehandler.obj
 0002:0003ae14       __unwindtable$??4SingleOperationData@@QAEAAV0@ABV0@@Z 00454e14     environmentvariant.obj
 0002:0003ae14       __unwindtable$??4?$QList@VSingleOperationData@@@@QAEAAV0@ABV0@@Z 00454e14     environmentvariant.obj
 0002:0003ae1c       __ehfuncinfo$??4SingleOperationData@@QAEAAV0@ABV0@@Z 00454e1c     environmentvariant.obj
 0002:0003ae1c       __ehfuncinfo$?clear@?$QList@U?$QPair@VQString@@V?$QList@VSingleOperationData@@@@@@@@QAEXXZ 00454e1c     configfilehandler.obj
 0002:0003ae1c       __ehfuncinfo$??4?$QList@VSingleOperationData@@@@QAEAAV0@ABV0@@Z 00454e1c     environmentvariant.obj
 0002:0003ae40       __catchsym$?append@?$QList@U?$QPair@VQString@@V?$QList@VSingleOperationData@@@@@@@@QAEXABU?$QPair@VQString@@V?$QList@VSingleOperationData@@@@@@@Z$28 00454e40     configfilehandler.obj
 0002:0003ae50       __catchsym$?append@?$QList@U?$QPair@VQString@@V?$QList@VSingleOperationData@@@@@@@@QAEXABU?$QPair@VQString@@V?$QList@VSingleOperationData@@@@@@@Z$27 00454e50     configfilehandler.obj
 0002:0003ae60       __ehfuncinfo$?append@?$QList@U?$QPair@VQString@@V?$QList@VSingleOperationData@@@@@@@@QAEXABU?$QPair@VQString@@V?$QList@VSingleOperationData@@@@@@@Z 00454e60     configfilehandler.obj
 0002:0003ae84       __tryblocktable$?append@?$QList@U?$QPair@VQString@@V?$QList@VSingleOperationData@@@@@@@@QAEXABU?$QPair@VQString@@V?$QList@VSingleOperationData@@@@@@@Z 00454e84     configfilehandler.obj
 0002:0003aeac       __unwindtable$?append@?$QList@U?$QPair@VQString@@V?$QList@VSingleOperationData@@@@@@@@QAEXABU?$QPair@VQString@@V?$QList@VSingleOperationData@@@@@@@Z 00454eac     configfilehandler.obj
 0002:0003af3c       __catchsym$?detach_helper_grow@?$QList@U?$QPair@VQString@@V?$QList@VSingleOperationData@@@@@@@@AAEPAUNode@1@HH@Z$10 00454f3c     configfilehandler.obj
 0002:0003af4c       __catchsym$?detach_helper_grow@?$QList@U?$QPair@VQString@@V?$QList@VSingleOperationData@@@@@@@@AAEPAUNode@1@HH@Z$9 00454f4c     configfilehandler.obj
 0002:0003af5c       __unwindtable$?detach_helper_grow@?$QList@U?$QPair@VQString@@V?$QList@VSingleOperationData@@@@@@@@AAEPAUNode@1@HH@Z 00454f5c     configfilehandler.obj
 0002:0003af7c       __ehfuncinfo$?detach_helper_grow@?$QList@U?$QPair@VQString@@V?$QList@VSingleOperationData@@@@@@@@AAEPAUNode@1@HH@Z 00454f7c     configfilehandler.obj
 0002:0003afa0       __tryblocktable$?detach_helper_grow@?$QList@U?$QPair@VQString@@V?$QList@VSingleOperationData@@@@@@@@AAEPAUNode@1@HH@Z 00454fa0     configfilehandler.obj
 0002:0003afc8       __catchsym$?node_copy@?$QList@U?$QPair@VQString@@V?$QList@VSingleOperationData@@@@@@@@AAEXPAUNode@1@00@Z$10 00454fc8     configfilehandler.obj
 0002:0003afd8       __tryblocktable$?node_copy@?$QList@U?$QPair@VQString@@V?$QList@VSingleOperationData@@@@@@@@AAEXPAUNode@1@00@Z 00454fd8     configfilehandler.obj
 0002:0003afec       __ehfuncinfo$?node_copy@?$QList@U?$QPair@VQString@@V?$QList@VSingleOperationData@@@@@@@@AAEXPAUNode@1@00@Z 00454fec     configfilehandler.obj
 0002:0003b010       __unwindtable$?node_copy@?$QList@U?$QPair@VQString@@V?$QList@VSingleOperationData@@@@@@@@AAEXPAUNode@1@00@Z 00455010     configfilehandler.obj
 0002:0003b050       __unwindtable$?node_destruct@?$QList@U?$QPair@VQString@@V?$QList@VSingleOperationData@@@@@@@@AAEXPAUNode@1@0@Z 00455050     configfilehandler.obj
 0002:0003b050       __unwindtable$?node_destruct@?$QList@VSingleOperationData@@@@AAEXPAUNode@1@0@Z 00455050     configfilehandler.obj
 0002:0003b060       __ehfuncinfo$?node_destruct@?$QList@VSingleOperationData@@@@AAEXPAUNode@1@0@Z 00455060     configfilehandler.obj
 0002:0003b060       __ehfuncinfo$?node_destruct@?$QList@U?$QPair@VQString@@V?$QList@VSingleOperationData@@@@@@@@AAEXPAUNode@1@0@Z 00455060     configfilehandler.obj
 0002:0003b084       __catchsym$??0?$QList@VSingleOperationData@@@@QAE@ABV0@@Z$7 00455084     configfilehandler.obj
 0002:0003b094       __unwindtable$??0?$QList@VSingleOperationData@@@@QAE@ABV0@@Z 00455094     configfilehandler.obj
 0002:0003b0a4       __tryblocktable$??0?$QList@VSingleOperationData@@@@QAE@ABV0@@Z 004550a4     configfilehandler.obj
 0002:0003b0b8       __ehfuncinfo$??0?$QList@VSingleOperationData@@@@QAE@ABV0@@Z 004550b8     configfilehandler.obj
 0002:0003b0dc       __catchsym$?append@?$QList@VSingleOperationData@@@@QAEXABVSingleOperationData@@@Z$28 004550dc     configfilehandler.obj
 0002:0003b0ec       __catchsym$?append@?$QList@VSingleOperationData@@@@QAEXABVSingleOperationData@@@Z$27 004550ec     configfilehandler.obj
 0002:0003b0fc       __ehfuncinfo$?append@?$QList@VSingleOperationData@@@@QAEXABVSingleOperationData@@@Z 004550fc     configfilehandler.obj
 0002:0003b120       __tryblocktable$?append@?$QList@VSingleOperationData@@@@QAEXABVSingleOperationData@@@Z 00455120     configfilehandler.obj
 0002:0003b148       __unwindtable$?append@?$QList@VSingleOperationData@@@@QAEXABVSingleOperationData@@@Z 00455148     configfilehandler.obj
 0002:0003b1d8       __catchsym$?detach_helper_grow@?$QList@VSingleOperationData@@@@AAEPAUNode@1@HH@Z$10 004551d8     configfilehandler.obj
 0002:0003b1e8       __catchsym$?detach_helper_grow@?$QList@VSingleOperationData@@@@AAEPAUNode@1@HH@Z$9 004551e8     configfilehandler.obj
 0002:0003b1f8       __unwindtable$?detach_helper_grow@?$QList@VSingleOperationData@@@@AAEPAUNode@1@HH@Z 004551f8     configfilehandler.obj
 0002:0003b218       __ehfuncinfo$?detach_helper_grow@?$QList@VSingleOperationData@@@@AAEPAUNode@1@HH@Z 00455218     configfilehandler.obj
 0002:0003b23c       __tryblocktable$?detach_helper_grow@?$QList@VSingleOperationData@@@@AAEPAUNode@1@HH@Z 0045523c     configfilehandler.obj
 0002:0003b264       __catchsym$?node_copy@?$QList@VSingleOperationData@@@@AAEXPAUNode@1@00@Z$10 00455264     configfilehandler.obj
 0002:0003b274       __tryblocktable$?node_copy@?$QList@VSingleOperationData@@@@AAEXPAUNode@1@00@Z 00455274     configfilehandler.obj
 0002:0003b288       __ehfuncinfo$?node_copy@?$QList@VSingleOperationData@@@@AAEXPAUNode@1@00@Z 00455288     configfilehandler.obj
 0002:0003b2ac       __unwindtable$?node_copy@?$QList@VSingleOperationData@@@@AAEXPAUNode@1@00@Z 004552ac     configfilehandler.obj
 0002:0003b2ec       __unwindtable$??$qMakePair@VQString@@V?$QList@VSingleOperationData@@@@@@YA?AU?$QPair@VQString@@V?$QList@VSingleOperationData@@@@@@ABVQString@@ABV?$QList@VSingleOperationData@@@@@Z 004552ec     configfilehandler.obj
 0002:0003b2f4       __ehfuncinfo$??$qMakePair@VQString@@V?$QList@VSingleOperationData@@@@@@YA?AU?$QPair@VQString@@V?$QList@VSingleOperationData@@@@@@ABVQString@@ABV?$QList@VSingleOperationData@@@@@Z 004552f4     configfilehandler.obj
 0002:0003b318       __unwindtable$??1?$QForeachContainer@V?$QList@PAVQObject@@@@@QtPrivate@@QAE@XZ 00455318     workmodels.obj
 0002:0003b318       __unwindtable$??1?$QForeachContainer@V?$QList@VOperationParamData@@@@@QtPrivate@@QAE@XZ 00455318     configfilehandler.obj
 0002:0003b320       __ehfuncinfo$??1?$QForeachContainer@V?$QList@PAVQObject@@@@@QtPrivate@@QAE@XZ 00455320     workmodels.obj
 0002:0003b320       __ehfuncinfo$??1?$QForeachContainer@V?$QList@VOperationParamData@@@@@QtPrivate@@QAE@XZ 00455320     configfilehandler.obj
 0002:0003b344       __catchsym$?createNode@?$QMapData@VQString@@VOperationParamData@@@@QAEPAU?$QMapNode@VQString@@VOperationParamData@@@@ABVQString@@ABVOperationParamData@@PAU2@_N@Z$7 00455344     configfilehandler.obj
 0002:0003b354       __catchsym$?createNode@?$QMapData@VQString@@VOperationParamData@@@@QAEPAU?$QMapNode@VQString@@VOperationParamData@@@@ABVQString@@ABVOperationParamData@@PAU2@_N@Z$6 00455354     configfilehandler.obj
 0002:0003b364       __ehfuncinfo$?createNode@?$QMapData@VQString@@VOperationParamData@@@@QAEPAU?$QMapNode@VQString@@VOperationParamData@@@@ABVQString@@ABVOperationParamData@@PAU2@_N@Z 00455364     configfilehandler.obj
 0002:0003b388       __tryblocktable$?createNode@?$QMapData@VQString@@VOperationParamData@@@@QAEPAU?$QMapNode@VQString@@VOperationParamData@@@@ABVQString@@ABVOperationParamData@@PAU2@_N@Z 00455388     configfilehandler.obj
 0002:0003b3b0       __unwindtable$?createNode@?$QMapData@VQString@@VOperationParamData@@@@QAEPAU?$QMapNode@VQString@@VOperationParamData@@@@ABVQString@@ABVOperationParamData@@PAU2@_N@Z 004553b0     configfilehandler.obj
 0002:0003b3d8       __catchsym$?createNode@?$QMapData@VQString@@VQStringList@@@@QAEPAU?$QMapNode@VQString@@VQStringList@@@@ABVQString@@ABVQStringList@@PAU2@_N@Z$8 004553d8     configfilehandler.obj
 0002:0003b3e8       __catchsym$?createNode@?$QMapData@VQString@@VQStringList@@@@QAEPAU?$QMapNode@VQString@@VQStringList@@@@ABVQString@@ABVQStringList@@PAU2@_N@Z$7 004553e8     configfilehandler.obj
 0002:0003b3f8       __ehfuncinfo$?createNode@?$QMapData@VQString@@VQStringList@@@@QAEPAU?$QMapNode@VQString@@VQStringList@@@@ABVQString@@ABVQStringList@@PAU2@_N@Z 004553f8     configfilehandler.obj
 0002:0003b41c       __tryblocktable$?createNode@?$QMapData@VQString@@VQStringList@@@@QAEPAU?$QMapNode@VQString@@VQStringList@@@@ABVQString@@ABVQStringList@@PAU2@_N@Z 0045541c     configfilehandler.obj
 0002:0003b444       __unwindtable$?createNode@?$QMapData@VQString@@VQStringList@@@@QAEPAU?$QMapNode@VQString@@VQStringList@@@@ABVQString@@ABVQStringList@@PAU2@_N@Z 00455444     configfilehandler.obj
 0002:0003b46c       __catchsym$??Y?$QList@VQString@@@@QAEAAV0@ABV0@@Z$14 0045546c     environmentvariant.obj
 0002:0003b47c       __unwindtable$??Y?$QList@VQString@@@@QAEAAV0@ABV0@@Z 0045547c     environmentvariant.obj
 0002:0003b48c       __tryblocktable$??Y?$QList@VQString@@@@QAEAAV0@ABV0@@Z 0045548c     environmentvariant.obj
 0002:0003b4a0       __ehfuncinfo$??Y?$QList@VQString@@@@QAEAAV0@ABV0@@Z 004554a0     environmentvariant.obj
 0002:0003b4c4       __catchsym$?detach_helper@?$QList@VQString@@@@AAEXH@Z$9 004554c4     environmentvariant.obj
 0002:0003b4d4       __unwindtable$?detach_helper@?$QList@VQString@@@@AAEXH@Z 004554d4     environmentvariant.obj
 0002:0003b4e4       __tryblocktable$?detach_helper@?$QList@VQString@@@@AAEXH@Z 004554e4     environmentvariant.obj
 0002:0003b4f8       __ehfuncinfo$?detach_helper@?$QList@VQString@@@@AAEXH@Z 004554f8     environmentvariant.obj
 0002:0003b51c       __catchsym$?detach_helper@?$QList@H@@AAEXH@Z$7 0045551c     environmentvariant.obj
 0002:0003b52c       __unwindtable$?detach_helper@?$QList@H@@AAEXH@Z 0045552c     environmentvariant.obj
 0002:0003b53c       __tryblocktable$?detach_helper@?$QList@H@@AAEXH@Z 0045553c     environmentvariant.obj
 0002:0003b550       __ehfuncinfo$?detach_helper@?$QList@H@@AAEXH@Z 00455550     environmentvariant.obj
 0002:0003b574       __catchsym$?detach_helper@?$QList@VOperationParamData@@@@AAEXH@Z$7 00455574     environmentvariant.obj
 0002:0003b584       __unwindtable$?detach_helper@?$QList@VOperationParamData@@@@AAEXH@Z 00455584     environmentvariant.obj
 0002:0003b594       __tryblocktable$?detach_helper@?$QList@VOperationParamData@@@@AAEXH@Z 00455594     environmentvariant.obj
 0002:0003b5a8       __ehfuncinfo$?detach_helper@?$QList@VOperationParamData@@@@AAEXH@Z 004555a8     environmentvariant.obj
 0002:0003b5cc       __unwindtable$??0SingleOperationData@@QAE@ABV0@@Z 004555cc     environmentvariant.obj
 0002:0003b5d4       __ehfuncinfo$??0SingleOperationData@@QAE@ABV0@@Z 004555d4     environmentvariant.obj
 0002:0003b5f8       __unwindtable$?instance@EnvironmentVariant@@SAPAV1@XZ 004555f8     environmentvariant.obj
 0002:0003b600       __ehfuncinfo$?instance@EnvironmentVariant@@SAPAV1@XZ 00455600     environmentvariant.obj
 0002:0003b624       __ehfuncinfo$?parseConfigFile@EnvironmentVariant@@QAEXABVQString@@@Z 00455624     environmentvariant.obj
 0002:0003b648       __unwindtable$?parseConfigFile@EnvironmentVariant@@QAEXABVQString@@@Z 00455648     environmentvariant.obj
 0002:0003b6e0       __unwindtable$?initProtocol@EnvironmentVariant@@QAEXABVQString@@@Z 004556e0     environmentvariant.obj
 0002:0003b6e8       __ehfuncinfo$?initProtocol@EnvironmentVariant@@QAEXABVQString@@@Z 004556e8     environmentvariant.obj
 0002:0003b70c       __unwindtable$?initUserConfig@EnvironmentVariant@@QAEXABVQString@@@Z 0045570c     environmentvariant.obj
 0002:0003b724       __ehfuncinfo$?initUserConfig@EnvironmentVariant@@QAEXABVQString@@@Z 00455724     environmentvariant.obj
 0002:0003b748       __unwindtable$?initModels@EnvironmentVariant@@QAEXPAVQQmlContext@@@Z 00455748     environmentvariant.obj
 0002:0003b760       __ehfuncinfo$?initModels@EnvironmentVariant@@QAEXPAVQQmlContext@@@Z 00455760     environmentvariant.obj
 0002:0003b784       __unwindtable$?getOperationParams@EnvironmentVariant@@QAE?AV?$QList@VOperationParamData@@@@H@Z 00455784     environmentvariant.obj
 0002:0003b79c       __ehfuncinfo$?getOperationParams@EnvironmentVariant@@QAE?AV?$QList@VOperationParamData@@@@H@Z 0045579c     environmentvariant.obj
 0002:0003b7c0       __unwindtable$?LogicalControlList@EnvironmentVariant@@QAE?AVQStringList@@XZ 004557c0     environmentvariant.obj
 0002:0003b7c0       __unwindtable$?OperationNameList@EnvironmentVariant@@QAE?AVQStringList@@XZ 004557c0     environmentvariant.obj
 0002:0003b7d8       __ehfuncinfo$?LogicalControlList@EnvironmentVariant@@QAE?AVQStringList@@XZ 004557d8     environmentvariant.obj
 0002:0003b7d8       __ehfuncinfo$?OperationNameList@EnvironmentVariant@@QAE?AVQStringList@@XZ 004557d8     environmentvariant.obj
 0002:0003b7fc       __unwindtable$?PlanList@EnvironmentVariant@@QAE?AVQStringList@@XZ 004557fc     environmentvariant.obj
 0002:0003b804       __ehfuncinfo$?PlanList@EnvironmentVariant@@QAE?AVQStringList@@XZ 00455804     environmentvariant.obj
 0002:0003b828       __unwindtable$?StepList@EnvironmentVariant@@QAE?AVQStringList@@H@Z 00455828     environmentvariant.obj
 0002:0003b840       __ehfuncinfo$?StepList@EnvironmentVariant@@QAE?AVQStringList@@H@Z 00455840     environmentvariant.obj
 0002:0003b864       __ehfuncinfo$?planStepParam@EnvironmentVariant@@QAE?AVSingleOperationData@@HH@Z 00455864     environmentvariant.obj
 0002:0003b888       __unwindtable$?planStepParam@EnvironmentVariant@@QAE?AVSingleOperationData@@HH@Z 00455888     environmentvariant.obj
 0002:0003b8c0       __unwindtable$?AddPlanStep@EnvironmentVariant@@QAEXHHH@Z 004558c0     environmentvariant.obj
 0002:0003b8e0       __ehfuncinfo$?AddPlanStep@EnvironmentVariant@@QAEXHHH@Z 004558e0     environmentvariant.obj
 0002:0003b904       __unwindtable$?SetPlanStepToDefault@EnvironmentVariant@@QAEXHHH@Z 00455904     environmentvariant.obj
 0002:0003b904       __unwindtable$?MovePlanStep@EnvironmentVariant@@QAEXHHH@Z 00455904     environmentvariant.obj
 0002:0003b90c       __ehfuncinfo$?MovePlanStep@EnvironmentVariant@@QAEXHHH@Z 0045590c     environmentvariant.obj
 0002:0003b90c       __ehfuncinfo$?SetPlanStepToDefault@EnvironmentVariant@@QAEXHHH@Z 0045590c     environmentvariant.obj
 0002:0003b930       __unwindtable$?AddPlan@EnvironmentVariant@@QAEXABVQString@@@Z 00455930     environmentvariant.obj
 0002:0003b950       __ehfuncinfo$?AddPlan@EnvironmentVariant@@QAEXABVQString@@@Z 00455950     environmentvariant.obj
 0002:0003b974       __unwindtable$?SavePlan@EnvironmentVariant@@QAEXXZ 00455974     environmentvariant.obj
 0002:0003b97c       __ehfuncinfo$?SavePlan@EnvironmentVariant@@QAEXXZ 0045597c     environmentvariant.obj
 0002:0003b9a0       __ehfuncinfo$?StartPlan@EnvironmentVariant@@QAEXHH@Z 004559a0     environmentvariant.obj
 0002:0003b9c4       __unwindtable$?StartPlan@EnvironmentVariant@@QAEXHH@Z 004559c4     environmentvariant.obj
 0002:0003bad4       __unwindtable$?SaveMachineConfig@EnvironmentVariant@@QAEXABVMachineConfigData@@@Z 00455ad4     environmentvariant.obj
 0002:0003badc       __ehfuncinfo$?SaveMachineConfig@EnvironmentVariant@@QAEXABVMachineConfigData@@@Z 00455adc     environmentvariant.obj
 0002:0003bb00       __ehfuncinfo$?formatSingleOperationParam@EnvironmentVariant@@QAE?AVQJsonObject@@ABVSingleOperationData@@@Z 00455b00     environmentvariant.obj
 0002:0003bb24       __unwindtable$?formatSingleOperationParam@EnvironmentVariant@@QAE?AVQJsonObject@@ABVSingleOperationData@@@Z 00455b24     environmentvariant.obj
 0002:0003bbe4       __unwindtable$?StartTunning@EnvironmentVariant@@QAEXABVSingleOperationData@@@Z 00455be4     environmentvariant.obj
 0002:0003bc04       __ehfuncinfo$?StartTunning@EnvironmentVariant@@QAEXABVSingleOperationData@@@Z 00455c04     environmentvariant.obj
 0002:0003bc28       __unwindtable$?defaultValue@EnvironmentVariant@@QAE?AVSingleOperationData@@ABVQString@@@Z 00455c28     environmentvariant.obj
 0002:0003bc48       __ehfuncinfo$?defaultValue@EnvironmentVariant@@QAE?AVSingleOperationData@@ABVQString@@@Z 00455c48     environmentvariant.obj
 0002:0003bc6c       __ehfuncinfo$??0EnvironmentVariant@@AAE@XZ 00455c6c     environmentvariant.obj
 0002:0003bc90       __unwindtable$??0EnvironmentVariant@@AAE@XZ 00455c90     environmentvariant.obj
 0002:0003bce8       __unwindtable$??1EnvironmentVariant@@EAE@XZ 00455ce8     environmentvariant.obj
 0002:0003bd00       __ehfuncinfo$??1EnvironmentVariant@@EAE@XZ 00455d00     environmentvariant.obj
 0002:0003bd24       __unwindtable$??A?$QMap@VQString@@VOperationParamData@@@@QAEAAVOperationParamData@@ABVQString@@@Z 00455d24     environmentvariant.obj
 0002:0003bd2c       __ehfuncinfo$??A?$QMap@VQString@@VOperationParamData@@@@QAEAAVOperationParamData@@ABVQString@@@Z 00455d2c     environmentvariant.obj
 0002:0003bd50       __catchsym$?detach_helper@?$QList@U?$QPair@VQString@@V?$QList@VSingleOperationData@@@@@@@@AAEXH@Z$7 00455d50     environmentvariant.obj
 0002:0003bd60       __unwindtable$?detach_helper@?$QList@U?$QPair@VQString@@V?$QList@VSingleOperationData@@@@@@@@AAEXH@Z 00455d60     environmentvariant.obj
 0002:0003bd70       __tryblocktable$?detach_helper@?$QList@U?$QPair@VQString@@V?$QList@VSingleOperationData@@@@@@@@AAEXH@Z 00455d70     environmentvariant.obj
 0002:0003bd84       __ehfuncinfo$?detach_helper@?$QList@U?$QPair@VQString@@V?$QList@VSingleOperationData@@@@@@@@AAEXH@Z 00455d84     environmentvariant.obj
 0002:0003bda8       __catchsym$?insert@?$QList@VSingleOperationData@@@@QAEXHABVSingleOperationData@@@Z$28 00455da8     environmentvariant.obj
 0002:0003bdb8       __catchsym$?insert@?$QList@VSingleOperationData@@@@QAEXHABVSingleOperationData@@@Z$27 00455db8     environmentvariant.obj
 0002:0003bdc8       __ehfuncinfo$?insert@?$QList@VSingleOperationData@@@@QAEXHABVSingleOperationData@@@Z 00455dc8     environmentvariant.obj
 0002:0003bdec       __tryblocktable$?insert@?$QList@VSingleOperationData@@@@QAEXHABVSingleOperationData@@@Z 00455dec     environmentvariant.obj
 0002:0003be14       __unwindtable$?insert@?$QList@VSingleOperationData@@@@QAEXHABVSingleOperationData@@@Z 00455e14     environmentvariant.obj
 0002:0003bea4       __catchsym$?detach_helper@?$QList@VSingleOperationData@@@@AAEXH@Z$7 00455ea4     environmentvariant.obj
 0002:0003beb4       __unwindtable$?detach_helper@?$QList@VSingleOperationData@@@@AAEXH@Z 00455eb4     environmentvariant.obj
 0002:0003bec4       __tryblocktable$?detach_helper@?$QList@VSingleOperationData@@@@AAEXH@Z 00455ec4     environmentvariant.obj
 0002:0003bed8       __ehfuncinfo$?detach_helper@?$QList@VSingleOperationData@@@@AAEXH@Z 00455ed8     environmentvariant.obj
 0002:0003befc       __unwindtable$?node_destruct@?$QList@VSingleOperationData@@@@AAEXPAUNode@1@@Z 00455efc     environmentvariant.obj
 0002:0003bf0c       __ehfuncinfo$?node_destruct@?$QList@VSingleOperationData@@@@AAEXPAUNode@1@@Z 00455f0c     environmentvariant.obj
 0002:0003bf30       __unwindtable$??H@YA?BVQString@@ABV0@0@Z 00455f30     main.obj
 0002:0003bf38       __ehfuncinfo$??H@YA?BVQString@@ABV0@0@Z 00455f38     main.obj
 0002:0003bf5c       __unwindtable$??H@YA?BVQString@@ABV0@PBD@Z 00455f5c     main.obj
 0002:0003bf6c       __ehfuncinfo$??H@YA?BVQString@@ABV0@PBD@Z 00455f6c     main.obj
 0002:0003bf90       __unwindtable$??1OperationParamSelector@@UAE@XZ 00455f90     main.obj
 0002:0003bfa0       __ehfuncinfo$??1OperationParamSelector@@UAE@XZ 00455fa0     main.obj
 0002:0003bfc4       __unwindtable$??1PlanSelector@@UAE@XZ 00455fc4     main.obj
 0002:0003bfd4       __ehfuncinfo$??1PlanSelector@@UAE@XZ 00455fd4     main.obj
 0002:0003bff8       __unwindtable$?validate@TextFieldDoubleValidator@@UBE?AW4State@QValidator@@AAVQString@@AAH@Z 00455ff8     main.obj
 0002:0003c010       __ehfuncinfo$?validate@TextFieldDoubleValidator@@UBE?AW4State@QValidator@@AAVQString@@AAH@Z 00456010     main.obj
 0002:0003c034       __ehfuncinfo$?customMessageHandler@@YAXW4QtMsgType@@ABVQMessageLogContext@@ABVQString@@@Z 00456034     main.obj
 0002:0003c058       __unwindtable$?customMessageHandler@@YAXW4QtMsgType@@ABVQMessageLogContext@@ABVQString@@@Z 00456058     main.obj
 0002:0003c0f8       __unwindtable$?getConfigFullName@@YA?AVQString@@PBD@Z 004560f8     main.obj
 0002:0003c100       __ehfuncinfo$?getConfigFullName@@YA?AVQString@@PBD@Z 00456100     main.obj
 0002:0003c124       __ehfuncinfo$_main         00456124     main.obj
 0002:0003c148       __unwindtable$_main        00456148     main.obj
 0002:0003c1e0       __ehfuncinfo$??$qmlRegisterType@VOperationParamObject@@@@YAHPBDHH0@Z 004561e0     main.obj
 0002:0003c1e0       __ehfuncinfo$??$qmlRegisterType@VTextFieldDoubleValidator@@@@YAHPBDHH0@Z 004561e0     main.obj
 0002:0003c1e0       __ehfuncinfo$??$qmlRegisterType@VPlanController@@@@YAHPBDHH0@Z 004561e0     main.obj
 0002:0003c1e0       __ehfuncinfo$??$qmlRegisterType@VStatusViewWatcher@@@@YAHPBDHH0@Z 004561e0     main.obj
 0002:0003c1e0       __ehfuncinfo$??$qmlRegisterType@VPlanSelector@@@@YAHPBDHH0@Z 004561e0     main.obj
 0002:0003c1e0       __ehfuncinfo$??$qmlRegisterType@VOperationParamSelector@@@@YAHPBDHH0@Z 004561e0     main.obj
 0002:0003c204       __unwindtable$??$qmlRegisterType@VOperationParamObject@@@@YAHPBDHH0@Z 00456204     main.obj
 0002:0003c204       __unwindtable$??$qmlRegisterType@VPlanSelector@@@@YAHPBDHH0@Z 00456204     main.obj
 0002:0003c204       __unwindtable$??$qmlRegisterType@VPlanController@@@@YAHPBDHH0@Z 00456204     main.obj
 0002:0003c204       __unwindtable$??$qmlRegisterType@VStatusViewWatcher@@@@YAHPBDHH0@Z 00456204     main.obj
 0002:0003c204       __unwindtable$??$qmlRegisterType@VTextFieldDoubleValidator@@@@YAHPBDHH0@Z 00456204     main.obj
 0002:0003c204       __unwindtable$??$qmlRegisterType@VOperationParamSelector@@@@YAHPBDHH0@Z 00456204     main.obj
 0002:0003c22c       __unwindtable$?qt_metatype_id@?$QMetaTypeIdQObject@PAVPlanController@@$07@@SAHXZ 0045622c     main.obj
 0002:0003c22c       __unwindtable$?qt_metatype_id@?$QMetaTypeIdQObject@PAVTextFieldDoubleValidator@@$07@@SAHXZ 0045622c     main.obj
 0002:0003c22c       __unwindtable$?qt_metatype_id@?$QMetaTypeIdQObject@PAVStatusViewWatcher@@$07@@SAHXZ 0045622c     main.obj
 0002:0003c22c       __unwindtable$?qt_metatype_id@?$QMetaTypeIdQObject@PAVPlanSelector@@$07@@SAHXZ 0045622c     main.obj
 0002:0003c22c       __unwindtable$?qt_metatype_id@?$QMetaTypeIdQObject@PAVOperationParamSelector@@$07@@SAHXZ 0045622c     main.obj
 0002:0003c22c       __unwindtable$?qt_metatype_id@?$QMetaTypeIdQObject@PAVOperationParamObject@@$07@@SAHXZ 0045622c     main.obj
 0002:0003c234       __ehfuncinfo$?qt_metatype_id@?$QMetaTypeIdQObject@PAVStatusViewWatcher@@$07@@SAHXZ 00456234     main.obj
 0002:0003c234       __ehfuncinfo$?qt_metatype_id@?$QMetaTypeIdQObject@PAVPlanSelector@@$07@@SAHXZ 00456234     main.obj
 0002:0003c234       __ehfuncinfo$?qt_metatype_id@?$QMetaTypeIdQObject@PAVOperationParamSelector@@$07@@SAHXZ 00456234     main.obj
 0002:0003c234       __ehfuncinfo$?qt_metatype_id@?$QMetaTypeIdQObject@PAVOperationParamObject@@$07@@SAHXZ 00456234     main.obj
 0002:0003c234       __ehfuncinfo$?qt_metatype_id@?$QMetaTypeIdQObject@PAVPlanController@@$07@@SAHXZ 00456234     main.obj
 0002:0003c234       __ehfuncinfo$?qt_metatype_id@?$QMetaTypeIdQObject@PAVTextFieldDoubleValidator@@$07@@SAHXZ 00456234     main.obj
 0002:0003c258       __unwindtable$??$createInto@VTextFieldDoubleValidator@@@QQmlPrivate@@YAXPAX@Z 00456258     main.obj
 0002:0003c258       __unwindtable$??$createInto@VStatusViewWatcher@@@QQmlPrivate@@YAXPAX@Z 00456258     main.obj
 0002:0003c258       __unwindtable$??$createInto@VPlanSelector@@@QQmlPrivate@@YAXPAX@Z 00456258     main.obj
 0002:0003c258       __unwindtable$??$createInto@VPlanController@@@QQmlPrivate@@YAXPAX@Z 00456258     main.obj
 0002:0003c258       __unwindtable$??$createInto@VOperationParamObject@@@QQmlPrivate@@YAXPAX@Z 00456258     main.obj
 0002:0003c258       __unwindtable$??$createInto@VOperationParamSelector@@@QQmlPrivate@@YAXPAX@Z 00456258     main.obj
 0002:0003c260       __ehfuncinfo$??$createInto@VTextFieldDoubleValidator@@@QQmlPrivate@@YAXPAX@Z 00456260     main.obj
 0002:0003c260       __ehfuncinfo$??$createInto@VOperationParamObject@@@QQmlPrivate@@YAXPAX@Z 00456260     main.obj
 0002:0003c260       __ehfuncinfo$??$createInto@VPlanSelector@@@QQmlPrivate@@YAXPAX@Z 00456260     main.obj
 0002:0003c260       __ehfuncinfo$??$createInto@VOperationParamSelector@@@QQmlPrivate@@YAXPAX@Z 00456260     main.obj
 0002:0003c260       __ehfuncinfo$??$createInto@VPlanController@@@QQmlPrivate@@YAXPAX@Z 00456260     main.obj
 0002:0003c260       __ehfuncinfo$??$createInto@VStatusViewWatcher@@@QQmlPrivate@@YAXPAX@Z 00456260     main.obj
 0002:0003c284       __unwindtable$??1SingleOperationData@@QAE@XZ 00456284     configfilehandler.obj
 0002:0003c284       __unwindtable$??_GPlanController@@UAEPAXI@Z 00456284     workmodels.obj
 0002:0003c284       __unwindtable$??_GSingleOperationData@@QAEPAXI@Z 00456284     configfilehandler.obj
 0002:0003c284       __unwindtable$??_G?$QQmlElement@VTextFieldDoubleValidator@@@QQmlPrivate@@UAEPAXI@Z 00456284     main.obj
 0002:0003c284       __unwindtable$??1OperationParamData@@QAE@XZ 00456284     configfilehandler.obj
 0002:0003c284       __unwindtable$??_G?$QQmlElement@VOperationParamObject@@@QQmlPrivate@@UAEPAXI@Z 00456284     main.obj
 0002:0003c284       __unwindtable$??1?$QForeachContainer@V?$QList@VSingleOperationData@@@@@QtPrivate@@QAE@XZ 00456284     environmentvariant.obj
 0002:0003c284       __unwindtable$??_G?$QQmlElement@VOperationParamSelector@@@QQmlPrivate@@UAEPAXI@Z 00456284     main.obj
 0002:0003c284       __unwindtable$??_G?$QQmlElement@VPlanController@@@QQmlPrivate@@UAEPAXI@Z 00456284     main.obj
 0002:0003c284       __unwindtable$??_G?$QQmlElement@VPlanSelector@@@QQmlPrivate@@UAEPAXI@Z 00456284     main.obj
 0002:0003c284       __unwindtable$??_G?$QQmlElement@VStatusViewWatcher@@@QQmlPrivate@@UAEPAXI@Z 00456284     main.obj
 0002:0003c28c       __ehfuncinfo$??_G?$QQmlElement@VStatusViewWatcher@@@QQmlPrivate@@UAEPAXI@Z 0045628c     main.obj
 0002:0003c28c       __ehfuncinfo$??_G?$QQmlElement@VPlanController@@@QQmlPrivate@@UAEPAXI@Z 0045628c     main.obj
 0002:0003c28c       __ehfuncinfo$??_G?$QQmlElement@VPlanSelector@@@QQmlPrivate@@UAEPAXI@Z 0045628c     main.obj
 0002:0003c28c       __ehfuncinfo$??1?$QForeachContainer@V?$QList@VSingleOperationData@@@@@QtPrivate@@QAE@XZ 0045628c     environmentvariant.obj
 0002:0003c28c       __ehfuncinfo$??_G?$QQmlElement@VOperationParamSelector@@@QQmlPrivate@@UAEPAXI@Z 0045628c     main.obj
 0002:0003c28c       __ehfuncinfo$??1OperationParamData@@QAE@XZ 0045628c     configfilehandler.obj
 0002:0003c28c       __ehfuncinfo$??_G?$QQmlElement@VOperationParamObject@@@QQmlPrivate@@UAEPAXI@Z 0045628c     main.obj
 0002:0003c28c       __ehfuncinfo$??1SingleOperationData@@QAE@XZ 0045628c     configfilehandler.obj
 0002:0003c28c       __ehfuncinfo$??_GPlanController@@UAEPAXI@Z 0045628c     workmodels.obj
 0002:0003c28c       __ehfuncinfo$??_GSingleOperationData@@QAEPAXI@Z 0045628c     configfilehandler.obj
 0002:0003c28c       __ehfuncinfo$??_G?$QQmlElement@VTextFieldDoubleValidator@@@QQmlPrivate@@UAEPAXI@Z 0045628c     main.obj
 0002:0003c2b0       __ehfuncinfo$?setSelectedOperation@OperationParamSelector@@QAEXH@Z 004562b0     workmodels.obj
 0002:0003c2d4       __unwindtable$?setSelectedOperation@OperationParamSelector@@QAEXH@Z 004562d4     workmodels.obj
 0002:0003c33c       __ehfuncinfo$?onCompleteSingleOperation@OperationParamSelector@@QAEXXZ 0045633c     workmodels.obj
 0002:0003c360       __unwindtable$?onCompleteSingleOperation@OperationParamSelector@@QAEXXZ 00456360     workmodels.obj
 0002:0003c3a0       __unwindtable$??0PlanSelector@@QAE@PAVQObject@@@Z 004563a0     workmodels.obj
 0002:0003c3c0       __ehfuncinfo$??0PlanSelector@@QAE@PAVQObject@@@Z 004563c0     workmodels.obj
 0002:0003c3e4       __ehfuncinfo$?setSelectedStep@PlanSelector@@QAEXHH@Z 004563e4     workmodels.obj
 0002:0003c408       __unwindtable$?setSelectedStep@PlanSelector@@QAEXHH@Z 00456408     workmodels.obj
 0002:0003c470       __ehfuncinfo$?setSelectedOperation@PlanSelector@@QAEXHHH@Z 00456470     workmodels.obj
 0002:0003c494       __unwindtable$?setSelectedOperation@PlanSelector@@QAEXHHH@Z 00456494     workmodels.obj
 0002:0003c51c       __unwindtable$?getSwitch@PlanSelector@@QAEPAVQObject@@ABVQString@@@Z 0045651c     workmodels.obj
 0002:0003c51c       __unwindtable$?getSwitch@OperationParamSelector@@QAEPAVQObject@@ABVQString@@@Z 0045651c     workmodels.obj
 0002:0003c534       __ehfuncinfo$?getSwitch@OperationParamSelector@@QAEPAVQObject@@ABVQString@@@Z 00456534     workmodels.obj
 0002:0003c534       __ehfuncinfo$?getSwitch@PlanSelector@@QAEPAVQObject@@ABVQString@@@Z 00456534     workmodels.obj
 0002:0003c558       __unwindtable$??0StatusViewWatcher@@QAE@PAVQObject@@@Z 00456558     workmodels.obj
 0002:0003c558       __unwindtable$??0PlanController@@QAE@PAVQObject@@@Z 00456558     workmodels.obj
 0002:0003c558       __unwindtable$??0configFileHandler@@QAE@PAVQObject@@@Z 00456558     configfilehandler.obj
 0002:0003c560       __ehfuncinfo$??0StatusViewWatcher@@QAE@PAVQObject@@@Z 00456560     workmodels.obj
 0002:0003c560       __ehfuncinfo$??0PlanController@@QAE@PAVQObject@@@Z 00456560     workmodels.obj
 0002:0003c560       __ehfuncinfo$??0configFileHandler@@QAE@PAVQObject@@@Z 00456560     configfilehandler.obj
 0002:0003c584       __ehfuncinfo$??1?$QList@VQString@@@@QAE@XZ 00456584     workflowprotocol.obj
 0002:0003c584       __ehfuncinfo$??1?$QList@PAVQObject@@@@QAE@XZ 00456584     workmodels.obj
 0002:0003c584       __ehfuncinfo$??1?$QMap@VQString@@VQStringList@@@@QAE@XZ 00456584     configfilehandler.obj
 0002:0003c584       __ehfuncinfo$??1PlanController@@UAE@XZ 00456584     workmodels.obj
 0002:0003c584       __ehfuncinfo$??1?$QMap@VQString@@V1@@@QAE@XZ 00456584     configfilehandler.obj
 0002:0003c584       __ehfuncinfo$??1?$QList@VOperationParamData@@@@QAE@XZ 00456584     environmentvariant.obj
 0002:0003c584       __ehfuncinfo$??1?$QMap@VQString@@VOperationParamData@@@@QAE@XZ 00456584     configfilehandler.obj
 0002:0003c584       __ehfuncinfo$??1?$QList@H@@QAE@XZ 00456584     configfilehandler.obj
 0002:0003c584       __ehfuncinfo$??1StatusViewWatcher@@UAE@XZ 00456584     workmodels.obj
 0002:0003c584       __ehfuncinfo$??1?$QList@U?$QPair@VQString@@V?$QList@VSingleOperationData@@@@@@@@QAE@XZ 00456584     environmentvariant.obj
 0002:0003c584       __ehfuncinfo$??1?$QList@VSingleOperationData@@@@QAE@XZ 00456584     configfilehandler.obj
 0002:0003c584       __ehfuncinfo$??1WorkflowController@@UAE@XZ 00456584     workflowprotocol.obj
 0002:0003c5a8       __unwindtable$??_GStatusViewWatcher@@UAEPAXI@Z 004565a8     workmodels.obj
 0002:0003c5b0       __ehfuncinfo$??_GStatusViewWatcher@@UAEPAXI@Z 004565b0     workmodels.obj
 0002:0003c5d4       __unwindtable$?onMachineConfigChanged@TargetMachineObject@@QAEXXZ 004565d4     workmodels.obj
 0002:0003c5dc       __ehfuncinfo$?onMachineConfigChanged@TargetMachineObject@@QAEXXZ 004565dc     workmodels.obj
 0002:0003c600       __unwindtable$?qt_metatype_id@?$QMetaTypeId@V?$QList@PAVQObject@@@@@@SAHXZ 00456600     moc_workmodels.obj
 0002:0003c600       __unwindtable$?qt_metatype_id@?$QMetaTypeId@VQSequentialIterableImpl@QtMetaTypePrivate@@@@SAHXZ 00456600     moc_workmodels.obj
 0002:0003c608       __ehfuncinfo$?qt_metatype_id@?$QMetaTypeId@V?$QList@PAVQObject@@@@@@SAHXZ 00456608     moc_workmodels.obj
 0002:0003c608       __ehfuncinfo$?qt_metatype_id@?$QMetaTypeId@VQSequentialIterableImpl@QtMetaTypePrivate@@@@SAHXZ 00456608     moc_workmodels.obj
 0002:0003c62c       __unwindtable$?clear@?$QList@UloopControl@SubThreadWorker@@@@QAEXXZ 0045662c     workflowprotocol.obj
 0002:0003c62c       __unwindtable$?setIntListValue@OperationParamObject@@QAEXABV?$QList@H@@@Z 0045662c     moc_workmodels.obj
 0002:0003c62c       __unwindtable$?setParamModel@OperationParamSelector@@QAEXABV?$QList@PAVQObject@@@@@Z 0045662c     moc_workmodels.obj
 0002:0003c62c       __unwindtable$?setParamListModel@PlanSelector@@QAEXABV?$QList@PAVQObject@@@@@Z 0045662c     moc_workmodels.obj
 0002:0003c62c       __unwindtable$??4OperationParamData@@QAEAAV0@ABV0@@Z 0045662c     configfilehandler.obj
 0002:0003c634       __ehfuncinfo$?setParamListModel@PlanSelector@@QAEXABV?$QList@PAVQObject@@@@@Z 00456634     moc_workmodels.obj
 0002:0003c634       __ehfuncinfo$?clear@?$QList@UloopControl@SubThreadWorker@@@@QAEXXZ 00456634     workflowprotocol.obj
 0002:0003c634       __ehfuncinfo$?setIntListValue@OperationParamObject@@QAEXABV?$QList@H@@@Z 00456634     moc_workmodels.obj
 0002:0003c634       __ehfuncinfo$?setParamModel@OperationParamSelector@@QAEXABV?$QList@PAVQObject@@@@@Z 00456634     moc_workmodels.obj
 0002:0003c634       __ehfuncinfo$??4OperationParamData@@QAEAAV0@ABV0@@Z 00456634     configfilehandler.obj
 0002:0003c658       __unwindtable$?qt_metatype_id@?$QMetaTypeId@V?$QList@H@@@@SAHXZ 00456658     moc_workmodels.obj
 0002:0003c660       __ehfuncinfo$?qt_metatype_id@?$QMetaTypeId@V?$QList@H@@@@SAHXZ 00456660     moc_workmodels.obj
 0002:0003c684       __unwindtable$??__Ff@?4??registerConverter@?$ValueTypeIsMetaType@V?$QList@PAVQObject@@@@$00@QtPrivate@@SA_NH@Z@YAXXZ 00456684     moc_workmodels.obj
 0002:0003c684       __unwindtable$??__Ff@?4??registerConverter@?$ValueTypeIsMetaType@V?$QList@H@@$00@QtPrivate@@SA_NH@Z@YAXXZ 00456684     moc_workmodels.obj
 0002:0003c684       __unwindtable$??__Fdummy@?A0x60b45615@@YAXXZ 00456684     qrc_qml.obj
 0002:0003c684       __unwindtable$?Destruct@?$QMetaTypeFunctionHelper@V?$QList@PAVQObject@@@@$00@QtMetaTypePrivate@@SAXPAX@Z 00456684     moc_workmodels.obj
 0002:0003c684       __unwindtable$?Destruct@?$QMetaTypeFunctionHelper@V?$QList@H@@$00@QtMetaTypePrivate@@SAXPAX@Z 00456684     moc_workmodels.obj
 0002:0003c68c       __ehfuncinfo$??__Ff@?4??registerConverter@?$ValueTypeIsMetaType@V?$QList@PAVQObject@@@@$00@QtPrivate@@SA_NH@Z@YAXXZ 0045668c     moc_workmodels.obj
 0002:0003c68c       __ehfuncinfo$?Destruct@?$QMetaTypeFunctionHelper@V?$QList@H@@$00@QtMetaTypePrivate@@SAXPAX@Z 0045668c     moc_workmodels.obj
 0002:0003c68c       __ehfuncinfo$??__Ff@?4??registerConverter@?$ValueTypeIsMetaType@V?$QList@H@@$00@QtPrivate@@SA_NH@Z@YAXXZ 0045668c     moc_workmodels.obj
 0002:0003c68c       __ehfuncinfo$??__Fdummy@?A0x60b45615@@YAXXZ 0045668c     qrc_qml.obj
 0002:0003c68c       __ehfuncinfo$?Destruct@?$QMetaTypeFunctionHelper@V?$QList@PAVQObject@@@@$00@QtMetaTypePrivate@@SAXPAX@Z 0045668c     moc_workmodels.obj
 0002:0003c6b0       __unwindtable$?Construct@?$QMetaTypeFunctionHelper@V?$QList@H@@$00@QtMetaTypePrivate@@SAPAXPAXPBX@Z 004566b0     moc_workmodels.obj
 0002:0003c6b0       __unwindtable$?Construct@?$QMetaTypeFunctionHelper@V?$QList@PAVQObject@@@@$00@QtMetaTypePrivate@@SAPAXPAXPBX@Z 004566b0     moc_workmodels.obj
 0002:0003c6b8       __ehfuncinfo$?Construct@?$QMetaTypeFunctionHelper@V?$QList@H@@$00@QtMetaTypePrivate@@SAPAXPAXPBX@Z 004566b8     moc_workmodels.obj
 0002:0003c6b8       __ehfuncinfo$?Construct@?$QMetaTypeFunctionHelper@V?$QList@PAVQObject@@@@$00@QtMetaTypePrivate@@SAPAXPAXPBX@Z 004566b8     moc_workmodels.obj
 0002:0003c6e0       __sehtable$___scrt_is_nonwritable_in_current_image 004566e0     MSVCRT:utility.obj
 0002:0003c700       __sehtable$?__scrt_common_main_seh@@YAHXZ 00456700     MSVCRT:exe_winmain.obj
 0002:0003ce00       .idata$6                   00456e00     DbgHelp:dbghelp.dll
 0002:0003cf04       .idata$6                   00456f04     Qt5Quick:Qt5Quick.dll
 0002:0003d25c       .idata$6                   0045725c     Qt5Gui:Qt5Gui.dll
 0002:0003d3b8       .idata$6                   004573b8     Qt5Qml:Qt5Qml.dll
 0002:0003d4ca       .idata$6                   004574ca     Qt5Network:Qt5Network.dll
 0002:0003f44e       .idata$6                   0045944e     Qt5Core:Qt5Core.dll
 0002:0003f640       .idata$6                   00459640     kernel32:KERNEL32.dll
 0002:0003f724       .idata$6                   00459724     vcruntime:VCRUNTIME140.dll
 0002:0003f904       .idata$6                   00459904     ucrt:api-ms-win-crt-heap-l1-1-0.dll
 0002:0003f924       .idata$6                   00459924     ucrt:api-ms-win-crt-runtime-l1-1-0.dll
 0002:0003f946       .idata$6                   00459946     ucrt:api-ms-win-crt-math-l1-1-0.dll
 0002:0003f966       .idata$6                   00459966     ucrt:api-ms-win-crt-stdio-l1-1-0.dll
 0002:0003f986       .idata$6                   00459986     ucrt:api-ms-win-crt-locale-l1-1-0.dll
 0002:0003f9be       .idata$6                   004599be     shell32:SHELL32.dll
 0003:00000624       ?_Tss_mutex@@3U_RTL_CRITICAL_SECTION@@A 0045a624     MSVCRT:thread_safe_statics.obj
 0003:0000063c       ?_Tss_cv@@3U_RTL_CONDITION_VARIABLE@@A 0045a63c     MSVCRT:thread_safe_statics.obj
 0003:00000640       ?_Tss_event@@3PAXA         0045a640     MSVCRT:thread_safe_statics.obj
 0003:00000644       ?encoded_sleep_condition_variable_cs@@3P6GHPAU_RTL_CONDITION_VARIABLE@@PAU_RTL_CRITICAL_SECTION@@K@ZA 0045a644     MSVCRT:thread_safe_statics.obj
 0003:00000648       ?encoded_wake_all_condition_variable@@3P6GXPAU_RTL_CONDITION_VARIABLE@@@ZA 0045a648     MSVCRT:thread_safe_statics.obj
 0003:00000658       ?module_local_atexit_table@@3U_onexit_table_t@@A 0045a658     MSVCRT:utility.obj
 0003:00000664       ?module_local_at_quick_exit_table@@3U_onexit_table_t@@A 0045a664     MSVCRT:utility.obj
 0003:00000670       ?is_initialized_as_dll@@3_NA 0045a670     MSVCRT:utility.obj
 0003:00000678       _GS_ExceptionRecord        0045a678     MSVCRT:gs_report.obj
 0003:000006c8       _GS_ContextRecord          0045a6c8     MSVCRT:gs_report.obj
 0005:00000000       __guard_fids__             0045c000     MSVCRT:thread_safe_statics.obj
 0005:00000004       __guard_fids_?__scrt_initialize_thread_safe_statics@@YAHXZ 0045c004     MSVCRT:thread_safe_statics.obj
 0005:00000008       __guard_fids__             0045c008     MSVCRT:std_type_info_static.obj
 0005:0000000c       __guard_fids__             0045c00c     MSVCRT:exe_winmain.obj
 0005:00000010       __guard_fids__             0045c010     MSVCRT:exe_winmain.obj
 0005:00000014       __guard_fids__             0045c014     MSVCRT:exe_winmain.obj
 0005:00000018       __guard_fids_?pre_c_initialization@@YAHXZ 0045c018     MSVCRT:exe_winmain.obj
 0005:00000020       __guard_fids__             0045c020     MSVCRT:throw_bad_alloc.obj
 0005:00000028       __guard_fids__             0045c028     MSVCRT:throw_bad_alloc.obj
 0005:00000030       __guard_fids__             0045c030     MSVCRT:throw_bad_alloc.obj
 0005:00000038       __guard_fids__             0045c038     MSVCRT:throw_bad_alloc.obj
 0005:0000003c       __guard_fids__             0045c03c     MSVCRT:throw_bad_alloc.obj
 0005:00000040       __guard_fids__             0045c040     MSVCRT:throw_bad_alloc.obj
 0005:00000044       __guard_fids__             0045c044     MSVCRT:throw_bad_alloc.obj
 0005:00000048       __guard_fids__             0045c048     MSVCRT:throw_bad_alloc.obj
 0005:0000004c       __guard_fids____scrt_set_unhandled_exception_filter 0045c04c     MSVCRT:utility_desktop.obj
 0005:00000050       __guard_fids___except_handler4 0045c050     MSVCRT:_chandler4gs_.obj
 0005:00000054       __guard_fids__             0045c054     MSVCRT:guard_support.obj
 0006:00000060       $R000000                   0045d060     * linker generated manifest res *
