 MindGoTool_AllInOne

 Timestamp is 596a2d23 (Sat Jul 15 22:56:35 2017)

 Preferred load address is 00400000

 Start         Length     Name                   Class
 0001:00000000 00000110H .text$di                CODE
 0001:00000110 0001cd40H .text$mn                CODE
 0001:0001ce50 00003ae0H .text$x                 CODE
 0001:00020930 000000fdH .text$yd                CODE
 0002:00000000 00000580H .idata$5                DATA
 0002:00000580 00000004H .00cfg                  DATA
 0002:00000584 00000004H .CRT$XCA                DATA
 0002:00000588 00000004H .CRT$XCAA               DATA
 0002:0000058c 0000003cH .CRT$XCU                DATA
 0002:000005c8 00000004H .CRT$XCZ                DATA
 0002:000005cc 00000004H .CRT$XIA                DATA
 0002:000005d0 00000004H .CRT$XIAA               DATA
 0002:000005d4 00000004H .CRT$XIAC               DATA
 0002:000005d8 00000004H .CRT$XIC                DATA
 0002:000005dc 00000004H .CRT$XIZ                DATA
 0002:000005e0 00000004H .CRT$XLA                DATA
 0002:000005e4 00000004H .CRT$XLZ                DATA
 0002:000005e8 00000004H .CRT$XPA                DATA
 0002:000005ec 00000004H .CRT$XPZ                DATA
 0002:000005f0 00000004H .CRT$XTA                DATA
 0002:000005f4 0000000cH .CRT$XTZ                DATA
 0002:00000600 0004e714H .rdata                  DATA
 0002:0004ed14 00000018H .rdata$T                DATA
 0002:0004ed2c 000009a4H .rdata$r                DATA
 0002:0004f6d0 00000254H .rdata$sxdata           DATA
 0002:0004f924 000003ccH .rdata$zzzdbg           DATA
 0002:0004fcf0 00000004H .rtc$IAA                DATA
 0002:0004fcf4 00000004H .rtc$IZZ                DATA
 0002:0004fcf8 00000004H .rtc$TAA                DATA
 0002:0004fcfc 00000004H .rtc$TZZ                DATA
 0002:0004fd00 000043f4H .xdata$x                DATA
 0002:000540f4 00000000H .edata                  DATA
 0002:000540f4 00000118H .idata$2                DATA
 0002:0005420c 00000014H .idata$3                DATA
 0002:00054220 00000580H .idata$4                DATA
 0002:000547a0 00002ff8H .idata$6                DATA
 0003:00000000 00000178H .data                   DATA
 0003:00000178 00000508H .data$r                 DATA
 0003:00000680 00000420H .bss                    DATA
 0004:00000000 00000004H .tls                    DATA
 0004:00000004 00000004H .tls$                   DATA
 0004:00000008 00000001H .tls$ZZZ                DATA
 0005:00000000 00000058H .gfids$y                DATA
 0006:00000000 00000060H .rsrc$01                DATA
 0006:00000060 00000290H .rsrc$02                DATA

  Address         Publics by Value              Rva+Base       Lib:Object

 0000:00000000       ___guard_iat_table         00000000     <absolute>
 0000:00000000       ___guard_longjmp_count     00000000     <absolute>
 0000:00000000       ___guard_longjmp_table     00000000     <absolute>
 0000:00000000       ___guard_fids_table        00000000     <absolute>
 0000:00000000       ___guard_iat_count         00000000     <absolute>
 0000:00000000       ___guard_fids_count        00000000     <absolute>
 0000:00000000       ___dynamic_value_reloc_table 00000000     <absolute>
 0000:0000002c       __tls_array                0000002c     <absolute>
 0000:00000095       ___safe_se_handler_count   00000095     <absolute>
 0000:00000100       ___guard_flags             00000100     <absolute>
 0000:00000000       ___ImageBase               00400000     <linker-defined>
 0001:00000110       ??0Communication@@QAE@XZ   00401110 f   communication.obj
 0001:00000130       ?connectToServer@Communication@@QAE_NABVQString@@G@Z 00401130 f   communication.obj
 0001:00000250       ?disconnect@Communication@@QAEXXZ 00401250 f   communication.obj
 0001:00000270       ?readData@Communication@@QAE?AVQByteArray@@H@Z 00401270 f   communication.obj
 0001:000002f0       ?write@Communication@@QAE_JABVQByteArray@@@Z 004012f0 f   communication.obj
 0001:00000340       ??$connect@P8QThread@@AEXUQPrivateSignal@1@@ZP8QObject@@AEXXZ@QObject@@SA?AVConnection@QMetaObject@@PBVQThread@@P83@AEXUQPrivateSignal@3@@ZPBV0@P80@AEXXZW4ConnectionType@Qt@@@Z 00401340 f i workflowprotocol.obj
 0001:000003a0       ??$connect@P8SubThreadWorker@@AEXABVQJsonObject@@@ZP8WorkflowController@@AEX0@Z@QObject@@SA?AVConnection@QMetaObject@@PBVSubThreadWorker@@P83@AEXABVQJsonObject@@@ZPBVWorkflowController@@P85@AEX1@ZW4ConnectionType@Qt@@@Z 004013a0 f i workflowprotocol.obj
 0001:00000410       ??$connect@P8SubThreadWorker@@AEX_NH@ZP8WorkflowController@@AEX0H@Z@QObject@@SA?AVConnection@QMetaObject@@PBVSubThreadWorker@@P83@AEX_NH@ZPBVWorkflowController@@P84@AEX1H@ZW4ConnectionType@Qt@@@Z 00401410 f i workflowprotocol.obj
 0001:00000480       ??$connect@P8WorkflowController@@AEXABVQJsonObject@@@ZP8SubThreadWorker@@AEX0@Z@QObject@@SA?AVConnection@QMetaObject@@PBVWorkflowController@@P83@AEXABVQJsonObject@@@ZPBVSubThreadWorker@@P85@AEX1@ZW4ConnectionType@Qt@@@Z 00401480 f i workflowprotocol.obj
 0001:000004f0       ??$connect@P8WorkflowController@@AEXABVQString@@@ZP8SubThreadWorker@@AEX0@Z@QObject@@SA?AVConnection@QMetaObject@@PBVWorkflowController@@P83@AEXABVQString@@@ZPBVSubThreadWorker@@P85@AEX1@ZW4ConnectionType@Qt@@@Z 004014f0 f i workflowprotocol.obj
 0001:00000560       ??$connect@P8WorkflowController@@AEXABVQString@@G@ZP8SubThreadWorker@@AEX0G@Z@QObject@@SA?AVConnection@QMetaObject@@PBVWorkflowController@@P83@AEXABVQString@@G@ZPBVSubThreadWorker@@P85@AEX1G@ZW4ConnectionType@Qt@@@Z 00401560 f i workflowprotocol.obj
 0001:000005d0       ??$connect@P8WorkflowController@@AEXXZP8SubThreadWorker@@AEXXZ@QObject@@SA?AVConnection@QMetaObject@@PBVWorkflowController@@P83@AEXXZPBVSubThreadWorker@@P84@AEXXZW4ConnectionType@Qt@@@Z 004015d0 f i workflowprotocol.obj
 0001:00000630       ??$formatWord@E@WorkflowProtocol@@IAE?AVQByteArray@@E@Z 00401630 f i workflowprotocol.obj
 0001:00000660       ??$formatWord@G@WorkflowProtocol@@IAE?AVQByteArray@@G@Z 00401660 f i workflowprotocol.obj
 0001:00000690       ??0?$QList@VQString@@@@QAE@ABV0@@Z 00401690 f i workflowprotocol.obj
 0001:00000740       ??0WorkflowController@@QAE@PAVQObject@@@Z 00401740 f   workflowprotocol.obj
 0001:00000930       ??1?$QForeachContainer@VQStringList@@@@QAE@XZ 00401930 f i workflowprotocol.obj
 0001:00000930       ??1QStringList@@QAE@XZ     00401930 f i workflowprotocol.obj
 0001:00000930       ??1?$QForeachContainer@$$CBVQStringList@@@@QAE@XZ 00401930 f i environmentvariant.obj
 0001:00000940       ??1?$QList@VQString@@@@QAE@XZ 00401940 f i workflowprotocol.obj
 0001:000009d0       ??1Communication@@QAE@XZ   004019d0 f i workflowprotocol.obj
 0001:000009e0       ??1SubThreadWorker@@UAE@XZ 004019e0 f   workflowprotocol.obj
 0001:00000a80       ??1WorkflowController@@UAE@XZ 00401a80 f   workflowprotocol.obj
 0001:00000af0       ??4?$QList@UloopControl@SubThreadWorker@@@@QAEAAV0@$$QAV0@@Z 00401af0 f i workflowprotocol.obj
 0001:00000ba0       ??_ERunningStateChangeEvent@@UAEPAXI@Z 00401ba0 f i workflowprotocol.obj
 0001:00000ba0       ??_GRunningStateChangeEvent@@UAEPAXI@Z 00401ba0 f i workflowprotocol.obj
 0001:00000bd0       ??_ESubThreadWorker@@UAEPAXI@Z 00401bd0 f i workflowprotocol.obj
 0001:00000bd0       ??_GSubThreadWorker@@UAEPAXI@Z 00401bd0 f i workflowprotocol.obj
 0001:00000bf0       ??_GWorkflowController@@UAEPAXI@Z 00401bf0 f i workflowprotocol.obj
 0001:00000bf0       ??_EWorkflowController@@UAEPAXI@Z 00401bf0 f i workflowprotocol.obj
 0001:00000c80       ?append@?$QList@UloopControl@SubThreadWorker@@@@QAEXABUloopControl@SubThreadWorker@@@Z 00401c80 f i workflowprotocol.obj
 0001:00000d30       ?append@?$QList@VQString@@@@QAEXABVQString@@@Z 00401d30 f i workflowprotocol.obj
 0001:00000de0       ?changeHost@SubThreadWorker@@QAEXABVQString@@G@Z 00401de0 f   workflowprotocol.obj
 0001:00000e00       ?clear@?$QList@UloopControl@SubThreadWorker@@@@QAEXXZ 00401e00 f i workflowprotocol.obj
 0001:00000ea0       ?configProtocol@SubThreadWorker@@QAEXABVQString@@@Z 00401ea0 f   workflowprotocol.obj
 0001:00000eb0       ?dealloc@?$QList@UloopControl@SubThreadWorker@@@@AAEXPAUData@QListData@@@Z 00401eb0 f i workflowprotocol.obj
 0001:00000f00       ?detach_helper@?$QList@UloopControl@SubThreadWorker@@@@AAEXH@Z 00401f00 f i workflowprotocol.obj
 0001:00000fd0       ?detach_helper_grow@?$QList@UloopControl@SubThreadWorker@@@@AAEPAUNode@1@HH@Z 00401fd0 f i workflowprotocol.obj
 0001:00001120       ?detach_helper_grow@?$QList@VQString@@@@AAEPAUNode@1@HH@Z 00402120 f i workflowprotocol.obj
 0001:000012a0       ?doTunning@SubThreadWorker@@QAEXABVQJsonObject@@@Z 004022a0 f   workflowprotocol.obj
 0001:000013d0       ?doWork@SubThreadWorker@@QAEXABVQJsonObject@@@Z 004023d0 f   workflowprotocol.obj
 0001:00001700       ?erase@?$QList@UloopControl@SubThreadWorker@@@@QAE?AViterator@1@V21@@Z 00402700 f i workflowprotocol.obj
 0001:00001780       ?formatRecvFrameToJsonObject@WorkflowProtocol@@QAE_NAAVQJsonObject@@@Z 00402780 f   workflowprotocol.obj
 0001:00001820       ?handleControlCommand@SubThreadWorker@@IAE_NAAVCommunication@@AAVQJsonObject@@@Z 00402820 f   workflowprotocol.obj
 0001:000021c0       ?handleLogicalCommand@SubThreadWorker@@IAE_NAAVQJsonObject@@AAH@Z 004031c0 f   workflowprotocol.obj
 0001:00002930       ?handleLoopCommand@SubThreadWorker@@IAE_NAAVQJsonObject@@AAH@Z 00403930 f   workflowprotocol.obj
 0001:000030c0       ?impl@?$QSlotObject@P8SubThreadWorker@@AEXABVQString@@G@ZU?$List@ABVQString@@G@QtPrivate@@X@QtPrivate@@CAXHPAVQSlotObjectBase@2@PAVQObject@@PAPAXPA_N@Z 004040c0 f i workflowprotocol.obj
 0001:00003120       ?impl@?$QSlotObject@P8WorkflowController@@AEX_NH@ZU?$List@_NH@QtPrivate@@X@QtPrivate@@CAXHPAVQSlotObjectBase@2@PAVQObject@@PAPAXPA_N@Z 00404120 f i workflowprotocol.obj
 0001:00003180       ?init@WorkflowController@@QAEXABVQString@@@Z 00404180 f   workflowprotocol.obj
 0001:00003190       ?initProtocol@WorkflowProtocol@@QAE_NABVQString@@@Z 00404190 f   workflowprotocol.obj
 0001:000032e0       ?isLogicalCommand@SubThreadWorker@@IAE_NABVQString@@@Z 004042e0 f   workflowprotocol.obj
 0001:00003500       ?isLoopCommand@SubThreadWorker@@IAE_NABVQString@@@Z 00404500 f   workflowprotocol.obj
 0001:00003750       ?node_copy@?$QList@UloopControl@SubThreadWorker@@@@AAEXPAUNode@1@00@Z 00404750 f i workflowprotocol.obj
 0001:000037f0       ?node_copy@?$QList@VQString@@@@AAEXPAUNode@1@00@Z 004047f0 f i workflowprotocol.obj
 0001:00003830       ?node_destruct@?$QList@UloopControl@SubThreadWorker@@@@AAEXPAUNode@1@0@Z 00404830 f i workflowprotocol.obj
 0001:00003860       ?node_destruct@?$QList@VQString@@@@AAEXPAUNode@1@0@Z 00404860 f i workflowprotocol.obj
 0001:00003890       ?parseAckFrame@WorkflowProtocol@@QAE_NABVQByteArray@@AAVQJsonObject@@@Z 00404890 f   workflowprotocol.obj
 0001:00003970       ?parseJsonObjectToSendFrame@WorkflowProtocol@@QAE_NABVQJsonObject@@AAV2@@Z 00404970 f   workflowprotocol.obj
 0001:00004000       ?pop_back@?$QList@UloopControl@SubThreadWorker@@@@QAEXXZ 00405000 f i workflowprotocol.obj
 0001:00004040       ?runTask@WorkflowController@@QAEXABVQJsonObject@@@Z 00405040 f   workflowprotocol.obj
 0001:00004090       ?runTunning@WorkflowController@@QAEXABVQJsonObject@@@Z 00405090 f   workflowprotocol.obj
 0001:000040e0       ?serializeSendFrame@WorkflowProtocol@@QAE?AVQByteArray@@XZ 004050e0 f   workflowprotocol.obj
 0001:00004240       ?sethost@WorkflowController@@QAEXABVQString@@G@Z 00405240 f   workflowprotocol.obj
 0001:00004250       ?statusChanged@WorkflowController@@QAEXABVQJsonObject@@@Z 00405250 f   workflowprotocol.obj
 0001:000042f0       ?stopCurrentTask@WorkflowController@@QAEXXZ 004052f0 f   workflowprotocol.obj
 0001:00004310       ?stopTask@SubThreadWorker@@QAEXXZ 00405310 f   workflowprotocol.obj
 0001:00004320       ?taskStateChanged@WorkflowController@@QAEX_NH@Z 00405320 f   workflowprotocol.obj
 0001:000043b0       ?types@?$ConnectionTypes@U?$List@ABVQJsonObject@@@QtPrivate@@$00@QtPrivate@@SAPBHXZ 004053b0 f i workflowprotocol.obj
 0001:00004410       ?types@?$ConnectionTypes@U?$List@ABVQString@@@QtPrivate@@$00@QtPrivate@@SAPBHXZ 00405410 f i workflowprotocol.obj
 0001:00004470       ?types@?$ConnectionTypes@U?$List@ABVQString@@G@QtPrivate@@$00@QtPrivate@@SAPBHXZ 00405470 f i workflowprotocol.obj
 0001:000044e0       ?types@?$ConnectionTypes@U?$List@_NH@QtPrivate@@$00@QtPrivate@@SAPBHXZ 004054e0 f i workflowprotocol.obj
 0001:00004550       ?unserializeRecvFrame@WorkflowProtocol@@QAEXABVQByteArray@@@Z 00405550 f   workflowprotocol.obj
 0001:00004690       ??$qMakePair@VQString@@V?$QList@VSingleOperationData@@@@@@YA?AU?$QPair@VQString@@V?$QList@VSingleOperationData@@@@@@ABVQString@@ABV?$QList@VSingleOperationData@@@@@Z 00405690 f i configfilehandler.obj
 0001:000046f0       ??0?$QList@VOperationParamData@@@@QAE@ABV0@@Z 004056f0 f i configfilehandler.obj
 0001:000047a0       ??0?$QList@VSingleOperationData@@@@QAE@ABV0@@Z 004057a0 f i configfilehandler.obj
 0001:00004850       ??0OperationParamData@@QAE@ABV0@@Z 00405850 f i configfilehandler.obj
 0001:000049c0       ??0OperationParamData@@QAE@ABVQString@@00ABVQStringList@@_NHH0V?$QList@H@@00HH@Z 004059c0 f i configfilehandler.obj
 0001:00004b60       ??0OperationParamData@@QAE@XZ 00405b60 f i configfilehandler.obj
 0001:00004bd0       ??0SingleOperationData@@QAE@ABV0@@Z 00405bd0 f i configfilehandler.obj
 0001:00004c40       ??0configFileHandler@@QAE@PAVQObject@@@Z 00405c40 f   configfilehandler.obj
 0001:00004ca0       ??1?$QForeachContainer@V?$QList@VOperationParamData@@@@@@QAE@XZ 00405ca0 f i configfilehandler.obj
 0001:00004ca0       ??1?$QForeachContainer@$$CBV?$QList@VOperationParamData@@@@@@QAE@XZ 00405ca0 f i environmentvariant.obj
 0001:00004d00       ??1?$QList@U?$QPair@VQString@@V?$QList@VSingleOperationData@@@@@@@@QAE@XZ 00405d00 f i configfilehandler.obj
 0001:00004d80       ??1?$QList@VOperationParamData@@@@QAE@XZ 00405d80 f i configfilehandler.obj
 0001:00004de0       ??1?$QList@VQByteArray@@@@QAE@XZ 00405de0 f i configfilehandler.obj
 0001:00004e70       ??1?$QList@VSingleOperationData@@@@QAE@XZ 00405e70 f i configfilehandler.obj
 0001:00004ef0       ??1?$QMap@VQString@@V1@@@QAE@XZ 00405ef0 f i configfilehandler.obj
 0001:00004f70       ??1?$QMap@VQString@@VOperationParamData@@@@QAE@XZ 00405f70 f i configfilehandler.obj
 0001:00005010       ??1?$QMap@VQString@@VQStringList@@@@QAE@XZ 00406010 f i configfilehandler.obj
 0001:000050b0       ??1?$QPair@VQString@@V?$QList@VSingleOperationData@@@@@@QAE@XZ 004060b0 f i configfilehandler.obj
 0001:00005140       ??1OperationParamData@@QAE@XZ 00406140 f i configfilehandler.obj
 0001:000051f0       ??1QJsonValuePtr@@QAE@XZ   004061f0 f i configfilehandler.obj
 0001:00005200       ??1SingleOperationData@@QAE@XZ 00406200 f i configfilehandler.obj
 0001:00005270       ??1configFileHandler@@UAE@XZ 00406270 f i configfilehandler.obj
 0001:00005290       ??4?$QList@U?$QPair@VQString@@V?$QList@VSingleOperationData@@@@@@@@QAEAAV0@$$QAV0@@Z 00406290 f i configfilehandler.obj
 0001:00005330       ??4OperationParamData@@QAEAAV0@ABV0@@Z 00406330 f i configfilehandler.obj
 0001:00005440       ??4QStringList@@QAEAAV0@ABV0@@Z 00406440 f i configfilehandler.obj
 0001:00005480       ??A?$QList@VQString@@@@QAEAAVQString@@H@Z 00406480 f i configfilehandler.obj
 0001:000054b0       ??A?$QMap@VQString@@V1@@@QAEAAVQString@@ABV1@@Z 004064b0 f i configfilehandler.obj
 0001:00005570       ??A?$QMap@VQString@@VOperationParamData@@@@QAEAAVOperationParamData@@ABVQString@@@Z 00406570 f i configfilehandler.obj
 0001:00005630       ??A?$QMap@VQString@@VOperationParamData@@@@QBE?BVOperationParamData@@ABVQString@@@Z 00406630 f i configfilehandler.obj
 0001:000056f0       ??A?$QMap@VQString@@VQStringList@@@@QAEAAVQStringList@@ABVQString@@@Z 004066f0 f i configfilehandler.obj
 0001:000057b0       ??Cconst_iterator@QJsonArray@@QBE?AVQJsonValuePtr@@XZ 004067b0 f i configfilehandler.obj
 0001:00005820       ??H@YA?BVQString@@ABV0@D@Z 00406820 f i configfilehandler.obj
 0001:000058a0       ??H@YA?BVQString@@ABV0@PBD@Z 004068a0 f i configfilehandler.obj
 0001:00005930       ??H@YA?BVQString@@PBDABV0@@Z 00406930 f i configfilehandler.obj
 0001:000059a0       ??_G?$QPair@VQString@@V?$QList@VSingleOperationData@@@@@@QAEPAXI@Z 004069a0 f i configfilehandler.obj
 0001:00005a40       ??_GSingleOperationData@@QAEPAXI@Z 00406a40 f i configfilehandler.obj
 0001:00005ac0       ??_GconfigFileHandler@@UAEPAXI@Z 00406ac0 f i configfilehandler.obj
 0001:00005ac0       ??_EconfigFileHandler@@UAEPAXI@Z 00406ac0 f i configfilehandler.obj
 0001:00005af0       ?ConvertCSVtoJSON@configFileHandler@@QAE_NABVQString@@0@Z 00406af0 f   configfilehandler.obj
 0001:00005ce0       ?ConvertJSONtoCSV@configFileHandler@@QAE_NABVQString@@0@Z 00406ce0 f   configfilehandler.obj
 0001:00005fd0       ?ImportConfig@configFileHandler@@QAE_NAAVQJsonObject@@ABVQByteArray@@@Z 00406fd0 f   configfilehandler.obj
 0001:00006110       ?ImportPlan@configFileHandler@@QAE_NABV?$QList@VQByteArray@@@@AAVQJsonObject@@@Z 00407110 f   configfilehandler.obj
 0001:00006a20       ?ImportWorkSpace@configFileHandler@@QAE_NABV?$QList@VQByteArray@@@@AAVQJsonObject@@@Z 00407a20 f   configfilehandler.obj
 0001:00007380       ?ParseHostIP@configFileHandler@@QAE?AVQString@@XZ 00408380 f   configfilehandler.obj
 0001:00007450       ?ParseHostPort@configFileHandler@@QAEFXZ 00408450 f   configfilehandler.obj
 0001:00007530       ?ParseHostSingleOperationThreshold@configFileHandler@@QAEHXZ 00408530 f   configfilehandler.obj
 0001:00007610       ?ParseLicense@configFileHandler@@QAEXAAVQByteArray@@@Z 00408610 f   configfilehandler.obj
 0001:00007700       ?ParseListMap@configFileHandler@@QAE?AV?$QMap@VQString@@VQStringList@@@@ABVQString@@@Z 00408700 f   configfilehandler.obj
 0001:000079a0       ?ParseMap@configFileHandler@@QAE?AV?$QMap@VQString@@V1@@@ABVQString@@@Z 004089a0 f   configfilehandler.obj
 0001:00007af0       ?ParseMapRevertKeyValue@configFileHandler@@QAE?AV?$QMap@VQString@@V1@@@ABVQString@@@Z 00408af0 f   configfilehandler.obj
 0001:00007c50       ?ParseParamValue@configFileHandler@@QAE?AV?$QMap@VQString@@VOperationParamData@@@@ABVQString@@@Z 00408c50 f   configfilehandler.obj
 0001:00008d90       ?ParsePlan@configFileHandler@@QAE?AVQString@@ABVQJsonArray@@@Z 00409d90 f   configfilehandler.obj
 0001:00009450       ?ParsePlanList@configFileHandler@@QAEXAAV?$QList@U?$QPair@VQString@@V?$QList@VSingleOperationData@@@@@@@@ABV?$QMap@VQString@@VOperationParamData@@@@@Z 0040a450 f   configfilehandler.obj
 0001:00009eb0       ?ParseWorkPlaceConstraint@configFileHandler@@QAE?AVQJsonArray@@XZ 0040aeb0 f   configfilehandler.obj
 0001:00009f40       ?ParseWorkSpace@configFileHandler@@QAE?AVQString@@ABVQJsonObject@@@Z 0040af40 f   configfilehandler.obj
 0001:0000a520       ?ParseWorkSpaceTypeList@configFileHandler@@QAEXAAVQJsonObject@@@Z 0040b520 f   configfilehandler.obj
 0001:0000a5c0       ?SaveMachineConfig@configFileHandler@@QAE_NABVQString@@ABVMachineConfigData@@ABVQJsonObject@@@Z 0040b5c0 f   configfilehandler.obj
 0001:0000a910       ?SavePlanList@configFileHandler@@QAE_NABVQString@@ABV?$QList@U?$QPair@VQString@@V?$QList@VSingleOperationData@@@@@@@@ABV?$QMap@VQString@@VQStringList@@@@@Z 0040b910 f   configfilehandler.obj
 0001:0000b180       ?append@?$QList@U?$QPair@VQString@@V?$QList@VSingleOperationData@@@@@@@@QAEXABU?$QPair@VQString@@V?$QList@VSingleOperationData@@@@@@@Z 0040c180 f i configfilehandler.obj
 0001:0000b260       ?append@?$QList@VOperationParamData@@@@QAEXABVOperationParamData@@@Z 0040c260 f i configfilehandler.obj
 0001:0000b320       ?append@?$QList@VSingleOperationData@@@@QAEXABVSingleOperationData@@@Z 0040c320 f i configfilehandler.obj
 0001:0000b400       ?clear@?$QList@U?$QPair@VQString@@V?$QList@VSingleOperationData@@@@@@@@QAEXXZ 0040c400 f i configfilehandler.obj
 0001:0000b490       ?copy@?$QMapNode@VQString@@V1@@@QBEPAU1@PAU?$QMapData@VQString@@V1@@@@Z 0040c490 f i configfilehandler.obj
 0001:0000b510       ?copy@?$QMapNode@VQString@@VOperationParamData@@@@QBEPAU1@PAU?$QMapData@VQString@@VOperationParamData@@@@@Z 0040c510 f i configfilehandler.obj
 0001:0000b590       ?copy@?$QMapNode@VQString@@VQStringList@@@@QBEPAU1@PAU?$QMapData@VQString@@VQStringList@@@@@Z 0040c590 f i configfilehandler.obj
 0001:0000b610       ?createNode@?$QMapData@VQString@@V1@@@QAEPAU?$QMapNode@VQString@@V1@@@ABVQString@@0PAU2@_N@Z 0040c610 f i configfilehandler.obj
 0001:0000b650       ?createNode@?$QMapData@VQString@@VOperationParamData@@@@QAEPAU?$QMapNode@VQString@@VOperationParamData@@@@ABVQString@@ABVOperationParamData@@PAU2@_N@Z 0040c650 f i configfilehandler.obj
 0001:0000b710       ?createNode@?$QMapData@VQString@@VQStringList@@@@QAEPAU?$QMapNode@VQString@@VQStringList@@@@ABVQString@@ABVQStringList@@PAU2@_N@Z 0040c710 f i configfilehandler.obj
 0001:0000b7d0       ?dealloc@?$QList@VOperationParamData@@@@AAEXPAUData@QListData@@@Z 0040c7d0 f i configfilehandler.obj
 0001:0000b830       ?destroySubTree@?$QMapNode@VQString@@V1@@@QAEXXZ 0040c830 f i configfilehandler.obj
 0001:0000b860       ?destroySubTree@?$QMapNode@VQString@@VOperationParamData@@@@QAEXXZ 0040c860 f i configfilehandler.obj
 0001:0000b890       ?destroySubTree@?$QMapNode@VQString@@VQStringList@@@@QAEXXZ 0040c890 f i configfilehandler.obj
 0001:0000b8c0       ?detach_helper@?$QList@VQByteArray@@@@AAEXH@Z 0040c8c0 f i configfilehandler.obj
 0001:0000b9b0       ?detach_helper@?$QList@VQString@@@@AAEXH@Z 0040c9b0 f i configfilehandler.obj
 0001:0000baa0       ?detach_helper@?$QMap@VQString@@V1@@@AAEXXZ 0040caa0 f i configfilehandler.obj
 0001:0000bb20       ?detach_helper@?$QMap@VQString@@VOperationParamData@@@@AAEXXZ 0040cb20 f i configfilehandler.obj
 0001:0000bbc0       ?detach_helper@?$QMap@VQString@@VQStringList@@@@AAEXXZ 0040cbc0 f i configfilehandler.obj
 0001:0000bc60       ?detach_helper_grow@?$QList@U?$QPair@VQString@@V?$QList@VSingleOperationData@@@@@@@@AAEPAUNode@1@HH@Z 0040cc60 f i configfilehandler.obj
 0001:0000bdd0       ?detach_helper_grow@?$QList@VOperationParamData@@@@AAEPAUNode@1@HH@Z 0040cdd0 f i configfilehandler.obj
 0001:0000bf20       ?detach_helper_grow@?$QList@VSingleOperationData@@@@AAEPAUNode@1@HH@Z 0040cf20 f i configfilehandler.obj
 0001:0000c090       ?insert@?$QMap@VQString@@V1@@@QAE?AViterator@1@ABVQString@@0@Z 0040d090 f i configfilehandler.obj
 0001:0000c160       ?insert@?$QMap@VQString@@VOperationParamData@@@@QAE?AViterator@1@ABVQString@@ABVOperationParamData@@@Z 0040d160 f i configfilehandler.obj
 0001:0000c230       ?insert@?$QMap@VQString@@VQStringList@@@@QAE?AViterator@1@ABVQString@@ABVQStringList@@@Z 0040d230 f i configfilehandler.obj
 0001:0000c320       ?key@iterator@QJsonObject@@QBE?AVQString@@XZ 0040d320 f i configfilehandler.obj
 0001:0000c340       ?loadConfigFile@configFileHandler@@QAE_NABVQString@@@Z 0040d340 f   configfilehandler.obj
 0001:0000c440       ?lowerBound@?$QMapNode@VQString@@H@@QAEPAU1@ABVQString@@@Z 0040d440 f i workflowChecker.obj
 0001:0000c440       ?lowerBound@?$QMapNode@VQString@@VQStringList@@@@QAEPAU1@ABVQString@@@Z 0040d440 f i configfilehandler.obj
 0001:0000c440       ?lowerBound@?$QMapNode@VQString@@V1@@@QAEPAU1@ABVQString@@@Z 0040d440 f i configfilehandler.obj
 0001:0000c440       ?lowerBound@?$QMapNode@VQString@@VOperationParamData@@@@QAEPAU1@ABVQString@@@Z 0040d440 f i configfilehandler.obj
 0001:0000c480       ?node_copy@?$QList@U?$QPair@VQString@@V?$QList@VSingleOperationData@@@@@@@@AAEXPAUNode@1@00@Z 0040d480 f i configfilehandler.obj
 0001:0000c540       ?node_copy@?$QList@VOperationParamData@@@@AAEXPAUNode@1@00@Z 0040d540 f i configfilehandler.obj
 0001:0000c610       ?node_copy@?$QList@VQByteArray@@@@AAEXPAUNode@1@00@Z 0040d610 f i configfilehandler.obj
 0001:0000c650       ?node_copy@?$QList@VSingleOperationData@@@@AAEXPAUNode@1@00@Z 0040d650 f i configfilehandler.obj
 0001:0000c720       ?node_destruct@?$QList@U?$QPair@VQString@@V?$QList@VSingleOperationData@@@@@@@@AAEXPAUNode@1@0@Z 0040d720 f i configfilehandler.obj
 0001:0000c7e0       ?node_destruct@?$QList@VOperationParamData@@@@AAEXPAUNode@1@0@Z 0040d7e0 f i configfilehandler.obj
 0001:0000c820       ?node_destruct@?$QList@VSingleOperationData@@@@AAEXPAUNode@1@0@Z 0040d820 f i configfilehandler.obj
 0001:0000c8c0       ?node_destruct@?$QList@VSingleOperationData@@@@AAEXPAUNode@1@@Z 0040d8c0 f i configfilehandler.obj
 0001:0000c940       ?toList@configFileHandler@@QAE?AVQStringList@@ABVQString@@@Z 0040d940 f   configfilehandler.obj
 0001:0000ca20       ?value@?$QMap@VQString@@VOperationParamData@@@@QBE?BVOperationParamData@@ABVQString@@ABV2@@Z 0040da20 f i configfilehandler.obj
 0001:0000ca90       ??0EnvironmentVariant@@AAE@XZ 0040da90 f i environmentvariant.obj
 0001:0000cbc0       ??0SingleOperationData@@QAE@$$QAV0@@Z 0040dbc0 f i environmentvariant.obj
 0001:0000cbf0       ??1?$QForeachContainer@$$CBV?$QList@VSingleOperationData@@@@@@QAE@XZ 0040dbf0 f i environmentvariant.obj
 0001:0000cc70       ??1ConfigFileConverter@@UAE@XZ 0040dc70 f i environmentvariant.obj
 0001:0000cc80       ??1EnvironmentVariant@@EAE@XZ 0040dc80 f i environmentvariant.obj
 0001:0000ce20       ??1MachineConfigData@@QAE@XZ 0040de20 f i environmentvariant.obj
 0001:0000ce30       ??1TargetMachineObject@@UAE@XZ 0040de30 f i environmentvariant.obj
 0001:0000ce50       ??4?$QList@VSingleOperationData@@@@QAEAAV0@ABV0@@Z 0040de50 f i environmentvariant.obj
 0001:0000cef0       ??4QStringList@@QAEAAV0@$$QAV0@@Z 0040def0 f i environmentvariant.obj
 0001:0000cf20       ??4SingleOperationData@@QAEAAV0@$$QAV0@@Z 0040df20 f i environmentvariant.obj
 0001:0000cfb0       ??4SingleOperationData@@QAEAAV0@ABV0@@Z 0040dfb0 f i environmentvariant.obj
 0001:0000d050       ??A?$QList@VSingleOperationData@@@@QAEAAVSingleOperationData@@H@Z 0040e050 f i environmentvariant.obj
 0001:0000d080       ??H@YA?BVQString@@ABV0@0@Z 0040e080 f i environmentvariant.obj
 0001:0000d0f0       ??Y?$QList@VQString@@@@QAEAAV0@ABV0@@Z 0040e0f0 f i environmentvariant.obj
 0001:0000d1f0       ??_EConfigFileConverter@@UAEPAXI@Z 0040e1f0 f i environmentvariant.obj
 0001:0000d1f0       ??_GConfigFileConverter@@UAEPAXI@Z 0040e1f0 f i environmentvariant.obj
 0001:0000d220       ??_GEnvironmentVariant@@EAEPAXI@Z 0040e220 f i environmentvariant.obj
 0001:0000d220       ??_EEnvironmentVariant@@EAEPAXI@Z 0040e220 f i environmentvariant.obj
 0001:0000d250       ??_GTargetMachineObject@@UAEPAXI@Z 0040e250 f i environmentvariant.obj
 0001:0000d250       ??_ETargetMachineObject@@UAEPAXI@Z 0040e250 f i environmentvariant.obj
 0001:0000d280       ?AddPlan@EnvironmentVariant@@QAEXABVQString@@@Z 0040e280 f   environmentvariant.obj
 0001:0000d390       ?AddPlanStep@EnvironmentVariant@@QAEXHHH@Z 0040e390 f   environmentvariant.obj
 0001:0000d520       ?ExportConfig@EnvironmentVariant@@QAE_NABVQString@@@Z 0040e520 f   environmentvariant.obj
 0001:0000d5e0       ?ImportConfig@EnvironmentVariant@@QAE_NABVQString@@@Z 0040e5e0 f   environmentvariant.obj
 0001:0000d6b0       ?LogicalControlList@EnvironmentVariant@@QAE?AVQStringList@@XZ 0040e6b0 f   environmentvariant.obj
 0001:0000d850       ?MovePlanStep@EnvironmentVariant@@QAEXHHH@Z 0040e850 f   environmentvariant.obj
 0001:0000d930       ?OperationNameList@EnvironmentVariant@@QAE?AVQStringList@@XZ 0040e930 f   environmentvariant.obj
 0001:0000dad0       ?PlanList@EnvironmentVariant@@QAE?AVQStringList@@XZ 0040ead0 f   environmentvariant.obj
 0001:0000db90       ?RemovePlan@EnvironmentVariant@@QAEXH@Z 0040eb90 f   environmentvariant.obj
 0001:0000dbc0       ?RemovePlanStep@EnvironmentVariant@@QAEXHH@Z 0040ebc0 f   environmentvariant.obj
 0001:0000dc20       ?SaveMachineConfig@EnvironmentVariant@@QAE_NABVMachineConfigData@@@Z 0040ec20 f   environmentvariant.obj
 0001:0000dcf0       ?SavePlan@EnvironmentVariant@@QAE_NXZ 0040ecf0 f   environmentvariant.obj
 0001:0000dd70       ?SetPlanName@EnvironmentVariant@@QAEXHABVQString@@@Z 0040ed70 f   environmentvariant.obj
 0001:0000ddc0       ?SetPlanStepSingleParam@EnvironmentVariant@@QAEXHHABVQString@@ABVQVariant@@@Z 0040edc0 f   environmentvariant.obj
 0001:0000df60       ?SetPlanStepToDefault@EnvironmentVariant@@QAEXHHH@Z 0040ef60 f   environmentvariant.obj
 0001:0000e030       ?StartPlan@EnvironmentVariant@@QAEXHH@Z 0040f030 f   environmentvariant.obj
 0001:0000e800       ?StartTunning@EnvironmentVariant@@QAEXABVSingleOperationData@@@Z 0040f800 f   environmentvariant.obj
 0001:0000e8f0       ?StepList@EnvironmentVariant@@QAE?AVQStringList@@H@Z 0040f8f0 f   environmentvariant.obj
 0001:0000ed30       ?StopPlan@EnvironmentVariant@@QAEXXZ 0040fd30 f   environmentvariant.obj
 0001:0000ed40       ?begin@?$QList@VOperationParamData@@@@QAE?AViterator@1@XZ 0040fd40 f i environmentvariant.obj
 0001:0000ed70       ?contains@?$QMap@VQString@@VQStringList@@@@QBE_NABVQString@@@Z 0040fd70 f i environmentvariant.obj
 0001:0000edb0       ?defaultValue@EnvironmentVariant@@QAE?AVSingleOperationData@@ABVQString@@@Z 0040fdb0 f   environmentvariant.obj
 0001:0000efe0       ?detach_helper@?$QList@H@@AAEXH@Z 0040ffe0 f i environmentvariant.obj
 0001:0000f0b0       ?detach_helper@?$QList@U?$QPair@VQString@@V?$QList@VSingleOperationData@@@@@@@@AAEXH@Z 004100b0 f i environmentvariant.obj
 0001:0000f190       ?detach_helper@?$QList@VOperationParamData@@@@AAEXH@Z 00410190 f i environmentvariant.obj
 0001:0000f260       ?detach_helper@?$QList@VSingleOperationData@@@@AAEXH@Z 00410260 f i environmentvariant.obj
 0001:0000f340       ?formatSingleOperationParam@EnvironmentVariant@@QAE?AVQJsonObject@@ABVSingleOperationData@@@Z 00410340 f   environmentvariant.obj
 0001:0000f8e0       ?getBoardTypeIndexByPosition@EnvironmentVariant@@QAEHH@Z 004108e0 f   environmentvariant.obj
 0001:0000fb90       ?getOperationIndex@EnvironmentVariant@@QAEHABVQString@@@Z 00410b90 f   environmentvariant.obj
 0001:0000fc00       ?getOperationParams@EnvironmentVariant@@QAE?AV?$QList@VOperationParamData@@@@H@Z 00410c00 f   environmentvariant.obj
 0001:0000fde0       ?getWorkLocationTypeList@EnvironmentVariant@@QAE?AVQJsonObject@@XZ 00410de0 f   environmentvariant.obj
 0001:0000fe00       ?initModels@EnvironmentVariant@@QAEXPAVQQmlContext@@@Z 00410e00 f   environmentvariant.obj
 0001:0000ff80       ?initProtocol@EnvironmentVariant@@QAEXABVQString@@@Z 00410f80 f   environmentvariant.obj
 0001:0000fff0       ?initUserConfig@EnvironmentVariant@@QAEXABVQString@@@Z 00410ff0 f   environmentvariant.obj
 0001:00010150       ?insert@?$QList@VSingleOperationData@@@@QAEXHABVSingleOperationData@@@Z 00411150 f i environmentvariant.obj
 0001:00010230       ?instance@EnvironmentVariant@@SAPAV1@XZ 00411230 f   environmentvariant.obj
 0001:00010290       ?parseConfigFile@EnvironmentVariant@@QAEXABVQString@@@Z 00411290 f   environmentvariant.obj
 0001:00010970       ?planSelectStepListModel@EnvironmentVariant@@QAE?AVQStringList@@H@Z 00411970 f   environmentvariant.obj
 0001:00010bf0       ?planStepParam@EnvironmentVariant@@QAE?AVSingleOperationData@@HH@Z 00411bf0 f   environmentvariant.obj
 0001:00010f50       ?removeAt@?$QList@U?$QPair@VQString@@V?$QList@VSingleOperationData@@@@@@@@QAEXH@Z 00411f50 f i environmentvariant.obj
 0001:00010fb0       ?removeAt@?$QList@VSingleOperationData@@@@QAEXH@Z 00411fb0 f i environmentvariant.obj
 0001:00011000       ?setIpAddress@TargetMachineObject@@QAEXABVQString@@@Z 00412000 f i environmentvariant.obj
 0001:00011040       ?setMaxReceiveTime@TargetMachineObject@@QAEXH@Z 00412040 f i environmentvariant.obj
 0001:00011060       ?setPort@TargetMachineObject@@QAEXF@Z 00412060 f i environmentvariant.obj
 0001:00011080       ?setWorkLocationType@EnvironmentVariant@@QAE_NHHABVQString@@@Z 00412080 f   environmentvariant.obj
 0001:000114d0       ?startCheckPlan@EnvironmentVariant@@QAEXH@Z 004124d0 f   environmentvariant.obj
 0001:00011d20       ?stopCheckPlan@EnvironmentVariant@@QAEXXZ 00412d20 f   environmentvariant.obj
 0001:00011d30       ?updateWorkPlace@EnvironmentVariant@@QAE_NABVQJsonObject@@@Z 00412d30 f   environmentvariant.obj
 0001:00011d80       ??$connect@P8QQmlEngine@@AEXXZP6AXXZ@QObject@@SA?AVConnection@QMetaObject@@PBVQQmlEngine@@P83@AEXXZPBV0@P6AXXZW4ConnectionType@Qt@@@Z 00412d80 f i main.obj
 0001:00011de0       ??$createInto@VOperationParamObject@@@QQmlPrivate@@YAXPAX@Z 00412de0 f i main.obj
 0001:00011e40       ??$createInto@VOperationParamSelector@@@QQmlPrivate@@YAXPAX@Z 00412e40 f i main.obj
 0001:00011ea0       ??$createInto@VPlanController@@@QQmlPrivate@@YAXPAX@Z 00412ea0 f i main.obj
 0001:00011f00       ??$createInto@VPlanSelector@@@QQmlPrivate@@YAXPAX@Z 00412f00 f i main.obj
 0001:00011f60       ??$createInto@VStatusViewWatcher@@@QQmlPrivate@@YAXPAX@Z 00412f60 f i main.obj
 0001:00011fc0       ??$createInto@VTextFieldDoubleValidator@@@QQmlPrivate@@YAXPAX@Z 00412fc0 f i main.obj
 0001:00012020       ??$qRegisterNormalizedMetaType@PAVOperationParamObject@@@@YAHABVQByteArray@@PAPAVOperationParamObject@@W4DefinedType@?$MetaTypeDefinedHelper@PAVOperationParamObject@@$00@QtPrivate@@@Z 00413020 f i main.obj
 0001:00012080       ??$qRegisterNormalizedMetaType@PAVOperationParamSelector@@@@YAHABVQByteArray@@PAPAVOperationParamSelector@@W4DefinedType@?$MetaTypeDefinedHelper@PAVOperationParamSelector@@$00@QtPrivate@@@Z 00413080 f i main.obj
 0001:000120e0       ??$qRegisterNormalizedMetaType@PAVPlanController@@@@YAHABVQByteArray@@PAPAVPlanController@@W4DefinedType@?$MetaTypeDefinedHelper@PAVPlanController@@$00@QtPrivate@@@Z 004130e0 f i main.obj
 0001:00012140       ??$qRegisterNormalizedMetaType@PAVPlanSelector@@@@YAHABVQByteArray@@PAPAVPlanSelector@@W4DefinedType@?$MetaTypeDefinedHelper@PAVPlanSelector@@$00@QtPrivate@@@Z 00413140 f i main.obj
 0001:000121a0       ??$qRegisterNormalizedMetaType@PAVStatusViewWatcher@@@@YAHABVQByteArray@@PAPAVStatusViewWatcher@@W4DefinedType@?$MetaTypeDefinedHelper@PAVStatusViewWatcher@@$00@QtPrivate@@@Z 004131a0 f i main.obj
 0001:00012200       ??$qRegisterNormalizedMetaType@PAVTextFieldDoubleValidator@@@@YAHABVQByteArray@@PAPAVTextFieldDoubleValidator@@W4DefinedType@?$MetaTypeDefinedHelper@PAVTextFieldDoubleValidator@@$00@QtPrivate@@@Z 00413200 f i main.obj
 0001:00012260       ??$qmlRegisterType@VOperationParamObject@@@@YAHPBDHH0@Z 00413260 f i main.obj
 0001:00012510       ??$qmlRegisterType@VOperationParamSelector@@@@YAHPBDHH0@Z 00413510 f i main.obj
 0001:000127c0       ??$qmlRegisterType@VPlanController@@@@YAHPBDHH0@Z 004137c0 f i main.obj
 0001:00012a70       ??$qmlRegisterType@VPlanSelector@@@@YAHPBDHH0@Z 00413a70 f i main.obj
 0001:00012d20       ??$qmlRegisterType@VStatusViewWatcher@@@@YAHPBDHH0@Z 00413d20 f i main.obj
 0001:00012fd0       ??$qmlRegisterType@VTextFieldDoubleValidator@@@@YAHPBDHH0@Z 00413fd0 f i main.obj
 0001:00013280       ??1?$QList@PAVQObject@@@@QAE@XZ 00414280 f i main.obj
 0001:00013280       ??1?$QList@H@@QAE@XZ       00414280 f i configfilehandler.obj
 0001:000132e0       ??1?$QVarLengthArray@D$0EA@@@QAE@XZ 004142e0 f i main.obj
 0001:000132e0       ??1?$QVarLengthArray@D$0DA@@@QAE@XZ 004142e0 f i main.obj
 0001:00013300       ??1OperationParamSelector@@UAE@XZ 00414300 f i main.obj
 0001:000133b0       ??1RegisterType@QQmlPrivate@@QAE@XZ 004143b0 f i main.obj
 0001:000133c0       ??_G?$QQmlElement@VOperationParamObject@@@QQmlPrivate@@UAEPAXI@Z 004143c0 f i main.obj
 0001:000133c0       ??_E?$QQmlElement@VOperationParamObject@@@QQmlPrivate@@UAEPAXI@Z 004143c0 f i main.obj
 0001:00013440       ??_G?$QQmlElement@VOperationParamSelector@@@QQmlPrivate@@UAEPAXI@Z 00414440 f i main.obj
 0001:00013440       ??_E?$QQmlElement@VOperationParamSelector@@@QQmlPrivate@@UAEPAXI@Z 00414440 f i main.obj
 0001:000134b0       ??_G?$QQmlElement@VPlanController@@@QQmlPrivate@@UAEPAXI@Z 004144b0 f i main.obj
 0001:000134b0       ??_E?$QQmlElement@VPlanController@@@QQmlPrivate@@UAEPAXI@Z 004144b0 f i main.obj
 0001:00013520       ??_G?$QQmlElement@VPlanSelector@@@QQmlPrivate@@UAEPAXI@Z 00414520 f i main.obj
 0001:00013520       ??_E?$QQmlElement@VPlanSelector@@@QQmlPrivate@@UAEPAXI@Z 00414520 f i main.obj
 0001:00013590       ??_G?$QQmlElement@VStatusViewWatcher@@@QQmlPrivate@@UAEPAXI@Z 00414590 f i main.obj
 0001:00013590       ??_E?$QQmlElement@VStatusViewWatcher@@@QQmlPrivate@@UAEPAXI@Z 00414590 f i main.obj
 0001:00013600       ??_G?$QQmlElement@VTextFieldDoubleValidator@@@QQmlPrivate@@UAEPAXI@Z 00414600 f i main.obj
 0001:00013600       ??_E?$QQmlElement@VTextFieldDoubleValidator@@@QQmlPrivate@@UAEPAXI@Z 00414600 f i main.obj
 0001:00013670       ??_GOperationParamObject@@UAEPAXI@Z 00414670 f i main.obj
 0001:00013670       ??_EOperationParamObject@@UAEPAXI@Z 00414670 f i main.obj
 0001:000136a0       ?Construct@?$QMetaTypeFunctionHelper@PAVTextFieldDoubleValidator@@$00@QtMetaTypePrivate@@SAPAXPAXPBX@Z 004146a0 f i main.obj
 0001:000136a0       ?Construct@?$QMetaTypeFunctionHelper@PAVOperationParamSelector@@$00@QtMetaTypePrivate@@SAPAXPAXPBX@Z 004146a0 f i main.obj
 0001:000136a0       ?Construct@?$QMetaTypeFunctionHelper@PAVOperationParamObject@@$00@QtMetaTypePrivate@@SAPAXPAXPBX@Z 004146a0 f i main.obj
 0001:000136a0       ?Construct@?$QMetaTypeFunctionHelper@PAVStatusViewWatcher@@$00@QtMetaTypePrivate@@SAPAXPAXPBX@Z 004146a0 f i main.obj
 0001:000136a0       ?Construct@?$QMetaTypeFunctionHelper@PAVPlanSelector@@$00@QtMetaTypePrivate@@SAPAXPAXPBX@Z 004146a0 f i main.obj
 0001:000136a0       ?Construct@?$QMetaTypeFunctionHelper@PAVPlanController@@$00@QtMetaTypePrivate@@SAPAXPAXPBX@Z 004146a0 f i main.obj
 0001:000136d0       ?Construct@?$QMetaTypeFunctionHelper@V?$QQmlListProperty@VStatusViewWatcher@@@@$00@QtMetaTypePrivate@@SAPAXPAXPBX@Z 004146d0 f i main.obj
 0001:000136d0       ?Construct@?$QMetaTypeFunctionHelper@V?$QQmlListProperty@VPlanController@@@@$00@QtMetaTypePrivate@@SAPAXPAXPBX@Z 004146d0 f i main.obj
 0001:000136d0       ?Construct@?$QMetaTypeFunctionHelper@V?$QQmlListProperty@VOperationParamSelector@@@@$00@QtMetaTypePrivate@@SAPAXPAXPBX@Z 004146d0 f i main.obj
 0001:000136d0       ?Construct@?$QMetaTypeFunctionHelper@V?$QQmlListProperty@VTextFieldDoubleValidator@@@@$00@QtMetaTypePrivate@@SAPAXPAXPBX@Z 004146d0 f i main.obj
 0001:000136d0       ?Construct@?$QMetaTypeFunctionHelper@V?$QQmlListProperty@VOperationParamObject@@@@$00@QtMetaTypePrivate@@SAPAXPAXPBX@Z 004146d0 f i main.obj
 0001:000136d0       ?Construct@?$QMetaTypeFunctionHelper@V?$QQmlListProperty@VPlanSelector@@@@$00@QtMetaTypePrivate@@SAPAXPAXPBX@Z 004146d0 f i main.obj
 0001:00013730       ?TopLevelExceptionFilter@@YGJPAU_EXCEPTION_POINTERS@@@Z 00414730 f   main.obj
 0001:000137a0       ?customMessageHandler@@YAXW4QtMsgType@@ABVQMessageLogContext@@ABVQString@@@Z 004147a0 f   main.obj
 0001:00013b10       ?getConfigFullName@@YA?AVQString@@PBD@Z 00414b10 f   main.obj
 0001:00013b80       ?impl@?$QStaticSlotObject@P6AXXZU?$List@$$V@QtPrivate@@X@QtPrivate@@CAXHPAVQSlotObjectBase@2@PAVQObject@@PAPAXPA_N@Z 00414b80 f i main.obj
 0001:00013bb0       ?qt_metatype_id@?$QMetaTypeIdQObject@PAVOperationParamObject@@$07@@SAHXZ 00414bb0 f i main.obj
 0001:00013c60       ?qt_metatype_id@?$QMetaTypeIdQObject@PAVOperationParamSelector@@$07@@SAHXZ 00414c60 f i main.obj
 0001:00013d10       ?qt_metatype_id@?$QMetaTypeIdQObject@PAVPlanController@@$07@@SAHXZ 00414d10 f i main.obj
 0001:00013dc0       ?qt_metatype_id@?$QMetaTypeIdQObject@PAVPlanSelector@@$07@@SAHXZ 00414dc0 f i main.obj
 0001:00013e70       ?qt_metatype_id@?$QMetaTypeIdQObject@PAVStatusViewWatcher@@$07@@SAHXZ 00414e70 f i main.obj
 0001:00013f20       ?qt_metatype_id@?$QMetaTypeIdQObject@PAVTextFieldDoubleValidator@@$07@@SAHXZ 00414f20 f i main.obj
 0001:00013fd0       ?validate@TextFieldDoubleValidator@@UBE?AW4State@QValidator@@AAVQString@@AAH@Z 00414fd0 f i main.obj
 0001:00014150       _main                      00415150 f   main.obj
 0001:00014580       ??$connect@P8EnvironmentVariant@@AEXXZP8StatusViewWatcher@@AEXXZ@QObject@@SA?AVConnection@QMetaObject@@PBVEnvironmentVariant@@P83@AEXXZPBVStatusViewWatcher@@P84@AEXXZW4ConnectionType@Qt@@@Z 00415580 f i workmodels.obj
 0001:000145e0       ??0?$QList@H@@QAE@ABV0@@Z  004155e0 f i configfilehandler.obj
 0001:000145e0       ??0?$QList@PAVQObject@@@@QAE@ABV0@@Z 004155e0 f i workmodels.obj
 0001:00014690       ??0OperationParamSelector@@QAE@PAVQObject@@@Z 00415690 f   workmodels.obj
 0001:000146e0       ??0PlanController@@QAE@PAVQObject@@@Z 004156e0 f   workmodels.obj
 0001:00014750       ??0PlanSelector@@QAE@PAVQObject@@@Z 00415750 f   workmodels.obj
 0001:00014810       ??0StatusViewWatcher@@QAE@PAVQObject@@@Z 00415810 f   workmodels.obj
 0001:000148a0       ??1?$QForeachContainer@V?$QList@PAVQObject@@@@@@QAE@XZ 004158a0 f i workmodels.obj
 0001:00014900       ??1PlanController@@UAE@XZ  00415900 f   workmodels.obj
 0001:00014960       ??1PlanSelector@@UAE@XZ    00415960 f   workmodels.obj
 0001:00014a20       ??1StatusViewWatcher@@UAE@XZ 00415a20 f   workmodels.obj
 0001:00014aa0       ??4?$QList@H@@QAEAAV0@$$QAV0@@Z 00415aa0 f i configfilehandler.obj
 0001:00014aa0       ??4?$QList@PAVQObject@@@@QAEAAV0@$$QAV0@@Z 00415aa0 f i workmodels.obj
 0001:00014b20       ??_EOperationParamSelector@@UAEPAXI@Z 00415b20 f i workmodels.obj
 0001:00014b20       ??_GOperationParamSelector@@UAEPAXI@Z 00415b20 f i workmodels.obj
 0001:00014b40       ??_EPlanController@@UAEPAXI@Z 00415b40 f i workmodels.obj
 0001:00014b40       ??_GPlanController@@UAEPAXI@Z 00415b40 f i workmodels.obj
 0001:00014bb0       ??_GPlanSelector@@UAEPAXI@Z 00415bb0 f i workmodels.obj
 0001:00014bb0       ??_EPlanSelector@@UAEPAXI@Z 00415bb0 f i workmodels.obj
 0001:00014bd0       ??_EStatusViewWatcher@@UAEPAXI@Z 00415bd0 f i workmodels.obj
 0001:00014bd0       ??_GStatusViewWatcher@@UAEPAXI@Z 00415bd0 f i workmodels.obj
 0001:00014c70       ?WorkPlaceConstraint@EnvironmentVariant@@QAE?AVQJsonArray@@XZ 00415c70 f i workmodels.obj
 0001:00014c90       ?addPlan@PlanSelector@@QAEXABVQString@@@Z 00415c90 f   workmodels.obj
 0001:00014cb0       ?addStep@PlanSelector@@QAEXHHH@Z 00415cb0 f   workmodels.obj
 0001:00014cd0       ?append@?$QList@H@@QAEXABH@Z 00415cd0 f i configfilehandler.obj
 0001:00014cd0       ?append@?$QList@PAVQObject@@@@QAEXABQAVQObject@@@Z 00415cd0 f i workmodels.obj
 0001:00014d60       ?commitParam@PlanSelector@@QAEXHHABVQString@@ABVQVariant@@@Z 00415d60 f   workmodels.obj
 0001:00014d80       ?detach_helper_grow@?$QList@H@@AAEPAUNode@1@HH@Z 00415d80 f i configfilehandler.obj
 0001:00014d80       ?detach_helper_grow@?$QList@PAVQObject@@@@AAEPAUNode@1@HH@Z 00415d80 f i workmodels.obj
 0001:00014ec0       ?eventFilter@PlanController@@UAE_NPAVQObject@@PAVQEvent@@@Z 00415ec0 f   workmodels.obj
 0001:00014f10       ?eventFilter@PlanSelector@@MAE_NPAVQObject@@PAVQEvent@@@Z 00415f10 f   workmodels.obj
 0001:00014f60       ?eventFilter@StatusViewWatcher@@UAE_NPAVQObject@@PAVQEvent@@@Z 00415f60 f   workmodels.obj
 0001:00014fa0       ?exportConfigFile@ConfigFileConverter@@QAE_NABVQUrl@@@Z 00415fa0 f   workmodels.obj
 0001:00015010       ?getBoardTypeIndexByPosition@PlanSelector@@QAEHH@Z 00416010 f   workmodels.obj
 0001:00015010       ?getBoardTypeIndexByPosition@OperationParamSelector@@QAEHH@Z 00416010 f   workmodels.obj
 0001:00015030       ?getSwitch@OperationParamSelector@@QAEPAVQObject@@ABVQString@@@Z 00416030 f   workmodels.obj
 0001:000151a0       ?getSwitch@PlanSelector@@QAEPAVQObject@@ABVQString@@@Z 004161a0 f   workmodels.obj
 0001:00015310       ?getWorkLocationTypeList@StatusViewWatcher@@QAE?AVQJsonObject@@XZ 00416310 f   workmodels.obj
 0001:00015340       ?getWorkPlaceConstraint@StatusViewWatcher@@QAE?AVQJsonArray@@XZ 00416340 f   workmodels.obj
 0001:00015370       ?importConfigFile@ConfigFileConverter@@QAE_NABVQUrl@@@Z 00416370 f   workmodels.obj
 0001:000153e0       ?init@OperationParamSelector@@QAEXABVQString@@@Z 004163e0 f   workmodels.obj
 0001:00015460       ?moveStep@PlanSelector@@QAEXHHH@Z 00416460 f   workmodels.obj
 0001:00015480       ?node_copy@?$QList@H@@AAEXPAUNode@1@00@Z 00416480 f i configfilehandler.obj
 0001:00015480       ?node_copy@?$QList@PAVQObject@@@@AAEXPAUNode@1@00@Z 00416480 f i workmodels.obj
 0001:000154b0       ?onCompleteSingleOperation@OperationParamSelector@@QAEXXZ 004164b0 f   workmodels.obj
 0001:00015740       ?onMachineConfigChanged@TargetMachineObject@@QAE_NXZ 00416740 f   workmodels.obj
 0001:000157c0       ?onSave@PlanSelector@@QAE_NXZ 004167c0 f   workmodels.obj
 0001:000157d0       ?operationCurrentIndex@PlanSelector@@QAEHXZ 004167d0 f   workmodels.obj
 0001:000157f0       ?planListModel@PlanSelector@@QAE?AVQStringList@@XZ 004167f0 f   workmodels.obj
 0001:00015820       ?planSelectStepListModel@PlanSelector@@QAE?AVQStringList@@H@Z 00416820 f   workmodels.obj
 0001:00015850       ?removePlan@PlanSelector@@QAEXH@Z 00416850 f   workmodels.obj
 0001:00015870       ?removeStep@PlanSelector@@QAEXHH@Z 00416870 f   workmodels.obj
 0001:00015890       ?resumePlan@PlanController@@QAEXXZ 00416890 f   workmodels.obj
 0001:000158c0       ?setPlanName@PlanSelector@@QAEXHABVQString@@@Z 004168c0 f   workmodels.obj
 0001:000158e0       ?setSelectedOperation@OperationParamSelector@@QAEXH@Z 004168e0 f   workmodels.obj
 0001:00015cb0       ?setSelectedOperation@PlanSelector@@QAEXHHH@Z 00416cb0 f   workmodels.obj
 0001:00016170       ?setSelectedStep@PlanSelector@@QAEXHH@Z 00417170 f   workmodels.obj
 0001:00016550       ?setWorkLocationType@StatusViewWatcher@@QAE_NHHABVQString@@@Z 00417550 f   workmodels.obj
 0001:00016570       ?startCheckPlan@PlanSelector@@QAEXH@Z 00417570 f   workmodels.obj
 0001:00016590       ?startPlan@PlanController@@QAEXHH@Z 00417590 f   workmodels.obj
 0001:000165c0       ?stepListModel@PlanSelector@@QAE?AVQStringList@@H@Z 004175c0 f   workmodels.obj
 0001:000165f0       ?stopCheckPlan@PlanSelector@@QAEXXZ 004175f0 f   workmodels.obj
 0001:00016600       ?stopPlan@PlanController@@QAEXXZ 00417600 f   workmodels.obj
 0001:00016610       ?updateWorkPlace@StatusViewWatcher@@QAE_NABVQJsonObject@@@Z 00417610 f   workmodels.obj
 0001:00016630       ??$connect@P8SubThreadCheckWorker@@AEXABVQJsonObject@@@ZP8WorkflowCheckerController@@AEX0@Z@QObject@@SA?AVConnection@QMetaObject@@PBVSubThreadCheckWorker@@P83@AEXABVQJsonObject@@@ZPBVWorkflowCheckerController@@P85@AEX1@ZW4ConnectionType@Qt@@@Z 00417630 f i workflowChecker.obj
 0001:000166a0       ??$connect@P8WorkflowCheckerController@@AEXABVQJsonArray@@@ZP8SubThreadCheckWorker@@AEX0@Z@QObject@@SA?AVConnection@QMetaObject@@PBVWorkflowCheckerController@@P83@AEXABVQJsonArray@@@ZPBVSubThreadCheckWorker@@P85@AEX1@ZW4ConnectionType@Qt@@@Z 004176a0 f i workflowChecker.obj
 0001:00016710       ??$connect@P8WorkflowCheckerController@@AEXABVQJsonObject@@@ZP8SubThreadCheckWorker@@AEX0@Z@QObject@@SA?AVConnection@QMetaObject@@PBVWorkflowCheckerController@@P83@AEXABVQJsonObject@@@ZPBVSubThreadCheckWorker@@P85@AEX1@ZW4ConnectionType@Qt@@@Z 00417710 f i workflowChecker.obj
 0001:00016780       ??$connect@P8WorkflowCheckerController@@AEXXZP8SubThreadCheckWorker@@AEXXZ@QObject@@SA?AVConnection@QMetaObject@@PBVWorkflowCheckerController@@P83@AEXXZPBVSubThreadCheckWorker@@P84@AEXXZW4ConnectionType@Qt@@@Z 00417780 f i workflowChecker.obj
 0001:000167e0       ??0WorkflowCheckerController@@QAE@PAVQObject@@@Z 004177e0 f   workflowChecker.obj
 0001:00016960       ??1?$QMap@VQString@@H@@QAE@XZ 00417960 f i workflowChecker.obj
 0001:00016a00       ??1WorkflowCheckerController@@UAE@XZ 00417a00 f   workflowChecker.obj
 0001:00016a70       ??A?$QMap@VQString@@H@@QAEAAHABVQString@@@Z 00417a70 f i workflowChecker.obj
 0001:00016af0       ??_GCheckStateChangeEvent@@UAEPAXI@Z 00417af0 f i workflowChecker.obj
 0001:00016af0       ??_ECheckStateChangeEvent@@UAEPAXI@Z 00417af0 f i workflowChecker.obj
 0001:00016af0       ??_GStatusChangeEvent@@UAEPAXI@Z 00417af0 f i workflowprotocol.obj
 0001:00016af0       ??_EStatusChangeEvent@@UAEPAXI@Z 00417af0 f i workflowprotocol.obj
 0001:00016b20       ??_ESubThreadCheckWorker@@UAEPAXI@Z 00417b20 f i workflowChecker.obj
 0001:00016b20       ??_GSubThreadCheckWorker@@UAEPAXI@Z 00417b20 f i workflowChecker.obj
 0001:00016b70       ??_EWorkflowCheckerController@@UAEPAXI@Z 00417b70 f i workflowChecker.obj
 0001:00016b70       ??_GWorkflowCheckerController@@UAEPAXI@Z 00417b70 f i workflowChecker.obj
 0001:00016c00       ?CheckBoardConstraint@SubThreadCheckWorker@@IAE_NABVQJsonObject@@@Z 00417c00 f   workflowChecker.obj
 0001:00016fb0       ?CheckParamConstraint@SubThreadCheckWorker@@IAE_NABVQJsonObject@@@Z 00417fb0 f   workflowChecker.obj
 0001:00017860       ?checkTask@WorkflowCheckerController@@QAEXABVQJsonObject@@@Z 00418860 f   workflowChecker.obj
 0001:00017870       ?configChecker@SubThreadCheckWorker@@QAEXABVQJsonArray@@@Z 00418870 f   workflowChecker.obj
 0001:00017bd0       ?copy@?$QMapNode@VQString@@H@@QBEPAU1@PAU?$QMapData@VQString@@H@@@Z 00418bd0 f i workflowChecker.obj
 0001:00017c50       ?createNode@?$QMapData@VQString@@H@@QAEPAU?$QMapNode@VQString@@H@@ABVQString@@ABHPAU2@_N@Z 00418c50 f i workflowChecker.obj
 0001:00017c90       ?destroySubTree@?$QMapNode@VQString@@H@@QAEXXZ 00418c90 f i workflowChecker.obj
 0001:00017cc0       ?detach_helper@?$QMap@VQString@@H@@AAEXXZ 00418cc0 f i workflowChecker.obj
 0001:00017d60       ?doCheck@SubThreadCheckWorker@@QAEXABVQJsonObject@@@Z 00418d60 f   workflowChecker.obj
 0001:000182c0       ?forceStop@SubThreadCheckWorker@@QAEXXZ 004192c0 f   workflowChecker.obj
 0001:000182d0       ?impl@?$QSlotObject@P8StatusViewWatcher@@AEXXZU?$List@$$V@QtPrivate@@X@QtPrivate@@CAXHPAVQSlotObjectBase@2@PAVQObject@@PAPAXPA_N@Z 004192d0 f i workmodels.obj
 0001:000182d0       ?impl@?$QSlotObject@P8SubThreadCheckWorker@@AEXXZU?$List@$$V@QtPrivate@@X@QtPrivate@@CAXHPAVQSlotObjectBase@2@PAVQObject@@PAPAXPA_N@Z 004192d0 f i workflowChecker.obj
 0001:000182d0       ?impl@?$QSlotObject@P8SubThreadWorker@@AEXXZU?$List@$$V@QtPrivate@@X@QtPrivate@@CAXHPAVQSlotObjectBase@2@PAVQObject@@PAPAXPA_N@Z 004192d0 f i workflowprotocol.obj
 0001:000182d0       ?impl@?$QSlotObject@P8QObject@@AEXXZU?$List@$$V@QtPrivate@@X@QtPrivate@@CAXHPAVQSlotObjectBase@2@PAVQObject@@PAPAXPA_N@Z 004192d0 f i workflowprotocol.obj
 0001:00018320       ?impl@?$QSlotObject@P8SubThreadWorker@@AEXABVQString@@@ZU?$List@ABVQString@@@QtPrivate@@X@QtPrivate@@CAXHPAVQSlotObjectBase@2@PAVQObject@@PAPAXPA_N@Z 00419320 f i workflowprotocol.obj
 0001:00018320       ?impl@?$QSlotObject@P8SubThreadWorker@@AEXABVQJsonObject@@@ZU?$List@ABVQJsonObject@@@QtPrivate@@X@QtPrivate@@CAXHPAVQSlotObjectBase@2@PAVQObject@@PAPAXPA_N@Z 00419320 f i workflowprotocol.obj
 0001:00018320       ?impl@?$QSlotObject@P8SubThreadCheckWorker@@AEXABVQJsonArray@@@ZU?$List@ABVQJsonArray@@@QtPrivate@@X@QtPrivate@@CAXHPAVQSlotObjectBase@2@PAVQObject@@PAPAXPA_N@Z 00419320 f i workflowChecker.obj
 0001:00018320       ?impl@?$QSlotObject@P8WorkflowCheckerController@@AEXABVQJsonObject@@@ZU?$List@ABVQJsonObject@@@QtPrivate@@X@QtPrivate@@CAXHPAVQSlotObjectBase@2@PAVQObject@@PAPAXPA_N@Z 00419320 f i workflowChecker.obj
 0001:00018320       ?impl@?$QSlotObject@P8WorkflowController@@AEXABVQJsonObject@@@ZU?$List@ABVQJsonObject@@@QtPrivate@@X@QtPrivate@@CAXHPAVQSlotObjectBase@2@PAVQObject@@PAPAXPA_N@Z 00419320 f i workflowprotocol.obj
 0001:00018320       ?impl@?$QSlotObject@P8SubThreadCheckWorker@@AEXABVQJsonObject@@@ZU?$List@ABVQJsonObject@@@QtPrivate@@X@QtPrivate@@CAXHPAVQSlotObjectBase@2@PAVQObject@@PAPAXPA_N@Z 00419320 f i workflowChecker.obj
 0001:00018380       ?init@WorkflowCheckerController@@QAEXABVQJsonArray@@@Z 00419380 f   workflowChecker.obj
 0001:00018390       ?insert@?$QMap@VQString@@H@@QAE?AViterator@1@ABVQString@@ABH@Z 00419390 f i workflowChecker.obj
 0001:00018450       ?remove@?$QMap@VQString@@H@@QAEHABVQString@@@Z 00419450 f i workflowChecker.obj
 0001:00018500       ?statusChanged@WorkflowCheckerController@@QAEXABVQJsonObject@@@Z 00419500 f   workflowChecker.obj
 0001:000185a0       ?stopCurrentCheck@WorkflowCheckerController@@QAEXXZ 004195a0 f   workflowChecker.obj
 0001:000185c0       ?types@?$ConnectionTypes@U?$List@ABVQJsonArray@@@QtPrivate@@$00@QtPrivate@@SAPBHXZ 004195c0 f i workflowChecker.obj
 0001:00018620       ?changeHost@WorkflowController@@QAEXABVQString@@G@Z 00419620 f   moc_workflowprotocol.obj
 0001:00018670       ?configProtocol@WorkflowController@@QAEXABVQString@@@Z 00419670 f   moc_workflowprotocol.obj
 0001:000186a0       ?metaObject@SubThreadWorker@@UBEPBUQMetaObject@@XZ 004196a0 f   moc_workflowprotocol.obj
 0001:000186c0       ?metaObject@WorkflowController@@UBEPBUQMetaObject@@XZ 004196c0 f   moc_workflowprotocol.obj
 0001:000186e0       ?qt_metacall@SubThreadWorker@@UAEHW4Call@QMetaObject@@HPAPAX@Z 004196e0 f   moc_workflowprotocol.obj
 0001:00018740       ?qt_metacall@WorkflowController@@UAEHW4Call@QMetaObject@@HPAPAX@Z 00419740 f   moc_workflowprotocol.obj
 0001:000187a0       ?qt_metacast@SubThreadWorker@@UAEPAXPBD@Z 004197a0 f   moc_workflowprotocol.obj
 0001:00018800       ?qt_metacast@WorkflowController@@UAEPAXPBD@Z 00419800 f   moc_workflowprotocol.obj
 0001:00018860       ?qt_static_metacall@SubThreadWorker@@CAXPAVQObject@@W4Call@QMetaObject@@HPAPAX@Z 00419860 f   moc_workflowprotocol.obj
 0001:00018950       ?qt_static_metacall@WorkflowController@@CAXPAVQObject@@W4Call@QMetaObject@@HPAPAX@Z 00419950 f   moc_workflowprotocol.obj
 0001:00018a70       ?runNewTask@WorkflowController@@QAEXABVQJsonObject@@@Z 00419a70 f   moc_workflowprotocol.obj
 0001:00018aa0       ?runNewTunning@WorkflowController@@QAEXABVQJsonObject@@@Z 00419aa0 f   moc_workflowprotocol.obj
 0001:00018ad0       ?statusChanged@SubThreadWorker@@QAEXABVQJsonObject@@@Z 00419ad0 f   moc_workflowprotocol.obj
 0001:00018b00       ?stopTask@WorkflowController@@QAEXXZ 00419b00 f   moc_workflowprotocol.obj
 0001:00018b20       ?taskStateChanged@SubThreadWorker@@QAEX_NH@Z 00419b20 f   moc_workflowprotocol.obj
 0001:00018b70       ?configChecker@WorkflowCheckerController@@QAEXABVQJsonArray@@@Z 00419b70 f   moc_workflowChecker.obj
 0001:00018ba0       ?metaObject@SubThreadCheckWorker@@UBEPBUQMetaObject@@XZ 00419ba0 f   moc_workflowChecker.obj
 0001:00018bc0       ?metaObject@WorkflowCheckerController@@UBEPBUQMetaObject@@XZ 00419bc0 f   moc_workflowChecker.obj
 0001:00018be0       ?qt_metacall@SubThreadCheckWorker@@UAEHW4Call@QMetaObject@@HPAPAX@Z 00419be0 f   moc_workflowChecker.obj
 0001:00018c40       ?qt_metacall@WorkflowCheckerController@@UAEHW4Call@QMetaObject@@HPAPAX@Z 00419c40 f   moc_workflowChecker.obj
 0001:00018ca0       ?qt_metacast@SubThreadCheckWorker@@UAEPAXPBD@Z 00419ca0 f   moc_workflowChecker.obj
 0001:00018d00       ?qt_metacast@WorkflowCheckerController@@UAEPAXPBD@Z 00419d00 f   moc_workflowChecker.obj
 0001:00018d60       ?qt_static_metacall@SubThreadCheckWorker@@CAXPAVQObject@@W4Call@QMetaObject@@HPAPAX@Z 00419d60 f   moc_workflowChecker.obj
 0001:00018df0       ?qt_static_metacall@WorkflowCheckerController@@CAXPAVQObject@@W4Call@QMetaObject@@HPAPAX@Z 00419df0 f   moc_workflowChecker.obj
 0001:00018eb0       ?runNewCheck@WorkflowCheckerController@@QAEXABVQJsonObject@@@Z 00419eb0 f   moc_workflowChecker.obj
 0001:00018ee0       ?statusChanged@SubThreadCheckWorker@@QAEXABVQJsonObject@@@Z 00419ee0 f   moc_workflowChecker.obj
 0001:00018f10       ?stopCheck@WorkflowCheckerController@@QAEXXZ 00419f10 f   moc_workflowChecker.obj
 0001:00018f30       ?metaObject@configFileHandler@@UBEPBUQMetaObject@@XZ 00419f30 f   moc_configfilehandler.obj
 0001:00018f50       ?qt_metacall@configFileHandler@@UAEHW4Call@QMetaObject@@HPAPAX@Z 00419f50 f   moc_configfilehandler.obj
 0001:00018f60       ?qt_metacast@configFileHandler@@UAEPAXPBD@Z 00419f60 f   moc_configfilehandler.obj
 0001:00018fc0       ?onComplete@PlanSelector@@QAEXXZ 00419fc0 f   workmodels.obj
 0001:00018fc0       ??3@YAXPAX0@Z              00419fc0 f   configfilehandler.obj
 0001:00018fc0       ?Destruct@?$QMetaTypeFunctionHelper@VQSequentialIterableImpl@QtMetaTypePrivate@@$00@QtMetaTypePrivate@@SAXPAX@Z 00419fc0 f   moc_workmodels.obj
 0001:00018fc0       __initialize_denormal_control 00419fc0 f   MSVCRT:denormal_control.obj
 0001:00018fc0       ?qt_static_metacall@configFileHandler@@CAXPAVQObject@@W4Call@QMetaObject@@HPAPAX@Z 00419fc0 f   moc_configfilehandler.obj
 0001:00018fc0       ?Destruct@?$QMetaTypeFunctionHelper@V?$QQmlListProperty@VOperationParamSelector@@@@$00@QtMetaTypePrivate@@SAXPAX@Z 00419fc0 f   main.obj
 0001:00018fc0       ?Destruct@?$QMetaTypeFunctionHelper@V?$QQmlListProperty@VPlanSelector@@@@$00@QtMetaTypePrivate@@SAXPAX@Z 00419fc0 f   main.obj
 0001:00018fc0       __initialize_invalid_parameter_handler 00419fc0 f   MSVCRT:invalid_parameter_handler.obj
 0001:00018fc0       ?Destruct@?$QMetaTypeFunctionHelper@V?$QQmlListProperty@VStatusViewWatcher@@@@$00@QtMetaTypePrivate@@SAXPAX@Z 00419fc0 f   main.obj
 0001:00018fc0       ?Destruct@?$QMetaTypeFunctionHelper@V?$QQmlListProperty@VTextFieldDoubleValidator@@@@$00@QtMetaTypePrivate@@SAXPAX@Z 00419fc0 f   main.obj
 0001:00018fc0       ?Destruct@?$QMetaTypeFunctionHelper@V?$QQmlListProperty@VPlanController@@@@$00@QtMetaTypePrivate@@SAXPAX@Z 00419fc0 f   main.obj
 0001:00018fc0       ?Destruct@?$QMetaTypeFunctionHelper@V?$QQmlListProperty@VOperationParamObject@@@@$00@QtMetaTypePrivate@@SAXPAX@Z 00419fc0 f   main.obj
 0001:00018fc0       ?Destruct@?$QMetaTypeFunctionHelper@PAVStatusViewWatcher@@$00@QtMetaTypePrivate@@SAXPAX@Z 00419fc0 f   main.obj
 0001:00018fc0       ?Destruct@?$QMetaTypeFunctionHelper@PAVOperationParamObject@@$00@QtMetaTypePrivate@@SAXPAX@Z 00419fc0 f   main.obj
 0001:00018fc0       ?Destruct@?$QMetaTypeFunctionHelper@PAVPlanController@@$00@QtMetaTypePrivate@@SAXPAX@Z 00419fc0 f   main.obj
 0001:00018fc0       ?Destruct@?$QMetaTypeFunctionHelper@PAVPlanSelector@@$00@QtMetaTypePrivate@@SAXPAX@Z 00419fc0 f   main.obj
 0001:00018fc0       ?Destruct@?$QMetaTypeFunctionHelper@PAVTextFieldDoubleValidator@@$00@QtMetaTypePrivate@@SAXPAX@Z 00419fc0 f   main.obj
 0001:00018fc0       @_guard_check_icall_nop@4  00419fc0 f   MSVCRT:guard_support.obj
 0001:00018fc0       ?Destruct@?$QMetaTypeFunctionHelper@PAVOperationParamSelector@@$00@QtMetaTypePrivate@@SAXPAX@Z 00419fc0 f   main.obj
 0001:00018fd0       ?metaObject@EnvironmentVariant@@UBEPBUQMetaObject@@XZ 00419fd0 f   moc_environmentvariant.obj
 0001:00018ff0       ?qt_metacall@EnvironmentVariant@@UAEHW4Call@QMetaObject@@HPAPAX@Z 00419ff0 f   moc_environmentvariant.obj
 0001:00019050       ?qt_metacast@EnvironmentVariant@@UAEPAXPBD@Z 0041a050 f   moc_environmentvariant.obj
 0001:000190b0       ?qt_static_metacall@EnvironmentVariant@@CAXPAVQObject@@W4Call@QMetaObject@@HPAPAX@Z 0041a0b0 f   moc_environmentvariant.obj
 0001:00019100       ?workLocationTypeChanged@EnvironmentVariant@@QAEXXZ 0041a100 f   moc_environmentvariant.obj
 0001:00019120       ??$atImpl@V?$QList@PAVQObject@@@@@QSequentialIterableImpl@QtMetaTypePrivate@@SAPBXPBXH@Z 0041a120 f i moc_workmodels.obj
 0001:00019120       ??$atImpl@V?$QList@H@@@QSequentialIterableImpl@QtMetaTypePrivate@@SAPBXPBXH@Z 0041a120 f i moc_workmodels.obj
 0001:00019140       ??$equal@PBHV?$checked_array_iterator@PBH@stdext@@U?$equal_to@X@std@@@std@@YA_NPBH0V?$checked_array_iterator@PBH@stdext@@U?$equal_to@X@0@@Z 0041a140 f i moc_workmodels.obj
 0001:00019140       ??$equal@PBQAVQObject@@V?$checked_array_iterator@PBQAVQObject@@@stdext@@U?$equal_to@X@std@@@std@@YA_NPBQAVQObject@@0V?$checked_array_iterator@PBQAVQObject@@@stdext@@U?$equal_to@X@0@@Z 0041a140 f i moc_workmodels.obj
 0001:000191c0       ??$getImpl@V?$QList@PAVQObject@@@@@QSequentialIterableImpl@QtMetaTypePrivate@@SA?AUVariantData@1@PBQAXHI@Z 0041a1c0 f i moc_workmodels.obj
 0001:000191c0       ??$getImpl@V?$QList@H@@@QSequentialIterableImpl@QtMetaTypePrivate@@SA?AUVariantData@1@PBQAXHI@Z 0041a1c0 f i moc_workmodels.obj
 0001:000191e0       ??$moveToBeginImpl@V?$QList@PAVQObject@@@@@QSequentialIterableImpl@QtMetaTypePrivate@@SAXPBXPAPAX@Z 0041a1e0 f i moc_workmodels.obj
 0001:000191e0       ??$moveToBeginImpl@V?$QList@H@@@QSequentialIterableImpl@QtMetaTypePrivate@@SAXPBXPAPAX@Z 0041a1e0 f i moc_workmodels.obj
 0001:00019210       ??$moveToEndImpl@V?$QList@PAVQObject@@@@@QSequentialIterableImpl@QtMetaTypePrivate@@SAXPBXPAPAX@Z 0041a210 f i moc_workmodels.obj
 0001:00019210       ??$moveToEndImpl@V?$QList@H@@@QSequentialIterableImpl@QtMetaTypePrivate@@SAXPBXPAPAX@Z 0041a210 f i moc_workmodels.obj
 0001:00019240       ??$sizeImpl@V?$QList@PAVQObject@@@@@QSequentialIterableImpl@QtMetaTypePrivate@@SAHPBX@Z 0041a240 f i moc_workmodels.obj
 0001:00019240       ??$sizeImpl@V?$QList@H@@@QSequentialIterableImpl@QtMetaTypePrivate@@SAHPBX@Z 0041a240 f i moc_workmodels.obj
 0001:00019250       ??0QSequentialIterableImpl@QtMetaTypePrivate@@QAE@XZ 0041a250 f i moc_workmodels.obj
 0001:000192c0       ?Construct@?$QMetaTypeFunctionHelper@V?$QList@H@@$00@QtMetaTypePrivate@@SAPAXPAXPBX@Z 0041a2c0 f i moc_workmodels.obj
 0001:000192c0       ?Construct@?$QMetaTypeFunctionHelper@V?$QList@PAVQObject@@@@$00@QtMetaTypePrivate@@SAPAXPAXPBX@Z 0041a2c0 f i moc_workmodels.obj
 0001:00019340       ?Construct@?$QMetaTypeFunctionHelper@VQSequentialIterableImpl@QtMetaTypePrivate@@$00@QtMetaTypePrivate@@SAPAXPAXPBX@Z 0041a340 f i moc_workmodels.obj
 0001:00019380       ?Destruct@?$QMetaTypeFunctionHelper@V?$QList@PAVQObject@@@@$00@QtMetaTypePrivate@@SAXPAX@Z 0041a380 f i moc_workmodels.obj
 0001:00019380       ?Destruct@?$QMetaTypeFunctionHelper@V?$QList@H@@$00@QtMetaTypePrivate@@SAXPAX@Z 0041a380 f i moc_workmodels.obj
 0001:000193f0       ?MachineConfigChanged@TargetMachineObject@@QAEXXZ 0041a3f0 f   moc_workmodels.obj
 0001:00019410       ?UnitChanged@OperationParamObject@@QAEXXZ 0041a410 f   moc_workmodels.obj
 0001:00019430       ?advance@?$IteratorOwnerCommon@Vconst_iterator@?$QList@PAVQObject@@@@@QtMetaTypePrivate@@SAXPAPAXH@Z 0041a430 f i moc_workmodels.obj
 0001:00019430       ?advance@?$IteratorOwnerCommon@Vconst_iterator@?$QList@H@@@QtMetaTypePrivate@@SAXPAPAXH@Z 0041a430 f i moc_workmodels.obj
 0001:00019440       ?assign@?$IteratorOwnerCommon@Vconst_iterator@?$QList@H@@@QtMetaTypePrivate@@SAXPAPAXPBQAX@Z 0041a440 f i moc_workmodels.obj
 0001:00019440       ?assign@?$IteratorOwnerCommon@Vconst_iterator@?$QList@PAVQObject@@@@@QtMetaTypePrivate@@SAXPAPAXPBQAX@Z 0041a440 f i moc_workmodels.obj
 0001:00019460       ?boolValueChanged@OperationParamObject@@QAEXXZ 0041a460 f   moc_workmodels.obj
 0001:00019480       ?bottomValueChanged@OperationParamObject@@QAEXXZ 0041a480 f   moc_workmodels.obj
 0001:000194a0       ?convert@?$ConverterFunctor@V?$QList@H@@VQSequentialIterableImpl@QtMetaTypePrivate@@U?$QSequentialIterableConvertFunctor@V?$QList@H@@@3@@QtPrivate@@SA_NPBUAbstractConverterFunction@2@PBXPAX@Z 0041a4a0 f i moc_workmodels.obj
 0001:00019540       ?convert@?$ConverterFunctor@V?$QList@PAVQObject@@@@VQSequentialIterableImpl@QtMetaTypePrivate@@U?$QSequentialIterableConvertFunctor@V?$QList@PAVQObject@@@@@3@@QtPrivate@@SA_NPBUAbstractConverterFunction@2@PBXPAX@Z 0041a540 f i moc_workmodels.obj
 0001:000195e0       ?currentIndexChanged@OperationParamSelector@@QAEXXZ 0041a5e0 f   moc_workmodels.obj
 0001:00019600       ?destroy@?$IteratorOwnerCommon@Vconst_iterator@?$QList@H@@@QtMetaTypePrivate@@SAXPAPAX@Z 0041a600 f i moc_workmodels.obj
 0001:00019600       ?destroy@?$IteratorOwnerCommon@Vconst_iterator@?$QList@PAVQObject@@@@@QtMetaTypePrivate@@SAXPAPAX@Z 0041a600 f i moc_workmodels.obj
 0001:00019620       ?display@OperationParamObject@@QBE?AVQString@@XZ 0041a620 f i moc_workmodels.obj
 0001:00019640       ?displayChanged@OperationParamObject@@QAEXXZ 0041a640 f   moc_workmodels.obj
 0001:00019660       ?equal@?$IteratorOwnerCommon@Vconst_iterator@?$QList@H@@@QtMetaTypePrivate@@SA_NPBQAX0@Z 0041a660 f i moc_workmodels.obj
 0001:00019660       ?equal@?$IteratorOwnerCommon@Vconst_iterator@?$QList@PAVQObject@@@@@QtMetaTypePrivate@@SA_NPBQAX0@Z 0041a660 f i moc_workmodels.obj
 0001:00019680       ?floatValueChanged@OperationParamObject@@QAEXXZ 0041a680 f   moc_workmodels.obj
 0001:000196a0       ?name@OperationParamObject@@QBE?AVQString@@XZ 0041a6a0 f i workmodels.obj
 0001:000196a0       ?getIpAddress@TargetMachineObject@@QBE?AVQString@@XZ 0041a6a0 f i environmentvariant.obj
 0001:000196a0       ?getOperationName@SingleOperationObject@@QAE?AVQString@@XZ 0041a6a0 f i moc_workmodels.obj
 0001:000196c0       ?getParamListModel@PlanSelector@@QAE?AV?$QList@PAVQObject@@@@XZ 0041a6c0 f i moc_workmodels.obj
 0001:000196e0       ?getParamModel@OperationParamSelector@@QAE?AV?$QList@PAVQObject@@@@XZ 0041a6e0 f i moc_workmodels.obj
 0001:00019700       ?intListValue@OperationParamObject@@QAE?AV?$QList@H@@XZ 0041a700 f i moc_workmodels.obj
 0001:00019720       ?intListValueChanged@OperationParamObject@@QAEXXZ 0041a720 f   moc_workmodels.obj
 0001:00019740       ?integerValueChanged@OperationParamObject@@QAEXXZ 0041a740 f   moc_workmodels.obj
 0001:00019760       ?metaObject@ConfigFileConverter@@UBEPBUQMetaObject@@XZ 0041a760 f   moc_workmodels.obj
 0001:00019780       ?metaObject@OperationParamObject@@UBEPBUQMetaObject@@XZ 0041a780 f   moc_workmodels.obj
 0001:000197a0       ?metaObject@OperationParamSelector@@UBEPBUQMetaObject@@XZ 0041a7a0 f   moc_workmodels.obj
 0001:000197c0       ?metaObject@PlanController@@UBEPBUQMetaObject@@XZ 0041a7c0 f   moc_workmodels.obj
 0001:000197e0       ?metaObject@PlanSelector@@UBEPBUQMetaObject@@XZ 0041a7e0 f   moc_workmodels.obj
 0001:00019800       ?metaObject@StatusViewWatcher@@UBEPBUQMetaObject@@XZ 0041a800 f   moc_workmodels.obj
 0001:00019820       ?metaObject@TargetMachineObject@@UBEPBUQMetaObject@@XZ 0041a820 f   moc_workmodels.obj
 0001:00019840       ?nameChanged@OperationParamObject@@QAEXXZ 0041a840 f   moc_workmodels.obj
 0001:00019860       ?op_eq_impl@?$QList@PAVQObject@@@@ABE_NABV1@UArrayCompatibleLayout@QListData@@@Z 0041a860 f i moc_workmodels.obj
 0001:00019860       ?op_eq_impl@?$QList@H@@ABE_NABV1@UArrayCompatibleLayout@QListData@@@Z 0041a860 f i moc_workmodels.obj
 0001:000198d0       ?op_eq_impl@?$QList@VQString@@@@ABE_NABV1@UArrayCompatibleLayout@QListData@@@Z 0041a8d0 f i moc_workmodels.obj
 0001:00019940       ?operationListModel@PlanSelector@@QAE?AVQStringList@@XZ 0041a940 f i moc_workmodels.obj
 0001:00019960       ?operationModel@OperationParamSelector@@QAE?AVQStringList@@XZ 0041a960 f i moc_workmodels.obj
 0001:00019980       ?operationNameChanged@SingleOperationObject@@QAEXXZ 0041a980 f   moc_workmodels.obj
 0001:000199a0       ?pageNameChanged@OperationParamSelector@@QAEXXZ 0041a9a0 f   moc_workmodels.obj
 0001:000199c0       ?paramListModelChanged@PlanSelector@@QAEXXZ 0041a9c0 f   moc_workmodels.obj
 0001:000199e0       ?paramModelChanged@OperationParamSelector@@QAEXXZ 0041a9e0 f   moc_workmodels.obj
 0001:00019a00       ?planCheckStatusChanged@PlanSelector@@QAEXABVQJsonObject@@@Z 0041aa00 f   moc_workmodels.obj
 0001:00019a30       ?qt_metacall@ConfigFileConverter@@UAEHW4Call@QMetaObject@@HPAPAX@Z 0041aa30 f   moc_workmodels.obj
 0001:00019a90       ?qt_metacall@OperationParamObject@@UAEHW4Call@QMetaObject@@HPAPAX@Z 0041aa90 f   moc_workmodels.obj
 0001:00019b30       ?qt_metacall@OperationParamSelector@@UAEHW4Call@QMetaObject@@HPAPAX@Z 0041ab30 f   moc_workmodels.obj
 0001:00019be0       ?qt_metacall@PlanController@@UAEHW4Call@QMetaObject@@HPAPAX@Z 0041abe0 f   moc_workmodels.obj
 0001:00019c40       ?qt_metacall@PlanSelector@@UAEHW4Call@QMetaObject@@HPAPAX@Z 0041ac40 f   moc_workmodels.obj
 0001:00019cf0       ?qt_metacall@StatusViewWatcher@@UAEHW4Call@QMetaObject@@HPAPAX@Z 0041acf0 f   moc_workmodels.obj
 0001:00019d50       ?qt_metacall@TargetMachineObject@@UAEHW4Call@QMetaObject@@HPAPAX@Z 0041ad50 f   moc_workmodels.obj
 0001:00019e10       ?qt_metacast@ConfigFileConverter@@UAEPAXPBD@Z 0041ae10 f   moc_workmodels.obj
 0001:00019e70       ?qt_metacast@OperationParamObject@@UAEPAXPBD@Z 0041ae70 f   moc_workmodels.obj
 0001:00019f10       ?qt_metacast@OperationParamSelector@@UAEPAXPBD@Z 0041af10 f   moc_workmodels.obj
 0001:00019f70       ?qt_metacast@PlanController@@UAEPAXPBD@Z 0041af70 f   moc_workmodels.obj
 0001:00019fd0       ?qt_metacast@PlanSelector@@UAEPAXPBD@Z 0041afd0 f   moc_workmodels.obj
 0001:0001a030       ?qt_metacast@StatusViewWatcher@@UAEPAXPBD@Z 0041b030 f   moc_workmodels.obj
 0001:0001a090       ?qt_metacast@TargetMachineObject@@UAEPAXPBD@Z 0041b090 f   moc_workmodels.obj
 0001:0001a130       ?qt_metatype_id@?$QMetaTypeId@V?$QList@H@@@@SAHXZ 0041b130 f i moc_workmodels.obj
 0001:0001a250       ?qt_metatype_id@?$QMetaTypeId@V?$QList@PAVQObject@@@@@@SAHXZ 0041b250 f i moc_workmodels.obj
 0001:0001a2f0       ?qt_metatype_id@?$QMetaTypeId@VQSequentialIterableImpl@QtMetaTypePrivate@@@@SAHXZ 0041b2f0 f i moc_workmodels.obj
 0001:0001a380       ?qt_static_metacall@ConfigFileConverter@@CAXPAVQObject@@W4Call@QMetaObject@@HPAPAX@Z 0041b380 f   moc_workmodels.obj
 0001:0001a3d0       ?qt_static_metacall@OperationParamObject@@CAXPAVQObject@@W4Call@QMetaObject@@HPAPAX@Z 0041b3d0 f   moc_workmodels.obj
 0001:0001a8b0       ?qt_static_metacall@OperationParamSelector@@CAXPAVQObject@@W4Call@QMetaObject@@HPAPAX@Z 0041b8b0 f   moc_workmodels.obj
 0001:0001ab60       ?qt_static_metacall@PlanController@@CAXPAVQObject@@W4Call@QMetaObject@@HPAPAX@Z 0041bb60 f   moc_workmodels.obj
 0001:0001abf0       ?qt_static_metacall@PlanSelector@@CAXPAVQObject@@W4Call@QMetaObject@@HPAPAX@Z 0041bbf0 f   moc_workmodels.obj
 0001:0001b090       ?qt_static_metacall@SingleOperationObject@@CAXPAVQObject@@W4Call@QMetaObject@@HPAPAX@Z 0041c090 f   moc_workmodels.obj
 0001:0001b140       ?qt_static_metacall@StatusViewWatcher@@CAXPAVQObject@@W4Call@QMetaObject@@HPAPAX@Z 0041c140 f   moc_workmodels.obj
 0001:0001b310       ?qt_static_metacall@TargetMachineObject@@CAXPAVQObject@@W4Call@QMetaObject@@HPAPAX@Z 0041c310 f   moc_workmodels.obj
 0001:0001b430       ?registerConverter@?$ValueTypeIsMetaType@V?$QList@H@@$00@QtPrivate@@SA_NH@Z 0041c430 f i moc_workmodels.obj
 0001:0001b4c0       ?registerConverter@?$ValueTypeIsMetaType@V?$QList@PAVQObject@@@@$00@QtPrivate@@SA_NH@Z 0041c4c0 f i moc_workmodels.obj
 0001:0001b550       ?setBoolValue@OperationParamObject@@QAEX_N@Z 0041c550 f i moc_workmodels.obj
 0001:0001b580       ?setBottomValue@OperationParamObject@@QAEXH@Z 0041c580 f i moc_workmodels.obj
 0001:0001b5b0       ?setDisplay@OperationParamObject@@QAEXABVQString@@@Z 0041c5b0 f i moc_workmodels.obj
 0001:0001b5f0       ?setFloatValue@OperationParamObject@@QAEXN@Z 0041c5f0 f i moc_workmodels.obj
 0001:0001b630       ?setIntListValue@OperationParamObject@@QAEXABV?$QList@H@@@Z 0041c630 f i moc_workmodels.obj
 0001:0001b710       ?setIntegerValue@OperationParamObject@@QAEXH@Z 0041c710 f i moc_workmodels.obj
 0001:0001b740       ?setName@OperationParamObject@@QAEXABVQString@@@Z 0041c740 f i moc_workmodels.obj
 0001:0001b780       ?setOperationName@SingleOperationObject@@QAEXABVQString@@@Z 0041c780 f i moc_workmodels.obj
 0001:0001b7c0       ?setParamListModel@PlanSelector@@QAEXABV?$QList@PAVQObject@@@@@Z 0041c7c0 f i moc_workmodels.obj
 0001:0001b8a0       ?setParamModel@OperationParamSelector@@QAEXABV?$QList@PAVQObject@@@@@Z 0041c8a0 f i moc_workmodels.obj
 0001:0001b980       ?setStringValue@OperationParamObject@@QAEXABVQString@@@Z 0041c980 f i moc_workmodels.obj
 0001:0001b9c0       ?setStringlistValue@OperationParamObject@@QAEXABVQStringList@@@Z 0041c9c0 f i moc_workmodels.obj
 0001:0001ba40       ?setSwitchValue@OperationParamObject@@QAEXABVQString@@@Z 0041ca40 f i moc_workmodels.obj
 0001:0001ba80       ?setTopValue@OperationParamObject@@QAEXH@Z 0041ca80 f i moc_workmodels.obj
 0001:0001bab0       ?setUnit@OperationParamObject@@QAEXABVQString@@@Z 0041cab0 f i moc_workmodels.obj
 0001:0001baf0       ?settype@OperationParamObject@@QAEXABVQString@@@Z 0041caf0 f i moc_workmodels.obj
 0001:0001bb30       ?statusChanged@StatusViewWatcher@@QAEXABVQJsonObject@@@Z 0041cb30 f   moc_workmodels.obj
 0001:0001bb60       ?stringListValue@OperationParamObject@@QBE?AVQStringList@@XZ 0041cb60 f i moc_workmodels.obj
 0001:0001bb80       ?stringValue@OperationParamObject@@QBE?AVQString@@XZ 0041cb80 f i moc_workmodels.obj
 0001:0001bba0       ?stringValueChanged@OperationParamObject@@QAEXXZ 0041cba0 f   moc_workmodels.obj
 0001:0001bbc0       ?stringlistValueChanged@OperationParamObject@@QAEXXZ 0041cbc0 f   moc_workmodels.obj
 0001:0001bbe0       ?switchValue@OperationParamObject@@QBE?AVQString@@XZ 0041cbe0 f i moc_workmodels.obj
 0001:0001bc00       ?switchValueChanged@OperationParamObject@@QAEXXZ 0041cc00 f   moc_workmodels.obj
 0001:0001bc20       ?taskStateChanged@PlanController@@QAEX_N@Z 0041cc20 f   moc_workmodels.obj
 0001:0001bc50       ?topValueChanged@OperationParamObject@@QAEXXZ 0041cc50 f   moc_workmodels.obj
 0001:0001bc70       ?type@OperationParamObject@@QBE?AVQString@@XZ 0041cc70 f i moc_workmodels.obj
 0001:0001bc90       ?typeChanged@OperationParamObject@@QAEXXZ 0041cc90 f   moc_workmodels.obj
 0001:0001bcb0       ?unit@OperationParamObject@@QBE?AVQString@@XZ 0041ccb0 f i moc_workmodels.obj
 0001:0001bcd0       ?workLocationTypeChanged@StatusViewWatcher@@QAEXXZ 0041ccd0 f   moc_workmodels.obj
 0001:0001bce4       _MiniDumpWriteDump@28      0041cce4 f   DbgHelp:dbghelp.dll
 0001:0001bcea       ?fixup@QValidator@@UBEXAAVQString@@@Z 0041ccea f   Qt5Gui:Qt5Gui.dll
 0001:0001bcf0       ?metaObject@QDoubleValidator@@UBEPBUQMetaObject@@XZ 0041ccf0 f   Qt5Gui:Qt5Gui.dll
 0001:0001bcf6       ?qt_metacall@QDoubleValidator@@UAEHW4Call@QMetaObject@@HPAPAX@Z 0041ccf6 f   Qt5Gui:Qt5Gui.dll
 0001:0001bcfc       ?qt_metacast@QDoubleValidator@@UAEPAXPBD@Z 0041ccfc f   Qt5Gui:Qt5Gui.dll
 0001:0001bd02       ?setRange@QDoubleValidator@@UAEXNNH@Z 0041cd02 f   Qt5Gui:Qt5Gui.dll
 0001:0001bd08       ?childEvent@QObject@@MAEXPAVQChildEvent@@@Z 0041cd08 f   Qt5Core:Qt5Core.dll
 0001:0001bd0e       ?connectNotify@QObject@@MAEXABVQMetaMethod@@@Z 0041cd0e f   Qt5Core:Qt5Core.dll
 0001:0001bd14       ?customEvent@QObject@@MAEXPAVQEvent@@@Z 0041cd14 f   Qt5Core:Qt5Core.dll
 0001:0001bd1a       ?disconnectNotify@QObject@@MAEXABVQMetaMethod@@@Z 0041cd1a f   Qt5Core:Qt5Core.dll
 0001:0001bd20       ?event@QObject@@UAE_NPAVQEvent@@@Z 0041cd20 f   Qt5Core:Qt5Core.dll
 0001:0001bd26       ?eventFilter@QObject@@UAE_NPAV1@PAVQEvent@@@Z 0041cd26 f   Qt5Core:Qt5Core.dll
 0001:0001bd2c       ?timerEvent@QObject@@MAEXPAVQTimerEvent@@@Z 0041cd2c f   Qt5Core:Qt5Core.dll
 0001:0001bd32       ?qRegisterResourceData@@YA_NHPBE00@Z 0041cd32 f   Qt5Core:Qt5Core.dll
 0001:0001bd38       ?qUnregisterResourceData@@YA_NHPBE00@Z 0041cd38 f   Qt5Core:Qt5Core.dll
 0001:0001bd3e       @__security_check_cookie@4 0041cd3e f   MSVCRT:_secchk_.obj
 0001:0001bd4f       ??2@YAPAXI@Z               0041cd4f f   MSVCRT:new_scalar.obj
 0001:0001bd82       ??3@YAXPAXI@Z              0041cd82 f   MSVCRT:delete_scalar_size.obj
 0001:0001be50       ??$__crt_fast_encode_pointer@P6GXPAU_RTL_CONDITION_VARIABLE@@@Z@@YAP6GXPAU_RTL_CONDITION_VARIABLE@@@ZQ6GX0@Z@Z 0041ce50 f i MSVCRT:thread_safe_statics.obj
 0001:0001be50       ??$__crt_fast_encode_pointer@P6GHPAU_RTL_CONDITION_VARIABLE@@PAU_RTL_CRITICAL_SECTION@@K@Z@@YAP6GHPAU_RTL_CONDITION_VARIABLE@@PAU_RTL_CRITICAL_SECTION@@K@ZQ6GH01K@Z@Z 0041ce50 f i MSVCRT:thread_safe_statics.obj
 0001:0001be89       __Init_thread_footer       0041ce89 f   MSVCRT:thread_safe_statics.obj
 0001:0001bec8       __Init_thread_header       0041cec8 f   MSVCRT:thread_safe_statics.obj
 0001:0001bf0e       __Init_thread_lock         0041cf0e f   MSVCRT:thread_safe_statics.obj
 0001:0001bf1a       __Init_thread_notify       0041cf1a f   MSVCRT:thread_safe_statics.obj
 0001:0001bf5b       __Init_thread_unlock       0041cf5b f   MSVCRT:thread_safe_statics.obj
 0001:0001bf67       __Init_thread_wait         0041cf67 f   MSVCRT:thread_safe_statics.obj
 0001:0001bfcc       ??_Gtype_info@@UAEPAXI@Z   0041cfcc f i MSVCRT:std_type_info_static.obj
 0001:0001bfcc       ??_Etype_info@@UAEPAXI@Z   0041cfcc f i MSVCRT:std_type_info_static.obj
 0001:0001c033       ___scrt_acquire_startup_lock 0041d033 f   MSVCRT:utility.obj
 0001:0001c068       ___scrt_initialize_crt     0041d068 f   MSVCRT:utility.obj
 0001:0001c0a1       ___scrt_initialize_onexit_tables 0041d0a1 f   MSVCRT:utility.obj
 0001:0001c138       ___scrt_is_nonwritable_in_current_image 0041d138 f   MSVCRT:utility.obj
 0001:0001c1c2       ___scrt_release_startup_lock 0041d1c2 f   MSVCRT:utility.obj
 0001:0001c1df       ___scrt_uninitialize_crt   0041d1df f   MSVCRT:utility.obj
 0001:0001c207       __onexit                   0041d207 f   MSVCRT:utility.obj
 0001:0001c242       _atexit                    0041d242 f   MSVCRT:utility.obj
 0001:0001c47d       _WinMainCRTStartup         0041d47d f   MSVCRT:exe_winmain.obj
 0001:0001c487       ___raise_securityfailure   0041d487 f   MSVCRT:gs_report.obj
 0001:0001c4af       ___report_gsfailure        0041d4af f   MSVCRT:gs_report.obj
 0001:0001c5aa       ??0bad_alloc@std@@QAE@ABV01@@Z 0041d5aa f i MSVCRT:throw_bad_alloc.obj
 0001:0001c5c5       ??0bad_alloc@std@@QAE@XZ   0041d5c5 f i MSVCRT:throw_bad_alloc.obj
 0001:0001c5dd       ??0bad_array_new_length@std@@QAE@ABV01@@Z 0041d5dd f i MSVCRT:throw_bad_alloc.obj
 0001:0001c5f8       ??0bad_array_new_length@std@@QAE@XZ 0041d5f8 f i MSVCRT:throw_bad_alloc.obj
 0001:0001c610       ??0exception@std@@QAE@ABV01@@Z 0041d610 f i MSVCRT:throw_bad_alloc.obj
 0001:0001c63c       ??1bad_alloc@std@@UAE@XZ   0041d63c f i MSVCRT:throw_bad_alloc.obj
 0001:0001c63c       ??1bad_array_new_length@std@@UAE@XZ 0041d63c f i MSVCRT:throw_bad_alloc.obj
 0001:0001c64d       ??_Ebad_array_new_length@std@@UAEPAXI@Z 0041d64d f i MSVCRT:throw_bad_alloc.obj
 0001:0001c64d       ??_Gexception@std@@UAEPAXI@Z 0041d64d f i MSVCRT:throw_bad_alloc.obj
 0001:0001c64d       ??_Eexception@std@@UAEPAXI@Z 0041d64d f i MSVCRT:throw_bad_alloc.obj
 0001:0001c64d       ??_Gbad_alloc@std@@UAEPAXI@Z 0041d64d f i MSVCRT:throw_bad_alloc.obj
 0001:0001c64d       ??_Ebad_alloc@std@@UAEPAXI@Z 0041d64d f i MSVCRT:throw_bad_alloc.obj
 0001:0001c64d       ??_Gbad_array_new_length@std@@UAEPAXI@Z 0041d64d f i MSVCRT:throw_bad_alloc.obj
 0001:0001c67a       ?__scrt_throw_std_bad_alloc@@YAXXZ 0041d67a f   MSVCRT:throw_bad_alloc.obj
 0001:0001c697       ?__scrt_throw_std_bad_array_new_length@@YAXXZ 0041d697 f   MSVCRT:throw_bad_alloc.obj
 0001:0001c6b4       ?what@exception@std@@UBEPBDXZ 0041d6b4 f i MSVCRT:throw_bad_alloc.obj
 0001:0001c6c1       ??3@YAXPAX@Z               0041d6c1 f   MSVCRT:delete_scalar.obj
 0001:0001c6c6       ___scrt_fastfail           0041d6c6 f   MSVCRT:utility_desktop.obj
 0001:0001c7e1       ___scrt_get_show_window_mode 0041d7e1 f   MSVCRT:utility_desktop.obj
 0001:0001c814       __get_startup_commit_mode  0041d814 f   MSVCRT:commit_mode.obj
 0001:0001c814       __matherr                  0041d814 f   MSVCRT:matherr.obj
 0001:0001c814       __get_startup_new_mode     0041d814 f   MSVCRT:new_mode.obj
 0001:0001c814       __get_startup_thread_locale_mode 0041d814 f   MSVCRT:thread_locale.obj
 0001:0001c814       ___scrt_initialize_winrt   0041d814 f   MSVCRT:utility_desktop.obj
 0001:0001c817       ___scrt_is_managed_app     0041d817 f   MSVCRT:utility_desktop.obj
 0001:0001c85b       ___scrt_set_unhandled_exception_filter 0041d85b f   MSVCRT:utility_desktop.obj
 0001:0001c867       ___scrt_unhandled_exception_filter@4 0041d867 f   MSVCRT:utility_desktop.obj
 0001:0001c8a8       @_guard_check_icall@4      0041d8a8 f i MSVCRT:checkcfg.obj
 0001:0001c8ae       ___isa_available_init      0041d8ae f   MSVCRT:_cpu_disp_.obj
 0001:0001ca48       __get_startup_argv_mode    0041da48 f   MSVCRT:argv_mode.obj
 0001:0001ca4c       ___scrt_is_ucrt_dll_in_use 0041da4c f   MSVCRT:ucrt_detection.obj
 0001:0001ca60       __SEH_prolog4              0041da60 f   MSVCRT:_sehprolg4_.obj
 0001:0001caa6       __SEH_epilog4              0041daa6 f   MSVCRT:_sehprolg4_.obj
 0001:0001cabb       __except_handler4          0041dabb f   MSVCRT:_chandler4gs_.obj
 0001:0001cade       ___security_init_cookie    0041dade f   MSVCRT:gs_support.obj
 0001:0001cb7a       __get_startup_file_mode    0041db7a f   MSVCRT:file_mode.obj
 0001:0001cb80       ?__scrt_initialize_type_info@@YAXXZ 0041db80 f   MSVCRT:tncleanup.obj
 0001:0001cb8c       __initialize_default_precision 0041db8c f   MSVCRT:default_precision.obj
 0001:0001cbad       ___local_stdio_printf_options 0041dbad f i MSVCRT:default_local_stdio_options.obj
 0001:0001cbb3       ___local_stdio_scanf_options 0041dbb3 f i MSVCRT:default_local_stdio_options.obj
 0001:0001cbb9       ___scrt_initialize_default_local_stdio_options 0041dbb9 f   MSVCRT:default_local_stdio_options.obj
 0001:0001cbd6       ___scrt_is_user_matherr_present 0041dbd6 f   MSVCRT:matherr_detection.obj
 0001:0001cbe2       ___scrt_get_dyn_tls_init_callback 0041dbe2 f   MSVCRT:dyn_tls_init.obj
 0001:0001cbe8       ___scrt_get_dyn_tls_dtor_callback 0041dbe8 f   MSVCRT:dyn_tls_dtor.obj
 0001:0001cbee       __RTC_Initialize           0041dbee f   MSVCRT:_initsect_.obj
 0001:0001cc19       __RTC_Terminate            0041dc19 f   MSVCRT:_initsect_.obj
 0001:0001cc44       _IsProcessorFeaturePresent@4 0041dc44 f   kernel32:KERNEL32.dll
 0001:0001cc4a       ___CxxFrameHandler3        0041dc4a f   vcruntime:VCRUNTIME140.dll
 0001:0001cc50       ___std_terminate           0041dc50 f   vcruntime:VCRUNTIME140.dll
 0001:0001cc56       __CxxThrowException@8      0041dc56 f   vcruntime:VCRUNTIME140.dll
 0001:0001cc5c       _memcpy                    0041dc5c f   vcruntime:VCRUNTIME140.dll
 0001:0001cc62       ___RTDynamicCast           0041dc62 f   vcruntime:VCRUNTIME140.dll
 0001:0001cc68       ___vcrt_InitializeCriticalSectionEx 0041dc68 f   vcruntime:VCRUNTIME140.dll
 0001:0001cc6e       ___std_exception_copy      0041dc6e f   vcruntime:VCRUNTIME140.dll
 0001:0001cc74       ___std_exception_destroy   0041dc74 f   vcruntime:VCRUNTIME140.dll
 0001:0001cc7a       _memset                    0041dc7a f   vcruntime:VCRUNTIME140.dll
 0001:0001cc80       __except_handler4_common   0041dc80 f   vcruntime:VCRUNTIME140.dll
 0001:0001cc86       _free                      0041dc86 f   ucrt:api-ms-win-crt-heap-l1-1-0.dll
 0001:0001cc8c       _malloc                    0041dc8c f   ucrt:api-ms-win-crt-heap-l1-1-0.dll
 0001:0001cc92       __callnewh                 0041dc92 f   ucrt:api-ms-win-crt-heap-l1-1-0.dll
 0001:0001cc98       __configure_narrow_argv    0041dc98 f   ucrt:api-ms-win-crt-runtime-l1-1-0.dll
 0001:0001cc9e       __initialize_narrow_environment 0041dc9e f   ucrt:api-ms-win-crt-runtime-l1-1-0.dll
 0001:0001cca4       __initialize_onexit_table  0041dca4 f   ucrt:api-ms-win-crt-runtime-l1-1-0.dll
 0001:0001ccaa       __register_onexit_function 0041dcaa f   ucrt:api-ms-win-crt-runtime-l1-1-0.dll
 0001:0001ccb0       __crt_atexit               0041dcb0 f   ucrt:api-ms-win-crt-runtime-l1-1-0.dll
 0001:0001ccb6       __cexit                    0041dcb6 f   ucrt:api-ms-win-crt-runtime-l1-1-0.dll
 0001:0001ccbc       __seh_filter_exe           0041dcbc f   ucrt:api-ms-win-crt-runtime-l1-1-0.dll
 0001:0001ccc2       __set_app_type             0041dcc2 f   ucrt:api-ms-win-crt-runtime-l1-1-0.dll
 0001:0001ccc8       ___setusermatherr          0041dcc8 f   ucrt:api-ms-win-crt-math-l1-1-0.dll
 0001:0001ccce       __get_narrow_winmain_command_line 0041dcce f   ucrt:api-ms-win-crt-runtime-l1-1-0.dll
 0001:0001ccd4       __initterm                 0041dcd4 f   ucrt:api-ms-win-crt-runtime-l1-1-0.dll
 0001:0001ccda       __initterm_e               0041dcda f   ucrt:api-ms-win-crt-runtime-l1-1-0.dll
 0001:0001cce0       _exit                      0041dce0 f   ucrt:api-ms-win-crt-runtime-l1-1-0.dll
 0001:0001cce6       __exit                     0041dce6 f   ucrt:api-ms-win-crt-runtime-l1-1-0.dll
 0001:0001ccec       __set_fmode                0041dcec f   ucrt:api-ms-win-crt-stdio-l1-1-0.dll
 0001:0001ccf2       __c_exit                   0041dcf2 f   ucrt:api-ms-win-crt-runtime-l1-1-0.dll
 0001:0001ccf8       __register_thread_local_exe_atexit_callback 0041dcf8 f   ucrt:api-ms-win-crt-runtime-l1-1-0.dll
 0001:0001ccfe       __configthreadlocale       0041dcfe f   ucrt:api-ms-win-crt-locale-l1-1-0.dll
 0001:0001cd04       __set_new_mode             0041dd04 f   ucrt:api-ms-win-crt-heap-l1-1-0.dll
 0001:0001cd0a       ___p__commode              0041dd0a f   ucrt:api-ms-win-crt-stdio-l1-1-0.dll
 0001:0001cd10       _terminate                 0041dd10 f   ucrt:api-ms-win-crt-runtime-l1-1-0.dll
 0001:0001cd16       __controlfp_s              0041dd16 f   ucrt:api-ms-win-crt-runtime-l1-1-0.dll
 0001:0001cd20       _WinMain@16                0041dd20 f   qtmain:qtmain_win.obj
 0001:0001ce3e       ??_U@YAPAXI@Z              0041de3e f   MSVCRT:new_array.obj
 0001:0001ce47       ??_V@YAXPAX@Z              0041de47 f   MSVCRT:delete_array.obj
 0001:0001ce4c       ___vcrt_uninitialize       0041de4c f   MSVCRT:ucrt_stubs.obj
 0001:0001ce4c       ___acrt_uninitialize       0041de4c f   MSVCRT:ucrt_stubs.obj
 0001:0001ce4c       ___acrt_initialize         0041de4c f   MSVCRT:ucrt_stubs.obj
 0001:0001ce4c       ___scrt_stub_for_acrt_uninitialize 0041de4c f   MSVCRT:ucrt_stubs.obj
 0001:0001ce4c       ___scrt_stub_for_acrt_initialize 0041de4c f   MSVCRT:ucrt_stubs.obj
 0001:0001ce4c       ___vcrt_initialize         0041de4c f   MSVCRT:ucrt_stubs.obj
 0001:0001ce4c       __should_initialize_environment 0041de4c f   MSVCRT:env_mode.obj
 0001:00020990       ??__Ff@?4??registerConverter@?$ValueTypeIsMetaType@V?$QList@H@@$00@QtPrivate@@SA_NH@Z@YAXXZ 00421990 f i moc_workmodels.obj
 0001:000209e0       ??__Ff@?4??registerConverter@?$ValueTypeIsMetaType@V?$QList@PAVQObject@@@@$00@QtPrivate@@SA_NH@Z@YAXXZ 004219e0 f i moc_workmodels.obj
 0002:00000000       __imp__WideCharToMultiByte@32 00422000     kernel32:KERNEL32.dll
 0002:00000004       __imp__LocalFree@4         00422004     kernel32:KERNEL32.dll
 0002:00000008       __imp__GetCommandLineW@0   00422008     kernel32:KERNEL32.dll
 0002:0000000c       __imp__InitializeSListHead@4 0042200c     kernel32:KERNEL32.dll
 0002:00000010       __imp__GetSystemTimeAsFileTime@4 00422010     kernel32:KERNEL32.dll
 0002:00000014       __imp__QueryPerformanceCounter@4 00422014     kernel32:KERNEL32.dll
 0002:00000018       __imp__GetStartupInfoW@4   00422018     kernel32:KERNEL32.dll
 0002:0000001c       __imp__IsDebuggerPresent@0 0042201c     kernel32:KERNEL32.dll
 0002:00000020       __imp__IsProcessorFeaturePresent@4 00422020     kernel32:KERNEL32.dll
 0002:00000024       __imp__TerminateProcess@8  00422024     kernel32:KERNEL32.dll
 0002:00000028       __imp__UnhandledExceptionFilter@4 00422028     kernel32:KERNEL32.dll
 0002:0000002c       __imp__GetProcAddress@8    0042202c     kernel32:KERNEL32.dll
 0002:00000030       __imp__GetModuleHandleW@4  00422030     kernel32:KERNEL32.dll
 0002:00000034       __imp__CreateEventW@16     00422034     kernel32:KERNEL32.dll
 0002:00000038       __imp__WaitForSingleObjectEx@12 00422038     kernel32:KERNEL32.dll
 0002:0000003c       __imp__ResetEvent@4        0042203c     kernel32:KERNEL32.dll
 0002:00000040       __imp__SetEvent@4          00422040     kernel32:KERNEL32.dll
 0002:00000044       __imp__DeleteCriticalSection@4 00422044     kernel32:KERNEL32.dll
 0002:00000048       __imp__LeaveCriticalSection@4 00422048     kernel32:KERNEL32.dll
 0002:0000004c       __imp__EnterCriticalSection@4 0042204c     kernel32:KERNEL32.dll
 0002:00000050       __imp__GetCurrentThreadId@0 00422050     kernel32:KERNEL32.dll
 0002:00000054       __imp__GetCurrentProcessId@0 00422054     kernel32:KERNEL32.dll
 0002:00000058       __imp__GetCurrentProcess@0 00422058     kernel32:KERNEL32.dll
 0002:0000005c       __imp__SetUnhandledExceptionFilter@4 0042205c     kernel32:KERNEL32.dll
 0002:00000060       __imp__CloseHandle@4       00422060     kernel32:KERNEL32.dll
 0002:00000064       __imp__CreateFileW@28      00422064     kernel32:KERNEL32.dll
 0002:00000068       \177KERNEL32_NULL_THUNK_DATA 00422068     kernel32:KERNEL32.dll
 0002:0000006c       __imp_?unregisterConverterFunction@QMetaType@@SAXHH@Z 0042206c     Qt5Core:Qt5Core.dll
 0002:00000070       __imp_?registerConverterFunction@QMetaType@@SA_NPBUAbstractConverterFunction@QtPrivate@@HH@Z 00422070     Qt5Core:Qt5Core.dll
 0002:00000074       __imp_?hasRegisteredConverterFunction@QMetaType@@SA_NHH@Z 00422074     Qt5Core:Qt5Core.dll
 0002:00000078       __imp_?typeName@QMetaType@@SAPBDH@Z 00422078     Qt5Core:Qt5Core.dll
 0002:0000007c       __imp_?append@QByteArray@@QAEAAV1@PBDH@Z 0042207c     Qt5Core:Qt5Core.dll
 0002:00000080       __imp_?endsWith@QByteArray@@QBE_ND@Z 00422080     Qt5Core:Qt5Core.dll
 0002:00000084       __imp_?normalizedType@QMetaObject@@SA?AVQByteArray@@PBD@Z 00422084     Qt5Core:Qt5Core.dll
 0002:00000088       __imp_?staticMetaObject@QObject@@2UQMetaObject@@B 00422088     Qt5Core:Qt5Core.dll
 0002:0000008c       __imp_?qt_metacall@QObject@@UAEHW4Call@QMetaObject@@HPAPAX@Z 0042208c     Qt5Core:Qt5Core.dll
 0002:00000090       __imp_?qt_metacast@QObject@@UAEPAXPBD@Z 00422090     Qt5Core:Qt5Core.dll
 0002:00000094       __imp_?dynamicMetaObject@QObjectData@@QBEPAUQMetaObject@@XZ 00422094     Qt5Core:Qt5Core.dll
 0002:00000098       __imp_?activate@QMetaObject@@SAXPAVQObject@@PBU1@HPAPAX@Z 00422098     Qt5Core:Qt5Core.dll
 0002:0000009c       __imp_?qUnregisterResourceData@@YA_NHPBE00@Z 0042209c     Qt5Core:Qt5Core.dll
 0002:000000a0       __imp_?qRegisterResourceData@@YA_NHPBE00@Z 004220a0     Qt5Core:Qt5Core.dll
 0002:000000a4       __imp_??8QJsonValue@@QBE_NABV0@@Z 004220a4     Qt5Core:Qt5Core.dll
 0002:000000a8       __imp_??0QJsonArray@@QAE@ABV0@@Z 004220a8     Qt5Core:Qt5Core.dll
 0002:000000ac       __imp_?toLocalFile@QUrl@@QBE?AVQString@@XZ 004220ac     Qt5Core:Qt5Core.dll
 0002:000000b0       __imp_?disconnectImpl@QObject@@CA_NPBV1@PAPAX01PBUQMetaObject@@@Z 004220b0     Qt5Core:Qt5Core.dll
 0002:000000b4       __imp_??0QMessageLogger@@QAE@PBDH0@Z 004220b4     Qt5Core:Qt5Core.dll
 0002:000000b8       __imp_?warning@QMessageLogger@@QBAXPBDZZ 004220b8     Qt5Core:Qt5Core.dll
 0002:000000bc       __imp_??0QByteArray@@QAE@PBDH@Z 004220bc     Qt5Core:Qt5Core.dll
 0002:000000c0       __imp_??0QString@@QAE@XZ   004220c0     Qt5Core:Qt5Core.dll
 0002:000000c4       __imp_??1QString@@QAE@XZ   004220c4     Qt5Core:Qt5Core.dll
 0002:000000c8       __imp_?isOpen@QIODevice@@QBE_NXZ 004220c8     Qt5Core:Qt5Core.dll
 0002:000000cc       __imp_?isWritable@QIODevice@@QBE_NXZ 004220cc     Qt5Core:Qt5Core.dll
 0002:000000d0       __imp_?read@QIODevice@@QAE?AVQByteArray@@_J@Z 004220d0     Qt5Core:Qt5Core.dll
 0002:000000d4       __imp_?write@QIODevice@@QAE_JABVQByteArray@@@Z 004220d4     Qt5Core:Qt5Core.dll
 0002:000000d8       __imp_?debug@QMessageLogger@@QBE?AVQDebug@@XZ 004220d8     Qt5Core:Qt5Core.dll
 0002:000000dc       __imp_??0QChar@@QAE@H@Z    004220dc     Qt5Core:Qt5Core.dll
 0002:000000e0       __imp_??0QByteArray@@QAE@XZ 004220e0     Qt5Core:Qt5Core.dll
 0002:000000e4       __imp_??0QByteArray@@QAE@ABV0@@Z 004220e4     Qt5Core:Qt5Core.dll
 0002:000000e8       __imp_??1QByteArray@@QAE@XZ 004220e8     Qt5Core:Qt5Core.dll
 0002:000000ec       __imp_??4QByteArray@@QAEAAV0@$$QAV0@@Z 004220ec     Qt5Core:Qt5Core.dll
 0002:000000f0       __imp_?data@QByteArray@@QAEPADXZ 004220f0     Qt5Core:Qt5Core.dll
 0002:000000f4       __imp_?data@QByteArray@@QBEPBDXZ 004220f4     Qt5Core:Qt5Core.dll
 0002:000000f8       __imp_?left@QByteArray@@QBE?AV1@H@Z 004220f8     Qt5Core:Qt5Core.dll
 0002:000000fc       __imp_?right@QByteArray@@QBE?AV1@H@Z 004220fc     Qt5Core:Qt5Core.dll
 0002:00000100       __imp_?append@QByteArray@@QAEAAV1@ABV1@@Z 00422100     Qt5Core:Qt5Core.dll
 0002:00000104       __imp_?remove@QByteArray@@QAEAAV1@HH@Z 00422104     Qt5Core:Qt5Core.dll
 0002:00000108       __imp_??0QString@@QAE@ABV0@@Z 00422108     Qt5Core:Qt5Core.dll
 0002:0000010c       __imp_??4QString@@QAEAAV0@ABV0@@Z 0042210c     Qt5Core:Qt5Core.dll
 0002:00000110       __imp_?at@QString@@QBE?BVQChar@@H@Z 00422110     Qt5Core:Qt5Core.dll
 0002:00000114       __imp_?right@QString@@QBE?AV1@H@Z 00422114     Qt5Core:Qt5Core.dll
 0002:00000118       __imp_?toInt@QString@@QBEHPA_NH@Z 00422118     Qt5Core:Qt5Core.dll
 0002:0000011c       __imp_??8@YA_NABVQString@@0@Z 0042211c     Qt5Core:Qt5Core.dll
 0002:00000120       __imp_??8QString@@QBE_NPBD@Z 00422120     Qt5Core:Qt5Core.dll
 0002:00000124       __imp_?fromAscii_helper@QString@@CAPAU?$QTypedArrayData@G@@PBDH@Z 00422124     Qt5Core:Qt5Core.dll
 0002:00000128       __imp_??0QJsonValue@@QAE@_N@Z 00422128     Qt5Core:Qt5Core.dll
 0002:0000012c       __imp_??0QJsonValue@@QAE@H@Z 0042212c     Qt5Core:Qt5Core.dll
 0002:00000130       __imp_??0QJsonValue@@QAE@ABVQString@@@Z 00422130     Qt5Core:Qt5Core.dll
 0002:00000134       __imp_??0QJsonValue@@QAE@PBD@Z 00422134     Qt5Core:Qt5Core.dll
 0002:00000138       __imp_??1QJsonValue@@QAE@XZ 00422138     Qt5Core:Qt5Core.dll
 0002:0000013c       __imp_?toInt@QJsonValue@@QBEHH@Z 0042213c     Qt5Core:Qt5Core.dll
 0002:00000140       __imp_?toString@QJsonValue@@QBE?AVQString@@XZ 00422140     Qt5Core:Qt5Core.dll
 0002:00000144       __imp_?toArray@QJsonValue@@QBE?AVQJsonArray@@XZ 00422144     Qt5Core:Qt5Core.dll
 0002:00000148       __imp_?toObject@QJsonValue@@QBE?AVQJsonObject@@XZ 00422148     Qt5Core:Qt5Core.dll
 0002:0000014c       __imp_??9QJsonValue@@QBE_NABV0@@Z 0042214c     Qt5Core:Qt5Core.dll
 0002:00000150       __imp_??4QJsonValueRef@@QAEAAV0@ABVQJsonValue@@@Z 00422150     Qt5Core:Qt5Core.dll
 0002:00000154       __imp_??4QJsonValueRef@@QAEAAV0@ABV0@@Z 00422154     Qt5Core:Qt5Core.dll
 0002:00000158       __imp_?toString@QJsonValueRef@@QBE?AVQString@@XZ 00422158     Qt5Core:Qt5Core.dll
 0002:0000015c       __imp_?toArray@QJsonValueRef@@QBE?AVQJsonArray@@XZ 0042215c     Qt5Core:Qt5Core.dll
 0002:00000160       __imp_?toObject@QJsonValueRef@@QBE?AVQJsonObject@@XZ 00422160     Qt5Core:Qt5Core.dll
 0002:00000164       __imp_?toValue@QJsonValueRef@@ABE?AVQJsonValue@@XZ 00422164     Qt5Core:Qt5Core.dll
 0002:00000168       __imp_??0QJsonObject@@QAE@XZ 00422168     Qt5Core:Qt5Core.dll
 0002:0000016c       __imp_??1QJsonObject@@QAE@XZ 0042216c     Qt5Core:Qt5Core.dll
 0002:00000170       __imp_??4QJsonObject@@QAEAAV0@ABV0@@Z 00422170     Qt5Core:Qt5Core.dll
 0002:00000174       __imp_??AQJsonObject@@QBE?AVQJsonValue@@ABVQString@@@Z 00422174     Qt5Core:Qt5Core.dll
 0002:00000178       __imp_??AQJsonObject@@QAE?AVQJsonValueRef@@ABVQString@@@Z 00422178     Qt5Core:Qt5Core.dll
 0002:0000017c       __imp_??1Connection@QMetaObject@@QAE@XZ 0042217c     Qt5Core:Qt5Core.dll
 0002:00000180       __imp_?detach@QListData@@QAEPAUData@1@H@Z 00422180     Qt5Core:Qt5Core.dll
 0002:00000184       __imp_?detach_grow@QListData@@QAEPAUData@1@PAHH@Z 00422184     Qt5Core:Qt5Core.dll
 0002:00000188       __imp_?dispose@QListData@@SAXPAUData@1@@Z 00422188     Qt5Core:Qt5Core.dll
 0002:0000018c       __imp_?erase@QListData@@QAEPAPAXPAPAX@Z 0042218c     Qt5Core:Qt5Core.dll
 0002:00000190       __imp_?append@QListData@@QAEPAPAXXZ 00422190     Qt5Core:Qt5Core.dll
 0002:00000194       __imp_?isEmpty@QListData@@QBE_NXZ 00422194     Qt5Core:Qt5Core.dll
 0002:00000198       __imp_?begin@QListData@@QBEPAPAXXZ 00422198     Qt5Core:Qt5Core.dll
 0002:0000019c       __imp_?end@QListData@@QBEPAPAXXZ 0042219c     Qt5Core:Qt5Core.dll
 0002:000001a0       __imp_??0QObject@@QAE@PAV0@@Z 004221a0     Qt5Core:Qt5Core.dll
 0002:000001a4       __imp_??1QObject@@UAE@XZ   004221a4     Qt5Core:Qt5Core.dll
 0002:000001a8       __imp_?moveToThread@QObject@@QAEXPAVQThread@@@Z 004221a8     Qt5Core:Qt5Core.dll
 0002:000001ac       __imp_?deleteLater@QObject@@QAEXXZ 004221ac     Qt5Core:Qt5Core.dll
 0002:000001b0       __imp_?connectImpl@QObject@@CA?AVConnection@QMetaObject@@PBV1@PAPAX01PAVQSlotObjectBase@QtPrivate@@W4ConnectionType@Qt@@PBHPBU3@@Z 004221b0     Qt5Core:Qt5Core.dll
 0002:000001b4       __imp_??0QThread@@QAE@PAVQObject@@@Z 004221b4     Qt5Core:Qt5Core.dll
 0002:000001b8       __imp_??1QThread@@UAE@XZ   004221b8     Qt5Core:Qt5Core.dll
 0002:000001bc       __imp_?isRunning@QThread@@QBE_NXZ 004221bc     Qt5Core:Qt5Core.dll
 0002:000001c0       __imp_?start@QThread@@QAEXW4Priority@1@@Z 004221c0     Qt5Core:Qt5Core.dll
 0002:000001c4       __imp_?quit@QThread@@QAEXXZ 004221c4     Qt5Core:Qt5Core.dll
 0002:000001c8       __imp_?wait@QThread@@QAE_NK@Z 004221c8     Qt5Core:Qt5Core.dll
 0002:000001cc       __imp_?msleep@QThread@@SAXK@Z 004221cc     Qt5Core:Qt5Core.dll
 0002:000001d0       __imp_?finished@QThread@@QAEXUQPrivateSignal@1@@Z 004221d0     Qt5Core:Qt5Core.dll
 0002:000001d4       __imp_?readAll@QIODevice@@QAE?AVQByteArray@@XZ 004221d4     Qt5Core:Qt5Core.dll
 0002:000001d8       __imp_?hex@@YAAAVQTextStream@@AAV1@@Z 004221d8     Qt5Core:Qt5Core.dll
 0002:000001dc       __imp_??1QDebug@@QAE@XZ    004221dc     Qt5Core:Qt5Core.dll
 0002:000001e0       __imp_??6QDebug@@QAEAAV0@H@Z 004221e0     Qt5Core:Qt5Core.dll
 0002:000001e4       __imp_??6QDebug@@QAEAAV0@PBD@Z 004221e4     Qt5Core:Qt5Core.dll
 0002:000001e8       __imp_??6QDebug@@QAEAAV0@ABVQByteArray@@@Z 004221e8     Qt5Core:Qt5Core.dll
 0002:000001ec       __imp_??6QDebug@@QAEAAV0@P6AAAVQTextStream@@AAV1@@Z@Z 004221ec     Qt5Core:Qt5Core.dll
 0002:000001f0       __imp_??0QEvent@@QAE@W4Type@0@@Z 004221f0     Qt5Core:Qt5Core.dll
 0002:000001f4       __imp_??1QEvent@@UAE@XZ    004221f4     Qt5Core:Qt5Core.dll
 0002:000001f8       __imp_??1QJsonDocument@@QAE@XZ 004221f8     Qt5Core:Qt5Core.dll
 0002:000001fc       __imp_?fromJson@QJsonDocument@@SA?AV1@ABVQByteArray@@PAUQJsonParseError@@@Z 004221fc     Qt5Core:Qt5Core.dll
 0002:00000200       __imp_?object@QJsonDocument@@QBE?AVQJsonObject@@XZ 00422200     Qt5Core:Qt5Core.dll
 0002:00000204       __imp_??1QJsonArray@@QAE@XZ 00422204     Qt5Core:Qt5Core.dll
 0002:00000208       __imp_?size@QJsonArray@@QBEHXZ 00422208     Qt5Core:Qt5Core.dll
 0002:0000020c       __imp_??AQJsonArray@@QAE?AVQJsonValueRef@@H@Z 0042220c     Qt5Core:Qt5Core.dll
 0002:00000210       __imp_?start@QElapsedTimer@@QAEXXZ 00422210     Qt5Core:Qt5Core.dll
 0002:00000214       __imp_?restart@QElapsedTimer@@QAE_JXZ 00422214     Qt5Core:Qt5Core.dll
 0002:00000218       __imp_?elapsed@QElapsedTimer@@QBE_JXZ 00422218     Qt5Core:Qt5Core.dll
 0002:0000021c       __imp_?close@QFileDevice@@UAEXXZ 0042221c     Qt5Core:Qt5Core.dll
 0002:00000220       __imp_??0QFile@@QAE@ABVQString@@@Z 00422220     Qt5Core:Qt5Core.dll
 0002:00000224       __imp_??1QFile@@UAE@XZ     00422224     Qt5Core:Qt5Core.dll
 0002:00000228       __imp_?open@QFile@@UAE_NV?$QFlags@W4OpenModeFlag@QIODevice@@@@@Z 00422228     Qt5Core:Qt5Core.dll
 0002:0000022c       __imp_?postEvent@QCoreApplication@@SAXPAVQObject@@PAVQEvent@@H@Z 0042222c     Qt5Core:Qt5Core.dll
 0002:00000230       __imp_?childEvent@QObject@@MAEXPAVQChildEvent@@@Z 00422230     Qt5Core:Qt5Core.dll
 0002:00000234       __imp_?connectNotify@QObject@@MAEXABVQMetaMethod@@@Z 00422234     Qt5Core:Qt5Core.dll
 0002:00000238       __imp_?customEvent@QObject@@MAEXPAVQEvent@@@Z 00422238     Qt5Core:Qt5Core.dll
 0002:0000023c       __imp_?disconnectNotify@QObject@@MAEXABVQMetaMethod@@@Z 0042223c     Qt5Core:Qt5Core.dll
 0002:00000240       __imp_?event@QObject@@UAE_NPAVQEvent@@@Z 00422240     Qt5Core:Qt5Core.dll
 0002:00000244       __imp_?eventFilter@QObject@@UAE_NPAV1@PAVQEvent@@@Z 00422244     Qt5Core:Qt5Core.dll
 0002:00000248       __imp_?timerEvent@QObject@@MAEXPAVQTimerEvent@@@Z 00422248     Qt5Core:Qt5Core.dll
 0002:0000024c       __imp_?shared_null@QListData@@2UData@1@B 0042224c     Qt5Core:Qt5Core.dll
 0002:00000250       __imp_?staticMetaObject@QThread@@2UQMetaObject@@B 00422250     Qt5Core:Qt5Core.dll
 0002:00000254       __imp_?self@QCoreApplication@@0PAV1@A 00422254     Qt5Core:Qt5Core.dll
 0002:00000258       __imp_?fromLatin1@QChar@@SA?AV1@D@Z 00422258     Qt5Core:Qt5Core.dll
 0002:0000025c       __imp_?qstrcmp@@YAHABVQByteArray@@PBD@Z 0042225c     Qt5Core:Qt5Core.dll
 0002:00000260       __imp_?resize@QByteArray@@QAEXH@Z 00422260     Qt5Core:Qt5Core.dll
 0002:00000264       __imp_?clear@QByteArray@@QAEXXZ 00422264     Qt5Core:Qt5Core.dll
 0002:00000268       __imp_?at@QByteArray@@QBEDH@Z 00422268     Qt5Core:Qt5Core.dll
 0002:0000026c       __imp_?split@QByteArray@@QBE?AV?$QList@VQByteArray@@@@D@Z 0042226c     Qt5Core:Qt5Core.dll
 0002:00000270       __imp_??8QByteArray@@QBE_NABVQString@@@Z 00422270     Qt5Core:Qt5Core.dll
 0002:00000274       __imp_?toInt@QByteArray@@QBEHPA_NH@Z 00422274     Qt5Core:Qt5Core.dll
 0002:00000278       __imp_??4QString@@QAEAAV0@$$QAV0@@Z 00422278     Qt5Core:Qt5Core.dll
 0002:0000027c       __imp_?clear@QString@@QAEXXZ 0042227c     Qt5Core:Qt5Core.dll
 0002:00000280       __imp_?append@QString@@QAEAAV1@ABV1@@Z 00422280     Qt5Core:Qt5Core.dll
 0002:00000284       __imp_??YQString@@QAEAAV0@VQChar@@@Z 00422284     Qt5Core:Qt5Core.dll
 0002:00000288       __imp_?toLocal8Bit@QString@@QGBE?AVQByteArray@@XZ 00422288     Qt5Core:Qt5Core.dll
 0002:0000028c       __imp_?toLocal8Bit@QString@@QHAE?AVQByteArray@@XZ 0042228c     Qt5Core:Qt5Core.dll
 0002:00000290       __imp_?fromUtf8@QString@@SA?AV1@PBDH@Z 00422290     Qt5Core:Qt5Core.dll
 0002:00000294       __imp_?number@QString@@SA?AV1@HH@Z 00422294     Qt5Core:Qt5Core.dll
 0002:00000298       __imp_?number@QString@@SA?AV1@NDH@Z 00422298     Qt5Core:Qt5Core.dll
 0002:0000029c       __imp_??M@YA_NABVQString@@0@Z 0042229c     Qt5Core:Qt5Core.dll
 0002:000002a0       __imp_??0QString@@QAE@ABVQByteArray@@@Z 004222a0     Qt5Core:Qt5Core.dll
 0002:000002a4       __imp_??YQString@@QAEAAV0@PBD@Z 004222a4     Qt5Core:Qt5Core.dll
 0002:000002a8       __imp_??YQString@@QAEAAV0@D@Z 004222a8     Qt5Core:Qt5Core.dll
 0002:000002ac       __imp_??9QString@@QBE_NPBD@Z 004222ac     Qt5Core:Qt5Core.dll
 0002:000002b0       __imp_?size@QListData@@QBEHXZ 004222b0     Qt5Core:Qt5Core.dll
 0002:000002b4       __imp_?at@QListData@@QBEPAPAXH@Z 004222b4     Qt5Core:Qt5Core.dll
 0002:000002b8       __imp_?QStringList_contains@QtPrivate@@YA_NPBVQStringList@@ABVQString@@W4CaseSensitivity@Qt@@@Z 004222b8     Qt5Core:Qt5Core.dll
 0002:000002bc       __imp_??0QJsonValue@@QAE@N@Z 004222bc     Qt5Core:Qt5Core.dll
 0002:000002c0       __imp_??0QJsonValue@@QAE@ABVQJsonArray@@@Z 004222c0     Qt5Core:Qt5Core.dll
 0002:000002c4       __imp_??0QJsonValue@@QAE@ABVQJsonObject@@@Z 004222c4     Qt5Core:Qt5Core.dll
 0002:000002c8       __imp_??0QJsonValue@@QAE@ABV0@@Z 004222c8     Qt5Core:Qt5Core.dll
 0002:000002cc       __imp_?toBool@QJsonValue@@QBE_N_N@Z 004222cc     Qt5Core:Qt5Core.dll
 0002:000002d0       __imp_?toDouble@QJsonValue@@QBENN@Z 004222d0     Qt5Core:Qt5Core.dll
 0002:000002d4       __imp_??BQJsonValueRef@@QBE?AVQJsonValue@@XZ 004222d4     Qt5Core:Qt5Core.dll
 0002:000002d8       __imp_?remove@QJsonObject@@QAEXABVQString@@@Z 004222d8     Qt5Core:Qt5Core.dll
 0002:000002dc       __imp_?contains@QJsonObject@@QBE_NABVQString@@@Z 004222dc     Qt5Core:Qt5Core.dll
 0002:000002e0       __imp_?begin@QJsonObject@@QAE?AViterator@1@XZ 004222e0     Qt5Core:Qt5Core.dll
 0002:000002e4       __imp_?end@QJsonObject@@QAE?AViterator@1@XZ 004222e4     Qt5Core:Qt5Core.dll
 0002:000002e8       __imp_?keyAt@QJsonObject@@ABE?AVQString@@H@Z 004222e8     Qt5Core:Qt5Core.dll
 0002:000002ec       __imp_?freeNodeAndRebalance@QMapDataBase@@QAEXPAUQMapNodeBase@@@Z 004222ec     Qt5Core:Qt5Core.dll
 0002:000002f0       __imp_?recalcMostLeftNode@QMapDataBase@@QAEXXZ 004222f0     Qt5Core:Qt5Core.dll
 0002:000002f4       __imp_?createNode@QMapDataBase@@QAEPAUQMapNodeBase@@HHPAU2@_N@Z 004222f4     Qt5Core:Qt5Core.dll
 0002:000002f8       __imp_?freeTree@QMapDataBase@@QAEXPAUQMapNodeBase@@H@Z 004222f8     Qt5Core:Qt5Core.dll
 0002:000002fc       __imp_?createData@QMapDataBase@@SAPAU1@XZ 004222fc     Qt5Core:Qt5Core.dll
 0002:00000300       __imp_?freeData@QMapDataBase@@SAXPAU1@@Z 00422300     Qt5Core:Qt5Core.dll
 0002:00000304       __imp_?resize@QFile@@UAE_N_J@Z 00422304     Qt5Core:Qt5Core.dll
 0002:00000308       __imp_?resize@QFile@@SA_NABVQString@@_J@Z 00422308     Qt5Core:Qt5Core.dll
 0002:0000030c       __imp_??0QJsonArray@@QAE@XZ 0042230c     Qt5Core:Qt5Core.dll
 0002:00000310       __imp_??4QJsonArray@@QAEAAV0@ABV0@@Z 00422310     Qt5Core:Qt5Core.dll
 0002:00000314       __imp_?at@QJsonArray@@QBE?AVQJsonValue@@H@Z 00422314     Qt5Core:Qt5Core.dll
 0002:00000318       __imp_?append@QJsonArray@@QAEXABVQJsonValue@@@Z 00422318     Qt5Core:Qt5Core.dll
 0002:0000031c       __imp_?begin@QJsonArray@@QAE?AViterator@1@XZ 0042231c     Qt5Core:Qt5Core.dll
 0002:00000320       __imp_?begin@QJsonArray@@QBE?AVconst_iterator@1@XZ 00422320     Qt5Core:Qt5Core.dll
 0002:00000324       __imp_?end@QJsonArray@@QAE?AViterator@1@XZ 00422324     Qt5Core:Qt5Core.dll
 0002:00000328       __imp_?end@QJsonArray@@QBE?AVconst_iterator@1@XZ 00422328     Qt5Core:Qt5Core.dll
 0002:0000032c       __imp_??0QJsonDocument@@QAE@ABVQJsonObject@@@Z 0042232c     Qt5Core:Qt5Core.dll
 0002:00000330       __imp_?toJson@QJsonDocument@@QBE?AVQByteArray@@XZ 00422330     Qt5Core:Qt5Core.dll
 0002:00000334       __imp_??0QCryptographicHash@@QAE@W4Algorithm@0@@Z 00422334     Qt5Core:Qt5Core.dll
 0002:00000338       __imp_??1QCryptographicHash@@QAE@XZ 00422338     Qt5Core:Qt5Core.dll
 0002:0000033c       __imp_?hash@QCryptographicHash@@SA?AVQByteArray@@ABV2@W4Algorithm@1@@Z 0042233c     Qt5Core:Qt5Core.dll
 0002:00000340       __imp_?shared_null@QMapDataBase@@2U1@B 00422340     Qt5Core:Qt5Core.dll
 0002:00000344       __imp_??0QString@@QAE@$$QAV0@@Z 00422344     Qt5Core:Qt5Core.dll
 0002:00000348       __imp_?append@QListData@@QAEPAPAXABU1@@Z 00422348     Qt5Core:Qt5Core.dll
 0002:0000034c       __imp_?insert@QListData@@QAEPAPAXH@Z 0042234c     Qt5Core:Qt5Core.dll
 0002:00000350       __imp_?remove@QListData@@QAEXH@Z 00422350     Qt5Core:Qt5Core.dll
 0002:00000354       __imp_?nextNode@QMapNodeBase@@QBEPBU1@XZ 00422354     Qt5Core:Qt5Core.dll
 0002:00000358       __imp_??1QVariant@@QAE@XZ  00422358     Qt5Core:Qt5Core.dll
 0002:0000035c       __imp_??0QVariant@@QAE@_N@Z 0042235c     Qt5Core:Qt5Core.dll
 0002:00000360       __imp_??0QVariant@@QAE@ABVQString@@@Z 00422360     Qt5Core:Qt5Core.dll
 0002:00000364       __imp_?toInt@QVariant@@QBEHPA_N@Z 00422364     Qt5Core:Qt5Core.dll
 0002:00000368       __imp_?toBool@QVariant@@QBE_NXZ 00422368     Qt5Core:Qt5Core.dll
 0002:0000036c       __imp_?toDouble@QVariant@@QBENPA_N@Z 0042236c     Qt5Core:Qt5Core.dll
 0002:00000370       __imp_?toString@QVariant@@QBE?AVQString@@XZ 00422370     Qt5Core:Qt5Core.dll
 0002:00000374       __imp_??AQJsonArray@@QBE?AVQJsonValue@@H@Z 00422374     Qt5Core:Qt5Core.dll
 0002:00000378       __imp_??6QDebug@@QAEAAV0@ABVQString@@@Z 00422378     Qt5Core:Qt5Core.dll
 0002:0000037c       __imp_??0QJsonObject@@QAE@ABV0@@Z 0042237c     Qt5Core:Qt5Core.dll
 0002:00000380       __imp_??9QJsonObject@@QBE_NABV0@@Z 00422380     Qt5Core:Qt5Core.dll
 0002:00000384       __imp_?currentPath@QDir@@SA?AVQString@@XZ 00422384     Qt5Core:Qt5Core.dll
 0002:00000388       __imp_?qBadAlloc@@YAXXZ    00422388     Qt5Core:Qt5Core.dll
 0002:0000038c       __imp_?qInstallMessageHandler@@YAP6AXW4QtMsgType@@ABVQMessageLogContext@@ABVQString@@@ZP6AX012@Z@Z 0042238c     Qt5Core:Qt5Core.dll
 0002:00000390       __imp_??0QChar@@QAE@UQLatin1Char@@@Z 00422390     Qt5Core:Qt5Core.dll
 0002:00000394       __imp_?reserve@QByteArray@@QAEXH@Z 00422394     Qt5Core:Qt5Core.dll
 0002:00000398       __imp_?append@QByteArray@@QAEAAV1@D@Z 00422398     Qt5Core:Qt5Core.dll
 0002:0000039c       __imp_?append@QByteArray@@QAEAAV1@PBD@Z 0042239c     Qt5Core:Qt5Core.dll
 0002:000003a0       __imp_?arg@QString@@QBE?AV1@ABV1@HVQChar@@@Z 004223a0     Qt5Core:Qt5Core.dll
 0002:000003a4       __imp_?indexOf@QString@@QBEHVQChar@@HW4CaseSensitivity@Qt@@@Z 004223a4     Qt5Core:Qt5Core.dll
 0002:000003a8       __imp_?startsWith@QString@@QBE_NABV1@W4CaseSensitivity@Qt@@@Z 004223a8     Qt5Core:Qt5Core.dll
 0002:000003ac       __imp_?fromWCharArray@QString@@SA?AV1@PB_WH@Z 004223ac     Qt5Core:Qt5Core.dll
 0002:000003b0       __imp_?className@QMetaObject@@QBEPBDXZ 004223b0     Qt5Core:Qt5Core.dll
 0002:000003b4       __imp_?registerNormalizedType@QMetaType@@SAHABVQByteArray@@P6AXPAX@ZP6APAX1PBX@ZHV?$QFlags@W4TypeFlag@QMetaType@@@@PBUQMetaObject@@@Z 004223b4     Qt5Core:Qt5Core.dll
 0002:000003b8       __imp_?registerNormalizedTypedef@QMetaType@@SAHABVQByteArray@@H@Z 004223b8     Qt5Core:Qt5Core.dll
 0002:000003bc       __imp_?setApplicationName@QCoreApplication@@SAXABVQString@@@Z 004223bc     Qt5Core:Qt5Core.dll
 0002:000003c0       __imp_?installTranslator@QCoreApplication@@SA_NPAVQTranslator@@@Z 004223c0     Qt5Core:Qt5Core.dll
 0002:000003c4       __imp_?quit@QCoreApplication@@SAXXZ 004223c4     Qt5Core:Qt5Core.dll
 0002:000003c8       __imp_??1QLocale@@QAE@XZ   004223c8     Qt5Core:Qt5Core.dll
 0002:000003cc       __imp_?toDouble@QLocale@@QBENABVQString@@PA_N@Z 004223cc     Qt5Core:Qt5Core.dll
 0002:000003d0       __imp_?decimalPoint@QLocale@@QBE?AVQChar@@XZ 004223d0     Qt5Core:Qt5Core.dll
 0002:000003d4       __imp_??0QSize@@QAE@HH@Z   004223d4     Qt5Core:Qt5Core.dll
 0002:000003d8       __imp_??6@YA?AVQDebug@@V0@ABVQSizeF@@@Z 004223d8     Qt5Core:Qt5Core.dll
 0002:000003dc       __imp_??0QUrl@@QAE@ABVQString@@W4ParsingMode@0@@Z 004223dc     Qt5Core:Qt5Core.dll
 0002:000003e0       __imp_??1QUrl@@QAE@XZ      004223e0     Qt5Core:Qt5Core.dll
 0002:000003e4       __imp_??0QTextStream@@QAE@PAVQIODevice@@@Z 004223e4     Qt5Core:Qt5Core.dll
 0002:000003e8       __imp_??1QTextStream@@UAE@XZ 004223e8     Qt5Core:Qt5Core.dll
 0002:000003ec       __imp_??6QTextStream@@QAEAAV0@ABVQString@@@Z 004223ec     Qt5Core:Qt5Core.dll
 0002:000003f0       __imp_?endl@@YAAAVQTextStream@@AAV1@@Z 004223f0     Qt5Core:Qt5Core.dll
 0002:000003f4       __imp_??0QTranslator@@QAE@PAVQObject@@@Z 004223f4     Qt5Core:Qt5Core.dll
 0002:000003f8       __imp_??1QTranslator@@UAE@XZ 004223f8     Qt5Core:Qt5Core.dll
 0002:000003fc       __imp_?load@QTranslator@@QAE_NABVQString@@000@Z 004223fc     Qt5Core:Qt5Core.dll
 0002:00000400       __imp_?toString@QTime@@QBE?AVQString@@W4DateFormat@Qt@@@Z 00422400     Qt5Core:Qt5Core.dll
 0002:00000404       __imp_?currentTime@QTime@@SA?AV1@XZ 00422404     Qt5Core:Qt5Core.dll
 0002:00000408       __imp_?cast@QMetaObject@@QBEPAVQObject@@PAV2@@Z 00422408     Qt5Core:Qt5Core.dll
 0002:0000040c       __imp_?installEventFilter@QObject@@QAEXPAV1@@Z 0042240c     Qt5Core:Qt5Core.dll
 0002:00000410       __imp_?removeEventFilter@QObject@@QAEXPAV1@@Z 00422410     Qt5Core:Qt5Core.dll
 0002:00000414       \177Qt5Core_NULL_THUNK_DATA 00422414     Qt5Core:Qt5Core.dll
 0002:00000418       __imp_?setMinimumSize@QWindow@@QAEXABVQSize@@@Z 00422418     Qt5Gui:Qt5Gui.dll
 0002:0000041c       __imp_?show@QWindow@@QAEXXZ 0042241c     Qt5Gui:Qt5Gui.dll
 0002:00000420       __imp_?locale@QValidator@@QBE?AVQLocale@@XZ 00422420     Qt5Gui:Qt5Gui.dll
 0002:00000424       __imp_??0QDoubleValidator@@QAE@PAVQObject@@@Z 00422424     Qt5Gui:Qt5Gui.dll
 0002:00000428       __imp_??1QDoubleValidator@@UAE@XZ 00422428     Qt5Gui:Qt5Gui.dll
 0002:0000042c       __imp_?addApplicationFont@QFontDatabase@@SAHABVQString@@@Z 0042242c     Qt5Gui:Qt5Gui.dll
 0002:00000430       __imp_?physicalSize@QScreen@@QBE?AVQSizeF@@XZ 00422430     Qt5Gui:Qt5Gui.dll
 0002:00000434       __imp_?fixup@QValidator@@UBEXAAVQString@@@Z 00422434     Qt5Gui:Qt5Gui.dll
 0002:00000438       __imp_??0QGuiApplication@@QAE@AAHPAPADH@Z 00422438     Qt5Gui:Qt5Gui.dll
 0002:0000043c       __imp_??1QGuiApplication@@UAE@XZ 0042243c     Qt5Gui:Qt5Gui.dll
 0002:00000440       __imp_?setFont@QGuiApplication@@SAXABVQFont@@@Z 00422440     Qt5Gui:Qt5Gui.dll
 0002:00000444       __imp_?exec@QGuiApplication@@SAHXZ 00422444     Qt5Gui:Qt5Gui.dll
 0002:00000448       __imp_??0QFont@@QAE@XZ     00422448     Qt5Gui:Qt5Gui.dll
 0002:0000044c       __imp_??1QFont@@QAE@XZ     0042244c     Qt5Gui:Qt5Gui.dll
 0002:00000450       __imp_?setFamily@QFont@@QAEXABVQString@@@Z 00422450     Qt5Gui:Qt5Gui.dll
 0002:00000454       __imp_?staticMetaObject@QDoubleValidator@@2UQMetaObject@@B 00422454     Qt5Gui:Qt5Gui.dll
 0002:00000458       __imp_?setRange@QDoubleValidator@@UAEXNNH@Z 00422458     Qt5Gui:Qt5Gui.dll
 0002:0000045c       __imp_?qt_metacast@QDoubleValidator@@UAEPAXPBD@Z 0042245c     Qt5Gui:Qt5Gui.dll
 0002:00000460       __imp_?qt_metacall@QDoubleValidator@@UAEHW4Call@QMetaObject@@HPAPAX@Z 00422460     Qt5Gui:Qt5Gui.dll
 0002:00000464       __imp_?metaObject@QDoubleValidator@@UBEPBUQMetaObject@@XZ 00422464     Qt5Gui:Qt5Gui.dll
 0002:00000468       __imp_?screen@QWindow@@QBEPAVQScreen@@XZ 00422468     Qt5Gui:Qt5Gui.dll
 0002:0000046c       \177Qt5Gui_NULL_THUNK_DATA 0042246c     Qt5Gui:Qt5Gui.dll
 0002:00000470       __imp_??0QHostAddress@@QAE@ABVQString@@@Z 00422470     Qt5Network:Qt5Network.dll
 0002:00000474       __imp_??1QHostAddress@@QAE@XZ 00422474     Qt5Network:Qt5Network.dll
 0002:00000478       __imp_??0QNetworkProxy@@QAE@W4ProxyType@0@ABVQString@@G11@Z 00422478     Qt5Network:Qt5Network.dll
 0002:0000047c       __imp_??1QNetworkProxy@@QAE@XZ 0042247c     Qt5Network:Qt5Network.dll
 0002:00000480       __imp_??1QTcpSocket@@UAE@XZ 00422480     Qt5Network:Qt5Network.dll
 0002:00000484       __imp_??0QTcpSocket@@QAE@PAVQObject@@@Z 00422484     Qt5Network:Qt5Network.dll
 0002:00000488       __imp_?setProxy@QAbstractSocket@@QAEXABVQNetworkProxy@@@Z 00422488     Qt5Network:Qt5Network.dll
 0002:0000048c       \177Qt5Network_NULL_THUNK_DATA 0042248c     Qt5Network:Qt5Network.dll
 0002:00000490       __imp_?setContextProperty@QQmlContext@@QAEXABVQString@@ABVQVariant@@@Z 00422490     Qt5Qml:Qt5Qml.dll
 0002:00000494       __imp_?qdeclarativeelement_destructor@QQmlPrivate@@YAXPAVQObject@@@Z 00422494     Qt5Qml:Qt5Qml.dll
 0002:00000498       __imp_?qmlregister@QQmlPrivate@@YAHW4RegistrationType@1@PAX@Z 00422498     Qt5Qml:Qt5Qml.dll
 0002:0000049c       __imp_?quit@QQmlEngine@@QAEXXZ 0042249c     Qt5Qml:Qt5Qml.dll
 0002:000004a0       __imp_?staticMetaObject@QQmlEngine@@2UQMetaObject@@B 004224a0     Qt5Qml:Qt5Qml.dll
 0002:000004a4       __imp_?setContextProperty@QQmlContext@@QAEXABVQString@@PAVQObject@@@Z 004224a4     Qt5Qml:Qt5Qml.dll
 0002:000004a8       \177Qt5Qml_NULL_THUNK_DATA 004224a8     Qt5Qml:Qt5Qml.dll
 0002:000004ac       __imp_?setSource@QQuickView@@QAEXABVQUrl@@@Z 004224ac     Qt5Quick:Qt5Quick.dll
 0002:000004b0       __imp_?setResizeMode@QQuickView@@QAEXW4ResizeMode@1@@Z 004224b0     Qt5Quick:Qt5Quick.dll
 0002:000004b4       __imp_?rootContext@QQuickView@@QBEPAVQQmlContext@@XZ 004224b4     Qt5Quick:Qt5Quick.dll
 0002:000004b8       __imp_?engine@QQuickView@@QBEPAVQQmlEngine@@XZ 004224b8     Qt5Quick:Qt5Quick.dll
 0002:000004bc       __imp_??1QQuickView@@UAE@XZ 004224bc     Qt5Quick:Qt5Quick.dll
 0002:000004c0       __imp_??0QQuickView@@QAE@PAVQWindow@@@Z 004224c0     Qt5Quick:Qt5Quick.dll
 0002:000004c4       \177Qt5Quick_NULL_THUNK_DATA 004224c4     Qt5Quick:Qt5Quick.dll
 0002:000004c8       __imp__CommandLineToArgvW@8 004224c8     shell32:SHELL32.dll
 0002:000004cc       \177SHELL32_NULL_THUNK_DATA 004224cc     shell32:SHELL32.dll
 0002:000004d0       __imp__memcpy              004224d0     vcruntime:VCRUNTIME140.dll
 0002:000004d4       __imp____RTDynamicCast     004224d4     vcruntime:VCRUNTIME140.dll
 0002:000004d8       __imp____vcrt_InitializeCriticalSectionEx 004224d8     vcruntime:VCRUNTIME140.dll
 0002:000004dc       __imp____std_exception_copy 004224dc     vcruntime:VCRUNTIME140.dll
 0002:000004e0       __imp____std_exception_destroy 004224e0     vcruntime:VCRUNTIME140.dll
 0002:000004e4       __imp__memset              004224e4     vcruntime:VCRUNTIME140.dll
 0002:000004e8       __imp___except_handler4_common 004224e8     vcruntime:VCRUNTIME140.dll
 0002:000004ec       __imp___CxxThrowException@8 004224ec     vcruntime:VCRUNTIME140.dll
 0002:000004f0       __imp____CxxFrameHandler3  004224f0     vcruntime:VCRUNTIME140.dll
 0002:000004f4       __imp____std_terminate     004224f4     vcruntime:VCRUNTIME140.dll
 0002:000004f8       \177VCRUNTIME140_NULL_THUNK_DATA 004224f8     vcruntime:VCRUNTIME140.dll
 0002:000004fc       __imp___callnewh           004224fc     ucrt:api-ms-win-crt-heap-l1-1-0.dll
 0002:00000500       __imp__malloc              00422500     ucrt:api-ms-win-crt-heap-l1-1-0.dll
 0002:00000504       __imp___set_new_mode       00422504     ucrt:api-ms-win-crt-heap-l1-1-0.dll
 0002:00000508       __imp__free                00422508     ucrt:api-ms-win-crt-heap-l1-1-0.dll
 0002:0000050c       \177api-ms-win-crt-heap-l1-1-0_NULL_THUNK_DATA 0042250c     ucrt:api-ms-win-crt-heap-l1-1-0.dll
 0002:00000510       __imp___configthreadlocale 00422510     ucrt:api-ms-win-crt-locale-l1-1-0.dll
 0002:00000514       \177api-ms-win-crt-locale-l1-1-0_NULL_THUNK_DATA 00422514     ucrt:api-ms-win-crt-locale-l1-1-0.dll
 0002:00000518       __imp____setusermatherr    00422518     ucrt:api-ms-win-crt-math-l1-1-0.dll
 0002:0000051c       \177api-ms-win-crt-math-l1-1-0_NULL_THUNK_DATA 0042251c     ucrt:api-ms-win-crt-math-l1-1-0.dll
 0002:00000520       __imp___cexit              00422520     ucrt:api-ms-win-crt-runtime-l1-1-0.dll
 0002:00000524       __imp___seh_filter_exe     00422524     ucrt:api-ms-win-crt-runtime-l1-1-0.dll
 0002:00000528       __imp___set_app_type       00422528     ucrt:api-ms-win-crt-runtime-l1-1-0.dll
 0002:0000052c       __imp___crt_atexit         0042252c     ucrt:api-ms-win-crt-runtime-l1-1-0.dll
 0002:00000530       __imp___get_narrow_winmain_command_line 00422530     ucrt:api-ms-win-crt-runtime-l1-1-0.dll
 0002:00000534       __imp___initterm_e         00422534     ucrt:api-ms-win-crt-runtime-l1-1-0.dll
 0002:00000538       __imp__exit                00422538     ucrt:api-ms-win-crt-runtime-l1-1-0.dll
 0002:0000053c       __imp___exit               0042253c     ucrt:api-ms-win-crt-runtime-l1-1-0.dll
 0002:00000540       __imp___register_onexit_function 00422540     ucrt:api-ms-win-crt-runtime-l1-1-0.dll
 0002:00000544       __imp___c_exit             00422544     ucrt:api-ms-win-crt-runtime-l1-1-0.dll
 0002:00000548       __imp___register_thread_local_exe_atexit_callback 00422548     ucrt:api-ms-win-crt-runtime-l1-1-0.dll
 0002:0000054c       __imp___initialize_onexit_table 0042254c     ucrt:api-ms-win-crt-runtime-l1-1-0.dll
 0002:00000550       __imp___initialize_narrow_environment 00422550     ucrt:api-ms-win-crt-runtime-l1-1-0.dll
 0002:00000554       __imp___configure_narrow_argv 00422554     ucrt:api-ms-win-crt-runtime-l1-1-0.dll
 0002:00000558       __imp__terminate           00422558     ucrt:api-ms-win-crt-runtime-l1-1-0.dll
 0002:0000055c       __imp___controlfp_s        0042255c     ucrt:api-ms-win-crt-runtime-l1-1-0.dll
 0002:00000560       __imp___initterm           00422560     ucrt:api-ms-win-crt-runtime-l1-1-0.dll
 0002:00000564       __imp__abort               00422564     ucrt:api-ms-win-crt-runtime-l1-1-0.dll
 0002:00000568       \177api-ms-win-crt-runtime-l1-1-0_NULL_THUNK_DATA 00422568     ucrt:api-ms-win-crt-runtime-l1-1-0.dll
 0002:0000056c       __imp____p__commode        0042256c     ucrt:api-ms-win-crt-stdio-l1-1-0.dll
 0002:00000570       __imp___set_fmode          00422570     ucrt:api-ms-win-crt-stdio-l1-1-0.dll
 0002:00000574       \177api-ms-win-crt-stdio-l1-1-0_NULL_THUNK_DATA 00422574     ucrt:api-ms-win-crt-stdio-l1-1-0.dll
 0002:00000578       __imp__MiniDumpWriteDump@28 00422578     DbgHelp:dbghelp.dll
 0002:0000057c       \177dbghelp_NULL_THUNK_DATA 0042257c     DbgHelp:dbghelp.dll
 0002:00000580       ___guard_check_icall_fptr  00422580     MSVCRT:guard_support.obj
 0002:00000584       ___xc_a                    00422584     MSVCRT:initializers.obj
 0002:000005c8       ___xc_z                    004225c8     MSVCRT:initializers.obj
 0002:000005cc       ___xi_a                    004225cc     MSVCRT:initializers.obj
 0002:000005dc       ___xi_z                    004225dc     MSVCRT:initializers.obj
 0002:000005e0       ___xl_a                    004225e0     MSVCRT:tlssup.obj
 0002:000005e4       ___xl_z                    004225e4     MSVCRT:tlssup.obj
 0002:000005e8       ___xp_a                    004225e8     MSVCRT:initializers.obj
 0002:000005ec       ___xp_z                    004225ec     MSVCRT:initializers.obj
 0002:000005f0       ___xt_a                    004225f0     MSVCRT:initializers.obj
 0002:000005f4       ___xt_z                    004225f4     MSVCRT:initializers.obj
 0002:00000600       ??_C@_0BE@OBLKMDCI@socket?5write?5error?$CB?$AA@ 00422600     communication.obj
 0002:00000614       ??_C@_0BD@BGMNJBEK@socket?5read?5error?$CB?$AA@ 00422614     communication.obj
 0002:00000627       ??_C@_00CNPNBAHC@?$AA@     00422627     workflowprotocol.obj
 0002:0000062c       ??_7SubThreadWorker@@6B@   0042262c     workflowprotocol.obj
 0002:0000065c       ??_7WorkflowController@@6B@ 0042265c     workflowprotocol.obj
 0002:0000068c       ??_7StatusChangeEvent@@6B@ 0042268c     workflowprotocol.obj
 0002:00000694       ??_7RunningStateChangeEvent@@6B@ 00422694     workflowprotocol.obj
 0002:00000698       ??_C@_0BL@HDECHFNK@Couldn?8t?5open?5config?5file?4?$AA@ 00422698     workflowprotocol.obj
 0002:000006b4       ??_C@_08NAKOFPNG@Protocol?$AA@ 004226b4     workflowprotocol.obj
 0002:000006c0       ??_C@_0M@NNEGCPOA@send?5buffer?$AA@ 004226c0     workflowprotocol.obj
 0002:000006cc       ??_C@_09BOOHIMDB@operation?$AA@ 004226cc     workflowprotocol.obj
 0002:000006d8       ??_C@_04PJOLNDGD@data?$AA@ 004226d8     workflowprotocol.obj
 0002:000006e0       ??_C@_06JMGHNNK@params?$AA@ 004226e0     workflowprotocol.obj
 0002:000006e8       ??_C@_09NKOPJPKG@byte?5size?$AA@ 004226e8     workflowprotocol.obj
 0002:000006f4       ??_C@_08IBBDGPOF@sequence?$AA@ 004226f4     workflowprotocol.obj
 0002:00000700       ??_C@_09MOEBNLDL@ackResult?$AA@ 00422700     workflowprotocol.obj
 0002:0000070c       ??_C@_0BI@LHNHBKK@recv?5head?5code?5error?5?$CFd?$AA@ 0042270c     workflowprotocol.obj
 0002:00000724       ??_C@_0BK@JEOIEKEG@recv?5length?5code?5error?5?$CFd?$AA@ 00422724     workflowprotocol.obj
 0002:00000740       ??_C@_0P@HBMDFJEL@maxReceiveTime?$AA@ 00422740     workflowprotocol.obj
 0002:00000750       ??_C@_0L@FFNCMNID@operations?$AA@ 00422750     workflowprotocol.obj
 0002:0000075c       ??_C@_0L@KCLLKANI@startIndex?$AA@ 0042275c     workflowprotocol.obj
 0002:00000768       ??_C@_09OKOOLBCO@WaitArray?$AA@ 00422768     workflowprotocol.obj
 0002:00000774       ??_C@_04KLCPKPBE@Loop?$AA@ 00422774     workflowprotocol.obj
 0002:0000077c       ??_C@_07CBLODBBN@EndLoop?$AA@ 0042277c     workflowprotocol.obj
 0002:00000784       ??_C@_08OAGMDKAF@position?$AA@ 00422784     workflowprotocol.obj
 0002:00000790       ??_C@_04MIIPNNEF@send?$AA@ 00422790     workflowprotocol.obj
 0002:00000798       ??_C@_03JBLJHHJA@ack?$AA@  00422798     workflowprotocol.obj
 0002:0000079c       ??_C@_0BB@FNMNOOKH@newOperationItem?$AA@ 0042279c     workflowprotocol.obj
 0002:000007b0       ??_C@_0P@LBPHMCAN@logicalCommand?$AA@ 004227b0     workflowprotocol.obj
 0002:000007c0       ??_C@_09KFLDLCPO@waitArray?$AA@ 004227c0     workflowprotocol.obj
 0002:000007cc       ??_C@_08DNGBEGEF@waitting?$AA@ 004227cc     workflowprotocol.obj
 0002:000007d8       ??_C@_09HGICMNBG@loopCount?$AA@ 004227d8     workflowprotocol.obj
 0002:000007e4       ??_C@_0BA@EAIKJHPJ@remainLoopCount?$AA@ 004227e4     workflowprotocol.obj
 0002:000007f4       ??_C@_08MMNALFJK@waitTime?$AA@ 004227f4     workflowprotocol.obj
 0002:00000800       ??_C@_0L@KLGDOJIH@cycleCount?$AA@ 00422800     workflowprotocol.obj
 0002:0000080c       ??_C@_0O@IBBMKKDB@client?5write?5?$AA@ 0042280c     workflowprotocol.obj
 0002:0000081c       ??_C@_06LCIDCBMH@?5bytes?$AA@ 0042281c     workflowprotocol.obj
 0002:00000824       ??_C@_08LGEOGOAO@recv?5ack?$AA@ 00422824     workflowprotocol.obj
 0002:00000830       ??_C@_0BH@JPFKMKFK@worker?5thread?5is?5dead?4?$AA@ 00422830     workflowprotocol.obj
 0002:00000848       ??_C@_04DDKJGDCM@bool?$AA@ 00422848     configfilehandler.obj
 0002:00000850       ??_C@_05KNFBNCOH@float?$AA@ 00422850     configfilehandler.obj
 0002:00000858       ??_C@_07DLHCIBDH@default?$AA@ 00422858     configfilehandler.obj
 0002:00000864       ??_7configFileHandler@@6B@ 00422864     configfilehandler.obj
 0002:00000890       ??_C@_09GNDDCBKJ@workPlace?$AA@ 00422890     configfilehandler.obj
 0002:0000089c       ??_C@_07GCCODDFC@display?$AA@ 0042289c     configfilehandler.obj
 0002:000008a4       ??_C@_06LNLHEAAG@height?$AA@ 004228a4     configfilehandler.obj
 0002:000008ac       ??_C@_04GPMDFGEJ@type?$AA@ 004228ac     configfilehandler.obj
 0002:000008b4       ??_C@_04DBJPMPLO@enum?$AA@ 004228b4     configfilehandler.obj
 0002:000008bc       ??_C@_09EJEMLHI@valueEnum?$AA@ 004228bc     configfilehandler.obj
 0002:000008c8       ??_C@_06DOPOGBGP@switch?$AA@ 004228c8     configfilehandler.obj
 0002:000008d0       ??_C@_04NPEDKLDA@unit?$AA@ 004228d0     configfilehandler.obj
 0002:000008d8       ??_C@_0M@HHONEJAF@bottomValue?$AA@ 004228d8     configfilehandler.obj
 0002:000008e4       ??_C@_08BENPNDEB@topValue?$AA@ 004228e4     configfilehandler.obj
 0002:000008f0       ??_C@_09CJLBFAHF@boardType?$AA@ 004228f0     configfilehandler.obj
 0002:000008fc       ??_C@_06JJLAMBGK@target?$AA@ 004228fc     configfilehandler.obj
 0002:00000904       ??_C@_02MFEOMNPG@IP?$AA@   00422904     configfilehandler.obj
 0002:00000908       ??_C@_04LPGMAPLE@port?$AA@ 00422908     configfilehandler.obj
 0002:00000910       ??_C@_04DJEEHKI@plan?$AA@  00422910     configfilehandler.obj
 0002:00000918       ??_C@_04MEMAJGDJ@name?$AA@ 00422918     configfilehandler.obj
 0002:00000920       ??_C@_07LKHFMGFB@integer?$AA@ 00422920     configfilehandler.obj
 0002:00000928       ??_C@_06ICGJLFIM@string?$AA@ 00422928     configfilehandler.obj
 0002:00000930       ??_C@_0BB@BFELOPJA@configFile?5error?$AA@ 00422930     configfilehandler.obj
 0002:00000944       ??_C@_0P@BDPDOPPG@sequenceNumber?$AA@ 00422944     configfilehandler.obj
 0002:00000954       ??_C@_09EOLHCJIE@workSpace?$AA@ 00422954     configfilehandler.obj
 0002:00000960       ??_C@_07EJMBNAEG@license?$AA@ 00422960     configfilehandler.obj
 0002:00000968       ??_C@_0BC@HKDHNPHM@import?5file?5error?$AA@ 00422968     configfilehandler.obj
 0002:0000097c       ??_C@_0BE@IINACLHP@import?5config?5error?$AA@ 0042297c     configfilehandler.obj
 0002:00000990       ??_C@_0BC@IFDBNDIH@export?5file?5error?$AA@ 00422990     configfilehandler.obj
 0002:000009a4       ??_C@_0L@MIIIJLIA@plan?5name?0?$AA@ 004229a4     configfilehandler.obj
 0002:000009b0       ??_C@_02PCIJFNDE@?$AN?6?$AA@ 004229b0     configfilehandler.obj
 0002:000009b4       ??_C@_07FPDOJGBJ@params?0?$AA@ 004229b4     configfilehandler.obj
 0002:000009bc       ??_C@_0L@NIANKKKE@plan?5end?$AN?6?$AA@ 004229bc     configfilehandler.obj
 0002:000009c8       ??_C@_06HEJKKHEK@config?$AA@ 004229c8     configfilehandler.obj
 0002:000009d0       ??_C@_0BB@JCJKPLDM@work?5space?5name?0?$AA@ 004229d0     configfilehandler.obj
 0002:000009e4       ??_C@_0BD@LJNEKDB@work?5space?5end?$AN?6?$AN?6?$AA@ 004229e4     configfilehandler.obj
 0002:000009f8       ??_C@_0BA@HKKNMLCP@work?5space?5name?$AA@ 004229f8     configfilehandler.obj
 0002:00000a08       ??_C@_0P@PHNGGJCJ@work?5space?5end?$AA@ 00422a08     configfilehandler.obj
 0002:00000a18       ??_C@_05IOMEMJEC@count?$AA@ 00422a18     configfilehandler.obj
 0002:00000a20       ??_C@_01LIIJDEN@?$AN?$AA@  00422a20     configfilehandler.obj
 0002:00000a24       ??_C@_07LKPDDKMO@current?$AA@ 00422a24     configfilehandler.obj
 0002:00000a2c       ??_C@_09GNBCGMNB@plan?5name?$AA@ 00422a2c     configfilehandler.obj
 0002:00000a38       ??_C@_08PPMPNELH@plan?5end?$AA@ 00422a38     configfilehandler.obj
 0002:00000a48       ??_7TargetMachineObject@@6B@ 00422a48     environmentvariant.obj
 0002:00000a78       ??_7ConfigFileConverter@@6B@ 00422a78     environmentvariant.obj
 0002:00000aa8       ??_7EnvironmentVariant@@6B@ 00422aa8     environmentvariant.obj
 0002:00000ad4       ??_C@_0O@EPGPLFOI@OperationEnum?$AA@ 00422ad4     environmentvariant.obj
 0002:00000ae4       ??_C@_0BD@DLJJAAOH@LogicalControlEnum?$AA@ 00422ae4     environmentvariant.obj
 0002:00000af8       ??_C@_0BA@ONCGMDLN@NormalOperation?$AA@ 00422af8     environmentvariant.obj
 0002:00000b08       ??_C@_0P@NBCEFNBO@logicalControl?$AA@ 00422b08     environmentvariant.obj
 0002:00000b18       ??_C@_0BH@PKBKIKLO@Operation?5Display?5Name?$AA@ 00422b18     environmentvariant.obj
 0002:00000b30       ??_C@_0BA@EMGBOHG@IPAddressObject?$AA@ 00422b30     environmentvariant.obj
 0002:00000b40       ??_C@_0BH@POMNOBFJ@isAdministratorAccount?$AA@ 00422b40     environmentvariant.obj
 0002:00000b58       ??_C@_0BB@JCFKEAJN@currentDirectory?$AA@ 00422b58     environmentvariant.obj
 0002:00000b6c       ??_C@_0BE@KDINPMFG@configFileConverter?$AA@ 00422b6c     environmentvariant.obj
 0002:00000b80       ??_C@_05MBDCODDP@Group?$AA@ 00422b80     environmentvariant.obj
 0002:00000b88       ??_C@_09DOCDJBIG@GroupName?$AA@ 00422b88     environmentvariant.obj
 0002:00000b94       ??_C@_01LBDDMOBJ@?$FN?$AA@ 00422b94     environmentvariant.obj
 0002:00000b98       ??_C@_01OHGJGJJP@?$FL?$AA@ 00422b98     environmentvariant.obj
 0002:00000b9c       ??_C@_02KHOJGJKF@?4?5?$AA@ 00422b9c     environmentvariant.obj
 0002:00000ba0       ??_C@_0M@OOAKDNPC@boardConfig?$AA@ 00422ba0     environmentvariant.obj
 0002:00000bac       ??_C@_0BE@DGFEDFOF@Import?5config?5file?5?$AA@ 00422bac     environmentvariant.obj
 0002:00000bc0       ??_C@_0BE@MIKKLOLO@Export?5config?5file?5?$AA@ 00422bc0     environmentvariant.obj
 0002:00000bd8       __real@3fe0000000000000    00422bd8     environmentvariant.obj
 0002:00000be0       __real@3ff0000000000000    00422be0     environmentvariant.obj
 0002:00000be8       __real@4024000000000000    00422be8     environmentvariant.obj
 0002:00000bf4       ??_7OperationParamObject@@6B@ 00422bf4     main.obj
 0002:00000c20       ??_C@_01JOAMLHOP@?9?$AA@   00422c20     main.obj
 0002:00000c24       ??_C@_1CE@ELGCFHOO@?$AAM?$AAi?$AAn?$AAd?$AAG?$AAo?$AAP?$AAr?$AAo?$AAj?$AAe?$AAc?$AAt?$AA?4?$AAd?$AAm?$AAp?$AA?$AA@ 00422c24     main.obj
 0002:00000c48       ??_C@_09BHMHBPLA@Debug?3?5?$CF1?$AA@ 00422c48     main.obj
 0002:00000c54       ??_C@_0M@IJCKPDBC@Warning?3?5?$CF1?$AA@ 00422c54     main.obj
 0002:00000c60       ??_C@_0N@KDKNECFL@Critical?3?5?$CF1?$AA@ 00422c60     main.obj
 0002:00000c70       ??_C@_09NFMOODD@Fatal?3?5?$CF1?$AA@ 00422c70     main.obj
 0002:00000c7c       ??_C@_0BH@BFFDAMFM@?4?1customMessageLog?4txt?$AA@ 00422c7c     main.obj
 0002:00000c94       ??_C@_0BN@CBPGFKKM@?4?1UserInterfaceLayer?1config?1?$AA@ 00422c94     main.obj
 0002:00000cb4       ??_C@_06FFAPGJBP@Mindgo?$AA@ 00422cb4     main.obj
 0002:00000cbc       ??_C@_05CDNCCFAE@cn?4qm?$AA@ 00422cbc     main.obj
 0002:00000cc4       ??_C@_0BJ@PPJBDKBL@TextFieldDoubleValidator?$AA@ 00422cc4     main.obj
 0002:00000ce0       ??_C@_06POMJKEPM@Common?$AA@ 00422ce0     main.obj
 0002:00000ce8       ??_C@_0BF@MDNPPLPL@OperationParamObject?$AA@ 00422ce8     main.obj
 0002:00000d00       ??_C@_0BH@KAEEMKBC@OperationParamSelector?$AA@ 00422d00     main.obj
 0002:00000d18       ??_C@_0N@CJJLBEJF@PlanSelector?$AA@ 00422d18     main.obj
 0002:00000d28       ??_C@_0BC@EJFMECEB@StatusViewWatcher?$AA@ 00422d28     main.obj
 0002:00000d3c       ??_C@_0P@DNBEODGJ@PlanController?$AA@ 00422d3c     main.obj
 0002:00000d4c       ??_C@_0L@LGGNKCBK@FZHTJW?4TTF?$AA@ 00422d4c     main.obj
 0002:00000d58       ??_C@_1O@HOPADHDO@e?$LJkc?$JO?QOS?$HL?$IAOS?$AA?$AA@ 00422d58     main.obj
 0002:00000d68       ??_C@_0BF@BIMDPFDG@OperationParams?4json?$AA@ 00422d68     main.obj
 0002:00000d80       ??_C@_0BA@KONLPFIC@UserConfig?4json?$AA@ 00422d80     main.obj
 0002:00000d90       ??_C@_0O@OIFOOOJE@Protocol?4json?$AA@ 00422d90     main.obj
 0002:00000da0       ??_C@_0BI@PMHOFPKJ@qrc?3?1MainNoKeyboard?4qml?$AA@ 00422da0     main.obj
 0002:00000db8       ??_C@_0BC@HDKLEFKN@QQmlListProperty?$DM?$AA@ 00422db8     main.obj
 0002:00000dd0       ??_7?$QQmlElement@VTextFieldDoubleValidator@@@QQmlPrivate@@6B@ 00422dd0     main.obj
 0002:00000e0c       ??_7?$QQmlElement@VOperationParamObject@@@QQmlPrivate@@6B@ 00422e0c     main.obj
 0002:00000e3c       ??_7?$QQmlElement@VOperationParamSelector@@@QQmlPrivate@@6B@ 00422e3c     main.obj
 0002:00000e6c       ??_7?$QQmlElement@VPlanSelector@@@QQmlPrivate@@6B@ 00422e6c     main.obj
 0002:00000e9c       ??_7?$QQmlElement@VStatusViewWatcher@@@QQmlPrivate@@6B@ 00422e9c     main.obj
 0002:00000ecc       ??_7?$QQmlElement@VPlanController@@@QQmlPrivate@@6B@ 00422ecc     main.obj
 0002:00000f00       __xmm@ffffffffffffffffffffffff00000000 00422f00     main.obj
 0002:00000f10       ??_C@_0P@FAFDOLML@OperationModel?$AA@ 00422f10     workmodels.obj
 0002:00000f20       ??_C@_0L@GBCCCODA@ParamModel?$AA@ 00422f20     workmodels.obj
 0002:00000f30       ??_7OperationParamSelector@@6B@ 00422f30     workmodels.obj
 0002:00000f60       ??_7PlanSelector@@6B@      00422f60     workmodels.obj
 0002:00000f90       ??_7PlanController@@6B@    00422f90     workmodels.obj
 0002:00000fc0       ??_7StatusViewWatcher@@6B@ 00422fc0     workmodels.obj
 0002:00000fec       ??_C@_0P@FJOBGDIA@LogicalControl?$AA@ 00422fec     workmodels.obj
 0002:00001000       ??_7SubThreadCheckWorker@@6B@ 00423000     workflowChecker.obj
 0002:00001030       ??_7WorkflowCheckerController@@6B@ 00423030     workflowChecker.obj
 0002:00001060       ??_7CheckStateChangeEvent@@6B@ 00423060     workflowChecker.obj
 0002:00001064       ??_C@_08LCGAPFCF@progress?$AA@ 00423064     workflowChecker.obj
 0002:00001070       ??_C@_05IDFCDDHI@allow?$AA@ 00423070     workflowChecker.obj
 0002:00001078       ??_C@_03JBJLGPFL@end?$AA@  00423078     workflowChecker.obj
 0002:0000107c       ??_C@_09NKECEHCI@errorStep?$AA@ 0042307c     workflowChecker.obj
 0002:00001088       ??_C@_0N@EFMGIJMM@startTrigger?$AA@ 00423088     workflowChecker.obj
 0002:00001098       ??_C@_05MFEJDJP@value?$AA@ 00423098     workflowChecker.obj
 0002:000010a0       ??_C@_0L@CAMMIEPG@endTrigger?$AA@ 004230a0     workflowChecker.obj
 0002:000010ac       ??_C@_0L@EBBJHIEI@comboJudge?$AA@ 004230ac     workflowChecker.obj
 0002:000010b8       ??_C@_0L@HOHHMJMM@constraint?$AA@ 004230b8     workflowChecker.obj
 0002:0004eaf4       ??_C@_0CL@GGBGAILI@QtMetaTypePrivate?3?3QSequentialIt@ 00470af4     moc_workmodels.obj
 0002:0004eb20       ??_C@_0BA@CGOONFIM@QList?$DMQObject?$CK?$DO?$AA@ 00470b20     moc_workmodels.obj
 0002:0004eb30       ??_C@_0BD@GAKEODHA@OperationParamData?$AA@ 00470b30     moc_workmodels.obj
 0002:0004eb44       ??_C@_0BC@DJJLAPLC@MachineConfigData?$AA@ 00470b44     moc_workmodels.obj
 0002:0004eb58       ??_C@_05EPCGOCDE@QList?$AA@ 00470b58     moc_workmodels.obj
 0002:0004eb60       __real@3f1a36e2eb1c432d    00470b60     moc_workmodels.obj
 0002:0004eb70       __xmm@7fffffffffffffff7fffffffffffffff 00470b70     moc_workmodels.obj
 0002:0004eb80       ??_C@_1BK@MGMFAEKH@?$AAk?$AAe?$AAr?$AAn?$AAe?$AAl?$AA3?$AA2?$AA?4?$AAd?$AAl?$AAl?$AA?$AA@ 00470b80     MSVCRT:thread_safe_statics.obj
 0002:0004eb9c       ??_C@_0BM@HLJJNPAH@InitializeConditionVariable?$AA@ 00470b9c     MSVCRT:thread_safe_statics.obj
 0002:0004ebb8       ??_C@_0BJ@JEBJOJFJ@SleepConditionVariableCS?$AA@ 00470bb8     MSVCRT:thread_safe_statics.obj
 0002:0004ebd4       ??_C@_0BJ@PGPPEPCC@WakeAllConditionVariable?$AA@ 00470bd4     MSVCRT:thread_safe_statics.obj
 0002:0004ebf4       ??_7type_info@@6B@         00470bf4     MSVCRT:std_type_info_static.obj
 0002:0004ec04       ??_7exception@std@@6B@     00470c04     MSVCRT:throw_bad_alloc.obj
 0002:0004ec0c       ??_C@_0BC@EOODALEL@Unknown?5exception?$AA@ 00470c0c     MSVCRT:throw_bad_alloc.obj
 0002:0004ec24       ??_7bad_alloc@std@@6B@     00470c24     MSVCRT:throw_bad_alloc.obj
 0002:0004ec2c       ??_C@_0P@GHFPNOJB@bad?5allocation?$AA@ 00470c2c     MSVCRT:throw_bad_alloc.obj
 0002:0004ec40       ??_7bad_array_new_length@std@@6B@ 00470c40     MSVCRT:throw_bad_alloc.obj
 0002:0004ec48       ??_C@_0BF@KINCDENJ@bad?5array?5new?5length?$AA@ 00470c48     MSVCRT:throw_bad_alloc.obj
 0002:0004ecb8       __load_config_used         00470cb8     MSVCRT:loadcfg.obj
 0002:0004ed14       __tls_used                 00470d14     MSVCRT:tlssup.obj
 0002:0004ed2c       ??_R4SubThreadWorker@@6B@  00470d2c     workflowprotocol.obj
 0002:0004ed40       ??_R3SubThreadWorker@@8    00470d40     workflowprotocol.obj
 0002:0004ed50       ??_R2SubThreadWorker@@8    00470d50     workflowprotocol.obj
 0002:0004ed5c       ??_R1A@?0A@EA@SubThreadWorker@@8 00470d5c     workflowprotocol.obj
 0002:0004ed78       ??_R1A@?0A@EA@QObject@@8   00470d78     workflowprotocol.obj
 0002:0004ed94       ??_R3QObject@@8            00470d94     workflowprotocol.obj
 0002:0004eda4       ??_R2QObject@@8            00470da4     workflowprotocol.obj
 0002:0004edac       ??_R4WorkflowController@@6B@ 00470dac     workflowprotocol.obj
 0002:0004edc0       ??_R3WorkflowController@@8 00470dc0     workflowprotocol.obj
 0002:0004edd0       ??_R2WorkflowController@@8 00470dd0     workflowprotocol.obj
 0002:0004eddc       ??_R1A@?0A@EA@WorkflowController@@8 00470ddc     workflowprotocol.obj
 0002:0004edf8       ??_R4StatusChangeEvent@@6B@ 00470df8     workflowprotocol.obj
 0002:0004ee0c       ??_R3StatusChangeEvent@@8  00470e0c     workflowprotocol.obj
 0002:0004ee1c       ??_R2StatusChangeEvent@@8  00470e1c     workflowprotocol.obj
 0002:0004ee28       ??_R1A@?0A@EA@StatusChangeEvent@@8 00470e28     workflowprotocol.obj
 0002:0004ee44       ??_R1A@?0A@EA@QEvent@@8    00470e44     workflowprotocol.obj
 0002:0004ee60       ??_R3QEvent@@8             00470e60     workflowprotocol.obj
 0002:0004ee70       ??_R2QEvent@@8             00470e70     workflowprotocol.obj
 0002:0004ee78       ??_R4RunningStateChangeEvent@@6B@ 00470e78     workflowprotocol.obj
 0002:0004ee8c       ??_R3RunningStateChangeEvent@@8 00470e8c     workflowprotocol.obj
 0002:0004ee9c       ??_R2RunningStateChangeEvent@@8 00470e9c     workflowprotocol.obj
 0002:0004eea8       ??_R1A@?0A@EA@RunningStateChangeEvent@@8 00470ea8     workflowprotocol.obj
 0002:0004eec4       ??_R4configFileHandler@@6B@ 00470ec4     configfilehandler.obj
 0002:0004eed8       ??_R3configFileHandler@@8  00470ed8     configfilehandler.obj
 0002:0004eee8       ??_R2configFileHandler@@8  00470ee8     configfilehandler.obj
 0002:0004eef4       ??_R1A@?0A@EA@configFileHandler@@8 00470ef4     configfilehandler.obj
 0002:0004ef10       ??_R4TargetMachineObject@@6B@ 00470f10     environmentvariant.obj
 0002:0004ef24       ??_R3TargetMachineObject@@8 00470f24     environmentvariant.obj
 0002:0004ef34       ??_R2TargetMachineObject@@8 00470f34     environmentvariant.obj
 0002:0004ef44       ??_R1A@?0A@EA@TargetMachineObject@@8 00470f44     environmentvariant.obj
 0002:0004ef60       ??_R17?0A@EA@MachineConfigData@@8 00470f60     environmentvariant.obj
 0002:0004ef7c       ??_R3MachineConfigData@@8  00470f7c     environmentvariant.obj
 0002:0004ef8c       ??_R2MachineConfigData@@8  00470f8c     environmentvariant.obj
 0002:0004ef94       ??_R1A@?0A@EA@MachineConfigData@@8 00470f94     environmentvariant.obj
 0002:0004efb0       ??_R4ConfigFileConverter@@6B@ 00470fb0     environmentvariant.obj
 0002:0004efc4       ??_R3ConfigFileConverter@@8 00470fc4     environmentvariant.obj
 0002:0004efd4       ??_R2ConfigFileConverter@@8 00470fd4     environmentvariant.obj
 0002:0004efe0       ??_R1A@?0A@EA@ConfigFileConverter@@8 00470fe0     environmentvariant.obj
 0002:0004effc       ??_R4EnvironmentVariant@@6B@ 00470ffc     environmentvariant.obj
 0002:0004f010       ??_R3EnvironmentVariant@@8 00471010     environmentvariant.obj
 0002:0004f020       ??_R2EnvironmentVariant@@8 00471020     environmentvariant.obj
 0002:0004f02c       ??_R1A@?0A@EA@EnvironmentVariant@@8 0047102c     environmentvariant.obj
 0002:0004f048       ??_R4OperationParamObject@@6B@ 00471048     main.obj
 0002:0004f05c       ??_R3OperationParamObject@@8 0047105c     main.obj
 0002:0004f06c       ??_R2OperationParamObject@@8 0047106c     main.obj
 0002:0004f07c       ??_R1A@?0A@EA@OperationParamObject@@8 0047107c     main.obj
 0002:0004f098       ??_R17?0A@EA@OperationParamData@@8 00471098     main.obj
 0002:0004f0b4       ??_R3OperationParamData@@8 004710b4     main.obj
 0002:0004f0c4       ??_R2OperationParamData@@8 004710c4     main.obj
 0002:0004f0cc       ??_R1A@?0A@EA@OperationParamData@@8 004710cc     main.obj
 0002:0004f0e8       ??_R3TextFieldDoubleValidator@@8 004710e8     main.obj
 0002:0004f0f8       ??_R2TextFieldDoubleValidator@@8 004710f8     main.obj
 0002:0004f10c       ??_R1A@?0A@EA@TextFieldDoubleValidator@@8 0047110c     main.obj
 0002:0004f128       ??_R1A@?0A@EA@QDoubleValidator@@8 00471128     main.obj
 0002:0004f144       ??_R3QDoubleValidator@@8   00471144     main.obj
 0002:0004f154       ??_R2QDoubleValidator@@8   00471154     main.obj
 0002:0004f164       ??_R1A@?0A@EA@QValidator@@8 00471164     main.obj
 0002:0004f180       ??_R3QValidator@@8         00471180     main.obj
 0002:0004f190       ??_R2QValidator@@8         00471190     main.obj
 0002:0004f19c       ??_R4?$QQmlElement@VTextFieldDoubleValidator@@@QQmlPrivate@@6B@ 0047119c     main.obj
 0002:0004f1b0       ??_R3?$QQmlElement@VTextFieldDoubleValidator@@@QQmlPrivate@@8 004711b0     main.obj
 0002:0004f1c0       ??_R2?$QQmlElement@VTextFieldDoubleValidator@@@QQmlPrivate@@8 004711c0     main.obj
 0002:0004f1d8       ??_R1A@?0A@EA@?$QQmlElement@VTextFieldDoubleValidator@@@QQmlPrivate@@8 004711d8     main.obj
 0002:0004f1f4       ??_R4?$QQmlElement@VOperationParamObject@@@QQmlPrivate@@6B@ 004711f4     main.obj
 0002:0004f208       ??_R3?$QQmlElement@VOperationParamObject@@@QQmlPrivate@@8 00471208     main.obj
 0002:0004f218       ??_R2?$QQmlElement@VOperationParamObject@@@QQmlPrivate@@8 00471218     main.obj
 0002:0004f22c       ??_R1A@?0A@EA@?$QQmlElement@VOperationParamObject@@@QQmlPrivate@@8 0047122c     main.obj
 0002:0004f248       ??_R4?$QQmlElement@VOperationParamSelector@@@QQmlPrivate@@6B@ 00471248     main.obj
 0002:0004f25c       ??_R3?$QQmlElement@VOperationParamSelector@@@QQmlPrivate@@8 0047125c     main.obj
 0002:0004f26c       ??_R2?$QQmlElement@VOperationParamSelector@@@QQmlPrivate@@8 0047126c     main.obj
 0002:0004f27c       ??_R1A@?0A@EA@?$QQmlElement@VOperationParamSelector@@@QQmlPrivate@@8 0047127c     main.obj
 0002:0004f298       ??_R1A@?0A@EA@OperationParamSelector@@8 00471298     main.obj
 0002:0004f2b4       ??_R3OperationParamSelector@@8 004712b4     main.obj
 0002:0004f2c4       ??_R2OperationParamSelector@@8 004712c4     main.obj
 0002:0004f2d0       ??_R4?$QQmlElement@VPlanSelector@@@QQmlPrivate@@6B@ 004712d0     main.obj
 0002:0004f2e4       ??_R3?$QQmlElement@VPlanSelector@@@QQmlPrivate@@8 004712e4     main.obj
 0002:0004f2f4       ??_R2?$QQmlElement@VPlanSelector@@@QQmlPrivate@@8 004712f4     main.obj
 0002:0004f304       ??_R1A@?0A@EA@?$QQmlElement@VPlanSelector@@@QQmlPrivate@@8 00471304     main.obj
 0002:0004f320       ??_R1A@?0A@EA@PlanSelector@@8 00471320     main.obj
 0002:0004f33c       ??_R3PlanSelector@@8       0047133c     main.obj
 0002:0004f34c       ??_R2PlanSelector@@8       0047134c     main.obj
 0002:0004f358       ??_R4?$QQmlElement@VStatusViewWatcher@@@QQmlPrivate@@6B@ 00471358     main.obj
 0002:0004f36c       ??_R3?$QQmlElement@VStatusViewWatcher@@@QQmlPrivate@@8 0047136c     main.obj
 0002:0004f37c       ??_R2?$QQmlElement@VStatusViewWatcher@@@QQmlPrivate@@8 0047137c     main.obj
 0002:0004f38c       ??_R1A@?0A@EA@?$QQmlElement@VStatusViewWatcher@@@QQmlPrivate@@8 0047138c     main.obj
 0002:0004f3a8       ??_R1A@?0A@EA@StatusViewWatcher@@8 004713a8     main.obj
 0002:0004f3c4       ??_R3StatusViewWatcher@@8  004713c4     main.obj
 0002:0004f3d4       ??_R2StatusViewWatcher@@8  004713d4     main.obj
 0002:0004f3e0       ??_R4?$QQmlElement@VPlanController@@@QQmlPrivate@@6B@ 004713e0     main.obj
 0002:0004f3f4       ??_R3?$QQmlElement@VPlanController@@@QQmlPrivate@@8 004713f4     main.obj
 0002:0004f404       ??_R2?$QQmlElement@VPlanController@@@QQmlPrivate@@8 00471404     main.obj
 0002:0004f414       ??_R1A@?0A@EA@?$QQmlElement@VPlanController@@@QQmlPrivate@@8 00471414     main.obj
 0002:0004f430       ??_R1A@?0A@EA@PlanController@@8 00471430     main.obj
 0002:0004f44c       ??_R3PlanController@@8     0047144c     main.obj
 0002:0004f45c       ??_R2PlanController@@8     0047145c     main.obj
 0002:0004f468       ??_R4OperationParamSelector@@6B@ 00471468     workmodels.obj
 0002:0004f47c       ??_R4PlanSelector@@6B@     0047147c     workmodels.obj
 0002:0004f490       ??_R4PlanController@@6B@   00471490     workmodels.obj
 0002:0004f4a4       ??_R4StatusViewWatcher@@6B@ 004714a4     workmodels.obj
 0002:0004f4b8       ??_R4SubThreadCheckWorker@@6B@ 004714b8     workflowChecker.obj
 0002:0004f4cc       ??_R3SubThreadCheckWorker@@8 004714cc     workflowChecker.obj
 0002:0004f4dc       ??_R2SubThreadCheckWorker@@8 004714dc     workflowChecker.obj
 0002:0004f4e8       ??_R1A@?0A@EA@SubThreadCheckWorker@@8 004714e8     workflowChecker.obj
 0002:0004f504       ??_R4WorkflowCheckerController@@6B@ 00471504     workflowChecker.obj
 0002:0004f518       ??_R3WorkflowCheckerController@@8 00471518     workflowChecker.obj
 0002:0004f528       ??_R2WorkflowCheckerController@@8 00471528     workflowChecker.obj
 0002:0004f534       ??_R1A@?0A@EA@WorkflowCheckerController@@8 00471534     workflowChecker.obj
 0002:0004f550       ??_R4CheckStateChangeEvent@@6B@ 00471550     workflowChecker.obj
 0002:0004f564       ??_R3CheckStateChangeEvent@@8 00471564     workflowChecker.obj
 0002:0004f574       ??_R2CheckStateChangeEvent@@8 00471574     workflowChecker.obj
 0002:0004f580       ??_R1A@?0A@EA@CheckStateChangeEvent@@8 00471580     workflowChecker.obj
 0002:0004f59c       ??_R4type_info@@6B@        0047159c     MSVCRT:std_type_info_static.obj
 0002:0004f5b0       ??_R3type_info@@8          004715b0     MSVCRT:std_type_info_static.obj
 0002:0004f5c0       ??_R2type_info@@8          004715c0     MSVCRT:std_type_info_static.obj
 0002:0004f5c8       ??_R1A@?0A@EA@type_info@@8 004715c8     MSVCRT:std_type_info_static.obj
 0002:0004f5e4       ??_R4exception@std@@6B@    004715e4     MSVCRT:throw_bad_alloc.obj
 0002:0004f5f8       ??_R3exception@std@@8      004715f8     MSVCRT:throw_bad_alloc.obj
 0002:0004f608       ??_R2exception@std@@8      00471608     MSVCRT:throw_bad_alloc.obj
 0002:0004f610       ??_R1A@?0A@EA@exception@std@@8 00471610     MSVCRT:throw_bad_alloc.obj
 0002:0004f62c       ??_R4bad_alloc@std@@6B@    0047162c     MSVCRT:throw_bad_alloc.obj
 0002:0004f640       ??_R3bad_alloc@std@@8      00471640     MSVCRT:throw_bad_alloc.obj
 0002:0004f650       ??_R2bad_alloc@std@@8      00471650     MSVCRT:throw_bad_alloc.obj
 0002:0004f65c       ??_R1A@?0A@EA@bad_alloc@std@@8 0047165c     MSVCRT:throw_bad_alloc.obj
 0002:0004f678       ??_R4bad_array_new_length@std@@6B@ 00471678     MSVCRT:throw_bad_alloc.obj
 0002:0004f68c       ??_R3bad_array_new_length@std@@8 0047168c     MSVCRT:throw_bad_alloc.obj
 0002:0004f69c       ??_R2bad_array_new_length@std@@8 0047169c     MSVCRT:throw_bad_alloc.obj
 0002:0004f6ac       ??_R1A@?0A@EA@bad_array_new_length@std@@8 004716ac     MSVCRT:throw_bad_alloc.obj
 0002:0004f6d0       ___safe_se_handler_table   004716d0     <linker-defined>
 0002:0004fcf0       ___rtc_iaa                 00471cf0     MSVCRT:_initsect_.obj
 0002:0004fcf4       ___rtc_izz                 00471cf4     MSVCRT:_initsect_.obj
 0002:0004fcf8       ___rtc_taa                 00471cf8     MSVCRT:_initsect_.obj
 0002:0004fcfc       ___rtc_tzz                 00471cfc     MSVCRT:_initsect_.obj
 0002:00054064       __TI2?AVbad_alloc@std@@    00476064     MSVCRT:throw_bad_alloc.obj
 0002:00054074       __CTA2?AVbad_alloc@std@@   00476074     MSVCRT:throw_bad_alloc.obj
 0002:00054080       __CT??_R0?AVbad_alloc@std@@@8??0bad_alloc@std@@QAE@ABV01@@Z12 00476080     MSVCRT:throw_bad_alloc.obj
 0002:0005409c       __CT??_R0?AVexception@std@@@8??0exception@std@@QAE@ABV01@@Z12 0047609c     MSVCRT:throw_bad_alloc.obj
 0002:000540b8       __TI3?AVbad_array_new_length@std@@ 004760b8     MSVCRT:throw_bad_alloc.obj
 0002:000540c8       __CTA3?AVbad_array_new_length@std@@ 004760c8     MSVCRT:throw_bad_alloc.obj
 0002:000540d8       __CT??_R0?AVbad_array_new_length@std@@@8??0bad_array_new_length@std@@QAE@ABV01@@Z12 004760d8     MSVCRT:throw_bad_alloc.obj
 0002:000540f4       __IMPORT_DESCRIPTOR_dbghelp 004760f4     DbgHelp:dbghelp.dll
 0002:00054108       __IMPORT_DESCRIPTOR_Qt5Quick 00476108     Qt5Quick:Qt5Quick.dll
 0002:0005411c       __IMPORT_DESCRIPTOR_Qt5Gui 0047611c     Qt5Gui:Qt5Gui.dll
 0002:00054130       __IMPORT_DESCRIPTOR_Qt5Qml 00476130     Qt5Qml:Qt5Qml.dll
 0002:00054144       __IMPORT_DESCRIPTOR_Qt5Network 00476144     Qt5Network:Qt5Network.dll
 0002:00054158       __IMPORT_DESCRIPTOR_Qt5Core 00476158     Qt5Core:Qt5Core.dll
 0002:0005416c       __IMPORT_DESCRIPTOR_KERNEL32 0047616c     kernel32:KERNEL32.dll
 0002:00054180       __IMPORT_DESCRIPTOR_VCRUNTIME140 00476180     vcruntime:VCRUNTIME140.dll
 0002:00054194       __IMPORT_DESCRIPTOR_api-ms-win-crt-heap-l1-1-0 00476194     ucrt:api-ms-win-crt-heap-l1-1-0.dll
 0002:000541a8       __IMPORT_DESCRIPTOR_api-ms-win-crt-runtime-l1-1-0 004761a8     ucrt:api-ms-win-crt-runtime-l1-1-0.dll
 0002:000541bc       __IMPORT_DESCRIPTOR_api-ms-win-crt-math-l1-1-0 004761bc     ucrt:api-ms-win-crt-math-l1-1-0.dll
 0002:000541d0       __IMPORT_DESCRIPTOR_api-ms-win-crt-stdio-l1-1-0 004761d0     ucrt:api-ms-win-crt-stdio-l1-1-0.dll
 0002:000541e4       __IMPORT_DESCRIPTOR_api-ms-win-crt-locale-l1-1-0 004761e4     ucrt:api-ms-win-crt-locale-l1-1-0.dll
 0002:000541f8       __IMPORT_DESCRIPTOR_SHELL32 004761f8     shell32:SHELL32.dll
 0002:0005420c       __NULL_IMPORT_DESCRIPTOR   0047620c     DbgHelp:dbghelp.dll
 0003:00000000       ?operationModelName@@3PBDB 0047a000     workmodels.obj
 0003:00000004       ?paramModelName@@3PBDB     0047a004     workmodels.obj
 0003:00000008       ?staticMetaObject@SubThreadWorker@@2UQMetaObject@@B 0047a008     moc_workflowprotocol.obj
 0003:00000020       ?staticMetaObject@WorkflowController@@2UQMetaObject@@B 0047a020     moc_workflowprotocol.obj
 0003:00000038       ?staticMetaObject@SubThreadCheckWorker@@2UQMetaObject@@B 0047a038     moc_workflowChecker.obj
 0003:00000050       ?staticMetaObject@WorkflowCheckerController@@2UQMetaObject@@B 0047a050     moc_workflowChecker.obj
 0003:00000068       ?staticMetaObject@configFileHandler@@2UQMetaObject@@B 0047a068     moc_configfilehandler.obj
 0003:00000080       ?staticMetaObject@EnvironmentVariant@@2UQMetaObject@@B 0047a080     moc_environmentvariant.obj
 0003:00000098       ?staticMetaObject@OperationParamObject@@2UQMetaObject@@B 0047a098     moc_workmodels.obj
 0003:000000b0       ?staticMetaObject@OperationParamSelector@@2UQMetaObject@@B 0047a0b0     moc_workmodels.obj
 0003:000000c8       ?staticMetaObject@SingleOperationObject@@2UQMetaObject@@B 0047a0c8     moc_workmodels.obj
 0003:000000e0       ?staticMetaObject@PlanSelector@@2UQMetaObject@@B 0047a0e0     moc_workmodels.obj
 0003:000000f8       ?staticMetaObject@PlanController@@2UQMetaObject@@B 0047a0f8     moc_workmodels.obj
 0003:00000110       ?staticMetaObject@StatusViewWatcher@@2UQMetaObject@@B 0047a110     moc_workmodels.obj
 0003:00000128       ?staticMetaObject@TargetMachineObject@@2UQMetaObject@@B 0047a128     moc_workmodels.obj
 0003:00000140       ?staticMetaObject@ConfigFileConverter@@2UQMetaObject@@B 0047a140     moc_workmodels.obj
 0003:00000158       ___security_cookie_complement 0047a158     MSVCRT:gs_cookie.obj
 0003:0000015c       ___security_cookie         0047a15c     MSVCRT:gs_cookie.obj
 0003:00000160       __Init_global_epoch        0047a160     MSVCRT:thread_safe_statics.obj
 0003:00000164       __fltused                  0047a164     MSVCRT:fltused.obj
 0003:00000168       ___scrt_native_dllmain_reason 0047a168     MSVCRT:utility.obj
 0003:0000016c       ___isa_enabled             0047a16c     MSVCRT:_cpu_disp_.obj
 0003:00000170       ___scrt_default_matherr    0047a170     MSVCRT:matherr.obj
 0003:00000174       ___scrt_ucrt_dll_is_in_use 0047a174     MSVCRT:ucrt_stubs.obj
 0003:00000178       ??_R0?AVSubThreadWorker@@@8 0047a178     workflowprotocol.obj
 0003:00000198       ??_R0?AVQObject@@@8        0047a198     workflowprotocol.obj
 0003:000001b0       ??_R0?AVWorkflowController@@@8 0047a1b0     workflowprotocol.obj
 0003:000001d4       ??_R0?AVStatusChangeEvent@@@8 0047a1d4     workflowprotocol.obj
 0003:000001f4       ??_R0?AVQEvent@@@8         0047a1f4     workflowprotocol.obj
 0003:0000020c       ??_R0?AVRunningStateChangeEvent@@@8 0047a20c     workflowprotocol.obj
 0003:00000234       ??_R0?AVconfigFileHandler@@@8 0047a234     configfilehandler.obj
 0003:00000254       ??_R0?AVTargetMachineObject@@@8 0047a254     environmentvariant.obj
 0003:00000278       ??_R0?AVMachineConfigData@@@8 0047a278     environmentvariant.obj
 0003:00000298       ??_R0?AVConfigFileConverter@@@8 0047a298     environmentvariant.obj
 0003:000002bc       ??_R0?AVEnvironmentVariant@@@8 0047a2bc     environmentvariant.obj
 0003:000002e0       ??_R0?AVOperationParamObject@@@8 0047a2e0     main.obj
 0003:00000304       ??_R0?AVOperationParamData@@@8 0047a304     main.obj
 0003:00000328       ??_R0?AVTextFieldDoubleValidator@@@8 0047a328     main.obj
 0003:00000350       ??_R0?AVQDoubleValidator@@@8 0047a350     main.obj
 0003:00000370       ??_R0?AVQValidator@@@8     0047a370     main.obj
 0003:00000390       ??_R0?AV?$QQmlElement@VTextFieldDoubleValidator@@@QQmlPrivate@@@8 0047a390     main.obj
 0003:000003d8       ??_R0?AV?$QQmlElement@VOperationParamObject@@@QQmlPrivate@@@8 0047a3d8     main.obj
 0003:00000418       ??_R0?AV?$QQmlElement@VOperationParamSelector@@@QQmlPrivate@@@8 0047a418     main.obj
 0003:0000045c       ??_R0?AVOperationParamSelector@@@8 0047a45c     main.obj
 0003:00000484       ??_R0?AV?$QQmlElement@VPlanSelector@@@QQmlPrivate@@@8 0047a484     main.obj
 0003:000004bc       ??_R0?AVPlanSelector@@@8   0047a4bc     main.obj
 0003:000004d8       ??_R0?AV?$QQmlElement@VStatusViewWatcher@@@QQmlPrivate@@@8 0047a4d8     main.obj
 0003:00000518       ??_R0?AVStatusViewWatcher@@@8 0047a518     main.obj
 0003:00000538       ??_R0?AV?$QQmlElement@VPlanController@@@QQmlPrivate@@@8 0047a538     main.obj
 0003:00000574       ??_R0?AVPlanController@@@8 0047a574     main.obj
 0003:00000594       ??_R0?AVCheckStateChangeEvent@@@8 0047a594     workmodels.obj
 0003:000005b8       ??_R0?AVSubThreadCheckWorker@@@8 0047a5b8     workflowChecker.obj
 0003:000005dc       ??_R0?AVWorkflowCheckerController@@@8 0047a5dc     workflowChecker.obj
 0003:00000604       ??_R0?AVtype_info@@@8      0047a604     MSVCRT:std_type_info_static.obj
 0003:0000061c       ??_R0?AVbad_alloc@std@@@8  0047a61c     MSVCRT:throw_bad_alloc.obj
 0003:00000638       ??_R0?AVexception@std@@@8  0047a638     MSVCRT:throw_bad_alloc.obj
 0003:00000654       ??_R0?AVbad_array_new_length@std@@@8 0047a654     MSVCRT:throw_bad_alloc.obj
 0003:00000680       ?t@?1??types@?$ConnectionTypes@U?$List@_NH@QtPrivate@@$00@QtPrivate@@SAPBHXZ@4QBHB 0047a680     workflowprotocol.obj
 0003:0000068c       ?$TSS0@?1??types@?$ConnectionTypes@U?$List@_NH@QtPrivate@@$00@QtPrivate@@SAPBHXZ@4HA 0047a68c     workflowprotocol.obj
 0003:00000690       ?t@?1??types@?$ConnectionTypes@U?$List@ABVQString@@@QtPrivate@@$00@QtPrivate@@SAPBHXZ@4QBHB 0047a690     workflowprotocol.obj
 0003:00000698       ?$TSS0@?1??types@?$ConnectionTypes@U?$List@ABVQString@@@QtPrivate@@$00@QtPrivate@@SAPBHXZ@4HA 0047a698     workflowprotocol.obj
 0003:0000069c       ?t@?1??types@?$ConnectionTypes@U?$List@ABVQString@@G@QtPrivate@@$00@QtPrivate@@SAPBHXZ@4QBHB 0047a69c     workflowprotocol.obj
 0003:000006a8       ?$TSS0@?1??types@?$ConnectionTypes@U?$List@ABVQString@@G@QtPrivate@@$00@QtPrivate@@SAPBHXZ@4HA 0047a6a8     workflowprotocol.obj
 0003:000006ac       ?t@?1??types@?$ConnectionTypes@U?$List@ABVQJsonObject@@@QtPrivate@@$00@QtPrivate@@SAPBHXZ@4QBHB 0047a6ac     workflowprotocol.obj
 0003:000006b4       ?$TSS0@?1??types@?$ConnectionTypes@U?$List@ABVQJsonObject@@@QtPrivate@@$00@QtPrivate@@SAPBHXZ@4HA 0047a6b4     workflowprotocol.obj
 0003:000006b8       ?m_instance@EnvironmentVariant@@0PAV1@A 0047a6b8     environmentvariant.obj
 0003:000006bc       ?metatype_id@?1??qt_metatype_id@?$QMetaTypeIdQObject@PAVPlanController@@$07@@SAHXZ@4V?$QBasicAtomicInteger@H@@A 0047a6bc     main.obj
 0003:000006c0       ?metatype_id@?1??qt_metatype_id@?$QMetaTypeIdQObject@PAVStatusViewWatcher@@$07@@SAHXZ@4V?$QBasicAtomicInteger@H@@A 0047a6c0     main.obj
 0003:000006c4       ?metatype_id@?1??qt_metatype_id@?$QMetaTypeIdQObject@PAVPlanSelector@@$07@@SAHXZ@4V?$QBasicAtomicInteger@H@@A 0047a6c4     main.obj
 0003:000006c8       ?metatype_id@?1??qt_metatype_id@?$QMetaTypeIdQObject@PAVOperationParamSelector@@$07@@SAHXZ@4V?$QBasicAtomicInteger@H@@A 0047a6c8     main.obj
 0003:000006cc       ?metatype_id@?1??qt_metatype_id@?$QMetaTypeIdQObject@PAVOperationParamObject@@$07@@SAHXZ@4V?$QBasicAtomicInteger@H@@A 0047a6cc     main.obj
 0003:000006d0       ?metatype_id@?1??qt_metatype_id@?$QMetaTypeIdQObject@PAVTextFieldDoubleValidator@@$07@@SAHXZ@4V?$QBasicAtomicInteger@H@@A 0047a6d0     main.obj
 0003:000006d4       ?t@?1??types@?$ConnectionTypes@U?$List@ABVQJsonArray@@@QtPrivate@@$00@QtPrivate@@SAPBHXZ@4QBHB 0047a6d4     workflowChecker.obj
 0003:000006dc       ?$TSS0@?1??types@?$ConnectionTypes@U?$List@ABVQJsonArray@@@QtPrivate@@$00@QtPrivate@@SAPBHXZ@4HA 0047a6dc     workflowChecker.obj
 0003:000006e0       ?dummy@?A0x60b45615@@3Uinitializer@1@A 0047a6e0     qrc_qml.obj
 0003:000006e4       ?metatype_id@?1??qt_metatype_id@?$QMetaTypeId@VQSequentialIterableImpl@QtMetaTypePrivate@@@@SAHXZ@4V?$QBasicAtomicInteger@H@@A 0047a6e4     moc_workmodels.obj
 0003:000006e8       ?metatype_id@?1??qt_metatype_id@?$QMetaTypeId@V?$QList@PAVQObject@@@@@@SAHXZ@4V?$QBasicAtomicInteger@H@@A 0047a6e8     moc_workmodels.obj
 0003:000006ec       ?f@?4??registerConverter@?$ValueTypeIsMetaType@V?$QList@PAVQObject@@@@$00@QtPrivate@@SA_NH@Z@4U?$ConverterFunctor@V?$QList@PAVQObject@@@@VQSequentialIterableImpl@QtMetaTypePrivate@@U?$QSequentialIterableConvertFunctor@V?$QList@PAVQObject@@@@@3@@3@B 0047a6ec     moc_workmodels.obj
 0003:000006f4       ?$TSS0@?4??registerConverter@?$ValueTypeIsMetaType@V?$QList@PAVQObject@@@@$00@QtPrivate@@SA_NH@Z@4HA 0047a6f4     moc_workmodels.obj
 0003:000006f8       ?metatype_id@?1??qt_metatype_id@?$QMetaTypeId@V?$QList@H@@@@SAHXZ@4V?$QBasicAtomicInteger@H@@A 0047a6f8     moc_workmodels.obj
 0003:000006fc       ?f@?4??registerConverter@?$ValueTypeIsMetaType@V?$QList@H@@$00@QtPrivate@@SA_NH@Z@4U?$ConverterFunctor@V?$QList@H@@VQSequentialIterableImpl@QtMetaTypePrivate@@U?$QSequentialIterableConvertFunctor@V?$QList@H@@@3@@3@B 0047a6fc     moc_workmodels.obj
 0003:00000704       ?$TSS0@?4??registerConverter@?$ValueTypeIsMetaType@V?$QList@H@@$00@QtPrivate@@SA_NH@Z@4HA 0047a704     moc_workmodels.obj
 0003:00000730       __tls_index                0047a730     MSVCRT:tlssup.obj
 0003:00000734       ___scrt_current_native_startup_state 0047a734     MSVCRT:utility.obj
 0003:00000738       ___scrt_native_startup_lock 0047a738     MSVCRT:utility.obj
 0003:00000a74       ___scrt_debugger_hook_flag 0047aa74     MSVCRT:utility_desktop.obj
 0003:00000a78       ___isa_available           0047aa78     MSVCRT:_cpu_disp_.obj
 0003:00000a7c       ___favor                   0047aa7c     MSVCRT:_cpu_disp_.obj
 0003:00000a80       ?__type_info_root_node@@3U__type_info_node@@A 0047aa80     MSVCRT:tncleanup.obj
 0003:00000a88       ?_OptionsStorage@?1??__local_stdio_printf_options@@9@4_KA 0047aa88     MSVCRT:default_local_stdio_options.obj
 0003:00000a90       ?_OptionsStorage@?1??__local_stdio_scanf_options@@9@4_KA 0047aa90     MSVCRT:default_local_stdio_options.obj
 0003:00000a98       ___dyn_tls_dtor_callback   0047aa98     <common>
 0003:00000a9c       ___dyn_tls_init_callback   0047aa9c     <common>
 0004:00000000       __tls_start                0047b000     MSVCRT:tlssup.obj
 0004:00000004       __Init_thread_epoch        0047b004     MSVCRT:thread_safe_statics.obj
 0004:00000008       __tls_end                  0047b008     MSVCRT:tlssup.obj

 entry point at        0001:0001c47d

 Static symbols

 0000:fff7d000       .debug$S                   00400000     ucrt:api-ms-win-crt-stdio-l1-1-0.dll
 0000:fff7d000       .debug$S                   00400000     vcruntime:VCRUNTIME140.dll
 0000:fff7d000       .debug$S                   00400000     vcruntime:VCRUNTIME140.dll
 0000:fff7d000       .debug$S                   00400000     vcruntime:VCRUNTIME140.dll
 0000:fff7d000       .debug$S                   00400000     vcruntime:VCRUNTIME140.dll
 0000:fff7d000       .debug$S                   00400000     vcruntime:VCRUNTIME140.dll
 0000:fff7d000       .debug$S                   00400000     vcruntime:VCRUNTIME140.dll
 0000:fff7d000       .debug$S                   00400000     vcruntime:VCRUNTIME140.dll
 0000:fff7d000       .debug$S                   00400000     vcruntime:VCRUNTIME140.dll
 0000:fff7d000       .debug$S                   00400000     vcruntime:VCRUNTIME140.dll
 0000:fff7d000       .debug$S                   00400000     vcruntime:VCRUNTIME140.dll
 0000:fff7d000       .debug$S                   00400000     vcruntime:VCRUNTIME140.dll
 0000:fff7d000       .debug$S                   00400000     kernel32:KERNEL32.dll
 0000:fff7d000       .debug$S                   00400000     kernel32:KERNEL32.dll
 0000:fff7d000       .debug$S                   00400000     kernel32:KERNEL32.dll
 0000:fff7d000       .debug$S                   00400000     kernel32:KERNEL32.dll
 0000:fff7d000       .debug$S                   00400000     kernel32:KERNEL32.dll
 0000:fff7d000       .debug$S                   00400000     ucrt:api-ms-win-crt-heap-l1-1-0.dll
 0000:fff7d000       .debug$S                   00400000     DbgHelp:dbghelp.dll
 0000:fff7d000       .debug$S                   00400000     Qt5Quick:Qt5Quick.dll
 0000:fff7d000       .debug$S                   00400000     Qt5Quick:Qt5Quick.dll
 0000:fff7d000       .debug$S                   00400000     Qt5Quick:Qt5Quick.dll
 0000:fff7d000       .debug$S                   00400000     Qt5Quick:Qt5Quick.dll
 0000:fff7d000       .debug$S                   00400000     Qt5Quick:Qt5Quick.dll
 0000:fff7d000       .debug$S                   00400000     Qt5Quick:Qt5Quick.dll
 0000:fff7d000       .debug$S                   00400000     kernel32:KERNEL32.dll
 0000:fff7d000       .debug$S                   00400000     kernel32:KERNEL32.dll
 0000:fff7d000       .debug$S                   00400000     kernel32:KERNEL32.dll
 0000:fff7d000       .debug$S                   00400000     kernel32:KERNEL32.dll
 0000:fff7d000       .debug$S                   00400000     Qt5Gui:Qt5Gui.dll
 0000:fff7d000       .debug$S                   00400000     Qt5Gui:Qt5Gui.dll
 0000:fff7d000       .debug$S                   00400000     Qt5Gui:Qt5Gui.dll
 0000:fff7d000       .debug$S                   00400000     kernel32:KERNEL32.dll
 0000:fff7d000       .debug$S                   00400000     kernel32:KERNEL32.dll
 0000:fff7d000       .debug$S                   00400000     kernel32:KERNEL32.dll
 0000:fff7d000       .debug$S                   00400000     Qt5Gui:Qt5Gui.dll
 0000:fff7d000       .debug$S                   00400000     kernel32:KERNEL32.dll
 0000:fff7d000       .debug$S                   00400000     kernel32:KERNEL32.dll
 0000:fff7d000       .debug$S                   00400000     kernel32:KERNEL32.dll
 0000:fff7d000       .debug$S                   00400000     kernel32:KERNEL32.dll
 0000:fff7d000       .debug$S                   00400000     Qt5Gui:Qt5Gui.dll
 0000:fff7d000       .debug$S                   00400000     kernel32:KERNEL32.dll
 0000:fff7d000       .debug$S                   00400000     kernel32:KERNEL32.dll
 0000:fff7d000       .debug$S                   00400000     kernel32:KERNEL32.dll
 0000:fff7d000       .debug$S                   00400000     kernel32:KERNEL32.dll
 0000:fff7d000       .debug$S                   00400000     kernel32:KERNEL32.dll
 0000:fff7d000       .debug$S                   00400000     kernel32:KERNEL32.dll
 0000:fff7d000       .debug$S                   00400000     Qt5Gui:Qt5Gui.dll
 0000:fff7d000       .debug$S                   00400000     kernel32:KERNEL32.dll
 0000:fff7d000       .debug$S                   00400000     Qt5Gui:Qt5Gui.dll
 0000:fff7d000       .debug$S                   00400000     kernel32:KERNEL32.dll
 0000:fff7d000       .debug$S                   00400000     kernel32:KERNEL32.dll
 0000:fff7d000       .debug$S                   00400000     kernel32:KERNEL32.dll
 0000:fff7d000       .debug$S                   00400000     ucrt:api-ms-win-crt-stdio-l1-1-0.dll
 0000:fff7d000       .debug$S                   00400000     ucrt:api-ms-win-crt-runtime-l1-1-0.dll
 0000:fff7d000       .debug$S                   00400000     Qt5Gui:Qt5Gui.dll
 0000:fff7d000       .debug$S                   00400000     ucrt:api-ms-win-crt-runtime-l1-1-0.dll
 0000:fff7d000       .debug$S                   00400000     ucrt:api-ms-win-crt-runtime-l1-1-0.dll
 0000:fff7d000       .debug$S                   00400000     ucrt:api-ms-win-crt-runtime-l1-1-0.dll
 0000:fff7d000       .debug$S                   00400000     Qt5Gui:Qt5Gui.dll
 0000:fff7d000       .debug$S                   00400000     ucrt:api-ms-win-crt-runtime-l1-1-0.dll
 0000:fff7d000       .debug$S                   00400000     ucrt:api-ms-win-crt-runtime-l1-1-0.dll
 0000:fff7d000       .debug$S                   00400000     ucrt:api-ms-win-crt-runtime-l1-1-0.dll
 0000:fff7d000       .debug$S                   00400000     Qt5Gui:Qt5Gui.dll
 0000:fff7d000       .debug$S                   00400000     Qt5Gui:Qt5Gui.dll
 0000:fff7d000       .debug$S                   00400000     Qt5Gui:Qt5Gui.dll
 0000:fff7d000       .debug$S                   00400000     ucrt:api-ms-win-crt-runtime-l1-1-0.dll
 0000:fff7d000       .debug$S                   00400000     ucrt:api-ms-win-crt-runtime-l1-1-0.dll
 0000:fff7d000       .debug$S                   00400000     ucrt:api-ms-win-crt-runtime-l1-1-0.dll
 0000:fff7d000       .debug$S                   00400000     ucrt:api-ms-win-crt-runtime-l1-1-0.dll
 0000:fff7d000       .debug$S                   00400000     ucrt:api-ms-win-crt-runtime-l1-1-0.dll
 0000:fff7d000       .debug$S                   00400000     ucrt:api-ms-win-crt-runtime-l1-1-0.dll
 0000:fff7d000       .debug$S                   00400000     Qt5Gui:Qt5Gui.dll
 0000:fff7d000       .debug$S                   00400000     ucrt:api-ms-win-crt-runtime-l1-1-0.dll
 0000:fff7d000       .debug$S                   00400000     Qt5Gui:Qt5Gui.dll
 0000:fff7d000       .debug$S                   00400000     ucrt:api-ms-win-crt-runtime-l1-1-0.dll
 0000:fff7d000       .debug$S                   00400000     ucrt:api-ms-win-crt-runtime-l1-1-0.dll
 0000:fff7d000       .debug$S                   00400000     ucrt:api-ms-win-crt-runtime-l1-1-0.dll
 0000:fff7d000       .debug$S                   00400000     ucrt:api-ms-win-crt-runtime-l1-1-0.dll
 0000:fff7d000       .debug$S                   00400000     ucrt:api-ms-win-crt-runtime-l1-1-0.dll
 0000:fff7d000       .debug$S                   00400000     ucrt:api-ms-win-crt-runtime-l1-1-0.dll
 0000:fff7d000       .debug$S                   00400000     ucrt:api-ms-win-crt-runtime-l1-1-0.dll
 0000:fff7d000       .debug$S                   00400000     ucrt:api-ms-win-crt-runtime-l1-1-0.dll
 0000:fff7d000       .debug$S                   00400000     ucrt:api-ms-win-crt-math-l1-1-0.dll
 0000:fff7d000       .debug$S                   00400000     ucrt:api-ms-win-crt-locale-l1-1-0.dll
 0000:fff7d000       .debug$S                   00400000     ucrt:api-ms-win-crt-heap-l1-1-0.dll
 0000:fff7d000       .debug$S                   00400000     ucrt:api-ms-win-crt-heap-l1-1-0.dll
 0000:fff7d000       .debug$S                   00400000     ucrt:api-ms-win-crt-heap-l1-1-0.dll
 0000:fff7d000       .debug$S                   00400000     Qt5Gui:Qt5Gui.dll
 0000:fff7d000       .debug$S                   00400000     Qt5Core:Qt5Core.dll
 0000:fff7d000       .debug$S                   00400000     Qt5Core:Qt5Core.dll
 0000:fff7d000       .debug$S                   00400000     Qt5Core:Qt5Core.dll
 0000:fff7d000       .debug$S                   00400000     Qt5Core:Qt5Core.dll
 0000:fff7d000       .debug$S                   00400000     Qt5Core:Qt5Core.dll
 0000:fff7d000       .debug$S                   00400000     Qt5Core:Qt5Core.dll
 0000:fff7d000       .debug$S                   00400000     Qt5Core:Qt5Core.dll
 0000:fff7d000       .debug$S                   00400000     Qt5Core:Qt5Core.dll
 0000:fff7d000       .debug$S                   00400000     Qt5Core:Qt5Core.dll
 0000:fff7d000       .debug$S                   00400000     Qt5Core:Qt5Core.dll
 0000:fff7d000       .debug$S                   00400000     Qt5Core:Qt5Core.dll
 0000:fff7d000       .debug$S                   00400000     Qt5Core:Qt5Core.dll
 0000:fff7d000       .debug$S                   00400000     Qt5Core:Qt5Core.dll
 0000:fff7d000       .debug$S                   00400000     Qt5Core:Qt5Core.dll
 0000:fff7d000       .debug$S                   00400000     Qt5Core:Qt5Core.dll
 0000:fff7d000       .debug$S                   00400000     Qt5Core:Qt5Core.dll
 0000:fff7d000       .debug$S                   00400000     Qt5Core:Qt5Core.dll
 0000:fff7d000       .debug$S                   00400000     Qt5Gui:Qt5Gui.dll
 0000:fff7d000       .debug$S                   00400000     Qt5Core:Qt5Core.dll
 0000:fff7d000       .debug$S                   00400000     Qt5Core:Qt5Core.dll
 0000:fff7d000       .debug$S                   00400000     Qt5Core:Qt5Core.dll
 0000:fff7d000       .debug$S                   00400000     Qt5Gui:Qt5Gui.dll
 0000:fff7d000       .debug$S                   00400000     Qt5Core:Qt5Core.dll
 0000:fff7d000       .debug$S                   00400000     Qt5Core:Qt5Core.dll
 0000:fff7d000       .debug$S                   00400000     Qt5Core:Qt5Core.dll
 0000:fff7d000       .debug$S                   00400000     Qt5Core:Qt5Core.dll
 0000:fff7d000       .debug$S                   00400000     Qt5Core:Qt5Core.dll
 0000:fff7d000       .debug$S                   00400000     Qt5Gui:Qt5Gui.dll
 0000:fff7d000       .debug$S                   00400000     Qt5Gui:Qt5Gui.dll
 0000:fff7d000       .debug$S                   00400000     Qt5Gui:Qt5Gui.dll
 0000:fff7d000       .debug$S                   00400000     Qt5Gui:Qt5Gui.dll
 0000:fff7d000       .debug$S                   00400000     Qt5Core:Qt5Core.dll
 0000:fff7d000       .debug$S                   00400000     Qt5Core:Qt5Core.dll
 0000:fff7d000       .debug$S                   00400000     Qt5Core:Qt5Core.dll
 0000:fff7d000       .debug$S                   00400000     Qt5Core:Qt5Core.dll
 0000:fff7d000       .debug$S                   00400000     Qt5Core:Qt5Core.dll
 0000:fff7d000       .debug$S                   00400000     Qt5Core:Qt5Core.dll
 0000:fff7d000       .debug$S                   00400000     Qt5Qml:Qt5Qml.dll
 0000:fff7d000       .debug$S                   00400000     Qt5Qml:Qt5Qml.dll
 0000:fff7d000       .debug$S                   00400000     Qt5Qml:Qt5Qml.dll
 0000:fff7d000       .debug$S                   00400000     Qt5Qml:Qt5Qml.dll
 0000:fff7d000       .debug$S                   00400000     Qt5Core:Qt5Core.dll
 0000:fff7d000       .debug$S                   00400000     Qt5Core:Qt5Core.dll
 0000:fff7d000       .debug$S                   00400000     Qt5Core:Qt5Core.dll
 0000:fff7d000       .debug$S                   00400000     Qt5Core:Qt5Core.dll
 0000:fff7d000       .debug$S                   00400000     Qt5Core:Qt5Core.dll
 0000:fff7d000       .debug$S                   00400000     Qt5Qml:Qt5Qml.dll
 0000:fff7d000       .debug$S                   00400000     Qt5Core:Qt5Core.dll
 0000:fff7d000       .debug$S                   00400000     Qt5Core:Qt5Core.dll
 0000:fff7d000       .debug$S                   00400000     Qt5Core:Qt5Core.dll
 0000:fff7d000       .debug$S                   00400000     Qt5Core:Qt5Core.dll
 0000:fff7d000       .debug$S                   00400000     Qt5Core:Qt5Core.dll
 0000:fff7d000       .debug$S                   00400000     Qt5Core:Qt5Core.dll
 0000:fff7d000       .debug$S                   00400000     Qt5Core:Qt5Core.dll
 0000:fff7d000       .debug$S                   00400000     Qt5Core:Qt5Core.dll
 0000:fff7d000       .debug$S                   00400000     Qt5Core:Qt5Core.dll
 0000:fff7d000       .debug$S                   00400000     Qt5Core:Qt5Core.dll
 0000:fff7d000       .debug$S                   00400000     Qt5Core:Qt5Core.dll
 0000:fff7d000       .debug$S                   00400000     Qt5Core:Qt5Core.dll
 0000:fff7d000       .debug$S                   00400000     Qt5Core:Qt5Core.dll
 0000:fff7d000       .debug$S                   00400000     Qt5Core:Qt5Core.dll
 0000:fff7d000       .debug$S                   00400000     Qt5Core:Qt5Core.dll
 0000:fff7d000       .debug$S                   00400000     Qt5Core:Qt5Core.dll
 0000:fff7d000       .debug$S                   00400000     Qt5Core:Qt5Core.dll
 0000:fff7d000       .debug$S                   00400000     Qt5Core:Qt5Core.dll
 0000:fff7d000       .debug$S                   00400000     Qt5Core:Qt5Core.dll
 0000:fff7d000       .debug$S                   00400000     Qt5Core:Qt5Core.dll
 0000:fff7d000       .debug$S                   00400000     Qt5Core:Qt5Core.dll
 0000:fff7d000       .debug$S                   00400000     Qt5Core:Qt5Core.dll
 0000:fff7d000       .debug$S                   00400000     Qt5Core:Qt5Core.dll
 0000:fff7d000       .debug$S                   00400000     Qt5Core:Qt5Core.dll
 0000:fff7d000       .debug$S                   00400000     Qt5Core:Qt5Core.dll
 0000:fff7d000       .debug$S                   00400000     Qt5Core:Qt5Core.dll
 0000:fff7d000       .debug$S                   00400000     Qt5Core:Qt5Core.dll
 0000:fff7d000       .debug$S                   00400000     Qt5Core:Qt5Core.dll
 0000:fff7d000       .debug$S                   00400000     Qt5Core:Qt5Core.dll
 0000:fff7d000       .debug$S                   00400000     Qt5Core:Qt5Core.dll
 0000:fff7d000       .debug$S                   00400000     Qt5Core:Qt5Core.dll
 0000:fff7d000       .debug$S                   00400000     Qt5Core:Qt5Core.dll
 0000:fff7d000       .debug$S                   00400000     Qt5Core:Qt5Core.dll
 0000:fff7d000       .debug$S                   00400000     Qt5Core:Qt5Core.dll
 0000:fff7d000       .debug$S                   00400000     Qt5Core:Qt5Core.dll
 0000:fff7d000       .debug$S                   00400000     Qt5Core:Qt5Core.dll
 0000:fff7d000       .debug$S                   00400000     Qt5Core:Qt5Core.dll
 0000:fff7d000       .debug$S                   00400000     Qt5Core:Qt5Core.dll
 0000:fff7d000       .debug$S                   00400000     Qt5Core:Qt5Core.dll
 0000:fff7d000       .debug$S                   00400000     Qt5Core:Qt5Core.dll
 0000:fff7d000       .debug$S                   00400000     Qt5Core:Qt5Core.dll
 0000:fff7d000       .debug$S                   00400000     Qt5Core:Qt5Core.dll
 0000:fff7d000       .debug$S                   00400000     Qt5Core:Qt5Core.dll
 0000:fff7d000       .debug$S                   00400000     Qt5Core:Qt5Core.dll
 0000:fff7d000       .debug$S                   00400000     Qt5Core:Qt5Core.dll
 0000:fff7d000       .debug$S                   00400000     Qt5Core:Qt5Core.dll
 0000:fff7d000       .debug$S                   00400000     Qt5Core:Qt5Core.dll
 0000:fff7d000       .debug$S                   00400000     Qt5Core:Qt5Core.dll
 0000:fff7d000       .debug$S                   00400000     Qt5Core:Qt5Core.dll
 0000:fff7d000       .debug$S                   00400000     Qt5Core:Qt5Core.dll
 0000:fff7d000       .debug$S                   00400000     Qt5Core:Qt5Core.dll
 0000:fff7d000       .debug$S                   00400000     Qt5Core:Qt5Core.dll
 0000:fff7d000       .debug$S                   00400000     Qt5Core:Qt5Core.dll
 0000:fff7d000       .debug$S                   00400000     Qt5Core:Qt5Core.dll
 0000:fff7d000       .debug$S                   00400000     Qt5Core:Qt5Core.dll
 0000:fff7d000       .debug$S                   00400000     Qt5Core:Qt5Core.dll
 0000:fff7d000       .debug$S                   00400000     Qt5Core:Qt5Core.dll
 0000:fff7d000       .debug$S                   00400000     Qt5Core:Qt5Core.dll
 0000:fff7d000       .debug$S                   00400000     Qt5Core:Qt5Core.dll
 0000:fff7d000       .debug$S                   00400000     Qt5Core:Qt5Core.dll
 0000:fff7d000       .debug$S                   00400000     Qt5Core:Qt5Core.dll
 0000:fff7d000       .debug$S                   00400000     Qt5Core:Qt5Core.dll
 0000:fff7d000       .debug$S                   00400000     Qt5Core:Qt5Core.dll
 0000:fff7d000       .debug$S                   00400000     Qt5Core:Qt5Core.dll
 0000:fff7d000       .debug$S                   00400000     Qt5Core:Qt5Core.dll
 0000:fff7d000       .debug$S                   00400000     Qt5Core:Qt5Core.dll
 0000:fff7d000       .debug$S                   00400000     Qt5Core:Qt5Core.dll
 0000:fff7d000       .debug$S                   00400000     Qt5Core:Qt5Core.dll
 0000:fff7d000       .debug$S                   00400000     Qt5Core:Qt5Core.dll
 0000:fff7d000       .debug$S                   00400000     Qt5Core:Qt5Core.dll
 0000:fff7d000       .debug$S                   00400000     Qt5Core:Qt5Core.dll
 0000:fff7d000       .debug$S                   00400000     Qt5Core:Qt5Core.dll
 0000:fff7d000       .debug$S                   00400000     Qt5Core:Qt5Core.dll
 0000:fff7d000       .debug$S                   00400000     Qt5Core:Qt5Core.dll
 0000:fff7d000       .debug$S                   00400000     Qt5Core:Qt5Core.dll
 0000:fff7d000       .debug$S                   00400000     Qt5Core:Qt5Core.dll
 0000:fff7d000       .debug$S                   00400000     Qt5Core:Qt5Core.dll
 0000:fff7d000       .debug$S                   00400000     Qt5Core:Qt5Core.dll
 0000:fff7d000       .debug$S                   00400000     Qt5Core:Qt5Core.dll
 0000:fff7d000       .debug$S                   00400000     Qt5Core:Qt5Core.dll
 0000:fff7d000       .debug$S                   00400000     Qt5Core:Qt5Core.dll
 0000:fff7d000       .debug$S                   00400000     Qt5Core:Qt5Core.dll
 0000:fff7d000       .debug$S                   00400000     Qt5Core:Qt5Core.dll
 0000:fff7d000       .debug$S                   00400000     Qt5Core:Qt5Core.dll
 0000:fff7d000       .debug$S                   00400000     Qt5Core:Qt5Core.dll
 0000:fff7d000       .debug$S                   00400000     Qt5Core:Qt5Core.dll
 0000:fff7d000       .debug$S                   00400000     Qt5Core:Qt5Core.dll
 0000:fff7d000       .debug$S                   00400000     Qt5Core:Qt5Core.dll
 0000:fff7d000       .debug$S                   00400000     Qt5Core:Qt5Core.dll
 0000:fff7d000       .debug$S                   00400000     Qt5Core:Qt5Core.dll
 0000:fff7d000       .debug$S                   00400000     Qt5Core:Qt5Core.dll
 0000:fff7d000       .debug$S                   00400000     Qt5Core:Qt5Core.dll
 0000:fff7d000       .debug$S                   00400000     Qt5Core:Qt5Core.dll
 0000:fff7d000       .debug$S                   00400000     Qt5Core:Qt5Core.dll
 0000:fff7d000       .debug$S                   00400000     Qt5Core:Qt5Core.dll
 0000:fff7d000       .debug$S                   00400000     Qt5Core:Qt5Core.dll
 0000:fff7d000       .debug$S                   00400000     Qt5Core:Qt5Core.dll
 0000:fff7d000       .debug$S                   00400000     Qt5Core:Qt5Core.dll
 0000:fff7d000       .debug$S                   00400000     Qt5Core:Qt5Core.dll
 0000:fff7d000       .debug$S                   00400000     Qt5Core:Qt5Core.dll
 0000:fff7d000       .debug$S                   00400000     Qt5Core:Qt5Core.dll
 0000:fff7d000       .debug$S                   00400000     Qt5Core:Qt5Core.dll
 0000:fff7d000       .debug$S                   00400000     Qt5Core:Qt5Core.dll
 0000:fff7d000       .debug$S                   00400000     Qt5Core:Qt5Core.dll
 0000:fff7d000       .debug$S                   00400000     Qt5Core:Qt5Core.dll
 0000:fff7d000       .debug$S                   00400000     Qt5Core:Qt5Core.dll
 0000:fff7d000       .debug$S                   00400000     Qt5Core:Qt5Core.dll
 0000:fff7d000       .debug$S                   00400000     Qt5Core:Qt5Core.dll
 0000:fff7d000       .debug$S                   00400000     Qt5Core:Qt5Core.dll
 0000:fff7d000       .debug$S                   00400000     Qt5Qml:Qt5Qml.dll
 0000:fff7d000       .debug$S                   00400000     Qt5Network:Qt5Network.dll
 0000:fff7d000       .debug$S                   00400000     Qt5Network:Qt5Network.dll
 0000:fff7d000       .debug$S                   00400000     Qt5Core:Qt5Core.dll
 0000:fff7d000       .debug$S                   00400000     Qt5Core:Qt5Core.dll
 0000:fff7d000       .debug$S                   00400000     Qt5Core:Qt5Core.dll
 0000:fff7d000       .debug$S                   00400000     Qt5Core:Qt5Core.dll
 0000:fff7d000       .debug$S                   00400000     Qt5Core:Qt5Core.dll
 0000:fff7d000       .debug$S                   00400000     Qt5Core:Qt5Core.dll
 0000:fff7d000       .debug$S                   00400000     Qt5Core:Qt5Core.dll
 0000:fff7d000       .debug$S                   00400000     Qt5Core:Qt5Core.dll
 0000:fff7d000       .debug$S                   00400000     Qt5Core:Qt5Core.dll
 0000:fff7d000       .debug$S                   00400000     Qt5Core:Qt5Core.dll
 0000:fff7d000       .debug$S                   00400000     Qt5Core:Qt5Core.dll
 0000:fff7d000       .debug$S                   00400000     Qt5Core:Qt5Core.dll
 0000:fff7d000       .debug$S                   00400000     Qt5Core:Qt5Core.dll
 0000:fff7d000       .debug$S                   00400000     Qt5Core:Qt5Core.dll
 0000:fff7d000       .debug$S                   00400000     Qt5Core:Qt5Core.dll
 0000:fff7d000       .debug$S                   00400000     Qt5Core:Qt5Core.dll
 0000:fff7d000       .debug$S                   00400000     Qt5Core:Qt5Core.dll
 0000:fff7d000       .debug$S                   00400000     Qt5Core:Qt5Core.dll
 0000:fff7d000       .debug$S                   00400000     Qt5Core:Qt5Core.dll
 0000:fff7d000       .debug$S                   00400000     Qt5Network:Qt5Network.dll
 0000:fff7d000       .debug$S                   00400000     Qt5Core:Qt5Core.dll
 0000:fff7d000       .debug$S                   00400000     Qt5Core:Qt5Core.dll
 0000:fff7d000       .debug$S                   00400000     Qt5Core:Qt5Core.dll
 0000:fff7d000       .debug$S                   00400000     Qt5Network:Qt5Network.dll
 0000:fff7d000       .debug$S                   00400000     Qt5Core:Qt5Core.dll
 0000:fff7d000       .debug$S                   00400000     Qt5Network:Qt5Network.dll
 0000:fff7d000       .debug$S                   00400000     Qt5Network:Qt5Network.dll
 0000:fff7d000       .debug$S                   00400000     Qt5Core:Qt5Core.dll
 0000:fff7d000       .debug$S                   00400000     Qt5Core:Qt5Core.dll
 0000:fff7d000       .debug$S                   00400000     Qt5Core:Qt5Core.dll
 0000:fff7d000       .debug$S                   00400000     Qt5Core:Qt5Core.dll
 0000:fff7d000       .debug$S                   00400000     Qt5Core:Qt5Core.dll
 0000:fff7d000       .debug$S                   00400000     Qt5Core:Qt5Core.dll
 0000:fff7d000       .debug$S                   00400000     Qt5Core:Qt5Core.dll
 0000:fff7d000       .debug$S                   00400000     Qt5Core:Qt5Core.dll
 0000:fff7d000       .debug$S                   00400000     Qt5Core:Qt5Core.dll
 0000:fff7d000       .debug$S                   00400000     Qt5Core:Qt5Core.dll
 0000:fff7d000       .debug$S                   00400000     Qt5Core:Qt5Core.dll
 0000:fff7d000       .debug$S                   00400000     Qt5Core:Qt5Core.dll
 0000:fff7d000       .debug$S                   00400000     Qt5Core:Qt5Core.dll
 0000:fff7d000       .debug$S                   00400000     Qt5Core:Qt5Core.dll
 0000:fff7d000       .debug$S                   00400000     Qt5Core:Qt5Core.dll
 0000:fff7d000       .debug$S                   00400000     Qt5Core:Qt5Core.dll
 0000:fff7d000       .debug$S                   00400000     Qt5Core:Qt5Core.dll
 0000:fff7d000       .debug$S                   00400000     Qt5Core:Qt5Core.dll
 0000:fff7d000       .debug$S                   00400000     Qt5Core:Qt5Core.dll
 0000:fff7d000       .debug$S                   00400000     Qt5Core:Qt5Core.dll
 0000:fff7d000       .debug$S                   00400000     Qt5Core:Qt5Core.dll
 0000:fff7d000       .debug$S                   00400000     Qt5Core:Qt5Core.dll
 0000:fff7d000       .debug$S                   00400000     Qt5Core:Qt5Core.dll
 0000:fff7d000       .debug$S                   00400000     Qt5Core:Qt5Core.dll
 0000:fff7d000       .debug$S                   00400000     Qt5Core:Qt5Core.dll
 0000:fff7d000       .debug$S                   00400000     Qt5Core:Qt5Core.dll
 0000:fff7d000       .debug$S                   00400000     Qt5Core:Qt5Core.dll
 0000:fff7d000       .debug$S                   00400000     Qt5Core:Qt5Core.dll
 0000:fff7d000       .debug$S                   00400000     Qt5Core:Qt5Core.dll
 0000:fff7d000       .debug$S                   00400000     Qt5Core:Qt5Core.dll
 0000:fff7d000       .debug$S                   00400000     Qt5Core:Qt5Core.dll
 0000:fff7d000       .debug$S                   00400000     Qt5Core:Qt5Core.dll
 0000:fff7d000       .debug$S                   00400000     Qt5Core:Qt5Core.dll
 0000:fff7d000       .debug$S                   00400000     Qt5Core:Qt5Core.dll
 0000:fff7d000       .debug$S                   00400000     Qt5Core:Qt5Core.dll
 0000:fff7d000       .debug$S                   00400000     Qt5Core:Qt5Core.dll
 0000:fff7d000       .debug$S                   00400000     Qt5Core:Qt5Core.dll
 0000:fff7d000       .debug$S                   00400000     Qt5Core:Qt5Core.dll
 0000:fff7d000       .debug$S                   00400000     Qt5Core:Qt5Core.dll
 0000:fff7d000       .debug$S                   00400000     Qt5Core:Qt5Core.dll
 0000:fff7d000       .debug$S                   00400000     Qt5Core:Qt5Core.dll
 0000:fff7d000       .debug$S                   00400000     Qt5Core:Qt5Core.dll
 0000:fff7d000       .debug$S                   00400000     Qt5Core:Qt5Core.dll
 0000:fff7d000       .debug$S                   00400000     Qt5Core:Qt5Core.dll
 0000:fff7d000       .debug$S                   00400000     Qt5Core:Qt5Core.dll
 0000:fff7d000       .debug$S                   00400000     Qt5Core:Qt5Core.dll
 0000:fff7d000       .debug$S                   00400000     Qt5Core:Qt5Core.dll
 0000:fff7d000       .debug$S                   00400000     Qt5Core:Qt5Core.dll
 0000:fff7d000       .debug$S                   00400000     Qt5Core:Qt5Core.dll
 0000:fff7d000       .debug$S                   00400000     Qt5Core:Qt5Core.dll
 0000:fff7d000       .debug$S                   00400000     Qt5Core:Qt5Core.dll
 0000:fff7d000       .debug$S                   00400000     Qt5Core:Qt5Core.dll
 0000:fff7d000       .debug$S                   00400000     Qt5Core:Qt5Core.dll
 0000:fff7d000       .debug$S                   00400000     Qt5Core:Qt5Core.dll
 0000:fff7d000       .debug$S                   00400000     Qt5Core:Qt5Core.dll
 0000:fff7d000       .debug$S                   00400000     Qt5Core:Qt5Core.dll
 0000:fff7d000       .debug$S                   00400000     Qt5Core:Qt5Core.dll
 0000:fff7d000       .debug$S                   00400000     Qt5Core:Qt5Core.dll
 0000:fff7d000       .debug$S                   00400000     Qt5Core:Qt5Core.dll
 0000:fff7d000       .debug$S                   00400000     Qt5Core:Qt5Core.dll
 0000:fff7d000       .debug$S                   00400000     Qt5Core:Qt5Core.dll
 0000:fff7d000       .debug$S                   00400000     Qt5Network:Qt5Network.dll
 0000:fff7d000       .debug$S                   00400000     Qt5Core:Qt5Core.dll
 0000:fff7d000       .debug$S                   00400000     Qt5Core:Qt5Core.dll
 0000:fff7d000       .debug$S                   00400000     Qt5Core:Qt5Core.dll
 0000:fff7d000       .debug$S                   00400000     Qt5Core:Qt5Core.dll
 0000:fff7d000       .debug$S                   00400000     Qt5Core:Qt5Core.dll
 0000:fff7d000       .debug$S                   00400000     shell32:SHELL32.dll
 0001:00000000       ??__Edummy@?A0x60b45615@@YAXXZ 00401000 f   qrc_qml.obj
 0001:00000030       ??__E?staticMetaObject@SubThreadWorker@@2UQMetaObject@@B@@YAXXZ 00401030 f   moc_workflowprotocol.obj
 0001:00000040       ??__E?staticMetaObject@WorkflowController@@2UQMetaObject@@B@@YAXXZ 00401040 f   moc_workflowprotocol.obj
 0001:00000050       ??__E?staticMetaObject@SubThreadCheckWorker@@2UQMetaObject@@B@@YAXXZ 00401050 f   moc_workflowChecker.obj
 0001:00000060       ??__E?staticMetaObject@WorkflowCheckerController@@2UQMetaObject@@B@@YAXXZ 00401060 f   moc_workflowChecker.obj
 0001:00000070       ??__E?staticMetaObject@configFileHandler@@2UQMetaObject@@B@@YAXXZ 00401070 f   moc_configfilehandler.obj
 0001:00000080       ??__E?staticMetaObject@EnvironmentVariant@@2UQMetaObject@@B@@YAXXZ 00401080 f   moc_environmentvariant.obj
 0001:00000090       ??__E?staticMetaObject@ConfigFileConverter@@2UQMetaObject@@B@@YAXXZ 00401090 f   moc_workmodels.obj
 0001:000000a0       ??__E?staticMetaObject@OperationParamObject@@2UQMetaObject@@B@@YAXXZ 004010a0 f   moc_workmodels.obj
 0001:000000b0       ??__E?staticMetaObject@OperationParamSelector@@2UQMetaObject@@B@@YAXXZ 004010b0 f   moc_workmodels.obj
 0001:000000c0       ??__E?staticMetaObject@PlanController@@2UQMetaObject@@B@@YAXXZ 004010c0 f   moc_workmodels.obj
 0001:000000d0       ??__E?staticMetaObject@PlanSelector@@2UQMetaObject@@B@@YAXXZ 004010d0 f   moc_workmodels.obj
 0001:000000e0       ??__E?staticMetaObject@SingleOperationObject@@2UQMetaObject@@B@@YAXXZ 004010e0 f   moc_workmodels.obj
 0001:000000f0       ??__E?staticMetaObject@StatusViewWatcher@@2UQMetaObject@@B@@YAXXZ 004010f0 f   moc_workmodels.obj
 0001:00000100       ??__E?staticMetaObject@TargetMachineObject@@2UQMetaObject@@B@@YAXXZ 00401100 f   moc_workmodels.obj
 0001:00000721       __catch$??0?$QList@VQString@@@@QAE@ABV0@@Z$0 00401721 f i workflowprotocol.obj
 0001:00000cd0       __catch$?append@?$QList@UloopControl@SubThreadWorker@@@@QAEXABUloopControl@SubThreadWorker@@@Z$2 00401cd0 f i workflowprotocol.obj
 0001:00000cd0       __catch$?append@?$QList@UloopControl@SubThreadWorker@@@@QAEXABUloopControl@SubThreadWorker@@@Z$0 00401cd0 f i workflowprotocol.obj
 0001:00000dcb       __catch$?append@?$QList@VQString@@@@QAEXABVQString@@@Z$4 00401dcb f i workflowprotocol.obj
 0001:00000fa5       __catch$?detach_helper@?$QList@UloopControl@SubThreadWorker@@@@AAEXH@Z$0 00401fa5 f i workflowprotocol.obj
 0001:000010bd       __catch$?detach_helper_grow@?$QList@UloopControl@SubThreadWorker@@@@AAEPAUNode@1@HH@Z$2 004020bd f i workflowprotocol.obj
 0001:000010f8       __catch$?detach_helper_grow@?$QList@UloopControl@SubThreadWorker@@@@AAEPAUNode@1@HH@Z$0 004020f8 f i workflowprotocol.obj
 0001:0000123e       __catch$?detach_helper_grow@?$QList@VQString@@@@AAEPAUNode@1@HH@Z$2 0040223e f i workflowprotocol.obj
 0001:00001279       __catch$?detach_helper_grow@?$QList@VQString@@@@AAEPAUNode@1@HH@Z$0 00402279 f i workflowprotocol.obj
 0001:000037b6       __catch$?node_copy@?$QList@UloopControl@SubThreadWorker@@@@AAEXPAUNode@1@00@Z$0 004047b6 f i workflowprotocol.obj
 0001:00004781       __catch$??0?$QList@VOperationParamData@@@@QAE@ABV0@@Z$0 00405781 f i configfilehandler.obj
 0001:00004831       __catch$??0?$QList@VSingleOperationData@@@@QAE@ABV0@@Z$0 00405831 f i configfilehandler.obj
 0001:0000b1f1       __catch$?append@?$QList@U?$QPair@VQString@@V?$QList@VSingleOperationData@@@@@@@@QAEXABU?$QPair@VQString@@V?$QList@VSingleOperationData@@@@@@@Z$0 0040c1f1 f i configfilehandler.obj
 0001:0000b1f1       __catch$?append@?$QList@U?$QPair@VQString@@V?$QList@VSingleOperationData@@@@@@@@QAEXABU?$QPair@VQString@@V?$QList@VSingleOperationData@@@@@@@Z$2 0040c1f1 f i configfilehandler.obj
 0001:0000b2c3       __catch$?append@?$QList@VOperationParamData@@@@QAEXABVOperationParamData@@@Z$2 0040c2c3 f i configfilehandler.obj
 0001:0000b2c3       __catch$?append@?$QList@VOperationParamData@@@@QAEXABVOperationParamData@@@Z$0 0040c2c3 f i configfilehandler.obj
 0001:0000b391       __catch$?append@?$QList@VSingleOperationData@@@@QAEXABVSingleOperationData@@@Z$0 0040c391 f i configfilehandler.obj
 0001:0000b391       __catch$?append@?$QList@VSingleOperationData@@@@QAEXABVSingleOperationData@@@Z$2 0040c391 f i configfilehandler.obj
 0001:0000b6d6       __catch$?createNode@?$QMapData@VQString@@VOperationParamData@@@@QAEPAU?$QMapNode@VQString@@VOperationParamData@@@@ABVQString@@ABVOperationParamData@@PAU2@_N@Z$0 0040c6d6 f i configfilehandler.obj
 0001:0000b6eb       __catch$?createNode@?$QMapData@VQString@@VOperationParamData@@@@QAEPAU?$QMapNode@VQString@@VOperationParamData@@@@ABVQString@@ABVOperationParamData@@PAU2@_N@Z$2 0040c6eb f i configfilehandler.obj
 0001:0000b796       __catch$?createNode@?$QMapData@VQString@@VQStringList@@@@QAEPAU?$QMapNode@VQString@@VQStringList@@@@ABVQString@@ABVQStringList@@PAU2@_N@Z$0 0040c796 f i configfilehandler.obj
 0001:0000b7ab       __catch$?createNode@?$QMapData@VQString@@VQStringList@@@@QAEPAU?$QMapNode@VQString@@VQStringList@@@@ABVQString@@ABVQStringList@@PAU2@_N@Z$2 0040c7ab f i configfilehandler.obj
 0001:0000b98d       __catch$?detach_helper@?$QList@VQByteArray@@@@AAEXH@Z$0 0040c98d f i configfilehandler.obj
 0001:0000ba7d       __catch$?detach_helper@?$QList@VQString@@@@AAEXH@Z$0 0040ca7d f i configfilehandler.obj
 0001:0000bd6a       __catch$?detach_helper_grow@?$QList@U?$QPair@VQString@@V?$QList@VSingleOperationData@@@@@@@@AAEPAUNode@1@HH@Z$2 0040cd6a f i configfilehandler.obj
 0001:0000bda5       __catch$?detach_helper_grow@?$QList@U?$QPair@VQString@@V?$QList@VSingleOperationData@@@@@@@@AAEPAUNode@1@HH@Z$0 0040cda5 f i configfilehandler.obj
 0001:0000bebd       __catch$?detach_helper_grow@?$QList@VOperationParamData@@@@AAEPAUNode@1@HH@Z$2 0040cebd f i configfilehandler.obj
 0001:0000bef8       __catch$?detach_helper_grow@?$QList@VOperationParamData@@@@AAEPAUNode@1@HH@Z$0 0040cef8 f i configfilehandler.obj
 0001:0000c02a       __catch$?detach_helper_grow@?$QList@VSingleOperationData@@@@AAEPAUNode@1@HH@Z$2 0040d02a f i configfilehandler.obj
 0001:0000c065       __catch$?detach_helper_grow@?$QList@VSingleOperationData@@@@AAEPAUNode@1@HH@Z$0 0040d065 f i configfilehandler.obj
 0001:0000c4fc       __catch$?node_copy@?$QList@U?$QPair@VQString@@V?$QList@VSingleOperationData@@@@@@@@AAEXPAUNode@1@00@Z$0 0040d4fc f i configfilehandler.obj
 0001:0000c5af       __catch$?node_copy@?$QList@VOperationParamData@@@@AAEXPAUNode@1@00@Z$0 0040d5af f i configfilehandler.obj
 0001:0000c6d2       __catch$?node_copy@?$QList@VSingleOperationData@@@@AAEXPAUNode@1@00@Z$0 0040d6d2 f i configfilehandler.obj
 0001:0000d1c6       __catch$??Y?$QList@VQString@@@@QAEAAV0@ABV0@@Z$0 0040e1c6 f i environmentvariant.obj
 0001:0000f087       __catch$?detach_helper@?$QList@H@@AAEXH@Z$0 00410087 f i environmentvariant.obj
 0001:0000f172       __catch$?detach_helper@?$QList@U?$QPair@VQString@@V?$QList@VSingleOperationData@@@@@@@@AAEXH@Z$0 00410172 f i environmentvariant.obj
 0001:0000f235       __catch$?detach_helper@?$QList@VOperationParamData@@@@AAEXH@Z$0 00410235 f i environmentvariant.obj
 0001:0000f322       __catch$?detach_helper@?$QList@VSingleOperationData@@@@AAEXH@Z$0 00410322 f i environmentvariant.obj
 0001:000101bf       __catch$?insert@?$QList@VSingleOperationData@@@@QAEXHABVSingleOperationData@@@Z$0 004111bf f i environmentvariant.obj
 0001:000101bf       __catch$?insert@?$QList@VSingleOperationData@@@@QAEXHABVSingleOperationData@@@Z$2 004111bf f i environmentvariant.obj
 0001:00013afc       $LN98                      00414afc     main.obj
 0001:00014671       __catch$??0?$QList@PAVQObject@@@@QAE@ABV0@@Z$0 00415671 f i workmodels.obj
 0001:00014671       __catch$??0?$QList@H@@QAE@ABV0@@Z$0 00415671 f i configfilehandler.obj
 0001:00014d55       __catch$?append@?$QList@H@@QAEXABH@Z$4 00415d55 f i configfilehandler.obj
 0001:00014d55       __catch$?append@?$QList@PAVQObject@@@@QAEXABQAVQObject@@@Z$4 00415d55 f i workmodels.obj
 0001:00014e6f       __catch$?detach_helper_grow@?$QList@H@@AAEPAUNode@1@HH@Z$2 00415e6f f i configfilehandler.obj
 0001:00014e6f       __catch$?detach_helper_grow@?$QList@PAVQObject@@@@AAEPAUNode@1@HH@Z$2 00415e6f f i workmodels.obj
 0001:00014e9b       __catch$?detach_helper_grow@?$QList@H@@AAEPAUNode@1@HH@Z$0 00415e9b f i configfilehandler.obj
 0001:00014e9b       __catch$?detach_helper_grow@?$QList@PAVQObject@@@@AAEPAUNode@1@HH@Z$0 00415e9b f i workmodels.obj
 0001:0001892c       $LN20                      0041992c     moc_workflowprotocol.obj
 0001:00018a48       $LN23                      00419a48     moc_workflowprotocol.obj
 0001:00018dd4       $LN16                      00419dd4     moc_workflowChecker.obj
 0001:00018e98       $LN19                      00419e98     moc_workflowChecker.obj
 0001:0001a810       $LN162                     0041b810     moc_workmodels.obj
 0001:0001a844       $LN163                     0041b844     moc_workmodels.obj
 0001:0001a878       $LN164                     0041b878     moc_workmodels.obj
 0001:0001ab34       $LN56                      0041bb34     moc_workmodels.obj
 0001:0001abd4       $LN16                      0041bbd4     moc_workmodels.obj
 0001:0001b034       $LN89                      0041c034     moc_workmodels.obj
 0001:0001b2ec       $LN26                      0041c2ec     moc_workmodels.obj
 0001:0001bd90       ?__scrt_initialize_thread_safe_statics@@YAHXZ 0041cd90 f   MSVCRT:thread_safe_statics.obj
 0001:0001be6d       ?__scrt_uninitialize_thread_safe_statics@@YAXXZ 0041ce6d f   MSVCRT:thread_safe_statics.obj
 0001:0001bfef       ?find_pe_section@@YAPAU_IMAGE_SECTION_HEADER@@QAEI@Z 0041cfef f   MSVCRT:utility.obj
 0001:0001c257       ?pre_c_initialization@@YAHXZ 0041d257 f   MSVCRT:exe_winmain.obj
 0001:0001c2fb       ?post_pgo_initialization@@YAHXZ 0041d2fb f   MSVCRT:exe_winmain.obj
 0001:0001c303       ?pre_cpp_initialization@@YAXXZ 0041d303 f   MSVCRT:exe_winmain.obj
 0001:0001c315       ?__scrt_common_main_seh@@YAHXZ 0041d315 f   MSVCRT:exe_winmain.obj
 0001:0001ca60       $$000000                   0041da60     MSVCRT:_sehprolg4_.obj
 0001:0001ce50       __unwindfunclet$?connectToServer@Communication@@QAE_NABVQString@@G@Z$0 0041de50 f   communication.obj
 0001:0001ce59       __unwindfunclet$?connectToServer@Communication@@QAE_NABVQString@@G@Z$1 0041de59 f   communication.obj
 0001:0001ce62       __unwindfunclet$?connectToServer@Communication@@QAE_NABVQString@@G@Z$2 0041de62 f   communication.obj
 0001:0001ce6b       __unwindfunclet$?connectToServer@Communication@@QAE_NABVQString@@G@Z$3 0041de6b f   communication.obj
 0001:0001ce74       __unwindfunclet$?connectToServer@Communication@@QAE_NABVQString@@G@Z$4 0041de74 f   communication.obj
 0001:0001ce7d       __ehhandler$?connectToServer@Communication@@QAE_NABVQString@@G@Z 0041de7d f   communication.obj
 0001:0001cea0       __ehhandler$??0?$QList@VQString@@@@QAE@ABV0@@Z 0041dea0 f   workflowprotocol.obj
 0001:0001cec0       __unwindfunclet$??0WorkflowController@@QAE@PAVQObject@@@Z$0 0041dec0 f   workflowprotocol.obj
 0001:0001cec9       __unwindfunclet$??0WorkflowController@@QAE@PAVQObject@@@Z$1 0041dec9 f   workflowprotocol.obj
 0001:0001ced5       __unwindfunclet$??0WorkflowController@@QAE@PAVQObject@@@Z$2 0041ded5 f   workflowprotocol.obj
 0001:0001cee4       __unwindfunclet$??0WorkflowController@@QAE@PAVQObject@@@Z$3 0041dee4 f   workflowprotocol.obj
 0001:0001cef3       __ehhandler$??0WorkflowController@@QAE@PAVQObject@@@Z 0041def3 f   workflowprotocol.obj
 0001:0001cf10       __unwindfunclet$??4?$QList@UloopControl@SubThreadWorker@@@@QAEAAV0@$$QAV0@@Z$8 0041df10 f   workflowprotocol.obj
 0001:0001cf16       __ehhandler$??4?$QList@UloopControl@SubThreadWorker@@@@QAEAAV0@$$QAV0@@Z 0041df16 f   workflowprotocol.obj
 0001:0001cf40       __ehhandler$?append@?$QList@UloopControl@SubThreadWorker@@@@QAEXABUloopControl@SubThreadWorker@@@Z 0041df40 f   workflowprotocol.obj
 0001:0001cf60       __ehhandler$?append@?$QList@VQString@@@@QAEXABVQString@@@Z 0041df60 f   workflowprotocol.obj
 0001:0001cf80       __ehhandler$?detach_helper@?$QList@UloopControl@SubThreadWorker@@@@AAEXH@Z 0041df80 f   workflowprotocol.obj
 0001:0001cfa0       __ehhandler$?detach_helper_grow@?$QList@UloopControl@SubThreadWorker@@@@AAEPAUNode@1@HH@Z 0041dfa0 f   workflowprotocol.obj
 0001:0001cfc0       __ehhandler$?detach_helper_grow@?$QList@VQString@@@@AAEPAUNode@1@HH@Z 0041dfc0 f   workflowprotocol.obj
 0001:0001d000       __unwindfunclet$?doTunning@SubThreadWorker@@QAEXABVQJsonObject@@@Z$0 0041e000 f   workflowprotocol.obj
 0001:0001d008       __unwindfunclet$?doTunning@SubThreadWorker@@QAEXABVQJsonObject@@@Z$1 0041e008 f   workflowprotocol.obj
 0001:0001d011       __unwindfunclet$?doTunning@SubThreadWorker@@QAEXABVQJsonObject@@@Z$2 0041e011 f   workflowprotocol.obj
 0001:0001d01a       __unwindfunclet$?doTunning@SubThreadWorker@@QAEXABVQJsonObject@@@Z$3 0041e01a f   workflowprotocol.obj
 0001:0001d023       __unwindfunclet$?doTunning@SubThreadWorker@@QAEXABVQJsonObject@@@Z$4 0041e023 f   workflowprotocol.obj
 0001:0001d02c       __unwindfunclet$?doTunning@SubThreadWorker@@QAEXABVQJsonObject@@@Z$5 0041e02c f   workflowprotocol.obj
 0001:0001d035       __ehhandler$?doTunning@SubThreadWorker@@QAEXABVQJsonObject@@@Z 0041e035 f   workflowprotocol.obj
 0001:0001d050       __unwindfunclet$?doWork@SubThreadWorker@@QAEXABVQJsonObject@@@Z$0 0041e050 f   workflowprotocol.obj
 0001:0001d058       __unwindfunclet$?doWork@SubThreadWorker@@QAEXABVQJsonObject@@@Z$1 0041e058 f   workflowprotocol.obj
 0001:0001d061       __unwindfunclet$?doWork@SubThreadWorker@@QAEXABVQJsonObject@@@Z$2 0041e061 f   workflowprotocol.obj
 0001:0001d06a       __unwindfunclet$?doWork@SubThreadWorker@@QAEXABVQJsonObject@@@Z$3 0041e06a f   workflowprotocol.obj
 0001:0001d073       __unwindfunclet$?doWork@SubThreadWorker@@QAEXABVQJsonObject@@@Z$4 0041e073 f   workflowprotocol.obj
 0001:0001d07c       __unwindfunclet$?doWork@SubThreadWorker@@QAEXABVQJsonObject@@@Z$5 0041e07c f   workflowprotocol.obj
 0001:0001d085       __unwindfunclet$?doWork@SubThreadWorker@@QAEXABVQJsonObject@@@Z$6 0041e085 f   workflowprotocol.obj
 0001:0001d08e       __unwindfunclet$?doWork@SubThreadWorker@@QAEXABVQJsonObject@@@Z$7 0041e08e f   workflowprotocol.obj
 0001:0001d097       __unwindfunclet$?doWork@SubThreadWorker@@QAEXABVQJsonObject@@@Z$8 0041e097 f   workflowprotocol.obj
 0001:0001d0a0       __unwindfunclet$?doWork@SubThreadWorker@@QAEXABVQJsonObject@@@Z$9 0041e0a0 f   workflowprotocol.obj
 0001:0001d0a9       __unwindfunclet$?doWork@SubThreadWorker@@QAEXABVQJsonObject@@@Z$10 0041e0a9 f   workflowprotocol.obj
 0001:0001d0b2       __ehhandler$?doWork@SubThreadWorker@@QAEXABVQJsonObject@@@Z 0041e0b2 f   workflowprotocol.obj
 0001:0001d0d0       __unwindfunclet$?formatRecvFrameToJsonObject@WorkflowProtocol@@QAE_NAAVQJsonObject@@@Z$0 0041e0d0 f   workflowprotocol.obj
 0001:0001d0d9       __unwindfunclet$?formatRecvFrameToJsonObject@WorkflowProtocol@@QAE_NAAVQJsonObject@@@Z$1 0041e0d9 f   workflowprotocol.obj
 0001:0001d0e2       __ehhandler$?formatRecvFrameToJsonObject@WorkflowProtocol@@QAE_NAAVQJsonObject@@@Z 0041e0e2 f   workflowprotocol.obj
 0001:0001d100       __unwindfunclet$?handleControlCommand@SubThreadWorker@@IAE_NAAVCommunication@@AAVQJsonObject@@@Z$0 0041e100 f   workflowprotocol.obj
 0001:0001d109       __unwindfunclet$?handleControlCommand@SubThreadWorker@@IAE_NAAVCommunication@@AAVQJsonObject@@@Z$1 0041e109 f   workflowprotocol.obj
 0001:0001d112       __unwindfunclet$?handleControlCommand@SubThreadWorker@@IAE_NAAVCommunication@@AAVQJsonObject@@@Z$2 0041e112 f   workflowprotocol.obj
 0001:0001d11b       __unwindfunclet$?handleControlCommand@SubThreadWorker@@IAE_NAAVCommunication@@AAVQJsonObject@@@Z$3 0041e11b f   workflowprotocol.obj
 0001:0001d124       __unwindfunclet$?handleControlCommand@SubThreadWorker@@IAE_NAAVCommunication@@AAVQJsonObject@@@Z$4 0041e124 f   workflowprotocol.obj
 0001:0001d12d       __unwindfunclet$?handleControlCommand@SubThreadWorker@@IAE_NAAVCommunication@@AAVQJsonObject@@@Z$5 0041e12d f   workflowprotocol.obj
 0001:0001d136       __unwindfunclet$?handleControlCommand@SubThreadWorker@@IAE_NAAVCommunication@@AAVQJsonObject@@@Z$45 0041e136 f   workflowprotocol.obj
 0001:0001d142       __unwindfunclet$?handleControlCommand@SubThreadWorker@@IAE_NAAVCommunication@@AAVQJsonObject@@@Z$6 0041e142 f   workflowprotocol.obj
 0001:0001d14b       __unwindfunclet$?handleControlCommand@SubThreadWorker@@IAE_NAAVCommunication@@AAVQJsonObject@@@Z$7 0041e14b f   workflowprotocol.obj
 0001:0001d154       __unwindfunclet$?handleControlCommand@SubThreadWorker@@IAE_NAAVCommunication@@AAVQJsonObject@@@Z$8 0041e154 f   workflowprotocol.obj
 0001:0001d15d       __unwindfunclet$?handleControlCommand@SubThreadWorker@@IAE_NAAVCommunication@@AAVQJsonObject@@@Z$9 0041e15d f   workflowprotocol.obj
 0001:0001d166       __unwindfunclet$?handleControlCommand@SubThreadWorker@@IAE_NAAVCommunication@@AAVQJsonObject@@@Z$10 0041e166 f   workflowprotocol.obj
 0001:0001d16f       __unwindfunclet$?handleControlCommand@SubThreadWorker@@IAE_NAAVCommunication@@AAVQJsonObject@@@Z$11 0041e16f f   workflowprotocol.obj
 0001:0001d178       __unwindfunclet$?handleControlCommand@SubThreadWorker@@IAE_NAAVCommunication@@AAVQJsonObject@@@Z$12 0041e178 f   workflowprotocol.obj
 0001:0001d181       __unwindfunclet$?handleControlCommand@SubThreadWorker@@IAE_NAAVCommunication@@AAVQJsonObject@@@Z$13 0041e181 f   workflowprotocol.obj
 0001:0001d18a       __unwindfunclet$?handleControlCommand@SubThreadWorker@@IAE_NAAVCommunication@@AAVQJsonObject@@@Z$14 0041e18a f   workflowprotocol.obj
 0001:0001d193       __unwindfunclet$?handleControlCommand@SubThreadWorker@@IAE_NAAVCommunication@@AAVQJsonObject@@@Z$15 0041e193 f   workflowprotocol.obj
 0001:0001d19c       __unwindfunclet$?handleControlCommand@SubThreadWorker@@IAE_NAAVCommunication@@AAVQJsonObject@@@Z$16 0041e19c f   workflowprotocol.obj
 0001:0001d1a5       __unwindfunclet$?handleControlCommand@SubThreadWorker@@IAE_NAAVCommunication@@AAVQJsonObject@@@Z$17 0041e1a5 f   workflowprotocol.obj
 0001:0001d1ae       __unwindfunclet$?handleControlCommand@SubThreadWorker@@IAE_NAAVCommunication@@AAVQJsonObject@@@Z$18 0041e1ae f   workflowprotocol.obj
 0001:0001d1b7       __unwindfunclet$?handleControlCommand@SubThreadWorker@@IAE_NAAVCommunication@@AAVQJsonObject@@@Z$19 0041e1b7 f   workflowprotocol.obj
 0001:0001d1c0       __unwindfunclet$?handleControlCommand@SubThreadWorker@@IAE_NAAVCommunication@@AAVQJsonObject@@@Z$20 0041e1c0 f   workflowprotocol.obj
 0001:0001d1c9       __unwindfunclet$?handleControlCommand@SubThreadWorker@@IAE_NAAVCommunication@@AAVQJsonObject@@@Z$21 0041e1c9 f   workflowprotocol.obj
 0001:0001d1d2       __unwindfunclet$?handleControlCommand@SubThreadWorker@@IAE_NAAVCommunication@@AAVQJsonObject@@@Z$22 0041e1d2 f   workflowprotocol.obj
 0001:0001d1db       __unwindfunclet$?handleControlCommand@SubThreadWorker@@IAE_NAAVCommunication@@AAVQJsonObject@@@Z$23 0041e1db f   workflowprotocol.obj
 0001:0001d1e4       __unwindfunclet$?handleControlCommand@SubThreadWorker@@IAE_NAAVCommunication@@AAVQJsonObject@@@Z$24 0041e1e4 f   workflowprotocol.obj
 0001:0001d1ed       __unwindfunclet$?handleControlCommand@SubThreadWorker@@IAE_NAAVCommunication@@AAVQJsonObject@@@Z$25 0041e1ed f   workflowprotocol.obj
 0001:0001d1f6       __unwindfunclet$?handleControlCommand@SubThreadWorker@@IAE_NAAVCommunication@@AAVQJsonObject@@@Z$26 0041e1f6 f   workflowprotocol.obj
 0001:0001d1ff       __unwindfunclet$?handleControlCommand@SubThreadWorker@@IAE_NAAVCommunication@@AAVQJsonObject@@@Z$27 0041e1ff f   workflowprotocol.obj
 0001:0001d208       __unwindfunclet$?handleControlCommand@SubThreadWorker@@IAE_NAAVCommunication@@AAVQJsonObject@@@Z$28 0041e208 f   workflowprotocol.obj
 0001:0001d211       __unwindfunclet$?handleControlCommand@SubThreadWorker@@IAE_NAAVCommunication@@AAVQJsonObject@@@Z$29 0041e211 f   workflowprotocol.obj
 0001:0001d21a       __unwindfunclet$?handleControlCommand@SubThreadWorker@@IAE_NAAVCommunication@@AAVQJsonObject@@@Z$30 0041e21a f   workflowprotocol.obj
 0001:0001d223       __unwindfunclet$?handleControlCommand@SubThreadWorker@@IAE_NAAVCommunication@@AAVQJsonObject@@@Z$32 0041e223 f   workflowprotocol.obj
 0001:0001d22c       __unwindfunclet$?handleControlCommand@SubThreadWorker@@IAE_NAAVCommunication@@AAVQJsonObject@@@Z$33 0041e22c f   workflowprotocol.obj
 0001:0001d235       __unwindfunclet$?handleControlCommand@SubThreadWorker@@IAE_NAAVCommunication@@AAVQJsonObject@@@Z$34 0041e235 f   workflowprotocol.obj
 0001:0001d23e       __unwindfunclet$?handleControlCommand@SubThreadWorker@@IAE_NAAVCommunication@@AAVQJsonObject@@@Z$35 0041e23e f   workflowprotocol.obj
 0001:0001d247       __unwindfunclet$?handleControlCommand@SubThreadWorker@@IAE_NAAVCommunication@@AAVQJsonObject@@@Z$36 0041e247 f   workflowprotocol.obj
 0001:0001d250       __unwindfunclet$?handleControlCommand@SubThreadWorker@@IAE_NAAVCommunication@@AAVQJsonObject@@@Z$37 0041e250 f   workflowprotocol.obj
 0001:0001d259       __unwindfunclet$?handleControlCommand@SubThreadWorker@@IAE_NAAVCommunication@@AAVQJsonObject@@@Z$38 0041e259 f   workflowprotocol.obj
 0001:0001d262       __unwindfunclet$?handleControlCommand@SubThreadWorker@@IAE_NAAVCommunication@@AAVQJsonObject@@@Z$39 0041e262 f   workflowprotocol.obj
 0001:0001d26b       __unwindfunclet$?handleControlCommand@SubThreadWorker@@IAE_NAAVCommunication@@AAVQJsonObject@@@Z$40 0041e26b f   workflowprotocol.obj
 0001:0001d274       __unwindfunclet$?handleControlCommand@SubThreadWorker@@IAE_NAAVCommunication@@AAVQJsonObject@@@Z$41 0041e274 f   workflowprotocol.obj
 0001:0001d27d       __unwindfunclet$?handleControlCommand@SubThreadWorker@@IAE_NAAVCommunication@@AAVQJsonObject@@@Z$42 0041e27d f   workflowprotocol.obj
 0001:0001d286       __unwindfunclet$?handleControlCommand@SubThreadWorker@@IAE_NAAVCommunication@@AAVQJsonObject@@@Z$43 0041e286 f   workflowprotocol.obj
 0001:0001d2a0       __unwindfunclet$?handleControlCommand@SubThreadWorker@@IAE_NAAVCommunication@@AAVQJsonObject@@@Z$44 0041e2a0 f   workflowprotocol.obj
 0001:0001d2ba       __unwindfunclet$?handleControlCommand@SubThreadWorker@@IAE_NAAVCommunication@@AAVQJsonObject@@@Z$46 0041e2ba f   workflowprotocol.obj
 0001:0001d2c6       __ehhandler$?handleControlCommand@SubThreadWorker@@IAE_NAAVCommunication@@AAVQJsonObject@@@Z 0041e2c6 f   workflowprotocol.obj
 0001:0001d2f0       __unwindfunclet$?handleLogicalCommand@SubThreadWorker@@IAE_NAAVQJsonObject@@AAH@Z$0 0041e2f0 f   workflowprotocol.obj
 0001:0001d2f9       __unwindfunclet$?handleLogicalCommand@SubThreadWorker@@IAE_NAAVQJsonObject@@AAH@Z$1 0041e2f9 f   workflowprotocol.obj
 0001:0001d302       __unwindfunclet$?handleLogicalCommand@SubThreadWorker@@IAE_NAAVQJsonObject@@AAH@Z$2 0041e302 f   workflowprotocol.obj
 0001:0001d30b       __unwindfunclet$?handleLogicalCommand@SubThreadWorker@@IAE_NAAVQJsonObject@@AAH@Z$3 0041e30b f   workflowprotocol.obj
 0001:0001d314       __unwindfunclet$?handleLogicalCommand@SubThreadWorker@@IAE_NAAVQJsonObject@@AAH@Z$4 0041e314 f   workflowprotocol.obj
 0001:0001d31d       __unwindfunclet$?handleLogicalCommand@SubThreadWorker@@IAE_NAAVQJsonObject@@AAH@Z$5 0041e31d f   workflowprotocol.obj
 0001:0001d326       __unwindfunclet$?handleLogicalCommand@SubThreadWorker@@IAE_NAAVQJsonObject@@AAH@Z$6 0041e326 f   workflowprotocol.obj
 0001:0001d32f       __unwindfunclet$?handleLogicalCommand@SubThreadWorker@@IAE_NAAVQJsonObject@@AAH@Z$7 0041e32f f   workflowprotocol.obj
 0001:0001d33b       __unwindfunclet$?handleLogicalCommand@SubThreadWorker@@IAE_NAAVQJsonObject@@AAH@Z$8 0041e33b f   workflowprotocol.obj
 0001:0001d344       __unwindfunclet$?handleLogicalCommand@SubThreadWorker@@IAE_NAAVQJsonObject@@AAH@Z$9 0041e344 f   workflowprotocol.obj
 0001:0001d350       __unwindfunclet$?handleLogicalCommand@SubThreadWorker@@IAE_NAAVQJsonObject@@AAH@Z$10 0041e350 f   workflowprotocol.obj
 0001:0001d359       __unwindfunclet$?handleLogicalCommand@SubThreadWorker@@IAE_NAAVQJsonObject@@AAH@Z$11 0041e359 f   workflowprotocol.obj
 0001:0001d365       __unwindfunclet$?handleLogicalCommand@SubThreadWorker@@IAE_NAAVQJsonObject@@AAH@Z$12 0041e365 f   workflowprotocol.obj
 0001:0001d36e       __unwindfunclet$?handleLogicalCommand@SubThreadWorker@@IAE_NAAVQJsonObject@@AAH@Z$13 0041e36e f   workflowprotocol.obj
 0001:0001d37a       __unwindfunclet$?handleLogicalCommand@SubThreadWorker@@IAE_NAAVQJsonObject@@AAH@Z$14 0041e37a f   workflowprotocol.obj
 0001:0001d383       __unwindfunclet$?handleLogicalCommand@SubThreadWorker@@IAE_NAAVQJsonObject@@AAH@Z$15 0041e383 f   workflowprotocol.obj
 0001:0001d38f       __unwindfunclet$?handleLogicalCommand@SubThreadWorker@@IAE_NAAVQJsonObject@@AAH@Z$16 0041e38f f   workflowprotocol.obj
 0001:0001d398       __unwindfunclet$?handleLogicalCommand@SubThreadWorker@@IAE_NAAVQJsonObject@@AAH@Z$17 0041e398 f   workflowprotocol.obj
 0001:0001d3a4       __unwindfunclet$?handleLogicalCommand@SubThreadWorker@@IAE_NAAVQJsonObject@@AAH@Z$18 0041e3a4 f   workflowprotocol.obj
 0001:0001d3ad       __unwindfunclet$?handleLogicalCommand@SubThreadWorker@@IAE_NAAVQJsonObject@@AAH@Z$19 0041e3ad f   workflowprotocol.obj
 0001:0001d3b6       __unwindfunclet$?handleLogicalCommand@SubThreadWorker@@IAE_NAAVQJsonObject@@AAH@Z$20 0041e3b6 f   workflowprotocol.obj
 0001:0001d3bf       __unwindfunclet$?handleLogicalCommand@SubThreadWorker@@IAE_NAAVQJsonObject@@AAH@Z$21 0041e3bf f   workflowprotocol.obj
 0001:0001d3cb       __unwindfunclet$?handleLogicalCommand@SubThreadWorker@@IAE_NAAVQJsonObject@@AAH@Z$22 0041e3cb f   workflowprotocol.obj
 0001:0001d3d4       __unwindfunclet$?handleLogicalCommand@SubThreadWorker@@IAE_NAAVQJsonObject@@AAH@Z$23 0041e3d4 f   workflowprotocol.obj
 0001:0001d3dd       __unwindfunclet$?handleLogicalCommand@SubThreadWorker@@IAE_NAAVQJsonObject@@AAH@Z$24 0041e3dd f   workflowprotocol.obj
 0001:0001d3e6       __unwindfunclet$?handleLogicalCommand@SubThreadWorker@@IAE_NAAVQJsonObject@@AAH@Z$25 0041e3e6 f   workflowprotocol.obj
 0001:0001d3ef       __unwindfunclet$?handleLogicalCommand@SubThreadWorker@@IAE_NAAVQJsonObject@@AAH@Z$26 0041e3ef f   workflowprotocol.obj
 0001:0001d3f8       __unwindfunclet$?handleLogicalCommand@SubThreadWorker@@IAE_NAAVQJsonObject@@AAH@Z$27 0041e3f8 f   workflowprotocol.obj
 0001:0001d401       __unwindfunclet$?handleLogicalCommand@SubThreadWorker@@IAE_NAAVQJsonObject@@AAH@Z$28 0041e401 f   workflowprotocol.obj
 0001:0001d40a       __unwindfunclet$?handleLogicalCommand@SubThreadWorker@@IAE_NAAVQJsonObject@@AAH@Z$29 0041e40a f   workflowprotocol.obj
 0001:0001d413       __unwindfunclet$?handleLogicalCommand@SubThreadWorker@@IAE_NAAVQJsonObject@@AAH@Z$38 0041e413 f   workflowprotocol.obj
 0001:0001d41f       __unwindfunclet$?handleLogicalCommand@SubThreadWorker@@IAE_NAAVQJsonObject@@AAH@Z$30 0041e41f f   workflowprotocol.obj
 0001:0001d428       __unwindfunclet$?handleLogicalCommand@SubThreadWorker@@IAE_NAAVQJsonObject@@AAH@Z$31 0041e428 f   workflowprotocol.obj
 0001:0001d431       __unwindfunclet$?handleLogicalCommand@SubThreadWorker@@IAE_NAAVQJsonObject@@AAH@Z$32 0041e431 f   workflowprotocol.obj
 0001:0001d43a       __unwindfunclet$?handleLogicalCommand@SubThreadWorker@@IAE_NAAVQJsonObject@@AAH@Z$33 0041e43a f   workflowprotocol.obj
 0001:0001d443       __unwindfunclet$?handleLogicalCommand@SubThreadWorker@@IAE_NAAVQJsonObject@@AAH@Z$34 0041e443 f   workflowprotocol.obj
 0001:0001d44c       __unwindfunclet$?handleLogicalCommand@SubThreadWorker@@IAE_NAAVQJsonObject@@AAH@Z$35 0041e44c f   workflowprotocol.obj
 0001:0001d455       __unwindfunclet$?handleLogicalCommand@SubThreadWorker@@IAE_NAAVQJsonObject@@AAH@Z$36 0041e455 f   workflowprotocol.obj
 0001:0001d45e       __unwindfunclet$?handleLogicalCommand@SubThreadWorker@@IAE_NAAVQJsonObject@@AAH@Z$37 0041e45e f   workflowprotocol.obj
 0001:0001d467       __ehhandler$?handleLogicalCommand@SubThreadWorker@@IAE_NAAVQJsonObject@@AAH@Z 0041e467 f   workflowprotocol.obj
 0001:0001d490       __unwindfunclet$?handleLoopCommand@SubThreadWorker@@IAE_NAAVQJsonObject@@AAH@Z$0 0041e490 f   workflowprotocol.obj
 0001:0001d499       __unwindfunclet$?handleLoopCommand@SubThreadWorker@@IAE_NAAVQJsonObject@@AAH@Z$1 0041e499 f   workflowprotocol.obj
 0001:0001d4a2       __unwindfunclet$?handleLoopCommand@SubThreadWorker@@IAE_NAAVQJsonObject@@AAH@Z$2 0041e4a2 f   workflowprotocol.obj
 0001:0001d4ab       __unwindfunclet$?handleLoopCommand@SubThreadWorker@@IAE_NAAVQJsonObject@@AAH@Z$3 0041e4ab f   workflowprotocol.obj
 0001:0001d4b4       __unwindfunclet$?handleLoopCommand@SubThreadWorker@@IAE_NAAVQJsonObject@@AAH@Z$4 0041e4b4 f   workflowprotocol.obj
 0001:0001d4bd       __unwindfunclet$?handleLoopCommand@SubThreadWorker@@IAE_NAAVQJsonObject@@AAH@Z$5 0041e4bd f   workflowprotocol.obj
 0001:0001d4c6       __unwindfunclet$?handleLoopCommand@SubThreadWorker@@IAE_NAAVQJsonObject@@AAH@Z$6 0041e4c6 f   workflowprotocol.obj
 0001:0001d4cf       __unwindfunclet$?handleLoopCommand@SubThreadWorker@@IAE_NAAVQJsonObject@@AAH@Z$7 0041e4cf f   workflowprotocol.obj
 0001:0001d4d8       __unwindfunclet$?handleLoopCommand@SubThreadWorker@@IAE_NAAVQJsonObject@@AAH@Z$8 0041e4d8 f   workflowprotocol.obj
 0001:0001d4e1       __unwindfunclet$?handleLoopCommand@SubThreadWorker@@IAE_NAAVQJsonObject@@AAH@Z$9 0041e4e1 f   workflowprotocol.obj
 0001:0001d4ea       __unwindfunclet$?handleLoopCommand@SubThreadWorker@@IAE_NAAVQJsonObject@@AAH@Z$10 0041e4ea f   workflowprotocol.obj
 0001:0001d4f3       __unwindfunclet$?handleLoopCommand@SubThreadWorker@@IAE_NAAVQJsonObject@@AAH@Z$11 0041e4f3 f   workflowprotocol.obj
 0001:0001d4fc       __unwindfunclet$?handleLoopCommand@SubThreadWorker@@IAE_NAAVQJsonObject@@AAH@Z$12 0041e4fc f   workflowprotocol.obj
 0001:0001d505       __unwindfunclet$?handleLoopCommand@SubThreadWorker@@IAE_NAAVQJsonObject@@AAH@Z$13 0041e505 f   workflowprotocol.obj
 0001:0001d50e       __unwindfunclet$?handleLoopCommand@SubThreadWorker@@IAE_NAAVQJsonObject@@AAH@Z$14 0041e50e f   workflowprotocol.obj
 0001:0001d517       __unwindfunclet$?handleLoopCommand@SubThreadWorker@@IAE_NAAVQJsonObject@@AAH@Z$15 0041e517 f   workflowprotocol.obj
 0001:0001d520       __unwindfunclet$?handleLoopCommand@SubThreadWorker@@IAE_NAAVQJsonObject@@AAH@Z$16 0041e520 f   workflowprotocol.obj
 0001:0001d529       __unwindfunclet$?handleLoopCommand@SubThreadWorker@@IAE_NAAVQJsonObject@@AAH@Z$17 0041e529 f   workflowprotocol.obj
 0001:0001d532       __unwindfunclet$?handleLoopCommand@SubThreadWorker@@IAE_NAAVQJsonObject@@AAH@Z$18 0041e532 f   workflowprotocol.obj
 0001:0001d53b       __unwindfunclet$?handleLoopCommand@SubThreadWorker@@IAE_NAAVQJsonObject@@AAH@Z$19 0041e53b f   workflowprotocol.obj
 0001:0001d544       __unwindfunclet$?handleLoopCommand@SubThreadWorker@@IAE_NAAVQJsonObject@@AAH@Z$20 0041e544 f   workflowprotocol.obj
 0001:0001d54d       __unwindfunclet$?handleLoopCommand@SubThreadWorker@@IAE_NAAVQJsonObject@@AAH@Z$21 0041e54d f   workflowprotocol.obj
 0001:0001d556       __unwindfunclet$?handleLoopCommand@SubThreadWorker@@IAE_NAAVQJsonObject@@AAH@Z$22 0041e556 f   workflowprotocol.obj
 0001:0001d55f       __unwindfunclet$?handleLoopCommand@SubThreadWorker@@IAE_NAAVQJsonObject@@AAH@Z$23 0041e55f f   workflowprotocol.obj
 0001:0001d568       __unwindfunclet$?handleLoopCommand@SubThreadWorker@@IAE_NAAVQJsonObject@@AAH@Z$24 0041e568 f   workflowprotocol.obj
 0001:0001d571       __unwindfunclet$?handleLoopCommand@SubThreadWorker@@IAE_NAAVQJsonObject@@AAH@Z$25 0041e571 f   workflowprotocol.obj
 0001:0001d57a       __unwindfunclet$?handleLoopCommand@SubThreadWorker@@IAE_NAAVQJsonObject@@AAH@Z$26 0041e57a f   workflowprotocol.obj
 0001:0001d583       __unwindfunclet$?handleLoopCommand@SubThreadWorker@@IAE_NAAVQJsonObject@@AAH@Z$27 0041e583 f   workflowprotocol.obj
 0001:0001d58c       __unwindfunclet$?handleLoopCommand@SubThreadWorker@@IAE_NAAVQJsonObject@@AAH@Z$28 0041e58c f   workflowprotocol.obj
 0001:0001d595       __unwindfunclet$?handleLoopCommand@SubThreadWorker@@IAE_NAAVQJsonObject@@AAH@Z$29 0041e595 f   workflowprotocol.obj
 0001:0001d59e       __unwindfunclet$?handleLoopCommand@SubThreadWorker@@IAE_NAAVQJsonObject@@AAH@Z$36 0041e59e f   workflowprotocol.obj
 0001:0001d5a7       __unwindfunclet$?handleLoopCommand@SubThreadWorker@@IAE_NAAVQJsonObject@@AAH@Z$30 0041e5a7 f   workflowprotocol.obj
 0001:0001d5b0       __unwindfunclet$?handleLoopCommand@SubThreadWorker@@IAE_NAAVQJsonObject@@AAH@Z$31 0041e5b0 f   workflowprotocol.obj
 0001:0001d5b9       __unwindfunclet$?handleLoopCommand@SubThreadWorker@@IAE_NAAVQJsonObject@@AAH@Z$32 0041e5b9 f   workflowprotocol.obj
 0001:0001d5c2       __unwindfunclet$?handleLoopCommand@SubThreadWorker@@IAE_NAAVQJsonObject@@AAH@Z$33 0041e5c2 f   workflowprotocol.obj
 0001:0001d5cb       __unwindfunclet$?handleLoopCommand@SubThreadWorker@@IAE_NAAVQJsonObject@@AAH@Z$34 0041e5cb f   workflowprotocol.obj
 0001:0001d5d4       __unwindfunclet$?handleLoopCommand@SubThreadWorker@@IAE_NAAVQJsonObject@@AAH@Z$35 0041e5d4 f   workflowprotocol.obj
 0001:0001d5dd       __ehhandler$?handleLoopCommand@SubThreadWorker@@IAE_NAAVQJsonObject@@AAH@Z 0041e5dd f   workflowprotocol.obj
 0001:0001d600       __unwindfunclet$?initProtocol@WorkflowProtocol@@QAE_NABVQString@@@Z$0 0041e600 f   workflowprotocol.obj
 0001:0001d609       __unwindfunclet$?initProtocol@WorkflowProtocol@@QAE_NABVQString@@@Z$1 0041e609 f   workflowprotocol.obj
 0001:0001d612       __unwindfunclet$?initProtocol@WorkflowProtocol@@QAE_NABVQString@@@Z$2 0041e612 f   workflowprotocol.obj
 0001:0001d61b       __unwindfunclet$?initProtocol@WorkflowProtocol@@QAE_NABVQString@@@Z$3 0041e61b f   workflowprotocol.obj
 0001:0001d624       __unwindfunclet$?initProtocol@WorkflowProtocol@@QAE_NABVQString@@@Z$4 0041e624 f   workflowprotocol.obj
 0001:0001d62d       __unwindfunclet$?initProtocol@WorkflowProtocol@@QAE_NABVQString@@@Z$5 0041e62d f   workflowprotocol.obj
 0001:0001d636       __ehhandler$?initProtocol@WorkflowProtocol@@QAE_NABVQString@@@Z 0041e636 f   workflowprotocol.obj
 0001:0001d660       __unwindfunclet$?isLogicalCommand@SubThreadWorker@@IAE_NABVQString@@@Z$0 0041e660 f   workflowprotocol.obj
 0001:0001d668       __unwindfunclet$?isLogicalCommand@SubThreadWorker@@IAE_NABVQString@@@Z$1 0041e668 f   workflowprotocol.obj
 0001:0001d671       __unwindfunclet$?isLogicalCommand@SubThreadWorker@@IAE_NABVQString@@@Z$21 0041e671 f   workflowprotocol.obj
 0001:0001d677       __unwindfunclet$?isLogicalCommand@SubThreadWorker@@IAE_NABVQString@@@Z$30 0041e677 f   workflowprotocol.obj
 0001:0001d67d       __unwindfunclet$?isLogicalCommand@SubThreadWorker@@IAE_NABVQString@@@Z$11 0041e67d f   workflowprotocol.obj
 0001:0001d683       __ehhandler$?isLogicalCommand@SubThreadWorker@@IAE_NABVQString@@@Z 0041e683 f   workflowprotocol.obj
 0001:0001d6a0       __unwindfunclet$?isLoopCommand@SubThreadWorker@@IAE_NABVQString@@@Z$0 0041e6a0 f   workflowprotocol.obj
 0001:0001d6a8       __unwindfunclet$?isLoopCommand@SubThreadWorker@@IAE_NABVQString@@@Z$1 0041e6a8 f   workflowprotocol.obj
 0001:0001d6b1       __unwindfunclet$?isLoopCommand@SubThreadWorker@@IAE_NABVQString@@@Z$2 0041e6b1 f   workflowprotocol.obj
 0001:0001d6ba       __unwindfunclet$?isLoopCommand@SubThreadWorker@@IAE_NABVQString@@@Z$22 0041e6ba f   workflowprotocol.obj
 0001:0001d6c0       __unwindfunclet$?isLoopCommand@SubThreadWorker@@IAE_NABVQString@@@Z$31 0041e6c0 f   workflowprotocol.obj
 0001:0001d6c6       __unwindfunclet$?isLoopCommand@SubThreadWorker@@IAE_NABVQString@@@Z$12 0041e6c6 f   workflowprotocol.obj
 0001:0001d6cc       __ehhandler$?isLoopCommand@SubThreadWorker@@IAE_NABVQString@@@Z 0041e6cc f   workflowprotocol.obj
 0001:0001d6f0       __ehhandler$?node_copy@?$QList@UloopControl@SubThreadWorker@@@@AAEXPAUNode@1@00@Z 0041e6f0 f   workflowprotocol.obj
 0001:0001d710       __unwindfunclet$?parseAckFrame@WorkflowProtocol@@QAE_NABVQByteArray@@AAVQJsonObject@@@Z$0 0041e710 f   workflowprotocol.obj
 0001:0001d719       __ehhandler$?parseAckFrame@WorkflowProtocol@@QAE_NABVQByteArray@@AAVQJsonObject@@@Z 0041e719 f   workflowprotocol.obj
 0001:0001d740       __unwindfunclet$?parseJsonObjectToSendFrame@WorkflowProtocol@@QAE_NABVQJsonObject@@AAV2@@Z$0 0041e740 f   workflowprotocol.obj
 0001:0001d749       __unwindfunclet$?parseJsonObjectToSendFrame@WorkflowProtocol@@QAE_NABVQJsonObject@@AAV2@@Z$1 0041e749 f   workflowprotocol.obj
 0001:0001d752       __unwindfunclet$?parseJsonObjectToSendFrame@WorkflowProtocol@@QAE_NABVQJsonObject@@AAV2@@Z$2 0041e752 f   workflowprotocol.obj
 0001:0001d75b       __unwindfunclet$?parseJsonObjectToSendFrame@WorkflowProtocol@@QAE_NABVQJsonObject@@AAV2@@Z$3 0041e75b f   workflowprotocol.obj
 0001:0001d764       __unwindfunclet$?parseJsonObjectToSendFrame@WorkflowProtocol@@QAE_NABVQJsonObject@@AAV2@@Z$4 0041e764 f   workflowprotocol.obj
 0001:0001d76d       __unwindfunclet$?parseJsonObjectToSendFrame@WorkflowProtocol@@QAE_NABVQJsonObject@@AAV2@@Z$5 0041e76d f   workflowprotocol.obj
 0001:0001d776       __unwindfunclet$?parseJsonObjectToSendFrame@WorkflowProtocol@@QAE_NABVQJsonObject@@AAV2@@Z$6 0041e776 f   workflowprotocol.obj
 0001:0001d77f       __unwindfunclet$?parseJsonObjectToSendFrame@WorkflowProtocol@@QAE_NABVQJsonObject@@AAV2@@Z$7 0041e77f f   workflowprotocol.obj
 0001:0001d78b       __unwindfunclet$?parseJsonObjectToSendFrame@WorkflowProtocol@@QAE_NABVQJsonObject@@AAV2@@Z$8 0041e78b f   workflowprotocol.obj
 0001:0001d797       __unwindfunclet$?parseJsonObjectToSendFrame@WorkflowProtocol@@QAE_NABVQJsonObject@@AAV2@@Z$9 0041e797 f   workflowprotocol.obj
 0001:0001d7a0       __unwindfunclet$?parseJsonObjectToSendFrame@WorkflowProtocol@@QAE_NABVQJsonObject@@AAV2@@Z$10 0041e7a0 f   workflowprotocol.obj
 0001:0001d7a9       __unwindfunclet$?parseJsonObjectToSendFrame@WorkflowProtocol@@QAE_NABVQJsonObject@@AAV2@@Z$11 0041e7a9 f   workflowprotocol.obj
 0001:0001d7b2       __unwindfunclet$?parseJsonObjectToSendFrame@WorkflowProtocol@@QAE_NABVQJsonObject@@AAV2@@Z$12 0041e7b2 f   workflowprotocol.obj
 0001:0001d7be       __unwindfunclet$?parseJsonObjectToSendFrame@WorkflowProtocol@@QAE_NABVQJsonObject@@AAV2@@Z$13 0041e7be f   workflowprotocol.obj
 0001:0001d7c7       __unwindfunclet$?parseJsonObjectToSendFrame@WorkflowProtocol@@QAE_NABVQJsonObject@@AAV2@@Z$14 0041e7c7 f   workflowprotocol.obj
 0001:0001d7d0       __unwindfunclet$?parseJsonObjectToSendFrame@WorkflowProtocol@@QAE_NABVQJsonObject@@AAV2@@Z$31 0041e7d0 f   workflowprotocol.obj
 0001:0001d7dc       __unwindfunclet$?parseJsonObjectToSendFrame@WorkflowProtocol@@QAE_NABVQJsonObject@@AAV2@@Z$15 0041e7dc f   workflowprotocol.obj
 0001:0001d7e5       __unwindfunclet$?parseJsonObjectToSendFrame@WorkflowProtocol@@QAE_NABVQJsonObject@@AAV2@@Z$16 0041e7e5 f   workflowprotocol.obj
 0001:0001d7ee       __unwindfunclet$?parseJsonObjectToSendFrame@WorkflowProtocol@@QAE_NABVQJsonObject@@AAV2@@Z$17 0041e7ee f   workflowprotocol.obj
 0001:0001d7f6       __unwindfunclet$?parseJsonObjectToSendFrame@WorkflowProtocol@@QAE_NABVQJsonObject@@AAV2@@Z$18 0041e7f6 f   workflowprotocol.obj
 0001:0001d7ff       __unwindfunclet$?parseJsonObjectToSendFrame@WorkflowProtocol@@QAE_NABVQJsonObject@@AAV2@@Z$19 0041e7ff f   workflowprotocol.obj
 0001:0001d808       __unwindfunclet$?parseJsonObjectToSendFrame@WorkflowProtocol@@QAE_NABVQJsonObject@@AAV2@@Z$20 0041e808 f   workflowprotocol.obj
 0001:0001d811       __unwindfunclet$?parseJsonObjectToSendFrame@WorkflowProtocol@@QAE_NABVQJsonObject@@AAV2@@Z$21 0041e811 f   workflowprotocol.obj
 0001:0001d81a       __unwindfunclet$?parseJsonObjectToSendFrame@WorkflowProtocol@@QAE_NABVQJsonObject@@AAV2@@Z$22 0041e81a f   workflowprotocol.obj
 0001:0001d823       __unwindfunclet$?parseJsonObjectToSendFrame@WorkflowProtocol@@QAE_NABVQJsonObject@@AAV2@@Z$23 0041e823 f   workflowprotocol.obj
 0001:0001d82c       __unwindfunclet$?parseJsonObjectToSendFrame@WorkflowProtocol@@QAE_NABVQJsonObject@@AAV2@@Z$24 0041e82c f   workflowprotocol.obj
 0001:0001d835       __unwindfunclet$?parseJsonObjectToSendFrame@WorkflowProtocol@@QAE_NABVQJsonObject@@AAV2@@Z$25 0041e835 f   workflowprotocol.obj
 0001:0001d83e       __unwindfunclet$?parseJsonObjectToSendFrame@WorkflowProtocol@@QAE_NABVQJsonObject@@AAV2@@Z$26 0041e83e f   workflowprotocol.obj
 0001:0001d847       __unwindfunclet$?parseJsonObjectToSendFrame@WorkflowProtocol@@QAE_NABVQJsonObject@@AAV2@@Z$27 0041e847 f   workflowprotocol.obj
 0001:0001d850       __unwindfunclet$?parseJsonObjectToSendFrame@WorkflowProtocol@@QAE_NABVQJsonObject@@AAV2@@Z$28 0041e850 f   workflowprotocol.obj
 0001:0001d858       __unwindfunclet$?parseJsonObjectToSendFrame@WorkflowProtocol@@QAE_NABVQJsonObject@@AAV2@@Z$41 0041e858 f   workflowprotocol.obj
 0001:0001d861       __unwindfunclet$?parseJsonObjectToSendFrame@WorkflowProtocol@@QAE_NABVQJsonObject@@AAV2@@Z$44 0041e861 f   workflowprotocol.obj
 0001:0001d867       __unwindfunclet$?parseJsonObjectToSendFrame@WorkflowProtocol@@QAE_NABVQJsonObject@@AAV2@@Z$54 0041e867 f   workflowprotocol.obj
 0001:0001d86d       __ehhandler$?parseJsonObjectToSendFrame@WorkflowProtocol@@QAE_NABVQJsonObject@@AAV2@@Z 0041e86d f   workflowprotocol.obj
 0001:0001d890       __unwindfunclet$?serializeSendFrame@WorkflowProtocol@@QAE?AVQByteArray@@XZ$0 0041e890 f   workflowprotocol.obj
 0001:0001d8aa       __unwindfunclet$?serializeSendFrame@WorkflowProtocol@@QAE?AVQByteArray@@XZ$1 0041e8aa f   workflowprotocol.obj
 0001:0001d8b3       __unwindfunclet$?serializeSendFrame@WorkflowProtocol@@QAE?AVQByteArray@@XZ$2 0041e8b3 f   workflowprotocol.obj
 0001:0001d8bc       __unwindfunclet$?serializeSendFrame@WorkflowProtocol@@QAE?AVQByteArray@@XZ$3 0041e8bc f   workflowprotocol.obj
 0001:0001d8c5       __unwindfunclet$?serializeSendFrame@WorkflowProtocol@@QAE?AVQByteArray@@XZ$4 0041e8c5 f   workflowprotocol.obj
 0001:0001d8ce       __unwindfunclet$?serializeSendFrame@WorkflowProtocol@@QAE?AVQByteArray@@XZ$5 0041e8ce f   workflowprotocol.obj
 0001:0001d8d7       __ehhandler$?serializeSendFrame@WorkflowProtocol@@QAE?AVQByteArray@@XZ 0041e8d7 f   workflowprotocol.obj
 0001:0001d900       __unwindfunclet$?statusChanged@WorkflowController@@QAEXABVQJsonObject@@@Z$0 0041e900 f   workflowprotocol.obj
 0001:0001d900       __unwindfunclet$?statusChanged@WorkflowCheckerController@@QAEXABVQJsonObject@@@Z$0 0041e900 f   workflowChecker.obj
 0001:0001d90f       __unwindfunclet$?statusChanged@WorkflowCheckerController@@QAEXABVQJsonObject@@@Z$1 0041e90f f   workflowChecker.obj
 0001:0001d90f       __unwindfunclet$?statusChanged@WorkflowController@@QAEXABVQJsonObject@@@Z$1 0041e90f f   workflowprotocol.obj
 0001:0001d918       __ehhandler$?statusChanged@WorkflowController@@QAEXABVQJsonObject@@@Z 0041e918 f   workflowprotocol.obj
 0001:0001d918       __ehhandler$?statusChanged@WorkflowCheckerController@@QAEXABVQJsonObject@@@Z 0041e918 f   workflowChecker.obj
 0001:0001d940       __unwindfunclet$?taskStateChanged@WorkflowController@@QAEX_NH@Z$0 0041e940 f   workflowprotocol.obj
 0001:0001d94f       __ehhandler$?taskStateChanged@WorkflowController@@QAEX_NH@Z 0041e94f f   workflowprotocol.obj
 0001:0001d970       __unwindfunclet$?unserializeRecvFrame@WorkflowProtocol@@QAEXABVQByteArray@@@Z$0 0041e970 f   workflowprotocol.obj
 0001:0001d979       __ehhandler$?unserializeRecvFrame@WorkflowProtocol@@QAEXABVQByteArray@@@Z 0041e979 f   workflowprotocol.obj
 0001:0001d9a0       __unwindfunclet$??$qMakePair@VQString@@V?$QList@VSingleOperationData@@@@@@YA?AU?$QPair@VQString@@V?$QList@VSingleOperationData@@@@@@ABVQString@@ABV?$QList@VSingleOperationData@@@@@Z$1 0041e9a0 f   configfilehandler.obj
 0001:0001d9a9       __ehhandler$??$qMakePair@VQString@@V?$QList@VSingleOperationData@@@@@@YA?AU?$QPair@VQString@@V?$QList@VSingleOperationData@@@@@@ABVQString@@ABV?$QList@VSingleOperationData@@@@@Z 0041e9a9 f   configfilehandler.obj
 0001:0001d9d0       __ehhandler$??0?$QList@VOperationParamData@@@@QAE@ABV0@@Z 0041e9d0 f   configfilehandler.obj
 0001:0001d9f0       __ehhandler$??0?$QList@VSingleOperationData@@@@QAE@ABV0@@Z 0041e9f0 f   configfilehandler.obj
 0001:0001da10       __unwindfunclet$??0OperationParamData@@QAE@ABV0@@Z$0 0041ea10 f   configfilehandler.obj
 0001:0001da19       __unwindfunclet$??0OperationParamData@@QAE@ABV0@@Z$1 0041ea19 f   configfilehandler.obj
 0001:0001da25       __unwindfunclet$??0OperationParamData@@QAE@ABV0@@Z$2 0041ea25 f   configfilehandler.obj
 0001:0001da31       __unwindfunclet$??0OperationParamData@@QAE@ABV0@@Z$3 0041ea31 f   configfilehandler.obj
 0001:0001da3c       __unwindfunclet$??0OperationParamData@@QAE@ABV0@@Z$4 0041ea3c f   configfilehandler.obj
 0001:0001da48       __unwindfunclet$??0OperationParamData@@QAE@ABV0@@Z$5 0041ea48 f   configfilehandler.obj
 0001:0001da53       __unwindfunclet$??0OperationParamData@@QAE@ABV0@@Z$6 0041ea53 f   configfilehandler.obj
 0001:0001da5f       __unwindfunclet$??0OperationParamData@@QAE@ABV0@@Z$7 0041ea5f f   configfilehandler.obj
 0001:0001da6b       __unwindfunclet$??0OperationParamData@@QAE@ABV0@@Z$25 0041ea6b f   configfilehandler.obj
 0001:0001da71       __ehhandler$??0OperationParamData@@QAE@ABV0@@Z 0041ea71 f   configfilehandler.obj
 0001:0001da90       __unwindfunclet$??0OperationParamData@@QAE@ABVQString@@00ABVQStringList@@_NHH0V?$QList@H@@00HH@Z$0 0041ea90 f   configfilehandler.obj
 0001:0001da98       __unwindfunclet$??0OperationParamData@@QAE@ABVQString@@00ABVQStringList@@_NHH0V?$QList@H@@00HH@Z$1 0041ea98 f   configfilehandler.obj
 0001:0001daa1       __unwindfunclet$??0OperationParamData@@QAE@ABVQString@@00ABVQStringList@@_NHH0V?$QList@H@@00HH@Z$2 0041eaa1 f   configfilehandler.obj
 0001:0001daad       __unwindfunclet$??0OperationParamData@@QAE@ABVQString@@00ABVQStringList@@_NHH0V?$QList@H@@00HH@Z$3 0041eaad f   configfilehandler.obj
 0001:0001dab9       __unwindfunclet$??0OperationParamData@@QAE@ABVQString@@00ABVQStringList@@_NHH0V?$QList@H@@00HH@Z$4 0041eab9 f   configfilehandler.obj
 0001:0001dac4       __unwindfunclet$??0OperationParamData@@QAE@ABVQString@@00ABVQStringList@@_NHH0V?$QList@H@@00HH@Z$5 0041eac4 f   configfilehandler.obj
 0001:0001dad0       __unwindfunclet$??0OperationParamData@@QAE@ABVQString@@00ABVQStringList@@_NHH0V?$QList@H@@00HH@Z$6 0041ead0 f   configfilehandler.obj
 0001:0001dadb       __unwindfunclet$??0OperationParamData@@QAE@ABVQString@@00ABVQStringList@@_NHH0V?$QList@H@@00HH@Z$7 0041eadb f   configfilehandler.obj
 0001:0001dae7       __unwindfunclet$??0OperationParamData@@QAE@ABVQString@@00ABVQStringList@@_NHH0V?$QList@H@@00HH@Z$8 0041eae7 f   configfilehandler.obj
 0001:0001daf3       __unwindfunclet$??0OperationParamData@@QAE@ABVQString@@00ABVQStringList@@_NHH0V?$QList@H@@00HH@Z$26 0041eaf3 f   configfilehandler.obj
 0001:0001daf9       __unwindfunclet$??0OperationParamData@@QAE@ABVQString@@00ABVQStringList@@_NHH0V?$QList@H@@00HH@Z$33 0041eaf9 f   configfilehandler.obj
 0001:0001daff       __ehhandler$??0OperationParamData@@QAE@ABVQString@@00ABVQStringList@@_NHH0V?$QList@H@@00HH@Z 0041eaff f   configfilehandler.obj
 0001:0001db20       __unwindfunclet$??0SingleOperationData@@QAE@ABV0@@Z$0 0041eb20 f   configfilehandler.obj
 0001:0001db29       __ehhandler$??0SingleOperationData@@QAE@ABV0@@Z 0041eb29 f   configfilehandler.obj
 0001:0001db50       __unwindfunclet$??0StatusViewWatcher@@QAE@PAVQObject@@@Z$0 0041eb50 f   workmodels.obj
 0001:0001db50       __unwindfunclet$??0configFileHandler@@QAE@PAVQObject@@@Z$0 0041eb50 f   configfilehandler.obj
 0001:0001db50       __unwindfunclet$??0PlanController@@QAE@PAVQObject@@@Z$0 0041eb50 f   workmodels.obj
 0001:0001db59       __ehhandler$??0configFileHandler@@QAE@PAVQObject@@@Z 0041eb59 f   configfilehandler.obj
 0001:0001db59       __ehhandler$??0PlanController@@QAE@PAVQObject@@@Z 0041eb59 f   workmodels.obj
 0001:0001db59       __ehhandler$??0StatusViewWatcher@@QAE@PAVQObject@@@Z 0041eb59 f   workmodels.obj
 0001:0001db80       __ehhandler$??1?$QList@PAVQObject@@@@QAE@XZ 0041eb80 f   main.obj
 0001:0001db80       __ehhandler$??1?$QList@VOperationParamData@@@@QAE@XZ 0041eb80 f   configfilehandler.obj
 0001:0001db80       __ehhandler$??1?$QList@H@@QAE@XZ 0041eb80 f   configfilehandler.obj
 0001:0001dba0       __unwindfunclet$??1SingleOperationData@@QAE@XZ$0 0041eba0 f   configfilehandler.obj
 0001:0001dba0       __unwindfunclet$??_G?$QQmlElement@VPlanSelector@@@QQmlPrivate@@UAEPAXI@Z$0 0041eba0 f   main.obj
 0001:0001dba0       __unwindfunclet$??_G?$QQmlElement@VStatusViewWatcher@@@QQmlPrivate@@UAEPAXI@Z$0 0041eba0 f   main.obj
 0001:0001dba0       __unwindfunclet$??_G?$QQmlElement@VTextFieldDoubleValidator@@@QQmlPrivate@@UAEPAXI@Z$0 0041eba0 f   main.obj
 0001:0001dba0       __unwindfunclet$??1?$QForeachContainer@$$CBV?$QList@VSingleOperationData@@@@@@QAE@XZ$0 0041eba0 f   environmentvariant.obj
 0001:0001dba0       __unwindfunclet$??_G?$QQmlElement@VOperationParamObject@@@QQmlPrivate@@UAEPAXI@Z$0 0041eba0 f   main.obj
 0001:0001dba0       __unwindfunclet$??_G?$QQmlElement@VOperationParamSelector@@@QQmlPrivate@@UAEPAXI@Z$0 0041eba0 f   main.obj
 0001:0001dba0       __unwindfunclet$??_GSingleOperationData@@QAEPAXI@Z$1 0041eba0 f   configfilehandler.obj
 0001:0001dba0       __unwindfunclet$??_G?$QQmlElement@VPlanController@@@QQmlPrivate@@UAEPAXI@Z$0 0041eba0 f   main.obj
 0001:0001dba0       __unwindfunclet$??1OperationParamData@@QAE@XZ$0 0041eba0 f   configfilehandler.obj
 0001:0001dba0       __unwindfunclet$??_GPlanController@@UAEPAXI@Z$0 0041eba0 f   workmodels.obj
 0001:0001dba6       __ehhandler$??1OperationParamData@@QAE@XZ 0041eba6 f   configfilehandler.obj
 0001:0001dba6       __ehhandler$??_G?$QQmlElement@VStatusViewWatcher@@@QQmlPrivate@@UAEPAXI@Z 0041eba6 f   main.obj
 0001:0001dba6       __ehhandler$??_GPlanController@@UAEPAXI@Z 0041eba6 f   workmodels.obj
 0001:0001dba6       __ehhandler$??_G?$QQmlElement@VPlanController@@@QQmlPrivate@@UAEPAXI@Z 0041eba6 f   main.obj
 0001:0001dba6       __ehhandler$??1SingleOperationData@@QAE@XZ 0041eba6 f   configfilehandler.obj
 0001:0001dba6       __ehhandler$??_G?$QQmlElement@VPlanSelector@@@QQmlPrivate@@UAEPAXI@Z 0041eba6 f   main.obj
 0001:0001dba6       __ehhandler$??_G?$QQmlElement@VTextFieldDoubleValidator@@@QQmlPrivate@@UAEPAXI@Z 0041eba6 f   main.obj
 0001:0001dba6       __ehhandler$??_G?$QQmlElement@VOperationParamSelector@@@QQmlPrivate@@UAEPAXI@Z 0041eba6 f   main.obj
 0001:0001dba6       __ehhandler$??_GSingleOperationData@@QAEPAXI@Z 0041eba6 f   configfilehandler.obj
 0001:0001dba6       __ehhandler$??_G?$QQmlElement@VOperationParamObject@@@QQmlPrivate@@UAEPAXI@Z 0041eba6 f   main.obj
 0001:0001dba6       __ehhandler$??1?$QForeachContainer@$$CBV?$QList@VSingleOperationData@@@@@@QAE@XZ 0041eba6 f   environmentvariant.obj
 0001:0001dbd0       __unwindfunclet$??A?$QMap@VQString@@V1@@@QAEAAVQString@@ABV1@@Z$0 0041ebd0 f   configfilehandler.obj
 0001:0001dbd9       __ehhandler$??A?$QMap@VQString@@V1@@@QAEAAVQString@@ABV1@@Z 0041ebd9 f   configfilehandler.obj
 0001:0001dc00       __unwindfunclet$??A?$QMap@VQString@@VOperationParamData@@@@QAEAAVOperationParamData@@ABVQString@@@Z$0 0041ec00 f   configfilehandler.obj
 0001:0001dc08       __ehhandler$??A?$QMap@VQString@@VOperationParamData@@@@QAEAAVOperationParamData@@ABVQString@@@Z 0041ec08 f   configfilehandler.obj
 0001:0001dc30       __unwindfunclet$??A?$QMap@VQString@@VOperationParamData@@@@QBE?BVOperationParamData@@ABVQString@@@Z$0 0041ec30 f   configfilehandler.obj
 0001:0001dc38       __ehhandler$??A?$QMap@VQString@@VOperationParamData@@@@QBE?BVOperationParamData@@ABVQString@@@Z 0041ec38 f   configfilehandler.obj
 0001:0001dc60       __unwindfunclet$??A?$QMap@VQString@@VQStringList@@@@QAEAAVQStringList@@ABVQString@@@Z$0 0041ec60 f   configfilehandler.obj
 0001:0001dc68       __ehhandler$??A?$QMap@VQString@@VQStringList@@@@QAEAAVQStringList@@ABVQString@@@Z 0041ec68 f   configfilehandler.obj
 0001:0001dc90       __unwindfunclet$??Cconst_iterator@QJsonArray@@QBE?AVQJsonValuePtr@@XZ$0 0041ec90 f   configfilehandler.obj
 0001:0001dc99       __ehhandler$??Cconst_iterator@QJsonArray@@QBE?AVQJsonValuePtr@@XZ 0041ec99 f   configfilehandler.obj
 0001:0001dcc0       __unwindfunclet$??H@YA?BVQString@@ABV0@D@Z$0 0041ecc0 f   configfilehandler.obj
 0001:0001dcda       __ehhandler$??H@YA?BVQString@@ABV0@D@Z 0041ecda f   configfilehandler.obj
 0001:0001dd00       __unwindfunclet$??H@YA?BVQString@@ABV0@PBD@Z$0 0041ed00 f   configfilehandler.obj
 0001:0001dd1a       __unwindfunclet$??H@YA?BVQString@@ABV0@PBD@Z$1 0041ed1a f   configfilehandler.obj
 0001:0001dd23       __ehhandler$??H@YA?BVQString@@ABV0@PBD@Z 0041ed23 f   configfilehandler.obj
 0001:0001dd40       __unwindfunclet$??H@YA?BVQString@@ABV0@0@Z$0 0041ed40 f   environmentvariant.obj
 0001:0001dd40       __unwindfunclet$??H@YA?BVQString@@PBDABV0@@Z$0 0041ed40 f   configfilehandler.obj
 0001:0001dd5a       __ehhandler$??H@YA?BVQString@@ABV0@0@Z 0041ed5a f   environmentvariant.obj
 0001:0001dd5a       __ehhandler$??H@YA?BVQString@@PBDABV0@@Z 0041ed5a f   configfilehandler.obj
 0001:0001dd80       __unwindfunclet$?ConvertCSVtoJSON@configFileHandler@@QAE_NABVQString@@0@Z$0 0041ed80 f   configfilehandler.obj
 0001:0001dd89       __unwindfunclet$?ConvertCSVtoJSON@configFileHandler@@QAE_NABVQString@@0@Z$1 0041ed89 f   configfilehandler.obj
 0001:0001dd92       __unwindfunclet$?ConvertCSVtoJSON@configFileHandler@@QAE_NABVQString@@0@Z$2 0041ed92 f   configfilehandler.obj
 0001:0001dd9b       __unwindfunclet$?ConvertCSVtoJSON@configFileHandler@@QAE_NABVQString@@0@Z$3 0041ed9b f   configfilehandler.obj
 0001:0001dda4       __unwindfunclet$?ConvertCSVtoJSON@configFileHandler@@QAE_NABVQString@@0@Z$4 0041eda4 f   configfilehandler.obj
 0001:0001ddad       __unwindfunclet$?ConvertCSVtoJSON@configFileHandler@@QAE_NABVQString@@0@Z$5 0041edad f   configfilehandler.obj
 0001:0001ddb6       __unwindfunclet$?ConvertCSVtoJSON@configFileHandler@@QAE_NABVQString@@0@Z$6 0041edb6 f   configfilehandler.obj
 0001:0001ddbf       __unwindfunclet$?ConvertCSVtoJSON@configFileHandler@@QAE_NABVQString@@0@Z$7 0041edbf f   configfilehandler.obj
 0001:0001ddc8       __ehhandler$?ConvertCSVtoJSON@configFileHandler@@QAE_NABVQString@@0@Z 0041edc8 f   configfilehandler.obj
 0001:0001ddf0       __unwindfunclet$?ConvertJSONtoCSV@configFileHandler@@QAE_NABVQString@@0@Z$0 0041edf0 f   configfilehandler.obj
 0001:0001ddf9       __unwindfunclet$?ConvertJSONtoCSV@configFileHandler@@QAE_NABVQString@@0@Z$1 0041edf9 f   configfilehandler.obj
 0001:0001de02       __unwindfunclet$?ConvertJSONtoCSV@configFileHandler@@QAE_NABVQString@@0@Z$2 0041ee02 f   configfilehandler.obj
 0001:0001de0b       __unwindfunclet$?ConvertJSONtoCSV@configFileHandler@@QAE_NABVQString@@0@Z$3 0041ee0b f   configfilehandler.obj
 0001:0001de14       __unwindfunclet$?ConvertJSONtoCSV@configFileHandler@@QAE_NABVQString@@0@Z$4 0041ee14 f   configfilehandler.obj
 0001:0001de1d       __unwindfunclet$?ConvertJSONtoCSV@configFileHandler@@QAE_NABVQString@@0@Z$5 0041ee1d f   configfilehandler.obj
 0001:0001de26       __unwindfunclet$?ConvertJSONtoCSV@configFileHandler@@QAE_NABVQString@@0@Z$6 0041ee26 f   configfilehandler.obj
 0001:0001de2f       __unwindfunclet$?ConvertJSONtoCSV@configFileHandler@@QAE_NABVQString@@0@Z$7 0041ee2f f   configfilehandler.obj
 0001:0001de38       __unwindfunclet$?ConvertJSONtoCSV@configFileHandler@@QAE_NABVQString@@0@Z$8 0041ee38 f   configfilehandler.obj
 0001:0001de41       __unwindfunclet$?ConvertJSONtoCSV@configFileHandler@@QAE_NABVQString@@0@Z$9 0041ee41 f   configfilehandler.obj
 0001:0001de4a       __unwindfunclet$?ConvertJSONtoCSV@configFileHandler@@QAE_NABVQString@@0@Z$10 0041ee4a f   configfilehandler.obj
 0001:0001de53       __unwindfunclet$?ConvertJSONtoCSV@configFileHandler@@QAE_NABVQString@@0@Z$11 0041ee53 f   configfilehandler.obj
 0001:0001de5c       __unwindfunclet$?ConvertJSONtoCSV@configFileHandler@@QAE_NABVQString@@0@Z$12 0041ee5c f   configfilehandler.obj
 0001:0001de65       __unwindfunclet$?ConvertJSONtoCSV@configFileHandler@@QAE_NABVQString@@0@Z$13 0041ee65 f   configfilehandler.obj
 0001:0001de6e       __unwindfunclet$?ConvertJSONtoCSV@configFileHandler@@QAE_NABVQString@@0@Z$14 0041ee6e f   configfilehandler.obj
 0001:0001de77       __ehhandler$?ConvertJSONtoCSV@configFileHandler@@QAE_NABVQString@@0@Z 0041ee77 f   configfilehandler.obj
 0001:0001dea0       __unwindfunclet$?ImportConfig@configFileHandler@@QAE_NAAVQJsonObject@@ABVQByteArray@@@Z$0 0041eea0 f   configfilehandler.obj
 0001:0001dea8       __unwindfunclet$?ImportConfig@configFileHandler@@QAE_NAAVQJsonObject@@ABVQByteArray@@@Z$11 0041eea8 f   configfilehandler.obj
 0001:0001deae       __ehhandler$?ImportConfig@configFileHandler@@QAE_NAAVQJsonObject@@ABVQByteArray@@@Z 0041eeae f   configfilehandler.obj
 0001:0001ded0       __unwindfunclet$?ImportPlan@configFileHandler@@QAE_NABV?$QList@VQByteArray@@@@AAVQJsonObject@@@Z$0 0041eed0 f   configfilehandler.obj
 0001:0001ded9       __unwindfunclet$?ImportPlan@configFileHandler@@QAE_NABV?$QList@VQByteArray@@@@AAVQJsonObject@@@Z$1 0041eed9 f   configfilehandler.obj
 0001:0001dee2       __unwindfunclet$?ImportPlan@configFileHandler@@QAE_NABV?$QList@VQByteArray@@@@AAVQJsonObject@@@Z$2 0041eee2 f   configfilehandler.obj
 0001:0001deea       __unwindfunclet$?ImportPlan@configFileHandler@@QAE_NABV?$QList@VQByteArray@@@@AAVQJsonObject@@@Z$3 0041eeea f   configfilehandler.obj
 0001:0001def3       __unwindfunclet$?ImportPlan@configFileHandler@@QAE_NABV?$QList@VQByteArray@@@@AAVQJsonObject@@@Z$4 0041eef3 f   configfilehandler.obj
 0001:0001defc       __unwindfunclet$?ImportPlan@configFileHandler@@QAE_NABV?$QList@VQByteArray@@@@AAVQJsonObject@@@Z$5 0041eefc f   configfilehandler.obj
 0001:0001df05       __unwindfunclet$?ImportPlan@configFileHandler@@QAE_NABV?$QList@VQByteArray@@@@AAVQJsonObject@@@Z$6 0041ef05 f   configfilehandler.obj
 0001:0001df0e       __unwindfunclet$?ImportPlan@configFileHandler@@QAE_NABV?$QList@VQByteArray@@@@AAVQJsonObject@@@Z$7 0041ef0e f   configfilehandler.obj
 0001:0001df16       __unwindfunclet$?ImportPlan@configFileHandler@@QAE_NABV?$QList@VQByteArray@@@@AAVQJsonObject@@@Z$9 0041ef16 f   configfilehandler.obj
 0001:0001df1e       __unwindfunclet$?ImportPlan@configFileHandler@@QAE_NABV?$QList@VQByteArray@@@@AAVQJsonObject@@@Z$10 0041ef1e f   configfilehandler.obj
 0001:0001df38       __unwindfunclet$?ImportPlan@configFileHandler@@QAE_NABV?$QList@VQByteArray@@@@AAVQJsonObject@@@Z$57 0041ef38 f   configfilehandler.obj
 0001:0001df3e       __unwindfunclet$?ImportPlan@configFileHandler@@QAE_NABV?$QList@VQByteArray@@@@AAVQJsonObject@@@Z$11 0041ef3e f   configfilehandler.obj
 0001:0001df47       __unwindfunclet$?ImportPlan@configFileHandler@@QAE_NABV?$QList@VQByteArray@@@@AAVQJsonObject@@@Z$58 0041ef47 f   configfilehandler.obj
 0001:0001df4d       __unwindfunclet$?ImportPlan@configFileHandler@@QAE_NABV?$QList@VQByteArray@@@@AAVQJsonObject@@@Z$12 0041ef4d f   configfilehandler.obj
 0001:0001df55       __unwindfunclet$?ImportPlan@configFileHandler@@QAE_NABV?$QList@VQByteArray@@@@AAVQJsonObject@@@Z$71 0041ef55 f   configfilehandler.obj
 0001:0001df5b       __unwindfunclet$?ImportPlan@configFileHandler@@QAE_NABV?$QList@VQByteArray@@@@AAVQJsonObject@@@Z$75 0041ef5b f   configfilehandler.obj
 0001:0001df61       __unwindfunclet$?ImportPlan@configFileHandler@@QAE_NABV?$QList@VQByteArray@@@@AAVQJsonObject@@@Z$13 0041ef61 f   configfilehandler.obj
 0001:0001df6a       __unwindfunclet$?ImportPlan@configFileHandler@@QAE_NABV?$QList@VQByteArray@@@@AAVQJsonObject@@@Z$14 0041ef6a f   configfilehandler.obj
 0001:0001df73       __unwindfunclet$?ImportPlan@configFileHandler@@QAE_NABV?$QList@VQByteArray@@@@AAVQJsonObject@@@Z$15 0041ef73 f   configfilehandler.obj
 0001:0001df7c       __unwindfunclet$?ImportPlan@configFileHandler@@QAE_NABV?$QList@VQByteArray@@@@AAVQJsonObject@@@Z$16 0041ef7c f   configfilehandler.obj
 0001:0001df85       __unwindfunclet$?ImportPlan@configFileHandler@@QAE_NABV?$QList@VQByteArray@@@@AAVQJsonObject@@@Z$17 0041ef85 f   configfilehandler.obj
 0001:0001df8e       __unwindfunclet$?ImportPlan@configFileHandler@@QAE_NABV?$QList@VQByteArray@@@@AAVQJsonObject@@@Z$18 0041ef8e f   configfilehandler.obj
 0001:0001df97       __unwindfunclet$?ImportPlan@configFileHandler@@QAE_NABV?$QList@VQByteArray@@@@AAVQJsonObject@@@Z$19 0041ef97 f   configfilehandler.obj
 0001:0001dfa0       __unwindfunclet$?ImportPlan@configFileHandler@@QAE_NABV?$QList@VQByteArray@@@@AAVQJsonObject@@@Z$20 0041efa0 f   configfilehandler.obj
 0001:0001dfa9       __unwindfunclet$?ImportPlan@configFileHandler@@QAE_NABV?$QList@VQByteArray@@@@AAVQJsonObject@@@Z$21 0041efa9 f   configfilehandler.obj
 0001:0001dfb2       __unwindfunclet$?ImportPlan@configFileHandler@@QAE_NABV?$QList@VQByteArray@@@@AAVQJsonObject@@@Z$22 0041efb2 f   configfilehandler.obj
 0001:0001dfbb       __unwindfunclet$?ImportPlan@configFileHandler@@QAE_NABV?$QList@VQByteArray@@@@AAVQJsonObject@@@Z$23 0041efbb f   configfilehandler.obj
 0001:0001dfc4       __unwindfunclet$?ImportPlan@configFileHandler@@QAE_NABV?$QList@VQByteArray@@@@AAVQJsonObject@@@Z$24 0041efc4 f   configfilehandler.obj
 0001:0001dfcd       __unwindfunclet$?ImportPlan@configFileHandler@@QAE_NABV?$QList@VQByteArray@@@@AAVQJsonObject@@@Z$90 0041efcd f   configfilehandler.obj
 0001:0001dfd3       __unwindfunclet$?ImportPlan@configFileHandler@@QAE_NABV?$QList@VQByteArray@@@@AAVQJsonObject@@@Z$25 0041efd3 f   configfilehandler.obj
 0001:0001dfdc       __unwindfunclet$?ImportPlan@configFileHandler@@QAE_NABV?$QList@VQByteArray@@@@AAVQJsonObject@@@Z$26 0041efdc f   configfilehandler.obj
 0001:0001dfe8       __unwindfunclet$?ImportPlan@configFileHandler@@QAE_NABV?$QList@VQByteArray@@@@AAVQJsonObject@@@Z$27 0041efe8 f   configfilehandler.obj
 0001:0001dff4       __unwindfunclet$?ImportPlan@configFileHandler@@QAE_NABV?$QList@VQByteArray@@@@AAVQJsonObject@@@Z$28 0041eff4 f   configfilehandler.obj
 0001:0001dffd       __unwindfunclet$?ImportPlan@configFileHandler@@QAE_NABV?$QList@VQByteArray@@@@AAVQJsonObject@@@Z$29 0041effd f   configfilehandler.obj
 0001:0001e009       __unwindfunclet$?ImportPlan@configFileHandler@@QAE_NABV?$QList@VQByteArray@@@@AAVQJsonObject@@@Z$30 0041f009 f   configfilehandler.obj
 0001:0001e012       __unwindfunclet$?ImportPlan@configFileHandler@@QAE_NABV?$QList@VQByteArray@@@@AAVQJsonObject@@@Z$31 0041f012 f   configfilehandler.obj
 0001:0001e01b       __unwindfunclet$?ImportPlan@configFileHandler@@QAE_NABV?$QList@VQByteArray@@@@AAVQJsonObject@@@Z$32 0041f01b f   configfilehandler.obj
 0001:0001e024       __unwindfunclet$?ImportPlan@configFileHandler@@QAE_NABV?$QList@VQByteArray@@@@AAVQJsonObject@@@Z$33 0041f024 f   configfilehandler.obj
 0001:0001e02d       __unwindfunclet$?ImportPlan@configFileHandler@@QAE_NABV?$QList@VQByteArray@@@@AAVQJsonObject@@@Z$34 0041f02d f   configfilehandler.obj
 0001:0001e036       __unwindfunclet$?ImportPlan@configFileHandler@@QAE_NABV?$QList@VQByteArray@@@@AAVQJsonObject@@@Z$93 0041f036 f   configfilehandler.obj
 0001:0001e03c       __ehhandler$?ImportPlan@configFileHandler@@QAE_NABV?$QList@VQByteArray@@@@AAVQJsonObject@@@Z 0041f03c f   configfilehandler.obj
 0001:0001e060       __unwindfunclet$?ImportWorkSpace@configFileHandler@@QAE_NABV?$QList@VQByteArray@@@@AAVQJsonObject@@@Z$0 0041f060 f   configfilehandler.obj
 0001:0001e069       __unwindfunclet$?ImportWorkSpace@configFileHandler@@QAE_NABV?$QList@VQByteArray@@@@AAVQJsonObject@@@Z$1 0041f069 f   configfilehandler.obj
 0001:0001e072       __unwindfunclet$?ImportWorkSpace@configFileHandler@@QAE_NABV?$QList@VQByteArray@@@@AAVQJsonObject@@@Z$2 0041f072 f   configfilehandler.obj
 0001:0001e07b       __unwindfunclet$?ImportWorkSpace@configFileHandler@@QAE_NABV?$QList@VQByteArray@@@@AAVQJsonObject@@@Z$3 0041f07b f   configfilehandler.obj
 0001:0001e084       __unwindfunclet$?ImportWorkSpace@configFileHandler@@QAE_NABV?$QList@VQByteArray@@@@AAVQJsonObject@@@Z$4 0041f084 f   configfilehandler.obj
 0001:0001e08d       __unwindfunclet$?ImportWorkSpace@configFileHandler@@QAE_NABV?$QList@VQByteArray@@@@AAVQJsonObject@@@Z$5 0041f08d f   configfilehandler.obj
 0001:0001e095       __unwindfunclet$?ImportWorkSpace@configFileHandler@@QAE_NABV?$QList@VQByteArray@@@@AAVQJsonObject@@@Z$6 0041f095 f   configfilehandler.obj
 0001:0001e09e       __unwindfunclet$?ImportWorkSpace@configFileHandler@@QAE_NABV?$QList@VQByteArray@@@@AAVQJsonObject@@@Z$7 0041f09e f   configfilehandler.obj
 0001:0001e0a7       __unwindfunclet$?ImportWorkSpace@configFileHandler@@QAE_NABV?$QList@VQByteArray@@@@AAVQJsonObject@@@Z$8 0041f0a7 f   configfilehandler.obj
 0001:0001e0b0       __unwindfunclet$?ImportWorkSpace@configFileHandler@@QAE_NABV?$QList@VQByteArray@@@@AAVQJsonObject@@@Z$9 0041f0b0 f   configfilehandler.obj
 0001:0001e0b8       __unwindfunclet$?ImportWorkSpace@configFileHandler@@QAE_NABV?$QList@VQByteArray@@@@AAVQJsonObject@@@Z$10 0041f0b8 f   configfilehandler.obj
 0001:0001e0c1       __unwindfunclet$?ImportWorkSpace@configFileHandler@@QAE_NABV?$QList@VQByteArray@@@@AAVQJsonObject@@@Z$11 0041f0c1 f   configfilehandler.obj
 0001:0001e0ca       __unwindfunclet$?ImportWorkSpace@configFileHandler@@QAE_NABV?$QList@VQByteArray@@@@AAVQJsonObject@@@Z$12 0041f0ca f   configfilehandler.obj
 0001:0001e0d3       __unwindfunclet$?ImportWorkSpace@configFileHandler@@QAE_NABV?$QList@VQByteArray@@@@AAVQJsonObject@@@Z$13 0041f0d3 f   configfilehandler.obj
 0001:0001e0db       __unwindfunclet$?ImportWorkSpace@configFileHandler@@QAE_NABV?$QList@VQByteArray@@@@AAVQJsonObject@@@Z$14 0041f0db f   configfilehandler.obj
 0001:0001e0f5       __unwindfunclet$?ImportWorkSpace@configFileHandler@@QAE_NABV?$QList@VQByteArray@@@@AAVQJsonObject@@@Z$59 0041f0f5 f   configfilehandler.obj
 0001:0001e0fb       __unwindfunclet$?ImportWorkSpace@configFileHandler@@QAE_NABV?$QList@VQByteArray@@@@AAVQJsonObject@@@Z$15 0041f0fb f   configfilehandler.obj
 0001:0001e104       __unwindfunclet$?ImportWorkSpace@configFileHandler@@QAE_NABV?$QList@VQByteArray@@@@AAVQJsonObject@@@Z$60 0041f104 f   configfilehandler.obj
 0001:0001e10a       __unwindfunclet$?ImportWorkSpace@configFileHandler@@QAE_NABV?$QList@VQByteArray@@@@AAVQJsonObject@@@Z$16 0041f10a f   configfilehandler.obj
 0001:0001e112       __unwindfunclet$?ImportWorkSpace@configFileHandler@@QAE_NABV?$QList@VQByteArray@@@@AAVQJsonObject@@@Z$73 0041f112 f   configfilehandler.obj
 0001:0001e118       __unwindfunclet$?ImportWorkSpace@configFileHandler@@QAE_NABV?$QList@VQByteArray@@@@AAVQJsonObject@@@Z$77 0041f118 f   configfilehandler.obj
 0001:0001e11e       __unwindfunclet$?ImportWorkSpace@configFileHandler@@QAE_NABV?$QList@VQByteArray@@@@AAVQJsonObject@@@Z$17 0041f11e f   configfilehandler.obj
 0001:0001e127       __unwindfunclet$?ImportWorkSpace@configFileHandler@@QAE_NABV?$QList@VQByteArray@@@@AAVQJsonObject@@@Z$18 0041f127 f   configfilehandler.obj
 0001:0001e130       __unwindfunclet$?ImportWorkSpace@configFileHandler@@QAE_NABV?$QList@VQByteArray@@@@AAVQJsonObject@@@Z$19 0041f130 f   configfilehandler.obj
 0001:0001e139       __unwindfunclet$?ImportWorkSpace@configFileHandler@@QAE_NABV?$QList@VQByteArray@@@@AAVQJsonObject@@@Z$20 0041f139 f   configfilehandler.obj
 0001:0001e142       __unwindfunclet$?ImportWorkSpace@configFileHandler@@QAE_NABV?$QList@VQByteArray@@@@AAVQJsonObject@@@Z$21 0041f142 f   configfilehandler.obj
 0001:0001e14b       __unwindfunclet$?ImportWorkSpace@configFileHandler@@QAE_NABV?$QList@VQByteArray@@@@AAVQJsonObject@@@Z$22 0041f14b f   configfilehandler.obj
 0001:0001e154       __unwindfunclet$?ImportWorkSpace@configFileHandler@@QAE_NABV?$QList@VQByteArray@@@@AAVQJsonObject@@@Z$23 0041f154 f   configfilehandler.obj
 0001:0001e15d       __unwindfunclet$?ImportWorkSpace@configFileHandler@@QAE_NABV?$QList@VQByteArray@@@@AAVQJsonObject@@@Z$24 0041f15d f   configfilehandler.obj
 0001:0001e166       __unwindfunclet$?ImportWorkSpace@configFileHandler@@QAE_NABV?$QList@VQByteArray@@@@AAVQJsonObject@@@Z$25 0041f166 f   configfilehandler.obj
 0001:0001e172       __unwindfunclet$?ImportWorkSpace@configFileHandler@@QAE_NABV?$QList@VQByteArray@@@@AAVQJsonObject@@@Z$26 0041f172 f   configfilehandler.obj
 0001:0001e17b       __unwindfunclet$?ImportWorkSpace@configFileHandler@@QAE_NABV?$QList@VQByteArray@@@@AAVQJsonObject@@@Z$92 0041f17b f   configfilehandler.obj
 0001:0001e181       __unwindfunclet$?ImportWorkSpace@configFileHandler@@QAE_NABV?$QList@VQByteArray@@@@AAVQJsonObject@@@Z$27 0041f181 f   configfilehandler.obj
 0001:0001e18a       __unwindfunclet$?ImportWorkSpace@configFileHandler@@QAE_NABV?$QList@VQByteArray@@@@AAVQJsonObject@@@Z$28 0041f18a f   configfilehandler.obj
 0001:0001e196       __unwindfunclet$?ImportWorkSpace@configFileHandler@@QAE_NABV?$QList@VQByteArray@@@@AAVQJsonObject@@@Z$29 0041f196 f   configfilehandler.obj
 0001:0001e19f       __unwindfunclet$?ImportWorkSpace@configFileHandler@@QAE_NABV?$QList@VQByteArray@@@@AAVQJsonObject@@@Z$30 0041f19f f   configfilehandler.obj
 0001:0001e1a8       __unwindfunclet$?ImportWorkSpace@configFileHandler@@QAE_NABV?$QList@VQByteArray@@@@AAVQJsonObject@@@Z$31 0041f1a8 f   configfilehandler.obj
 0001:0001e1b1       __unwindfunclet$?ImportWorkSpace@configFileHandler@@QAE_NABV?$QList@VQByteArray@@@@AAVQJsonObject@@@Z$32 0041f1b1 f   configfilehandler.obj
 0001:0001e1ba       __unwindfunclet$?ImportWorkSpace@configFileHandler@@QAE_NABV?$QList@VQByteArray@@@@AAVQJsonObject@@@Z$33 0041f1ba f   configfilehandler.obj
 0001:0001e1c3       __unwindfunclet$?ImportWorkSpace@configFileHandler@@QAE_NABV?$QList@VQByteArray@@@@AAVQJsonObject@@@Z$34 0041f1c3 f   configfilehandler.obj
 0001:0001e1cc       __unwindfunclet$?ImportWorkSpace@configFileHandler@@QAE_NABV?$QList@VQByteArray@@@@AAVQJsonObject@@@Z$35 0041f1cc f   configfilehandler.obj
 0001:0001e1d5       __unwindfunclet$?ImportWorkSpace@configFileHandler@@QAE_NABV?$QList@VQByteArray@@@@AAVQJsonObject@@@Z$36 0041f1d5 f   configfilehandler.obj
 0001:0001e1de       __unwindfunclet$?ImportWorkSpace@configFileHandler@@QAE_NABV?$QList@VQByteArray@@@@AAVQJsonObject@@@Z$95 0041f1de f   configfilehandler.obj
 0001:0001e1e4       __ehhandler$?ImportWorkSpace@configFileHandler@@QAE_NABV?$QList@VQByteArray@@@@AAVQJsonObject@@@Z 0041f1e4 f   configfilehandler.obj
 0001:0001e210       __unwindfunclet$?ParseHostIP@configFileHandler@@QAE?AVQString@@XZ$0 0041f210 f   configfilehandler.obj
 0001:0001e219       __unwindfunclet$?ParseHostIP@configFileHandler@@QAE?AVQString@@XZ$1 0041f219 f   configfilehandler.obj
 0001:0001e222       __unwindfunclet$?ParseHostIP@configFileHandler@@QAE?AVQString@@XZ$2 0041f222 f   configfilehandler.obj
 0001:0001e22b       __ehhandler$?ParseHostIP@configFileHandler@@QAE?AVQString@@XZ 0041f22b f   configfilehandler.obj
 0001:0001e250       __unwindfunclet$?ParseHostSingleOperationThreshold@configFileHandler@@QAEHXZ$0 0041f250 f   configfilehandler.obj
 0001:0001e250       __unwindfunclet$?ParseHostPort@configFileHandler@@QAEFXZ$0 0041f250 f   configfilehandler.obj
 0001:0001e259       __unwindfunclet$?ParseHostPort@configFileHandler@@QAEFXZ$1 0041f259 f   configfilehandler.obj
 0001:0001e259       __unwindfunclet$?ParseHostSingleOperationThreshold@configFileHandler@@QAEHXZ$1 0041f259 f   configfilehandler.obj
 0001:0001e262       __unwindfunclet$?ParseHostPort@configFileHandler@@QAEFXZ$2 0041f262 f   configfilehandler.obj
 0001:0001e262       __unwindfunclet$?ParseHostSingleOperationThreshold@configFileHandler@@QAEHXZ$2 0041f262 f   configfilehandler.obj
 0001:0001e26b       __unwindfunclet$?ParseHostSingleOperationThreshold@configFileHandler@@QAEHXZ$3 0041f26b f   configfilehandler.obj
 0001:0001e26b       __unwindfunclet$?ParseHostPort@configFileHandler@@QAEFXZ$3 0041f26b f   configfilehandler.obj
 0001:0001e274       __ehhandler$?ParseHostPort@configFileHandler@@QAEFXZ 0041f274 f   configfilehandler.obj
 0001:0001e274       __ehhandler$?ParseHostSingleOperationThreshold@configFileHandler@@QAEHXZ 0041f274 f   configfilehandler.obj
 0001:0001e290       __unwindfunclet$?ParseLicense@configFileHandler@@QAEXAAVQByteArray@@@Z$0 0041f290 f   configfilehandler.obj
 0001:0001e299       __unwindfunclet$?ParseLicense@configFileHandler@@QAEXAAVQByteArray@@@Z$1 0041f299 f   configfilehandler.obj
 0001:0001e2a2       __unwindfunclet$?ParseLicense@configFileHandler@@QAEXAAVQByteArray@@@Z$2 0041f2a2 f   configfilehandler.obj
 0001:0001e2ab       __unwindfunclet$?ParseLicense@configFileHandler@@QAEXAAVQByteArray@@@Z$3 0041f2ab f   configfilehandler.obj
 0001:0001e2b4       __ehhandler$?ParseLicense@configFileHandler@@QAEXAAVQByteArray@@@Z 0041f2b4 f   configfilehandler.obj
 0001:0001e2d0       __unwindfunclet$?ParseListMap@configFileHandler@@QAE?AV?$QMap@VQString@@VQStringList@@@@ABVQString@@@Z$0 0041f2d0 f   configfilehandler.obj
 0001:0001e2e9       __unwindfunclet$?ParseListMap@configFileHandler@@QAE?AV?$QMap@VQString@@VQStringList@@@@ABVQString@@@Z$1 0041f2e9 f   configfilehandler.obj
 0001:0001e2f2       __unwindfunclet$?ParseListMap@configFileHandler@@QAE?AV?$QMap@VQString@@VQStringList@@@@ABVQString@@@Z$2 0041f2f2 f   configfilehandler.obj
 0001:0001e2fb       __unwindfunclet$?ParseListMap@configFileHandler@@QAE?AV?$QMap@VQString@@VQStringList@@@@ABVQString@@@Z$3 0041f2fb f   configfilehandler.obj
 0001:0001e304       __unwindfunclet$?ParseListMap@configFileHandler@@QAE?AV?$QMap@VQString@@VQStringList@@@@ABVQString@@@Z$4 0041f304 f   configfilehandler.obj
 0001:0001e30c       __unwindfunclet$?ParseListMap@configFileHandler@@QAE?AV?$QMap@VQString@@VQStringList@@@@ABVQString@@@Z$5 0041f30c f   configfilehandler.obj
 0001:0001e315       __unwindfunclet$?ParseListMap@configFileHandler@@QAE?AV?$QMap@VQString@@VQStringList@@@@ABVQString@@@Z$6 0041f315 f   configfilehandler.obj
 0001:0001e31e       __unwindfunclet$?ParseListMap@configFileHandler@@QAE?AV?$QMap@VQString@@VQStringList@@@@ABVQString@@@Z$7 0041f31e f   configfilehandler.obj
 0001:0001e327       __unwindfunclet$?ParseListMap@configFileHandler@@QAE?AV?$QMap@VQString@@VQStringList@@@@ABVQString@@@Z$18 0041f327 f   configfilehandler.obj
 0001:0001e32d       __unwindfunclet$?ParseListMap@configFileHandler@@QAE?AV?$QMap@VQString@@VQStringList@@@@ABVQString@@@Z$28 0041f32d f   configfilehandler.obj
 0001:0001e333       __ehhandler$?ParseListMap@configFileHandler@@QAE?AV?$QMap@VQString@@VQStringList@@@@ABVQString@@@Z 0041f333 f   configfilehandler.obj
 0001:0001e350       __unwindfunclet$?ParseMap@configFileHandler@@QAE?AV?$QMap@VQString@@V1@@@ABVQString@@@Z$0 0041f350 f   configfilehandler.obj
 0001:0001e350       __unwindfunclet$?ParseMapRevertKeyValue@configFileHandler@@QAE?AV?$QMap@VQString@@V1@@@ABVQString@@@Z$0 0041f350 f   configfilehandler.obj
 0001:0001e369       __unwindfunclet$?ParseMapRevertKeyValue@configFileHandler@@QAE?AV?$QMap@VQString@@V1@@@ABVQString@@@Z$1 0041f369 f   configfilehandler.obj
 0001:0001e369       __unwindfunclet$?ParseMap@configFileHandler@@QAE?AV?$QMap@VQString@@V1@@@ABVQString@@@Z$1 0041f369 f   configfilehandler.obj
 0001:0001e372       __unwindfunclet$?ParseMap@configFileHandler@@QAE?AV?$QMap@VQString@@V1@@@ABVQString@@@Z$2 0041f372 f   configfilehandler.obj
 0001:0001e372       __unwindfunclet$?ParseMapRevertKeyValue@configFileHandler@@QAE?AV?$QMap@VQString@@V1@@@ABVQString@@@Z$2 0041f372 f   configfilehandler.obj
 0001:0001e37b       __unwindfunclet$?ParseMapRevertKeyValue@configFileHandler@@QAE?AV?$QMap@VQString@@V1@@@ABVQString@@@Z$3 0041f37b f   configfilehandler.obj
 0001:0001e37b       __unwindfunclet$?ParseMap@configFileHandler@@QAE?AV?$QMap@VQString@@V1@@@ABVQString@@@Z$3 0041f37b f   configfilehandler.obj
 0001:0001e384       __unwindfunclet$?ParseMap@configFileHandler@@QAE?AV?$QMap@VQString@@V1@@@ABVQString@@@Z$4 0041f384 f   configfilehandler.obj
 0001:0001e384       __unwindfunclet$?ParseMapRevertKeyValue@configFileHandler@@QAE?AV?$QMap@VQString@@V1@@@ABVQString@@@Z$4 0041f384 f   configfilehandler.obj
 0001:0001e38d       __unwindfunclet$?ParseMapRevertKeyValue@configFileHandler@@QAE?AV?$QMap@VQString@@V1@@@ABVQString@@@Z$5 0041f38d f   configfilehandler.obj
 0001:0001e38d       __unwindfunclet$?ParseMap@configFileHandler@@QAE?AV?$QMap@VQString@@V1@@@ABVQString@@@Z$5 0041f38d f   configfilehandler.obj
 0001:0001e396       __ehhandler$?ParseMapRevertKeyValue@configFileHandler@@QAE?AV?$QMap@VQString@@V1@@@ABVQString@@@Z 0041f396 f   configfilehandler.obj
 0001:0001e396       __ehhandler$?ParseMap@configFileHandler@@QAE?AV?$QMap@VQString@@V1@@@ABVQString@@@Z 0041f396 f   configfilehandler.obj
 0001:0001e3c0       __unwindfunclet$?ParseParamValue@configFileHandler@@QAE?AV?$QMap@VQString@@VOperationParamData@@@@ABVQString@@@Z$0 0041f3c0 f   configfilehandler.obj
 0001:0001e3c8       __unwindfunclet$?ParseParamValue@configFileHandler@@QAE?AV?$QMap@VQString@@VOperationParamData@@@@ABVQString@@@Z$1 0041f3c8 f   configfilehandler.obj
 0001:0001e3d0       __unwindfunclet$?ParseParamValue@configFileHandler@@QAE?AV?$QMap@VQString@@VOperationParamData@@@@ABVQString@@@Z$2 0041f3d0 f   configfilehandler.obj
 0001:0001e3d9       __unwindfunclet$?ParseParamValue@configFileHandler@@QAE?AV?$QMap@VQString@@VOperationParamData@@@@ABVQString@@@Z$3 0041f3d9 f   configfilehandler.obj
 0001:0001e3e2       __unwindfunclet$?ParseParamValue@configFileHandler@@QAE?AV?$QMap@VQString@@VOperationParamData@@@@ABVQString@@@Z$4 0041f3e2 f   configfilehandler.obj
 0001:0001e3eb       __unwindfunclet$?ParseParamValue@configFileHandler@@QAE?AV?$QMap@VQString@@VOperationParamData@@@@ABVQString@@@Z$5 0041f3eb f   configfilehandler.obj
 0001:0001e3f4       __unwindfunclet$?ParseParamValue@configFileHandler@@QAE?AV?$QMap@VQString@@VOperationParamData@@@@ABVQString@@@Z$6 0041f3f4 f   configfilehandler.obj
 0001:0001e3fd       __unwindfunclet$?ParseParamValue@configFileHandler@@QAE?AV?$QMap@VQString@@VOperationParamData@@@@ABVQString@@@Z$7 0041f3fd f   configfilehandler.obj
 0001:0001e406       __unwindfunclet$?ParseParamValue@configFileHandler@@QAE?AV?$QMap@VQString@@VOperationParamData@@@@ABVQString@@@Z$8 0041f406 f   configfilehandler.obj
 0001:0001e40f       __unwindfunclet$?ParseParamValue@configFileHandler@@QAE?AV?$QMap@VQString@@VOperationParamData@@@@ABVQString@@@Z$9 0041f40f f   configfilehandler.obj
 0001:0001e418       __unwindfunclet$?ParseParamValue@configFileHandler@@QAE?AV?$QMap@VQString@@VOperationParamData@@@@ABVQString@@@Z$10 0041f418 f   configfilehandler.obj
 0001:0001e421       __unwindfunclet$?ParseParamValue@configFileHandler@@QAE?AV?$QMap@VQString@@VOperationParamData@@@@ABVQString@@@Z$11 0041f421 f   configfilehandler.obj
 0001:0001e42a       __unwindfunclet$?ParseParamValue@configFileHandler@@QAE?AV?$QMap@VQString@@VOperationParamData@@@@ABVQString@@@Z$12 0041f42a f   configfilehandler.obj
 0001:0001e433       __unwindfunclet$?ParseParamValue@configFileHandler@@QAE?AV?$QMap@VQString@@VOperationParamData@@@@ABVQString@@@Z$50 0041f433 f   configfilehandler.obj
 0001:0001e43f       __unwindfunclet$?ParseParamValue@configFileHandler@@QAE?AV?$QMap@VQString@@VOperationParamData@@@@ABVQString@@@Z$13 0041f43f f   configfilehandler.obj
 0001:0001e458       __unwindfunclet$?ParseParamValue@configFileHandler@@QAE?AV?$QMap@VQString@@VOperationParamData@@@@ABVQString@@@Z$14 0041f458 f   configfilehandler.obj
 0001:0001e464       __unwindfunclet$?ParseParamValue@configFileHandler@@QAE?AV?$QMap@VQString@@VOperationParamData@@@@ABVQString@@@Z$15 0041f464 f   configfilehandler.obj
 0001:0001e470       __unwindfunclet$?ParseParamValue@configFileHandler@@QAE?AV?$QMap@VQString@@VOperationParamData@@@@ABVQString@@@Z$16 0041f470 f   configfilehandler.obj
 0001:0001e479       __unwindfunclet$?ParseParamValue@configFileHandler@@QAE?AV?$QMap@VQString@@VOperationParamData@@@@ABVQString@@@Z$17 0041f479 f   configfilehandler.obj
 0001:0001e482       __unwindfunclet$?ParseParamValue@configFileHandler@@QAE?AV?$QMap@VQString@@VOperationParamData@@@@ABVQString@@@Z$18 0041f482 f   configfilehandler.obj
 0001:0001e48b       __unwindfunclet$?ParseParamValue@configFileHandler@@QAE?AV?$QMap@VQString@@VOperationParamData@@@@ABVQString@@@Z$19 0041f48b f   configfilehandler.obj
 0001:0001e494       __unwindfunclet$?ParseParamValue@configFileHandler@@QAE?AV?$QMap@VQString@@VOperationParamData@@@@ABVQString@@@Z$20 0041f494 f   configfilehandler.obj
 0001:0001e49c       __unwindfunclet$?ParseParamValue@configFileHandler@@QAE?AV?$QMap@VQString@@VOperationParamData@@@@ABVQString@@@Z$21 0041f49c f   configfilehandler.obj
 0001:0001e4a4       __unwindfunclet$?ParseParamValue@configFileHandler@@QAE?AV?$QMap@VQString@@VOperationParamData@@@@ABVQString@@@Z$22 0041f4a4 f   configfilehandler.obj
 0001:0001e4ad       __unwindfunclet$?ParseParamValue@configFileHandler@@QAE?AV?$QMap@VQString@@VOperationParamData@@@@ABVQString@@@Z$23 0041f4ad f   configfilehandler.obj
 0001:0001e4b6       __unwindfunclet$?ParseParamValue@configFileHandler@@QAE?AV?$QMap@VQString@@VOperationParamData@@@@ABVQString@@@Z$24 0041f4b6 f   configfilehandler.obj
 0001:0001e4bf       __unwindfunclet$?ParseParamValue@configFileHandler@@QAE?AV?$QMap@VQString@@VOperationParamData@@@@ABVQString@@@Z$25 0041f4bf f   configfilehandler.obj
 0001:0001e4c8       __unwindfunclet$?ParseParamValue@configFileHandler@@QAE?AV?$QMap@VQString@@VOperationParamData@@@@ABVQString@@@Z$27 0041f4c8 f   configfilehandler.obj
 0001:0001e4d4       __unwindfunclet$?ParseParamValue@configFileHandler@@QAE?AV?$QMap@VQString@@VOperationParamData@@@@ABVQString@@@Z$55 0041f4d4 f   configfilehandler.obj
 0001:0001e4e0       __unwindfunclet$?ParseParamValue@configFileHandler@@QAE?AV?$QMap@VQString@@VOperationParamData@@@@ABVQString@@@Z$56 0041f4e0 f   configfilehandler.obj
 0001:0001e4ec       __unwindfunclet$?ParseParamValue@configFileHandler@@QAE?AV?$QMap@VQString@@VOperationParamData@@@@ABVQString@@@Z$57 0041f4ec f   configfilehandler.obj
 0001:0001e4f8       __unwindfunclet$?ParseParamValue@configFileHandler@@QAE?AV?$QMap@VQString@@VOperationParamData@@@@ABVQString@@@Z$29 0041f4f8 f   configfilehandler.obj
 0001:0001e504       __unwindfunclet$?ParseParamValue@configFileHandler@@QAE?AV?$QMap@VQString@@VOperationParamData@@@@ABVQString@@@Z$68 0041f504 f   configfilehandler.obj
 0001:0001e50a       __unwindfunclet$?ParseParamValue@configFileHandler@@QAE?AV?$QMap@VQString@@VOperationParamData@@@@ABVQString@@@Z$77 0041f50a f   configfilehandler.obj
 0001:0001e510       __unwindfunclet$?ParseParamValue@configFileHandler@@QAE?AV?$QMap@VQString@@VOperationParamData@@@@ABVQString@@@Z$30 0041f510 f   configfilehandler.obj
 0001:0001e519       __unwindfunclet$?ParseParamValue@configFileHandler@@QAE?AV?$QMap@VQString@@VOperationParamData@@@@ABVQString@@@Z$31 0041f519 f   configfilehandler.obj
 0001:0001e525       __unwindfunclet$?ParseParamValue@configFileHandler@@QAE?AV?$QMap@VQString@@VOperationParamData@@@@ABVQString@@@Z$32 0041f525 f   configfilehandler.obj
 0001:0001e531       __unwindfunclet$?ParseParamValue@configFileHandler@@QAE?AV?$QMap@VQString@@VOperationParamData@@@@ABVQString@@@Z$34 0041f531 f   configfilehandler.obj
 0001:0001e53d       __unwindfunclet$?ParseParamValue@configFileHandler@@QAE?AV?$QMap@VQString@@VOperationParamData@@@@ABVQString@@@Z$97 0041f53d f   configfilehandler.obj
 0001:0001e543       __unwindfunclet$?ParseParamValue@configFileHandler@@QAE?AV?$QMap@VQString@@VOperationParamData@@@@ABVQString@@@Z$104 0041f543 f   configfilehandler.obj
 0001:0001e549       __unwindfunclet$?ParseParamValue@configFileHandler@@QAE?AV?$QMap@VQString@@VOperationParamData@@@@ABVQString@@@Z$35 0041f549 f   configfilehandler.obj
 0001:0001e552       __unwindfunclet$?ParseParamValue@configFileHandler@@QAE?AV?$QMap@VQString@@VOperationParamData@@@@ABVQString@@@Z$111 0041f552 f   configfilehandler.obj
 0001:0001e55e       __unwindfunclet$?ParseParamValue@configFileHandler@@QAE?AV?$QMap@VQString@@VOperationParamData@@@@ABVQString@@@Z$36 0041f55e f   configfilehandler.obj
 0001:0001e56a       __unwindfunclet$?ParseParamValue@configFileHandler@@QAE?AV?$QMap@VQString@@VOperationParamData@@@@ABVQString@@@Z$38 0041f56a f   configfilehandler.obj
 0001:0001e573       __unwindfunclet$?ParseParamValue@configFileHandler@@QAE?AV?$QMap@VQString@@VOperationParamData@@@@ABVQString@@@Z$40 0041f573 f   configfilehandler.obj
 0001:0001e57c       __unwindfunclet$?ParseParamValue@configFileHandler@@QAE?AV?$QMap@VQString@@VOperationParamData@@@@ABVQString@@@Z$112 0041f57c f   configfilehandler.obj
 0001:0001e588       __unwindfunclet$?ParseParamValue@configFileHandler@@QAE?AV?$QMap@VQString@@VOperationParamData@@@@ABVQString@@@Z$41 0041f588 f   configfilehandler.obj
 0001:0001e591       __unwindfunclet$?ParseParamValue@configFileHandler@@QAE?AV?$QMap@VQString@@VOperationParamData@@@@ABVQString@@@Z$113 0041f591 f   configfilehandler.obj
 0001:0001e59d       __unwindfunclet$?ParseParamValue@configFileHandler@@QAE?AV?$QMap@VQString@@VOperationParamData@@@@ABVQString@@@Z$42 0041f59d f   configfilehandler.obj
 0001:0001e5a6       __unwindfunclet$?ParseParamValue@configFileHandler@@QAE?AV?$QMap@VQString@@VOperationParamData@@@@ABVQString@@@Z$121 0041f5a6 f   configfilehandler.obj
 0001:0001e5ac       __unwindfunclet$?ParseParamValue@configFileHandler@@QAE?AV?$QMap@VQString@@VOperationParamData@@@@ABVQString@@@Z$137 0041f5ac f   configfilehandler.obj
 0001:0001e5b2       __unwindfunclet$?ParseParamValue@configFileHandler@@QAE?AV?$QMap@VQString@@VOperationParamData@@@@ABVQString@@@Z$43 0041f5b2 f   configfilehandler.obj
 0001:0001e5ba       __unwindfunclet$?ParseParamValue@configFileHandler@@QAE?AV?$QMap@VQString@@VOperationParamData@@@@ABVQString@@@Z$44 0041f5ba f   configfilehandler.obj
 0001:0001e5c3       __unwindfunclet$?ParseParamValue@configFileHandler@@QAE?AV?$QMap@VQString@@VOperationParamData@@@@ABVQString@@@Z$45 0041f5c3 f   configfilehandler.obj
 0001:0001e5ce       __unwindfunclet$?ParseParamValue@configFileHandler@@QAE?AV?$QMap@VQString@@VOperationParamData@@@@ABVQString@@@Z$46 0041f5ce f   configfilehandler.obj
 0001:0001e5d7       __unwindfunclet$?ParseParamValue@configFileHandler@@QAE?AV?$QMap@VQString@@VOperationParamData@@@@ABVQString@@@Z$144 0041f5d7 f   configfilehandler.obj
 0001:0001e5e2       __unwindfunclet$?ParseParamValue@configFileHandler@@QAE?AV?$QMap@VQString@@VOperationParamData@@@@ABVQString@@@Z$152 0041f5e2 f   configfilehandler.obj
 0001:0001e5e8       __unwindfunclet$?ParseParamValue@configFileHandler@@QAE?AV?$QMap@VQString@@VOperationParamData@@@@ABVQString@@@Z$160 0041f5e8 f   configfilehandler.obj
 0001:0001e5ee       __unwindfunclet$?ParseParamValue@configFileHandler@@QAE?AV?$QMap@VQString@@VOperationParamData@@@@ABVQString@@@Z$170 0041f5ee f   configfilehandler.obj
 0001:0001e5f4       __unwindfunclet$?ParseParamValue@configFileHandler@@QAE?AV?$QMap@VQString@@VOperationParamData@@@@ABVQString@@@Z$178 0041f5f4 f   configfilehandler.obj
 0001:0001e5fa       __unwindfunclet$?ParseParamValue@configFileHandler@@QAE?AV?$QMap@VQString@@VOperationParamData@@@@ABVQString@@@Z$187 0041f5fa f   configfilehandler.obj
 0001:0001e600       __unwindfunclet$?ParseParamValue@configFileHandler@@QAE?AV?$QMap@VQString@@VOperationParamData@@@@ABVQString@@@Z$195 0041f600 f   configfilehandler.obj
 0001:0001e606       __unwindfunclet$?ParseParamValue@configFileHandler@@QAE?AV?$QMap@VQString@@VOperationParamData@@@@ABVQString@@@Z$204 0041f606 f   configfilehandler.obj
 0001:0001e60c       __unwindfunclet$?ParseParamValue@configFileHandler@@QAE?AV?$QMap@VQString@@VOperationParamData@@@@ABVQString@@@Z$212 0041f60c f   configfilehandler.obj
 0001:0001e612       __ehhandler$?ParseParamValue@configFileHandler@@QAE?AV?$QMap@VQString@@VOperationParamData@@@@ABVQString@@@Z 0041f612 f   configfilehandler.obj
 0001:0001e630       __unwindfunclet$?ParsePlan@configFileHandler@@QAE?AVQString@@ABVQJsonArray@@@Z$0 0041f630 f   configfilehandler.obj
 0001:0001e64a       __unwindfunclet$?ParsePlan@configFileHandler@@QAE?AVQString@@ABVQJsonArray@@@Z$1 0041f64a f   configfilehandler.obj
 0001:0001e655       __unwindfunclet$?ParsePlan@configFileHandler@@QAE?AVQString@@ABVQJsonArray@@@Z$2 0041f655 f   configfilehandler.obj
 0001:0001e65e       __unwindfunclet$?ParsePlan@configFileHandler@@QAE?AVQString@@ABVQJsonArray@@@Z$3 0041f65e f   configfilehandler.obj
 0001:0001e667       __unwindfunclet$?ParsePlan@configFileHandler@@QAE?AVQString@@ABVQJsonArray@@@Z$4 0041f667 f   configfilehandler.obj
 0001:0001e670       __unwindfunclet$?ParsePlan@configFileHandler@@QAE?AVQString@@ABVQJsonArray@@@Z$5 0041f670 f   configfilehandler.obj
 0001:0001e679       __unwindfunclet$?ParsePlan@configFileHandler@@QAE?AVQString@@ABVQJsonArray@@@Z$6 0041f679 f   configfilehandler.obj
 0001:0001e681       __unwindfunclet$?ParsePlan@configFileHandler@@QAE?AVQString@@ABVQJsonArray@@@Z$7 0041f681 f   configfilehandler.obj
 0001:0001e68a       __unwindfunclet$?ParsePlan@configFileHandler@@QAE?AVQString@@ABVQJsonArray@@@Z$8 0041f68a f   configfilehandler.obj
 0001:0001e693       __unwindfunclet$?ParsePlan@configFileHandler@@QAE?AVQString@@ABVQJsonArray@@@Z$9 0041f693 f   configfilehandler.obj
 0001:0001e69c       __unwindfunclet$?ParsePlan@configFileHandler@@QAE?AVQString@@ABVQJsonArray@@@Z$10 0041f69c f   configfilehandler.obj
 0001:0001e6a5       __unwindfunclet$?ParsePlan@configFileHandler@@QAE?AVQString@@ABVQJsonArray@@@Z$11 0041f6a5 f   configfilehandler.obj
 0001:0001e6ae       __unwindfunclet$?ParsePlan@configFileHandler@@QAE?AVQString@@ABVQJsonArray@@@Z$12 0041f6ae f   configfilehandler.obj
 0001:0001e6b7       __unwindfunclet$?ParsePlan@configFileHandler@@QAE?AVQString@@ABVQJsonArray@@@Z$13 0041f6b7 f   configfilehandler.obj
 0001:0001e6c0       __unwindfunclet$?ParsePlan@configFileHandler@@QAE?AVQString@@ABVQJsonArray@@@Z$14 0041f6c0 f   configfilehandler.obj
 0001:0001e6c9       __unwindfunclet$?ParsePlan@configFileHandler@@QAE?AVQString@@ABVQJsonArray@@@Z$15 0041f6c9 f   configfilehandler.obj
 0001:0001e6d2       __unwindfunclet$?ParsePlan@configFileHandler@@QAE?AVQString@@ABVQJsonArray@@@Z$16 0041f6d2 f   configfilehandler.obj
 0001:0001e6db       __unwindfunclet$?ParsePlan@configFileHandler@@QAE?AVQString@@ABVQJsonArray@@@Z$17 0041f6db f   configfilehandler.obj
 0001:0001e6e4       __unwindfunclet$?ParsePlan@configFileHandler@@QAE?AVQString@@ABVQJsonArray@@@Z$18 0041f6e4 f   configfilehandler.obj
 0001:0001e6ed       __unwindfunclet$?ParsePlan@configFileHandler@@QAE?AVQString@@ABVQJsonArray@@@Z$19 0041f6ed f   configfilehandler.obj
 0001:0001e6f6       __unwindfunclet$?ParsePlan@configFileHandler@@QAE?AVQString@@ABVQJsonArray@@@Z$20 0041f6f6 f   configfilehandler.obj
 0001:0001e6ff       __unwindfunclet$?ParsePlan@configFileHandler@@QAE?AVQString@@ABVQJsonArray@@@Z$21 0041f6ff f   configfilehandler.obj
 0001:0001e708       __unwindfunclet$?ParsePlan@configFileHandler@@QAE?AVQString@@ABVQJsonArray@@@Z$22 0041f708 f   configfilehandler.obj
 0001:0001e711       __unwindfunclet$?ParsePlan@configFileHandler@@QAE?AVQString@@ABVQJsonArray@@@Z$34 0041f711 f   configfilehandler.obj
 0001:0001e71d       __unwindfunclet$?ParsePlan@configFileHandler@@QAE?AVQString@@ABVQJsonArray@@@Z$23 0041f71d f   configfilehandler.obj
 0001:0001e726       __unwindfunclet$?ParsePlan@configFileHandler@@QAE?AVQString@@ABVQJsonArray@@@Z$36 0041f726 f   configfilehandler.obj
 0001:0001e72c       __ehhandler$?ParsePlan@configFileHandler@@QAE?AVQString@@ABVQJsonArray@@@Z 0041f72c f   configfilehandler.obj
 0001:0001e750       __unwindfunclet$?ParsePlanList@configFileHandler@@QAEXAAV?$QList@U?$QPair@VQString@@V?$QList@VSingleOperationData@@@@@@@@ABV?$QMap@VQString@@VOperationParamData@@@@@Z$0 0041f750 f   configfilehandler.obj
 0001:0001e759       __unwindfunclet$?ParsePlanList@configFileHandler@@QAEXAAV?$QList@U?$QPair@VQString@@V?$QList@VSingleOperationData@@@@@@@@ABV?$QMap@VQString@@VOperationParamData@@@@@Z$1 0041f759 f   configfilehandler.obj
 0001:0001e762       __unwindfunclet$?ParsePlanList@configFileHandler@@QAEXAAV?$QList@U?$QPair@VQString@@V?$QList@VSingleOperationData@@@@@@@@ABV?$QMap@VQString@@VOperationParamData@@@@@Z$2 0041f762 f   configfilehandler.obj
 0001:0001e76e       __unwindfunclet$?ParsePlanList@configFileHandler@@QAEXAAV?$QList@U?$QPair@VQString@@V?$QList@VSingleOperationData@@@@@@@@ABV?$QMap@VQString@@VOperationParamData@@@@@Z$3 0041f76e f   configfilehandler.obj
 0001:0001e777       __unwindfunclet$?ParsePlanList@configFileHandler@@QAEXAAV?$QList@U?$QPair@VQString@@V?$QList@VSingleOperationData@@@@@@@@ABV?$QMap@VQString@@VOperationParamData@@@@@Z$4 0041f777 f   configfilehandler.obj
 0001:0001e780       __unwindfunclet$?ParsePlanList@configFileHandler@@QAEXAAV?$QList@U?$QPair@VQString@@V?$QList@VSingleOperationData@@@@@@@@ABV?$QMap@VQString@@VOperationParamData@@@@@Z$5 0041f780 f   configfilehandler.obj
 0001:0001e789       __unwindfunclet$?ParsePlanList@configFileHandler@@QAEXAAV?$QList@U?$QPair@VQString@@V?$QList@VSingleOperationData@@@@@@@@ABV?$QMap@VQString@@VOperationParamData@@@@@Z$6 0041f789 f   configfilehandler.obj
 0001:0001e792       __unwindfunclet$?ParsePlanList@configFileHandler@@QAEXAAV?$QList@U?$QPair@VQString@@V?$QList@VSingleOperationData@@@@@@@@ABV?$QMap@VQString@@VOperationParamData@@@@@Z$7 0041f792 f   configfilehandler.obj
 0001:0001e79a       __unwindfunclet$?ParsePlanList@configFileHandler@@QAEXAAV?$QList@U?$QPair@VQString@@V?$QList@VSingleOperationData@@@@@@@@ABV?$QMap@VQString@@VOperationParamData@@@@@Z$8 0041f79a f   configfilehandler.obj
 0001:0001e7a6       __unwindfunclet$?ParsePlanList@configFileHandler@@QAEXAAV?$QList@U?$QPair@VQString@@V?$QList@VSingleOperationData@@@@@@@@ABV?$QMap@VQString@@VOperationParamData@@@@@Z$9 0041f7a6 f   configfilehandler.obj
 0001:0001e7af       __unwindfunclet$?ParsePlanList@configFileHandler@@QAEXAAV?$QList@U?$QPair@VQString@@V?$QList@VSingleOperationData@@@@@@@@ABV?$QMap@VQString@@VOperationParamData@@@@@Z$10 0041f7af f   configfilehandler.obj
 0001:0001e7b8       __unwindfunclet$?ParsePlanList@configFileHandler@@QAEXAAV?$QList@U?$QPair@VQString@@V?$QList@VSingleOperationData@@@@@@@@ABV?$QMap@VQString@@VOperationParamData@@@@@Z$11 0041f7b8 f   configfilehandler.obj
 0001:0001e7c0       __unwindfunclet$?ParsePlanList@configFileHandler@@QAEXAAV?$QList@U?$QPair@VQString@@V?$QList@VSingleOperationData@@@@@@@@ABV?$QMap@VQString@@VOperationParamData@@@@@Z$12 0041f7c0 f   configfilehandler.obj
 0001:0001e7c9       __unwindfunclet$?ParsePlanList@configFileHandler@@QAEXAAV?$QList@U?$QPair@VQString@@V?$QList@VSingleOperationData@@@@@@@@ABV?$QMap@VQString@@VOperationParamData@@@@@Z$14 0041f7c9 f   configfilehandler.obj
 0001:0001e7d1       __unwindfunclet$?ParsePlanList@configFileHandler@@QAEXAAV?$QList@U?$QPair@VQString@@V?$QList@VSingleOperationData@@@@@@@@ABV?$QMap@VQString@@VOperationParamData@@@@@Z$16 0041f7d1 f   configfilehandler.obj
 0001:0001e7dc       __unwindfunclet$?ParsePlanList@configFileHandler@@QAEXAAV?$QList@U?$QPair@VQString@@V?$QList@VSingleOperationData@@@@@@@@ABV?$QMap@VQString@@VOperationParamData@@@@@Z$27 0041f7dc f   configfilehandler.obj
 0001:0001e7e8       __unwindfunclet$?ParsePlanList@configFileHandler@@QAEXAAV?$QList@U?$QPair@VQString@@V?$QList@VSingleOperationData@@@@@@@@ABV?$QMap@VQString@@VOperationParamData@@@@@Z$28 0041f7e8 f   configfilehandler.obj
 0001:0001e7f4       __unwindfunclet$?ParsePlanList@configFileHandler@@QAEXAAV?$QList@U?$QPair@VQString@@V?$QList@VSingleOperationData@@@@@@@@ABV?$QMap@VQString@@VOperationParamData@@@@@Z$29 0041f7f4 f   configfilehandler.obj
 0001:0001e800       __unwindfunclet$?ParsePlanList@configFileHandler@@QAEXAAV?$QList@U?$QPair@VQString@@V?$QList@VSingleOperationData@@@@@@@@ABV?$QMap@VQString@@VOperationParamData@@@@@Z$30 0041f800 f   configfilehandler.obj
 0001:0001e80c       __unwindfunclet$?ParsePlanList@configFileHandler@@QAEXAAV?$QList@U?$QPair@VQString@@V?$QList@VSingleOperationData@@@@@@@@ABV?$QMap@VQString@@VOperationParamData@@@@@Z$32 0041f80c f   configfilehandler.obj
 0001:0001e812       __unwindfunclet$?ParsePlanList@configFileHandler@@QAEXAAV?$QList@U?$QPair@VQString@@V?$QList@VSingleOperationData@@@@@@@@ABV?$QMap@VQString@@VOperationParamData@@@@@Z$40 0041f812 f   configfilehandler.obj
 0001:0001e818       __unwindfunclet$?ParsePlanList@configFileHandler@@QAEXAAV?$QList@U?$QPair@VQString@@V?$QList@VSingleOperationData@@@@@@@@ABV?$QMap@VQString@@VOperationParamData@@@@@Z$50 0041f818 f   configfilehandler.obj
 0001:0001e81e       __unwindfunclet$?ParsePlanList@configFileHandler@@QAEXAAV?$QList@U?$QPair@VQString@@V?$QList@VSingleOperationData@@@@@@@@ABV?$QMap@VQString@@VOperationParamData@@@@@Z$58 0041f81e f   configfilehandler.obj
 0001:0001e824       __unwindfunclet$?ParsePlanList@configFileHandler@@QAEXAAV?$QList@U?$QPair@VQString@@V?$QList@VSingleOperationData@@@@@@@@ABV?$QMap@VQString@@VOperationParamData@@@@@Z$68 0041f824 f   configfilehandler.obj
 0001:0001e82a       __unwindfunclet$?ParsePlanList@configFileHandler@@QAEXAAV?$QList@U?$QPair@VQString@@V?$QList@VSingleOperationData@@@@@@@@ABV?$QMap@VQString@@VOperationParamData@@@@@Z$76 0041f82a f   configfilehandler.obj
 0001:0001e830       __unwindfunclet$?ParsePlanList@configFileHandler@@QAEXAAV?$QList@U?$QPair@VQString@@V?$QList@VSingleOperationData@@@@@@@@ABV?$QMap@VQString@@VOperationParamData@@@@@Z$84 0041f830 f   configfilehandler.obj
 0001:0001e836       __unwindfunclet$?ParsePlanList@configFileHandler@@QAEXAAV?$QList@U?$QPair@VQString@@V?$QList@VSingleOperationData@@@@@@@@ABV?$QMap@VQString@@VOperationParamData@@@@@Z$20 0041f836 f   configfilehandler.obj
 0001:0001e83e       __unwindfunclet$?ParsePlanList@configFileHandler@@QAEXAAV?$QList@U?$QPair@VQString@@V?$QList@VSingleOperationData@@@@@@@@ABV?$QMap@VQString@@VOperationParamData@@@@@Z$114 0041f83e f   configfilehandler.obj
 0001:0001e844       __unwindfunclet$?ParsePlanList@configFileHandler@@QAEXAAV?$QList@U?$QPair@VQString@@V?$QList@VSingleOperationData@@@@@@@@ABV?$QMap@VQString@@VOperationParamData@@@@@Z$121 0041f844 f   configfilehandler.obj
 0001:0001e84a       __ehhandler$?ParsePlanList@configFileHandler@@QAEXAAV?$QList@U?$QPair@VQString@@V?$QList@VSingleOperationData@@@@@@@@ABV?$QMap@VQString@@VOperationParamData@@@@@Z 0041f84a f   configfilehandler.obj
 0001:0001e870       __unwindfunclet$?ParseWorkPlaceConstraint@configFileHandler@@QAE?AVQJsonArray@@XZ$0 0041f870 f   configfilehandler.obj
 0001:0001e879       __ehhandler$?ParseWorkPlaceConstraint@configFileHandler@@QAE?AVQJsonArray@@XZ 0041f879 f   configfilehandler.obj
 0001:0001e8a0       __unwindfunclet$?ParseWorkSpace@configFileHandler@@QAE?AVQString@@ABVQJsonObject@@@Z$0 0041f8a0 f   configfilehandler.obj
 0001:0001e8a9       __unwindfunclet$?ParseWorkSpace@configFileHandler@@QAE?AVQString@@ABVQJsonObject@@@Z$1 0041f8a9 f   configfilehandler.obj
 0001:0001e8b2       __unwindfunclet$?ParseWorkSpace@configFileHandler@@QAE?AVQString@@ABVQJsonObject@@@Z$2 0041f8b2 f   configfilehandler.obj
 0001:0001e8bb       __unwindfunclet$?ParseWorkSpace@configFileHandler@@QAE?AVQString@@ABVQJsonObject@@@Z$3 0041f8bb f   configfilehandler.obj
 0001:0001e8d5       __unwindfunclet$?ParseWorkSpace@configFileHandler@@QAE?AVQString@@ABVQJsonObject@@@Z$4 0041f8d5 f   configfilehandler.obj
 0001:0001e8de       __unwindfunclet$?ParseWorkSpace@configFileHandler@@QAE?AVQString@@ABVQJsonObject@@@Z$5 0041f8de f   configfilehandler.obj
 0001:0001e8e7       __unwindfunclet$?ParseWorkSpace@configFileHandler@@QAE?AVQString@@ABVQJsonObject@@@Z$6 0041f8e7 f   configfilehandler.obj
 0001:0001e8f0       __unwindfunclet$?ParseWorkSpace@configFileHandler@@QAE?AVQString@@ABVQJsonObject@@@Z$7 0041f8f0 f   configfilehandler.obj
 0001:0001e8f9       __unwindfunclet$?ParseWorkSpace@configFileHandler@@QAE?AVQString@@ABVQJsonObject@@@Z$8 0041f8f9 f   configfilehandler.obj
 0001:0001e902       __unwindfunclet$?ParseWorkSpace@configFileHandler@@QAE?AVQString@@ABVQJsonObject@@@Z$9 0041f902 f   configfilehandler.obj
 0001:0001e90b       __unwindfunclet$?ParseWorkSpace@configFileHandler@@QAE?AVQString@@ABVQJsonObject@@@Z$10 0041f90b f   configfilehandler.obj
 0001:0001e914       __unwindfunclet$?ParseWorkSpace@configFileHandler@@QAE?AVQString@@ABVQJsonObject@@@Z$11 0041f914 f   configfilehandler.obj
 0001:0001e91c       __unwindfunclet$?ParseWorkSpace@configFileHandler@@QAE?AVQString@@ABVQJsonObject@@@Z$12 0041f91c f   configfilehandler.obj
 0001:0001e925       __unwindfunclet$?ParseWorkSpace@configFileHandler@@QAE?AVQString@@ABVQJsonObject@@@Z$13 0041f925 f   configfilehandler.obj
 0001:0001e92e       __unwindfunclet$?ParseWorkSpace@configFileHandler@@QAE?AVQString@@ABVQJsonObject@@@Z$14 0041f92e f   configfilehandler.obj
 0001:0001e937       __unwindfunclet$?ParseWorkSpace@configFileHandler@@QAE?AVQString@@ABVQJsonObject@@@Z$15 0041f937 f   configfilehandler.obj
 0001:0001e940       __unwindfunclet$?ParseWorkSpace@configFileHandler@@QAE?AVQString@@ABVQJsonObject@@@Z$16 0041f940 f   configfilehandler.obj
 0001:0001e949       __unwindfunclet$?ParseWorkSpace@configFileHandler@@QAE?AVQString@@ABVQJsonObject@@@Z$17 0041f949 f   configfilehandler.obj
 0001:0001e952       __unwindfunclet$?ParseWorkSpace@configFileHandler@@QAE?AVQString@@ABVQJsonObject@@@Z$18 0041f952 f   configfilehandler.obj
 0001:0001e95b       __unwindfunclet$?ParseWorkSpace@configFileHandler@@QAE?AVQString@@ABVQJsonObject@@@Z$19 0041f95b f   configfilehandler.obj
 0001:0001e964       __unwindfunclet$?ParseWorkSpace@configFileHandler@@QAE?AVQString@@ABVQJsonObject@@@Z$20 0041f964 f   configfilehandler.obj
 0001:0001e96d       __unwindfunclet$?ParseWorkSpace@configFileHandler@@QAE?AVQString@@ABVQJsonObject@@@Z$21 0041f96d f   configfilehandler.obj
 0001:0001e976       __unwindfunclet$?ParseWorkSpace@configFileHandler@@QAE?AVQString@@ABVQJsonObject@@@Z$32 0041f976 f   configfilehandler.obj
 0001:0001e982       __unwindfunclet$?ParseWorkSpace@configFileHandler@@QAE?AVQString@@ABVQJsonObject@@@Z$22 0041f982 f   configfilehandler.obj
 0001:0001e98b       __unwindfunclet$?ParseWorkSpace@configFileHandler@@QAE?AVQString@@ABVQJsonObject@@@Z$34 0041f98b f   configfilehandler.obj
 0001:0001e991       __ehhandler$?ParseWorkSpace@configFileHandler@@QAE?AVQString@@ABVQJsonObject@@@Z 0041f991 f   configfilehandler.obj
 0001:0001e9b0       __unwindfunclet$?ParseWorkSpaceTypeList@configFileHandler@@QAEXAAVQJsonObject@@@Z$0 0041f9b0 f   configfilehandler.obj
 0001:0001e9b9       __unwindfunclet$?ParseWorkSpaceTypeList@configFileHandler@@QAEXAAVQJsonObject@@@Z$1 0041f9b9 f   configfilehandler.obj
 0001:0001e9c2       __ehhandler$?ParseWorkSpaceTypeList@configFileHandler@@QAEXAAVQJsonObject@@@Z 0041f9c2 f   configfilehandler.obj
 0001:0001e9e0       __unwindfunclet$?SaveMachineConfig@configFileHandler@@QAE_NABVQString@@ABVMachineConfigData@@ABVQJsonObject@@@Z$0 0041f9e0 f   configfilehandler.obj
 0001:0001e9e9       __unwindfunclet$?SaveMachineConfig@configFileHandler@@QAE_NABVQString@@ABVMachineConfigData@@ABVQJsonObject@@@Z$1 0041f9e9 f   configfilehandler.obj
 0001:0001e9f2       __unwindfunclet$?SaveMachineConfig@configFileHandler@@QAE_NABVQString@@ABVMachineConfigData@@ABVQJsonObject@@@Z$2 0041f9f2 f   configfilehandler.obj
 0001:0001e9fb       __unwindfunclet$?SaveMachineConfig@configFileHandler@@QAE_NABVQString@@ABVMachineConfigData@@ABVQJsonObject@@@Z$3 0041f9fb f   configfilehandler.obj
 0001:0001ea04       __unwindfunclet$?SaveMachineConfig@configFileHandler@@QAE_NABVQString@@ABVMachineConfigData@@ABVQJsonObject@@@Z$4 0041fa04 f   configfilehandler.obj
 0001:0001ea0d       __unwindfunclet$?SaveMachineConfig@configFileHandler@@QAE_NABVQString@@ABVMachineConfigData@@ABVQJsonObject@@@Z$5 0041fa0d f   configfilehandler.obj
 0001:0001ea16       __unwindfunclet$?SaveMachineConfig@configFileHandler@@QAE_NABVQString@@ABVMachineConfigData@@ABVQJsonObject@@@Z$6 0041fa16 f   configfilehandler.obj
 0001:0001ea1f       __unwindfunclet$?SaveMachineConfig@configFileHandler@@QAE_NABVQString@@ABVMachineConfigData@@ABVQJsonObject@@@Z$7 0041fa1f f   configfilehandler.obj
 0001:0001ea28       __unwindfunclet$?SaveMachineConfig@configFileHandler@@QAE_NABVQString@@ABVMachineConfigData@@ABVQJsonObject@@@Z$8 0041fa28 f   configfilehandler.obj
 0001:0001ea31       __unwindfunclet$?SaveMachineConfig@configFileHandler@@QAE_NABVQString@@ABVMachineConfigData@@ABVQJsonObject@@@Z$9 0041fa31 f   configfilehandler.obj
 0001:0001ea3a       __unwindfunclet$?SaveMachineConfig@configFileHandler@@QAE_NABVQString@@ABVMachineConfigData@@ABVQJsonObject@@@Z$10 0041fa3a f   configfilehandler.obj
 0001:0001ea43       __unwindfunclet$?SaveMachineConfig@configFileHandler@@QAE_NABVQString@@ABVMachineConfigData@@ABVQJsonObject@@@Z$11 0041fa43 f   configfilehandler.obj
 0001:0001ea4c       __unwindfunclet$?SaveMachineConfig@configFileHandler@@QAE_NABVQString@@ABVMachineConfigData@@ABVQJsonObject@@@Z$12 0041fa4c f   configfilehandler.obj
 0001:0001ea55       __unwindfunclet$?SaveMachineConfig@configFileHandler@@QAE_NABVQString@@ABVMachineConfigData@@ABVQJsonObject@@@Z$13 0041fa55 f   configfilehandler.obj
 0001:0001ea5e       __unwindfunclet$?SaveMachineConfig@configFileHandler@@QAE_NABVQString@@ABVMachineConfigData@@ABVQJsonObject@@@Z$14 0041fa5e f   configfilehandler.obj
 0001:0001ea67       __unwindfunclet$?SaveMachineConfig@configFileHandler@@QAE_NABVQString@@ABVMachineConfigData@@ABVQJsonObject@@@Z$15 0041fa67 f   configfilehandler.obj
 0001:0001ea70       __unwindfunclet$?SaveMachineConfig@configFileHandler@@QAE_NABVQString@@ABVMachineConfigData@@ABVQJsonObject@@@Z$16 0041fa70 f   configfilehandler.obj
 0001:0001ea79       __unwindfunclet$?SaveMachineConfig@configFileHandler@@QAE_NABVQString@@ABVMachineConfigData@@ABVQJsonObject@@@Z$17 0041fa79 f   configfilehandler.obj
 0001:0001ea82       __ehhandler$?SaveMachineConfig@configFileHandler@@QAE_NABVQString@@ABVMachineConfigData@@ABVQJsonObject@@@Z 0041fa82 f   configfilehandler.obj
 0001:0001eaa0       __unwindfunclet$?SavePlanList@configFileHandler@@QAE_NABVQString@@ABV?$QList@U?$QPair@VQString@@V?$QList@VSingleOperationData@@@@@@@@ABV?$QMap@VQString@@VQStringList@@@@@Z$0 0041faa0 f   configfilehandler.obj
 0001:0001eaa9       __unwindfunclet$?SavePlanList@configFileHandler@@QAE_NABVQString@@ABV?$QList@U?$QPair@VQString@@V?$QList@VSingleOperationData@@@@@@@@ABV?$QMap@VQString@@VQStringList@@@@@Z$1 0041faa9 f   configfilehandler.obj
 0001:0001eab2       __unwindfunclet$?SavePlanList@configFileHandler@@QAE_NABVQString@@ABV?$QList@U?$QPair@VQString@@V?$QList@VSingleOperationData@@@@@@@@ABV?$QMap@VQString@@VQStringList@@@@@Z$2 0041fab2 f   configfilehandler.obj
 0001:0001eabb       __unwindfunclet$?SavePlanList@configFileHandler@@QAE_NABVQString@@ABV?$QList@U?$QPair@VQString@@V?$QList@VSingleOperationData@@@@@@@@ABV?$QMap@VQString@@VQStringList@@@@@Z$3 0041fabb f   configfilehandler.obj
 0001:0001eac4       __unwindfunclet$?SavePlanList@configFileHandler@@QAE_NABVQString@@ABV?$QList@U?$QPair@VQString@@V?$QList@VSingleOperationData@@@@@@@@ABV?$QMap@VQString@@VQStringList@@@@@Z$4 0041fac4 f   configfilehandler.obj
 0001:0001eacd       __unwindfunclet$?SavePlanList@configFileHandler@@QAE_NABVQString@@ABV?$QList@U?$QPair@VQString@@V?$QList@VSingleOperationData@@@@@@@@ABV?$QMap@VQString@@VQStringList@@@@@Z$5 0041facd f   configfilehandler.obj
 0001:0001ead6       __unwindfunclet$?SavePlanList@configFileHandler@@QAE_NABVQString@@ABV?$QList@U?$QPair@VQString@@V?$QList@VSingleOperationData@@@@@@@@ABV?$QMap@VQString@@VQStringList@@@@@Z$6 0041fad6 f   configfilehandler.obj
 0001:0001eadf       __unwindfunclet$?SavePlanList@configFileHandler@@QAE_NABVQString@@ABV?$QList@U?$QPair@VQString@@V?$QList@VSingleOperationData@@@@@@@@ABV?$QMap@VQString@@VQStringList@@@@@Z$7 0041fadf f   configfilehandler.obj
 0001:0001eae8       __unwindfunclet$?SavePlanList@configFileHandler@@QAE_NABVQString@@ABV?$QList@U?$QPair@VQString@@V?$QList@VSingleOperationData@@@@@@@@ABV?$QMap@VQString@@VQStringList@@@@@Z$8 0041fae8 f   configfilehandler.obj
 0001:0001eaf1       __unwindfunclet$?SavePlanList@configFileHandler@@QAE_NABVQString@@ABV?$QList@U?$QPair@VQString@@V?$QList@VSingleOperationData@@@@@@@@ABV?$QMap@VQString@@VQStringList@@@@@Z$9 0041faf1 f   configfilehandler.obj
 0001:0001eafa       __unwindfunclet$?SavePlanList@configFileHandler@@QAE_NABVQString@@ABV?$QList@U?$QPair@VQString@@V?$QList@VSingleOperationData@@@@@@@@ABV?$QMap@VQString@@VQStringList@@@@@Z$10 0041fafa f   configfilehandler.obj
 0001:0001eb06       __unwindfunclet$?SavePlanList@configFileHandler@@QAE_NABVQString@@ABV?$QList@U?$QPair@VQString@@V?$QList@VSingleOperationData@@@@@@@@ABV?$QMap@VQString@@VQStringList@@@@@Z$11 0041fb06 f   configfilehandler.obj
 0001:0001eb0f       __unwindfunclet$?SavePlanList@configFileHandler@@QAE_NABVQString@@ABV?$QList@U?$QPair@VQString@@V?$QList@VSingleOperationData@@@@@@@@ABV?$QMap@VQString@@VQStringList@@@@@Z$12 0041fb0f f   configfilehandler.obj
 0001:0001eb18       __unwindfunclet$?SavePlanList@configFileHandler@@QAE_NABVQString@@ABV?$QList@U?$QPair@VQString@@V?$QList@VSingleOperationData@@@@@@@@ABV?$QMap@VQString@@VQStringList@@@@@Z$13 0041fb18 f   configfilehandler.obj
 0001:0001eb21       __unwindfunclet$?SavePlanList@configFileHandler@@QAE_NABVQString@@ABV?$QList@U?$QPair@VQString@@V?$QList@VSingleOperationData@@@@@@@@ABV?$QMap@VQString@@VQStringList@@@@@Z$14 0041fb21 f   configfilehandler.obj
 0001:0001eb2a       __unwindfunclet$?SavePlanList@configFileHandler@@QAE_NABVQString@@ABV?$QList@U?$QPair@VQString@@V?$QList@VSingleOperationData@@@@@@@@ABV?$QMap@VQString@@VQStringList@@@@@Z$15 0041fb2a f   configfilehandler.obj
 0001:0001eb32       __unwindfunclet$?SavePlanList@configFileHandler@@QAE_NABVQString@@ABV?$QList@U?$QPair@VQString@@V?$QList@VSingleOperationData@@@@@@@@ABV?$QMap@VQString@@VQStringList@@@@@Z$17 0041fb32 f   configfilehandler.obj
 0001:0001eb3b       __unwindfunclet$?SavePlanList@configFileHandler@@QAE_NABVQString@@ABV?$QList@U?$QPair@VQString@@V?$QList@VSingleOperationData@@@@@@@@ABV?$QMap@VQString@@VQStringList@@@@@Z$18 0041fb3b f   configfilehandler.obj
 0001:0001eb44       __unwindfunclet$?SavePlanList@configFileHandler@@QAE_NABVQString@@ABV?$QList@U?$QPair@VQString@@V?$QList@VSingleOperationData@@@@@@@@ABV?$QMap@VQString@@VQStringList@@@@@Z$19 0041fb44 f   configfilehandler.obj
 0001:0001eb50       __unwindfunclet$?SavePlanList@configFileHandler@@QAE_NABVQString@@ABV?$QList@U?$QPair@VQString@@V?$QList@VSingleOperationData@@@@@@@@ABV?$QMap@VQString@@VQStringList@@@@@Z$16 0041fb50 f   configfilehandler.obj
 0001:0001eb5c       __unwindfunclet$?SavePlanList@configFileHandler@@QAE_NABVQString@@ABV?$QList@U?$QPair@VQString@@V?$QList@VSingleOperationData@@@@@@@@ABV?$QMap@VQString@@VQStringList@@@@@Z$52 0041fb5c f   configfilehandler.obj
 0001:0001eb62       __unwindfunclet$?SavePlanList@configFileHandler@@QAE_NABVQString@@ABV?$QList@U?$QPair@VQString@@V?$QList@VSingleOperationData@@@@@@@@ABV?$QMap@VQString@@VQStringList@@@@@Z$60 0041fb62 f   configfilehandler.obj
 0001:0001eb68       __unwindfunclet$?SavePlanList@configFileHandler@@QAE_NABVQString@@ABV?$QList@U?$QPair@VQString@@V?$QList@VSingleOperationData@@@@@@@@ABV?$QMap@VQString@@VQStringList@@@@@Z$68 0041fb68 f   configfilehandler.obj
 0001:0001eb6e       __unwindfunclet$?SavePlanList@configFileHandler@@QAE_NABVQString@@ABV?$QList@U?$QPair@VQString@@V?$QList@VSingleOperationData@@@@@@@@ABV?$QMap@VQString@@VQStringList@@@@@Z$20 0041fb6e f   configfilehandler.obj
 0001:0001eb7a       __unwindfunclet$?SavePlanList@configFileHandler@@QAE_NABVQString@@ABV?$QList@U?$QPair@VQString@@V?$QList@VSingleOperationData@@@@@@@@ABV?$QMap@VQString@@VQStringList@@@@@Z$21 0041fb7a f   configfilehandler.obj
 0001:0001eb83       __unwindfunclet$?SavePlanList@configFileHandler@@QAE_NABVQString@@ABV?$QList@U?$QPair@VQString@@V?$QList@VSingleOperationData@@@@@@@@ABV?$QMap@VQString@@VQStringList@@@@@Z$22 0041fb83 f   configfilehandler.obj
 0001:0001eb8f       __unwindfunclet$?SavePlanList@configFileHandler@@QAE_NABVQString@@ABV?$QList@U?$QPair@VQString@@V?$QList@VSingleOperationData@@@@@@@@ABV?$QMap@VQString@@VQStringList@@@@@Z$23 0041fb8f f   configfilehandler.obj
 0001:0001eb9b       __unwindfunclet$?SavePlanList@configFileHandler@@QAE_NABVQString@@ABV?$QList@U?$QPair@VQString@@V?$QList@VSingleOperationData@@@@@@@@ABV?$QMap@VQString@@VQStringList@@@@@Z$24 0041fb9b f   configfilehandler.obj
 0001:0001eba4       __unwindfunclet$?SavePlanList@configFileHandler@@QAE_NABVQString@@ABV?$QList@U?$QPair@VQString@@V?$QList@VSingleOperationData@@@@@@@@ABV?$QMap@VQString@@VQStringList@@@@@Z$25 0041fba4 f   configfilehandler.obj
 0001:0001ebb0       __unwindfunclet$?SavePlanList@configFileHandler@@QAE_NABVQString@@ABV?$QList@U?$QPair@VQString@@V?$QList@VSingleOperationData@@@@@@@@ABV?$QMap@VQString@@VQStringList@@@@@Z$26 0041fbb0 f   configfilehandler.obj
 0001:0001ebb9       __unwindfunclet$?SavePlanList@configFileHandler@@QAE_NABVQString@@ABV?$QList@U?$QPair@VQString@@V?$QList@VSingleOperationData@@@@@@@@ABV?$QMap@VQString@@VQStringList@@@@@Z$27 0041fbb9 f   configfilehandler.obj
 0001:0001ebc2       __unwindfunclet$?SavePlanList@configFileHandler@@QAE_NABVQString@@ABV?$QList@U?$QPair@VQString@@V?$QList@VSingleOperationData@@@@@@@@ABV?$QMap@VQString@@VQStringList@@@@@Z$28 0041fbc2 f   configfilehandler.obj
 0001:0001ebcb       __unwindfunclet$?SavePlanList@configFileHandler@@QAE_NABVQString@@ABV?$QList@U?$QPair@VQString@@V?$QList@VSingleOperationData@@@@@@@@ABV?$QMap@VQString@@VQStringList@@@@@Z$29 0041fbcb f   configfilehandler.obj
 0001:0001ebd4       __unwindfunclet$?SavePlanList@configFileHandler@@QAE_NABVQString@@ABV?$QList@U?$QPair@VQString@@V?$QList@VSingleOperationData@@@@@@@@ABV?$QMap@VQString@@VQStringList@@@@@Z$30 0041fbd4 f   configfilehandler.obj
 0001:0001ebdd       __unwindfunclet$?SavePlanList@configFileHandler@@QAE_NABVQString@@ABV?$QList@U?$QPair@VQString@@V?$QList@VSingleOperationData@@@@@@@@ABV?$QMap@VQString@@VQStringList@@@@@Z$31 0041fbdd f   configfilehandler.obj
 0001:0001ebe6       __ehhandler$?SavePlanList@configFileHandler@@QAE_NABVQString@@ABV?$QList@U?$QPair@VQString@@V?$QList@VSingleOperationData@@@@@@@@ABV?$QMap@VQString@@VQStringList@@@@@Z 0041fbe6 f   configfilehandler.obj
 0001:0001ec10       __unwindfunclet$?append@?$QList@U?$QPair@VQString@@V?$QList@VSingleOperationData@@@@@@@@QAEXABU?$QPair@VQString@@V?$QList@VSingleOperationData@@@@@@@Z$9 0041fc10 f   configfilehandler.obj
 0001:0001ec1f       __unwindfunclet$?append@?$QList@U?$QPair@VQString@@V?$QList@VSingleOperationData@@@@@@@@QAEXABU?$QPair@VQString@@V?$QList@VSingleOperationData@@@@@@@Z$11 0041fc1f f   configfilehandler.obj
 0001:0001ec28       __unwindfunclet$?append@?$QList@U?$QPair@VQString@@V?$QList@VSingleOperationData@@@@@@@@QAEXABU?$QPair@VQString@@V?$QList@VSingleOperationData@@@@@@@Z$15 0041fc28 f   configfilehandler.obj
 0001:0001ec37       __unwindfunclet$?append@?$QList@U?$QPair@VQString@@V?$QList@VSingleOperationData@@@@@@@@QAEXABU?$QPair@VQString@@V?$QList@VSingleOperationData@@@@@@@Z$17 0041fc37 f   configfilehandler.obj
 0001:0001ec40       __ehhandler$?append@?$QList@U?$QPair@VQString@@V?$QList@VSingleOperationData@@@@@@@@QAEXABU?$QPair@VQString@@V?$QList@VSingleOperationData@@@@@@@Z 0041fc40 f   configfilehandler.obj
 0001:0001ec60       __unwindfunclet$?append@?$QList@VOperationParamData@@@@QAEXABVOperationParamData@@@Z$9 0041fc60 f   configfilehandler.obj
 0001:0001ec6f       __unwindfunclet$?append@?$QList@VOperationParamData@@@@QAEXABVOperationParamData@@@Z$11 0041fc6f f   configfilehandler.obj
 0001:0001ec7e       __ehhandler$?append@?$QList@VOperationParamData@@@@QAEXABVOperationParamData@@@Z 0041fc7e f   configfilehandler.obj
 0001:0001eca0       __unwindfunclet$?append@?$QList@VSingleOperationData@@@@QAEXABVSingleOperationData@@@Z$9 0041fca0 f   configfilehandler.obj
 0001:0001ecaf       __unwindfunclet$?append@?$QList@VSingleOperationData@@@@QAEXABVSingleOperationData@@@Z$11 0041fcaf f   configfilehandler.obj
 0001:0001ecb8       __unwindfunclet$?append@?$QList@VSingleOperationData@@@@QAEXABVSingleOperationData@@@Z$15 0041fcb8 f   configfilehandler.obj
 0001:0001ecc7       __unwindfunclet$?append@?$QList@VSingleOperationData@@@@QAEXABVSingleOperationData@@@Z$17 0041fcc7 f   configfilehandler.obj
 0001:0001ecd0       __ehhandler$?append@?$QList@VSingleOperationData@@@@QAEXABVSingleOperationData@@@Z 0041fcd0 f   configfilehandler.obj
 0001:0001ecf0       __unwindfunclet$?createNode@?$QMapData@VQString@@VOperationParamData@@@@QAEPAU?$QMapNode@VQString@@VOperationParamData@@@@ABVQString@@ABVOperationParamData@@PAU2@_N@Z$4 0041fcf0 f   configfilehandler.obj
 0001:0001ed04       __ehhandler$?createNode@?$QMapData@VQString@@VOperationParamData@@@@QAEPAU?$QMapNode@VQString@@VOperationParamData@@@@ABVQString@@ABVOperationParamData@@PAU2@_N@Z 0041fd04 f   configfilehandler.obj
 0001:0001ed20       __unwindfunclet$?createNode@?$QMapData@VQString@@VQStringList@@@@QAEPAU?$QMapNode@VQString@@VQStringList@@@@ABVQString@@ABVQStringList@@PAU2@_N@Z$4 0041fd20 f   configfilehandler.obj
 0001:0001ed34       __ehhandler$?createNode@?$QMapData@VQString@@VQStringList@@@@QAEPAU?$QMapNode@VQString@@VQStringList@@@@ABVQString@@ABVQStringList@@PAU2@_N@Z 0041fd34 f   configfilehandler.obj
 0001:0001ed50       __ehhandler$?detach_helper@?$QList@VQByteArray@@@@AAEXH@Z 0041fd50 f   configfilehandler.obj
 0001:0001ed70       __ehhandler$?detach_helper@?$QList@VQString@@@@AAEXH@Z 0041fd70 f   configfilehandler.obj
 0001:0001ed90       __ehhandler$?detach_helper_grow@?$QList@U?$QPair@VQString@@V?$QList@VSingleOperationData@@@@@@@@AAEPAUNode@1@HH@Z 0041fd90 f   configfilehandler.obj
 0001:0001edb0       __ehhandler$?detach_helper_grow@?$QList@VOperationParamData@@@@AAEPAUNode@1@HH@Z 0041fdb0 f   configfilehandler.obj
 0001:0001edd0       __ehhandler$?detach_helper_grow@?$QList@VSingleOperationData@@@@AAEPAUNode@1@HH@Z 0041fdd0 f   configfilehandler.obj
 0001:0001edf0       __unwindfunclet$?loadConfigFile@configFileHandler@@QAE_NABVQString@@@Z$0 0041fdf0 f   configfilehandler.obj
 0001:0001edf9       __unwindfunclet$?loadConfigFile@configFileHandler@@QAE_NABVQString@@@Z$1 0041fdf9 f   configfilehandler.obj
 0001:0001ee02       __unwindfunclet$?loadConfigFile@configFileHandler@@QAE_NABVQString@@@Z$2 0041fe02 f   configfilehandler.obj
 0001:0001ee0b       __unwindfunclet$?loadConfigFile@configFileHandler@@QAE_NABVQString@@@Z$3 0041fe0b f   configfilehandler.obj
 0001:0001ee14       __ehhandler$?loadConfigFile@configFileHandler@@QAE_NABVQString@@@Z 0041fe14 f   configfilehandler.obj
 0001:0001ee30       __unwindfunclet$?node_copy@?$QList@U?$QPair@VQString@@V?$QList@VSingleOperationData@@@@@@@@AAEXPAUNode@1@00@Z$4 0041fe30 f   configfilehandler.obj
 0001:0001ee3f       __unwindfunclet$?node_copy@?$QList@U?$QPair@VQString@@V?$QList@VSingleOperationData@@@@@@@@AAEXPAUNode@1@00@Z$6 0041fe3f f   configfilehandler.obj
 0001:0001ee48       __ehhandler$?node_copy@?$QList@U?$QPair@VQString@@V?$QList@VSingleOperationData@@@@@@@@AAEXPAUNode@1@00@Z 0041fe48 f   configfilehandler.obj
 0001:0001ee70       __unwindfunclet$?node_copy@?$QList@VOperationParamData@@@@AAEXPAUNode@1@00@Z$4 0041fe70 f   configfilehandler.obj
 0001:0001ee7f       __ehhandler$?node_copy@?$QList@VOperationParamData@@@@AAEXPAUNode@1@00@Z 0041fe7f f   configfilehandler.obj
 0001:0001eea0       __unwindfunclet$?node_copy@?$QList@VSingleOperationData@@@@AAEXPAUNode@1@00@Z$4 0041fea0 f   configfilehandler.obj
 0001:0001eeaf       __unwindfunclet$?node_copy@?$QList@VSingleOperationData@@@@AAEXPAUNode@1@00@Z$6 0041feaf f   configfilehandler.obj
 0001:0001eeb8       __ehhandler$?node_copy@?$QList@VSingleOperationData@@@@AAEXPAUNode@1@00@Z 0041feb8 f   configfilehandler.obj
 0001:0001eee0       __unwindfunclet$?node_destruct@?$QList@U?$QPair@VQString@@V?$QList@VSingleOperationData@@@@@@@@AAEXPAUNode@1@0@Z$2 0041fee0 f   configfilehandler.obj
 0001:0001eee0       __unwindfunclet$?node_destruct@?$QList@VSingleOperationData@@@@AAEXPAUNode@1@0@Z$2 0041fee0 f   configfilehandler.obj
 0001:0001eee6       __ehhandler$?node_destruct@?$QList@U?$QPair@VQString@@V?$QList@VSingleOperationData@@@@@@@@AAEXPAUNode@1@0@Z 0041fee6 f   configfilehandler.obj
 0001:0001eee6       __ehhandler$?node_destruct@?$QList@VSingleOperationData@@@@AAEXPAUNode@1@0@Z 0041fee6 f   configfilehandler.obj
 0001:0001ef10       __unwindfunclet$?node_destruct@?$QList@VSingleOperationData@@@@AAEXPAUNode@1@@Z$2 0041ff10 f   configfilehandler.obj
 0001:0001ef16       __ehhandler$?node_destruct@?$QList@VSingleOperationData@@@@AAEXPAUNode@1@@Z 0041ff16 f   configfilehandler.obj
 0001:0001ef40       __unwindfunclet$?toList@configFileHandler@@QAE?AVQStringList@@ABVQString@@@Z$0 0041ff40 f   configfilehandler.obj
 0001:0001ef59       __unwindfunclet$?toList@configFileHandler@@QAE?AVQStringList@@ABVQString@@@Z$1 0041ff59 f   configfilehandler.obj
 0001:0001ef62       __unwindfunclet$?toList@configFileHandler@@QAE?AVQStringList@@ABVQString@@@Z$2 0041ff62 f   configfilehandler.obj
 0001:0001ef6b       __ehhandler$?toList@configFileHandler@@QAE?AVQStringList@@ABVQString@@@Z 0041ff6b f   configfilehandler.obj
 0001:0001ef90       __unwindfunclet$??0EnvironmentVariant@@AAE@XZ$0 0041ff90 f   environmentvariant.obj
 0001:0001ef99       __unwindfunclet$??0EnvironmentVariant@@AAE@XZ$1 0041ff99 f   environmentvariant.obj
 0001:0001efa4       __unwindfunclet$??0EnvironmentVariant@@AAE@XZ$2 0041ffa4 f   environmentvariant.obj
 0001:0001efaf       __unwindfunclet$??0EnvironmentVariant@@AAE@XZ$3 0041ffaf f   environmentvariant.obj
 0001:0001efba       __unwindfunclet$??0EnvironmentVariant@@AAE@XZ$4 0041ffba f   environmentvariant.obj
 0001:0001efc5       __unwindfunclet$??0EnvironmentVariant@@AAE@XZ$5 0041ffc5 f   environmentvariant.obj
 0001:0001efd0       __unwindfunclet$??0EnvironmentVariant@@AAE@XZ$6 0041ffd0 f   environmentvariant.obj
 0001:0001efdb       __unwindfunclet$??0EnvironmentVariant@@AAE@XZ$7 0041ffdb f   environmentvariant.obj
 0001:0001efe6       __unwindfunclet$??0EnvironmentVariant@@AAE@XZ$8 0041ffe6 f   environmentvariant.obj
 0001:0001eff2       __unwindfunclet$??0EnvironmentVariant@@AAE@XZ$9 0041fff2 f   environmentvariant.obj
 0001:0001effd       __unwindfunclet$??0EnvironmentVariant@@AAE@XZ$10 0041fffd f   environmentvariant.obj
 0001:0001f008       __unwindfunclet$??0EnvironmentVariant@@AAE@XZ$11 00420008 f   environmentvariant.obj
 0001:0001f014       __unwindfunclet$??0EnvironmentVariant@@AAE@XZ$12 00420014 f   environmentvariant.obj
 0001:0001f01f       __unwindfunclet$??0EnvironmentVariant@@AAE@XZ$13 0042001f f   environmentvariant.obj
 0001:0001f02a       __unwindfunclet$??0EnvironmentVariant@@AAE@XZ$14 0042002a f   environmentvariant.obj
 0001:0001f036       __ehhandler$??0EnvironmentVariant@@AAE@XZ 00420036 f   environmentvariant.obj
 0001:0001f060       __unwindfunclet$??1EnvironmentVariant@@EAE@XZ$3 00420060 f   environmentvariant.obj
 0001:0001f066       __unwindfunclet$??1EnvironmentVariant@@EAE@XZ$10 00420066 f   environmentvariant.obj
 0001:0001f06c       __unwindfunclet$??1EnvironmentVariant@@EAE@XZ$16 0042006c f   environmentvariant.obj
 0001:0001f072       __ehhandler$??1EnvironmentVariant@@EAE@XZ 00420072 f   environmentvariant.obj
 0001:0001f090       __unwindfunclet$??4SingleOperationData@@QAEAAV0@ABV0@@Z$7 00420090 f   environmentvariant.obj
 0001:0001f090       __unwindfunclet$??4?$QList@VSingleOperationData@@@@QAEAAV0@ABV0@@Z$7 00420090 f   environmentvariant.obj
 0001:0001f090       __unwindfunclet$?clear@?$QList@U?$QPair@VQString@@V?$QList@VSingleOperationData@@@@@@@@QAEXXZ$2 00420090 f   configfilehandler.obj
 0001:0001f096       __ehhandler$?clear@?$QList@U?$QPair@VQString@@V?$QList@VSingleOperationData@@@@@@@@QAEXXZ 00420096 f   configfilehandler.obj
 0001:0001f096       __ehhandler$??4SingleOperationData@@QAEAAV0@ABV0@@Z 00420096 f   environmentvariant.obj
 0001:0001f096       __ehhandler$??4?$QList@VSingleOperationData@@@@QAEAAV0@ABV0@@Z 00420096 f   environmentvariant.obj
 0001:0001f0c0       __ehhandler$??Y?$QList@VQString@@@@QAEAAV0@ABV0@@Z 004200c0 f   environmentvariant.obj
 0001:0001f0e0       __unwindfunclet$?AddPlan@EnvironmentVariant@@QAEXABVQString@@@Z$0 004200e0 f   environmentvariant.obj
 0001:0001f0e8       __unwindfunclet$?AddPlan@EnvironmentVariant@@QAEXABVQString@@@Z$1 004200e8 f   environmentvariant.obj
 0001:0001f0f0       __unwindfunclet$?AddPlan@EnvironmentVariant@@QAEXABVQString@@@Z$4 004200f0 f   environmentvariant.obj
 0001:0001f0f6       __unwindfunclet$?AddPlan@EnvironmentVariant@@QAEXABVQString@@@Z$11 004200f6 f   environmentvariant.obj
 0001:0001f0fc       __ehhandler$?AddPlan@EnvironmentVariant@@QAEXABVQString@@@Z 004200fc f   environmentvariant.obj
 0001:0001f120       __unwindfunclet$?AddPlanStep@EnvironmentVariant@@QAEXHHH@Z$6 00420120 f   environmentvariant.obj
 0001:0001f129       __unwindfunclet$?AddPlanStep@EnvironmentVariant@@QAEXHHH@Z$0 00420129 f   environmentvariant.obj
 0001:0001f131       __unwindfunclet$?AddPlanStep@EnvironmentVariant@@QAEXHHH@Z$1 00420131 f   environmentvariant.obj
 0001:0001f139       __unwindfunclet$?AddPlanStep@EnvironmentVariant@@QAEXHHH@Z$16 00420139 f   environmentvariant.obj
 0001:0001f13f       __ehhandler$?AddPlanStep@EnvironmentVariant@@QAEXHHH@Z 0042013f f   environmentvariant.obj
 0001:0001f160       __unwindfunclet$?ImportConfig@EnvironmentVariant@@QAE_NABVQString@@@Z$0 00420160 f   environmentvariant.obj
 0001:0001f160       __unwindfunclet$?ExportConfig@EnvironmentVariant@@QAE_NABVQString@@@Z$0 00420160 f   environmentvariant.obj
 0001:0001f169       __unwindfunclet$?ImportConfig@EnvironmentVariant@@QAE_NABVQString@@@Z$1 00420169 f   environmentvariant.obj
 0001:0001f169       __unwindfunclet$?ExportConfig@EnvironmentVariant@@QAE_NABVQString@@@Z$1 00420169 f   environmentvariant.obj
 0001:0001f171       __ehhandler$?ImportConfig@EnvironmentVariant@@QAE_NABVQString@@@Z 00420171 f   environmentvariant.obj
 0001:0001f171       __ehhandler$?ExportConfig@EnvironmentVariant@@QAE_NABVQString@@@Z 00420171 f   environmentvariant.obj
 0001:0001f190       __unwindfunclet$?MovePlanStep@EnvironmentVariant@@QAEXHHH@Z$0 00420190 f   environmentvariant.obj
 0001:0001f190       __unwindfunclet$?SetPlanStepToDefault@EnvironmentVariant@@QAEXHHH@Z$0 00420190 f   environmentvariant.obj
 0001:0001f198       __ehhandler$?MovePlanStep@EnvironmentVariant@@QAEXHHH@Z 00420198 f   environmentvariant.obj
 0001:0001f198       __ehhandler$?SetPlanStepToDefault@EnvironmentVariant@@QAEXHHH@Z 00420198 f   environmentvariant.obj
 0001:0001f1c0       __unwindfunclet$?OperationNameList@EnvironmentVariant@@QAE?AVQStringList@@XZ$0 004201c0 f   environmentvariant.obj
 0001:0001f1c0       __unwindfunclet$?LogicalControlList@EnvironmentVariant@@QAE?AVQStringList@@XZ$0 004201c0 f   environmentvariant.obj
 0001:0001f1d9       __unwindfunclet$?OperationNameList@EnvironmentVariant@@QAE?AVQStringList@@XZ$1 004201d9 f   environmentvariant.obj
 0001:0001f1d9       __unwindfunclet$?LogicalControlList@EnvironmentVariant@@QAE?AVQStringList@@XZ$1 004201d9 f   environmentvariant.obj
 0001:0001f1e1       __unwindfunclet$?LogicalControlList@EnvironmentVariant@@QAE?AVQStringList@@XZ$13 004201e1 f   environmentvariant.obj
 0001:0001f1e1       __unwindfunclet$?OperationNameList@EnvironmentVariant@@QAE?AVQStringList@@XZ$13 004201e1 f   environmentvariant.obj
 0001:0001f1e7       __ehhandler$?LogicalControlList@EnvironmentVariant@@QAE?AVQStringList@@XZ 004201e7 f   environmentvariant.obj
 0001:0001f1e7       __ehhandler$?OperationNameList@EnvironmentVariant@@QAE?AVQStringList@@XZ 004201e7 f   environmentvariant.obj
 0001:0001f210       __unwindfunclet$?PlanList@EnvironmentVariant@@QAE?AVQStringList@@XZ$0 00420210 f   environmentvariant.obj
 0001:0001f229       __ehhandler$?PlanList@EnvironmentVariant@@QAE?AVQStringList@@XZ 00420229 f   environmentvariant.obj
 0001:0001f250       __unwindfunclet$?SaveMachineConfig@EnvironmentVariant@@QAE_NABVMachineConfigData@@@Z$0 00420250 f   environmentvariant.obj
 0001:0001f258       __ehhandler$?SaveMachineConfig@EnvironmentVariant@@QAE_NABVMachineConfigData@@@Z 00420258 f   environmentvariant.obj
 0001:0001f280       __unwindfunclet$?SavePlan@EnvironmentVariant@@QAE_NXZ$0 00420280 f   environmentvariant.obj
 0001:0001f288       __ehhandler$?SavePlan@EnvironmentVariant@@QAE_NXZ 00420288 f   environmentvariant.obj
 0001:0001f2b0       __unwindfunclet$?StartPlan@EnvironmentVariant@@QAEXHH@Z$0 004202b0 f   environmentvariant.obj
 0001:0001f2b9       __unwindfunclet$?StartPlan@EnvironmentVariant@@QAEXHH@Z$1 004202b9 f   environmentvariant.obj
 0001:0001f2c2       __unwindfunclet$?StartPlan@EnvironmentVariant@@QAEXHH@Z$2 004202c2 f   environmentvariant.obj
 0001:0001f2ca       __unwindfunclet$?StartPlan@EnvironmentVariant@@QAEXHH@Z$3 004202ca f   environmentvariant.obj
 0001:0001f2d3       __unwindfunclet$?StartPlan@EnvironmentVariant@@QAEXHH@Z$4 004202d3 f   environmentvariant.obj
 0001:0001f2dc       __unwindfunclet$?StartPlan@EnvironmentVariant@@QAEXHH@Z$5 004202dc f   environmentvariant.obj
 0001:0001f2e5       __unwindfunclet$?StartPlan@EnvironmentVariant@@QAEXHH@Z$6 004202e5 f   environmentvariant.obj
 0001:0001f2ee       __unwindfunclet$?StartPlan@EnvironmentVariant@@QAEXHH@Z$7 004202ee f   environmentvariant.obj
 0001:0001f2f7       __unwindfunclet$?StartPlan@EnvironmentVariant@@QAEXHH@Z$8 004202f7 f   environmentvariant.obj
 0001:0001f300       __unwindfunclet$?StartPlan@EnvironmentVariant@@QAEXHH@Z$9 00420300 f   environmentvariant.obj
 0001:0001f308       __unwindfunclet$?StartPlan@EnvironmentVariant@@QAEXHH@Z$10 00420308 f   environmentvariant.obj
 0001:0001f311       __unwindfunclet$?StartPlan@EnvironmentVariant@@QAEXHH@Z$11 00420311 f   environmentvariant.obj
 0001:0001f31a       __unwindfunclet$?StartPlan@EnvironmentVariant@@QAEXHH@Z$12 0042031a f   environmentvariant.obj
 0001:0001f323       __unwindfunclet$?StartPlan@EnvironmentVariant@@QAEXHH@Z$13 00420323 f   environmentvariant.obj
 0001:0001f32c       __unwindfunclet$?StartPlan@EnvironmentVariant@@QAEXHH@Z$14 0042032c f   environmentvariant.obj
 0001:0001f338       __unwindfunclet$?StartPlan@EnvironmentVariant@@QAEXHH@Z$41 00420338 f   environmentvariant.obj
 0001:0001f33e       __unwindfunclet$?StartPlan@EnvironmentVariant@@QAEXHH@Z$49 0042033e f   environmentvariant.obj
 0001:0001f344       __unwindfunclet$?StartPlan@EnvironmentVariant@@QAEXHH@Z$57 00420344 f   environmentvariant.obj
 0001:0001f34a       __unwindfunclet$?StartPlan@EnvironmentVariant@@QAEXHH@Z$15 0042034a f   environmentvariant.obj
 0001:0001f356       __unwindfunclet$?StartPlan@EnvironmentVariant@@QAEXHH@Z$16 00420356 f   environmentvariant.obj
 0001:0001f35f       __unwindfunclet$?StartPlan@EnvironmentVariant@@QAEXHH@Z$17 0042035f f   environmentvariant.obj
 0001:0001f368       __unwindfunclet$?StartPlan@EnvironmentVariant@@QAEXHH@Z$87 00420368 f   environmentvariant.obj
 0001:0001f36e       __unwindfunclet$?StartPlan@EnvironmentVariant@@QAEXHH@Z$18 0042036e f   environmentvariant.obj
 0001:0001f377       __unwindfunclet$?StartPlan@EnvironmentVariant@@QAEXHH@Z$19 00420377 f   environmentvariant.obj
 0001:0001f380       __unwindfunclet$?StartPlan@EnvironmentVariant@@QAEXHH@Z$20 00420380 f   environmentvariant.obj
 0001:0001f389       __unwindfunclet$?StartPlan@EnvironmentVariant@@QAEXHH@Z$21 00420389 f   environmentvariant.obj
 0001:0001f392       __unwindfunclet$?StartPlan@EnvironmentVariant@@QAEXHH@Z$22 00420392 f   environmentvariant.obj
 0001:0001f39b       __unwindfunclet$?StartPlan@EnvironmentVariant@@QAEXHH@Z$23 0042039b f   environmentvariant.obj
 0001:0001f3a4       __unwindfunclet$?StartPlan@EnvironmentVariant@@QAEXHH@Z$94 004203a4 f   environmentvariant.obj
 0001:0001f3ad       __ehhandler$?StartPlan@EnvironmentVariant@@QAEXHH@Z 004203ad f   environmentvariant.obj
 0001:0001f3d0       __unwindfunclet$?StartTunning@EnvironmentVariant@@QAEXABVSingleOperationData@@@Z$1 004203d0 f   environmentvariant.obj
 0001:0001f3e2       __unwindfunclet$?StartTunning@EnvironmentVariant@@QAEXABVSingleOperationData@@@Z$0 004203e2 f   environmentvariant.obj
 0001:0001f3eb       __unwindfunclet$?StartTunning@EnvironmentVariant@@QAEXABVSingleOperationData@@@Z$2 004203eb f   environmentvariant.obj
 0001:0001f3fd       __unwindfunclet$?StartTunning@EnvironmentVariant@@QAEXABVSingleOperationData@@@Z$3 004203fd f   environmentvariant.obj
 0001:0001f406       __ehhandler$?StartTunning@EnvironmentVariant@@QAEXABVSingleOperationData@@@Z 00420406 f   environmentvariant.obj
 0001:0001f430       __unwindfunclet$?StepList@EnvironmentVariant@@QAE?AVQStringList@@H@Z$0 00420430 f   environmentvariant.obj
 0001:0001f449       __unwindfunclet$?StepList@EnvironmentVariant@@QAE?AVQStringList@@H@Z$1 00420449 f   environmentvariant.obj
 0001:0001f451       __unwindfunclet$?StepList@EnvironmentVariant@@QAE?AVQStringList@@H@Z$2 00420451 f   environmentvariant.obj
 0001:0001f45a       __unwindfunclet$?StepList@EnvironmentVariant@@QAE?AVQStringList@@H@Z$3 0042045a f   environmentvariant.obj
 0001:0001f462       __unwindfunclet$?StepList@EnvironmentVariant@@QAE?AVQStringList@@H@Z$26 00420462 f   environmentvariant.obj
 0001:0001f468       __unwindfunclet$?StepList@EnvironmentVariant@@QAE?AVQStringList@@H@Z$34 00420468 f   environmentvariant.obj
 0001:0001f46e       __unwindfunclet$?StepList@EnvironmentVariant@@QAE?AVQStringList@@H@Z$42 0042046e f   environmentvariant.obj
 0001:0001f474       __unwindfunclet$?StepList@EnvironmentVariant@@QAE?AVQStringList@@H@Z$4 00420474 f   environmentvariant.obj
 0001:0001f47d       __unwindfunclet$?StepList@EnvironmentVariant@@QAE?AVQStringList@@H@Z$5 0042047d f   environmentvariant.obj
 0001:0001f486       __unwindfunclet$?StepList@EnvironmentVariant@@QAE?AVQStringList@@H@Z$6 00420486 f   environmentvariant.obj
 0001:0001f48f       __unwindfunclet$?StepList@EnvironmentVariant@@QAE?AVQStringList@@H@Z$72 0042048f f   environmentvariant.obj
 0001:0001f495       __ehhandler$?StepList@EnvironmentVariant@@QAE?AVQStringList@@H@Z 00420495 f   environmentvariant.obj
 0001:0001f4b0       __unwindfunclet$?defaultValue@EnvironmentVariant@@QAE?AVSingleOperationData@@ABVQString@@@Z$0 004204b0 f   environmentvariant.obj
 0001:0001f4b8       __unwindfunclet$?defaultValue@EnvironmentVariant@@QAE?AVSingleOperationData@@ABVQString@@@Z$1 004204b8 f   environmentvariant.obj
 0001:0001f4c0       __unwindfunclet$?defaultValue@EnvironmentVariant@@QAE?AVSingleOperationData@@ABVQString@@@Z$14 004204c0 f   environmentvariant.obj
 0001:0001f4c6       __unwindfunclet$?defaultValue@EnvironmentVariant@@QAE?AVSingleOperationData@@ABVQString@@@Z$26 004204c6 f   environmentvariant.obj
 0001:0001f4cc       __ehhandler$?defaultValue@EnvironmentVariant@@QAE?AVSingleOperationData@@ABVQString@@@Z 004204cc f   environmentvariant.obj
 0001:0001f4f0       __ehhandler$?detach_helper@?$QList@H@@AAEXH@Z 004204f0 f   environmentvariant.obj
 0001:0001f510       __ehhandler$?detach_helper@?$QList@U?$QPair@VQString@@V?$QList@VSingleOperationData@@@@@@@@AAEXH@Z 00420510 f   environmentvariant.obj
 0001:0001f530       __ehhandler$?detach_helper@?$QList@VOperationParamData@@@@AAEXH@Z 00420530 f   environmentvariant.obj
 0001:0001f550       __ehhandler$?detach_helper@?$QList@VSingleOperationData@@@@AAEXH@Z 00420550 f   environmentvariant.obj
 0001:0001f570       __unwindfunclet$?formatSingleOperationParam@EnvironmentVariant@@QAE?AVQJsonObject@@ABVSingleOperationData@@@Z$0 00420570 f   environmentvariant.obj
 0001:0001f58a       __unwindfunclet$?formatSingleOperationParam@EnvironmentVariant@@QAE?AVQJsonObject@@ABVSingleOperationData@@@Z$1 0042058a f   environmentvariant.obj
 0001:0001f593       __unwindfunclet$?formatSingleOperationParam@EnvironmentVariant@@QAE?AVQJsonObject@@ABVSingleOperationData@@@Z$2 00420593 f   environmentvariant.obj
 0001:0001f59c       __unwindfunclet$?formatSingleOperationParam@EnvironmentVariant@@QAE?AVQJsonObject@@ABVSingleOperationData@@@Z$3 0042059c f   environmentvariant.obj
 0001:0001f5a5       __unwindfunclet$?formatSingleOperationParam@EnvironmentVariant@@QAE?AVQJsonObject@@ABVSingleOperationData@@@Z$4 004205a5 f   environmentvariant.obj
 0001:0001f5ae       __unwindfunclet$?formatSingleOperationParam@EnvironmentVariant@@QAE?AVQJsonObject@@ABVSingleOperationData@@@Z$5 004205ae f   environmentvariant.obj
 0001:0001f5b7       __unwindfunclet$?formatSingleOperationParam@EnvironmentVariant@@QAE?AVQJsonObject@@ABVSingleOperationData@@@Z$6 004205b7 f   environmentvariant.obj
 0001:0001f5c0       __unwindfunclet$?formatSingleOperationParam@EnvironmentVariant@@QAE?AVQJsonObject@@ABVSingleOperationData@@@Z$7 004205c0 f   environmentvariant.obj
 0001:0001f5c8       __unwindfunclet$?formatSingleOperationParam@EnvironmentVariant@@QAE?AVQJsonObject@@ABVSingleOperationData@@@Z$8 004205c8 f   environmentvariant.obj
 0001:0001f5d1       __unwindfunclet$?formatSingleOperationParam@EnvironmentVariant@@QAE?AVQJsonObject@@ABVSingleOperationData@@@Z$9 004205d1 f   environmentvariant.obj
 0001:0001f5da       __unwindfunclet$?formatSingleOperationParam@EnvironmentVariant@@QAE?AVQJsonObject@@ABVSingleOperationData@@@Z$10 004205da f   environmentvariant.obj
 0001:0001f5e3       __unwindfunclet$?formatSingleOperationParam@EnvironmentVariant@@QAE?AVQJsonObject@@ABVSingleOperationData@@@Z$11 004205e3 f   environmentvariant.obj
 0001:0001f5ec       __unwindfunclet$?formatSingleOperationParam@EnvironmentVariant@@QAE?AVQJsonObject@@ABVSingleOperationData@@@Z$12 004205ec f   environmentvariant.obj
 0001:0001f5f5       __unwindfunclet$?formatSingleOperationParam@EnvironmentVariant@@QAE?AVQJsonObject@@ABVSingleOperationData@@@Z$26 004205f5 f   environmentvariant.obj
 0001:0001f5fb       __unwindfunclet$?formatSingleOperationParam@EnvironmentVariant@@QAE?AVQJsonObject@@ABVSingleOperationData@@@Z$34 004205fb f   environmentvariant.obj
 0001:0001f601       __unwindfunclet$?formatSingleOperationParam@EnvironmentVariant@@QAE?AVQJsonObject@@ABVSingleOperationData@@@Z$42 00420601 f   environmentvariant.obj
 0001:0001f607       __unwindfunclet$?formatSingleOperationParam@EnvironmentVariant@@QAE?AVQJsonObject@@ABVSingleOperationData@@@Z$13 00420607 f   environmentvariant.obj
 0001:0001f610       __unwindfunclet$?formatSingleOperationParam@EnvironmentVariant@@QAE?AVQJsonObject@@ABVSingleOperationData@@@Z$14 00420610 f   environmentvariant.obj
 0001:0001f619       __unwindfunclet$?formatSingleOperationParam@EnvironmentVariant@@QAE?AVQJsonObject@@ABVSingleOperationData@@@Z$15 00420619 f   environmentvariant.obj
 0001:0001f622       __unwindfunclet$?formatSingleOperationParam@EnvironmentVariant@@QAE?AVQJsonObject@@ABVSingleOperationData@@@Z$16 00420622 f   environmentvariant.obj
 0001:0001f62b       __unwindfunclet$?formatSingleOperationParam@EnvironmentVariant@@QAE?AVQJsonObject@@ABVSingleOperationData@@@Z$17 0042062b f   environmentvariant.obj
 0001:0001f634       __unwindfunclet$?formatSingleOperationParam@EnvironmentVariant@@QAE?AVQJsonObject@@ABVSingleOperationData@@@Z$18 00420634 f   environmentvariant.obj
 0001:0001f63d       __ehhandler$?formatSingleOperationParam@EnvironmentVariant@@QAE?AVQJsonObject@@ABVSingleOperationData@@@Z 0042063d f   environmentvariant.obj
 0001:0001f660       __unwindfunclet$?getBoardTypeIndexByPosition@EnvironmentVariant@@QAEHH@Z$0 00420660 f   environmentvariant.obj
 0001:0001f669       __unwindfunclet$?getBoardTypeIndexByPosition@EnvironmentVariant@@QAEHH@Z$1 00420669 f   environmentvariant.obj
 0001:0001f672       __unwindfunclet$?getBoardTypeIndexByPosition@EnvironmentVariant@@QAEHH@Z$2 00420672 f   environmentvariant.obj
 0001:0001f67b       __unwindfunclet$?getBoardTypeIndexByPosition@EnvironmentVariant@@QAEHH@Z$3 0042067b f   environmentvariant.obj
 0001:0001f684       __unwindfunclet$?getBoardTypeIndexByPosition@EnvironmentVariant@@QAEHH@Z$4 00420684 f   environmentvariant.obj
 0001:0001f68d       __unwindfunclet$?getBoardTypeIndexByPosition@EnvironmentVariant@@QAEHH@Z$5 0042068d f   environmentvariant.obj
 0001:0001f696       __unwindfunclet$?getBoardTypeIndexByPosition@EnvironmentVariant@@QAEHH@Z$6 00420696 f   environmentvariant.obj
 0001:0001f69f       __unwindfunclet$?getBoardTypeIndexByPosition@EnvironmentVariant@@QAEHH@Z$7 0042069f f   environmentvariant.obj
 0001:0001f6a8       __unwindfunclet$?getBoardTypeIndexByPosition@EnvironmentVariant@@QAEHH@Z$8 004206a8 f   environmentvariant.obj
 0001:0001f6b1       __unwindfunclet$?getBoardTypeIndexByPosition@EnvironmentVariant@@QAEHH@Z$9 004206b1 f   environmentvariant.obj
 0001:0001f6ba       __unwindfunclet$?getBoardTypeIndexByPosition@EnvironmentVariant@@QAEHH@Z$10 004206ba f   environmentvariant.obj
 0001:0001f6c3       __unwindfunclet$?getBoardTypeIndexByPosition@EnvironmentVariant@@QAEHH@Z$11 004206c3 f   environmentvariant.obj
 0001:0001f6cc       __unwindfunclet$?getBoardTypeIndexByPosition@EnvironmentVariant@@QAEHH@Z$12 004206cc f   environmentvariant.obj
 0001:0001f6d5       __unwindfunclet$?getBoardTypeIndexByPosition@EnvironmentVariant@@QAEHH@Z$13 004206d5 f   environmentvariant.obj
 0001:0001f6de       __ehhandler$?getBoardTypeIndexByPosition@EnvironmentVariant@@QAEHH@Z 004206de f   environmentvariant.obj
 0001:0001f700       __unwindfunclet$?getOperationParams@EnvironmentVariant@@QAE?AV?$QList@VOperationParamData@@@@H@Z$0 00420700 f   environmentvariant.obj
 0001:0001f719       __unwindfunclet$?getOperationParams@EnvironmentVariant@@QAE?AV?$QList@VOperationParamData@@@@H@Z$1 00420719 f   environmentvariant.obj
 0001:0001f721       __unwindfunclet$?getOperationParams@EnvironmentVariant@@QAE?AV?$QList@VOperationParamData@@@@H@Z$16 00420721 f   environmentvariant.obj
 0001:0001f727       __ehhandler$?getOperationParams@EnvironmentVariant@@QAE?AV?$QList@VOperationParamData@@@@H@Z 00420727 f   environmentvariant.obj
 0001:0001f750       __unwindfunclet$?initModels@EnvironmentVariant@@QAEXPAVQQmlContext@@@Z$1 00420750 f   environmentvariant.obj
 0001:0001f759       __unwindfunclet$?initModels@EnvironmentVariant@@QAEXPAVQQmlContext@@@Z$2 00420759 f   environmentvariant.obj
 0001:0001f762       __unwindfunclet$?initModels@EnvironmentVariant@@QAEXPAVQQmlContext@@@Z$3 00420762 f   environmentvariant.obj
 0001:0001f76b       __unwindfunclet$?initModels@EnvironmentVariant@@QAEXPAVQQmlContext@@@Z$4 0042076b f   environmentvariant.obj
 0001:0001f774       __unwindfunclet$?initModels@EnvironmentVariant@@QAEXPAVQQmlContext@@@Z$5 00420774 f   environmentvariant.obj
 0001:0001f77d       __unwindfunclet$?initModels@EnvironmentVariant@@QAEXPAVQQmlContext@@@Z$6 0042077d f   environmentvariant.obj
 0001:0001f786       __ehhandler$?initModels@EnvironmentVariant@@QAEXPAVQQmlContext@@@Z 00420786 f   environmentvariant.obj
 0001:0001f7b0       __unwindfunclet$?initProtocol@EnvironmentVariant@@QAEXABVQString@@@Z$0 004207b0 f   environmentvariant.obj
 0001:0001f7b9       __ehhandler$?initProtocol@EnvironmentVariant@@QAEXABVQString@@@Z 004207b9 f   environmentvariant.obj
 0001:0001f7e0       __unwindfunclet$?initUserConfig@EnvironmentVariant@@QAEXABVQString@@@Z$0 004207e0 f   environmentvariant.obj
 0001:0001f7e8       __unwindfunclet$?initUserConfig@EnvironmentVariant@@QAEXABVQString@@@Z$1 004207e8 f   environmentvariant.obj
 0001:0001f7f1       __unwindfunclet$?initUserConfig@EnvironmentVariant@@QAEXABVQString@@@Z$2 004207f1 f   environmentvariant.obj
 0001:0001f7fa       __ehhandler$?initUserConfig@EnvironmentVariant@@QAEXABVQString@@@Z 004207fa f   environmentvariant.obj
 0001:0001f820       __unwindfunclet$?insert@?$QList@VSingleOperationData@@@@QAEXHABVSingleOperationData@@@Z$9 00420820 f   environmentvariant.obj
 0001:0001f82f       __unwindfunclet$?insert@?$QList@VSingleOperationData@@@@QAEXHABVSingleOperationData@@@Z$11 0042082f f   environmentvariant.obj
 0001:0001f838       __unwindfunclet$?insert@?$QList@VSingleOperationData@@@@QAEXHABVSingleOperationData@@@Z$15 00420838 f   environmentvariant.obj
 0001:0001f847       __unwindfunclet$?insert@?$QList@VSingleOperationData@@@@QAEXHABVSingleOperationData@@@Z$17 00420847 f   environmentvariant.obj
 0001:0001f850       __ehhandler$?insert@?$QList@VSingleOperationData@@@@QAEXHABVSingleOperationData@@@Z 00420850 f   environmentvariant.obj
 0001:0001f870       __unwindfunclet$?instance@EnvironmentVariant@@SAPAV1@XZ$0 00420870 f   environmentvariant.obj
 0001:0001f882       __ehhandler$?instance@EnvironmentVariant@@SAPAV1@XZ 00420882 f   environmentvariant.obj
 0001:0001f8a0       __unwindfunclet$?parseConfigFile@EnvironmentVariant@@QAEXABVQString@@@Z$0 004208a0 f   environmentvariant.obj
 0001:0001f8a8       __unwindfunclet$?parseConfigFile@EnvironmentVariant@@QAEXABVQString@@@Z$1 004208a8 f   environmentvariant.obj
 0001:0001f8b1       __unwindfunclet$?parseConfigFile@EnvironmentVariant@@QAEXABVQString@@@Z$3 004208b1 f   environmentvariant.obj
 0001:0001f8ba       __unwindfunclet$?parseConfigFile@EnvironmentVariant@@QAEXABVQString@@@Z$4 004208ba f   environmentvariant.obj
 0001:0001f8c2       __unwindfunclet$?parseConfigFile@EnvironmentVariant@@QAEXABVQString@@@Z$5 004208c2 f   environmentvariant.obj
 0001:0001f8cb       __unwindfunclet$?parseConfigFile@EnvironmentVariant@@QAEXABVQString@@@Z$7 004208cb f   environmentvariant.obj
 0001:0001f8d4       __unwindfunclet$?parseConfigFile@EnvironmentVariant@@QAEXABVQString@@@Z$8 004208d4 f   environmentvariant.obj
 0001:0001f8dc       __unwindfunclet$?parseConfigFile@EnvironmentVariant@@QAEXABVQString@@@Z$57 004208dc f   environmentvariant.obj
 0001:0001f8e2       __unwindfunclet$?parseConfigFile@EnvironmentVariant@@QAEXABVQString@@@Z$9 004208e2 f   environmentvariant.obj
 0001:0001f8eb       __unwindfunclet$?parseConfigFile@EnvironmentVariant@@QAEXABVQString@@@Z$75 004208eb f   environmentvariant.obj
 0001:0001f8f1       __unwindfunclet$?parseConfigFile@EnvironmentVariant@@QAEXABVQString@@@Z$85 004208f1 f   environmentvariant.obj
 0001:0001f8f7       __unwindfunclet$?parseConfigFile@EnvironmentVariant@@QAEXABVQString@@@Z$11 004208f7 f   environmentvariant.obj
 0001:0001f900       __unwindfunclet$?parseConfigFile@EnvironmentVariant@@QAEXABVQString@@@Z$104 00420900 f   environmentvariant.obj
 0001:0001f906       __unwindfunclet$?parseConfigFile@EnvironmentVariant@@QAEXABVQString@@@Z$114 00420906 f   environmentvariant.obj
 0001:0001f90c       __unwindfunclet$?parseConfigFile@EnvironmentVariant@@QAEXABVQString@@@Z$13 0042090c f   environmentvariant.obj
 0001:0001f915       __unwindfunclet$?parseConfigFile@EnvironmentVariant@@QAEXABVQString@@@Z$133 00420915 f   environmentvariant.obj
 0001:0001f91b       __unwindfunclet$?parseConfigFile@EnvironmentVariant@@QAEXABVQString@@@Z$143 0042091b f   environmentvariant.obj
 0001:0001f921       __unwindfunclet$?parseConfigFile@EnvironmentVariant@@QAEXABVQString@@@Z$15 00420921 f   environmentvariant.obj
 0001:0001f92a       __unwindfunclet$?parseConfigFile@EnvironmentVariant@@QAEXABVQString@@@Z$153 0042092a f   environmentvariant.obj
 0001:0001f930       __ehhandler$?parseConfigFile@EnvironmentVariant@@QAEXABVQString@@@Z 00420930 f   environmentvariant.obj
 0001:0001f950       __unwindfunclet$?planSelectStepListModel@EnvironmentVariant@@QAE?AVQStringList@@H@Z$0 00420950 f   environmentvariant.obj
 0001:0001f969       __unwindfunclet$?planSelectStepListModel@EnvironmentVariant@@QAE?AVQStringList@@H@Z$1 00420969 f   environmentvariant.obj
 0001:0001f971       __unwindfunclet$?planSelectStepListModel@EnvironmentVariant@@QAE?AVQStringList@@H@Z$2 00420971 f   environmentvariant.obj
 0001:0001f97a       __unwindfunclet$?planSelectStepListModel@EnvironmentVariant@@QAE?AVQStringList@@H@Z$3 0042097a f   environmentvariant.obj
 0001:0001f983       __unwindfunclet$?planSelectStepListModel@EnvironmentVariant@@QAE?AVQStringList@@H@Z$4 00420983 f   environmentvariant.obj
 0001:0001f98c       __unwindfunclet$?planSelectStepListModel@EnvironmentVariant@@QAE?AVQStringList@@H@Z$18 0042098c f   environmentvariant.obj
 0001:0001f992       __ehhandler$?planSelectStepListModel@EnvironmentVariant@@QAE?AVQStringList@@H@Z 00420992 f   environmentvariant.obj
 0001:0001f9b0       __unwindfunclet$?planStepParam@EnvironmentVariant@@QAE?AVSingleOperationData@@HH@Z$0 004209b0 f   environmentvariant.obj
 0001:0001f9b8       __unwindfunclet$?planStepParam@EnvironmentVariant@@QAE?AVSingleOperationData@@HH@Z$3 004209b8 f   environmentvariant.obj
 0001:0001f9c0       __unwindfunclet$?planStepParam@EnvironmentVariant@@QAE?AVSingleOperationData@@HH@Z$4 004209c0 f   environmentvariant.obj
 0001:0001f9c8       __unwindfunclet$?planStepParam@EnvironmentVariant@@QAE?AVSingleOperationData@@HH@Z$43 004209c8 f   environmentvariant.obj
 0001:0001f9ce       __unwindfunclet$?planStepParam@EnvironmentVariant@@QAE?AVSingleOperationData@@HH@Z$53 004209ce f   environmentvariant.obj
 0001:0001f9d4       __unwindfunclet$?planStepParam@EnvironmentVariant@@QAE?AVSingleOperationData@@HH@Z$25 004209d4 f   environmentvariant.obj
 0001:0001f9da       __unwindfunclet$?planStepParam@EnvironmentVariant@@QAE?AVSingleOperationData@@HH@Z$11 004209da f   environmentvariant.obj
 0001:0001f9e0       __ehhandler$?planStepParam@EnvironmentVariant@@QAE?AVSingleOperationData@@HH@Z 004209e0 f   environmentvariant.obj
 0001:0001fa00       __unwindfunclet$?setWorkLocationType@EnvironmentVariant@@QAE_NHHABVQString@@@Z$0 00420a00 f   environmentvariant.obj
 0001:0001fa09       __unwindfunclet$?setWorkLocationType@EnvironmentVariant@@QAE_NHHABVQString@@@Z$1 00420a09 f   environmentvariant.obj
 0001:0001fa12       __unwindfunclet$?setWorkLocationType@EnvironmentVariant@@QAE_NHHABVQString@@@Z$2 00420a12 f   environmentvariant.obj
 0001:0001fa2c       __unwindfunclet$?setWorkLocationType@EnvironmentVariant@@QAE_NHHABVQString@@@Z$3 00420a2c f   environmentvariant.obj
 0001:0001fa46       __unwindfunclet$?setWorkLocationType@EnvironmentVariant@@QAE_NHHABVQString@@@Z$4 00420a46 f   environmentvariant.obj
 0001:0001fa60       __unwindfunclet$?setWorkLocationType@EnvironmentVariant@@QAE_NHHABVQString@@@Z$5 00420a60 f   environmentvariant.obj
 0001:0001fa7a       __unwindfunclet$?setWorkLocationType@EnvironmentVariant@@QAE_NHHABVQString@@@Z$6 00420a7a f   environmentvariant.obj
 0001:0001fa83       __unwindfunclet$?setWorkLocationType@EnvironmentVariant@@QAE_NHHABVQString@@@Z$7 00420a83 f   environmentvariant.obj
 0001:0001fa8c       __unwindfunclet$?setWorkLocationType@EnvironmentVariant@@QAE_NHHABVQString@@@Z$8 00420a8c f   environmentvariant.obj
 0001:0001fa95       __unwindfunclet$?setWorkLocationType@EnvironmentVariant@@QAE_NHHABVQString@@@Z$9 00420a95 f   environmentvariant.obj
 0001:0001fa9e       __unwindfunclet$?setWorkLocationType@EnvironmentVariant@@QAE_NHHABVQString@@@Z$10 00420a9e f   environmentvariant.obj
 0001:0001faa7       __unwindfunclet$?setWorkLocationType@EnvironmentVariant@@QAE_NHHABVQString@@@Z$22 00420aa7 f   environmentvariant.obj
 0001:0001fab0       __unwindfunclet$?setWorkLocationType@EnvironmentVariant@@QAE_NHHABVQString@@@Z$11 00420ab0 f   environmentvariant.obj
 0001:0001fab9       __unwindfunclet$?setWorkLocationType@EnvironmentVariant@@QAE_NHHABVQString@@@Z$12 00420ab9 f   environmentvariant.obj
 0001:0001fac2       __unwindfunclet$?setWorkLocationType@EnvironmentVariant@@QAE_NHHABVQString@@@Z$13 00420ac2 f   environmentvariant.obj
 0001:0001facb       __unwindfunclet$?setWorkLocationType@EnvironmentVariant@@QAE_NHHABVQString@@@Z$14 00420acb f   environmentvariant.obj
 0001:0001fad4       __unwindfunclet$?setWorkLocationType@EnvironmentVariant@@QAE_NHHABVQString@@@Z$15 00420ad4 f   environmentvariant.obj
 0001:0001fadd       __unwindfunclet$?setWorkLocationType@EnvironmentVariant@@QAE_NHHABVQString@@@Z$16 00420add f   environmentvariant.obj
 0001:0001fae6       __unwindfunclet$?setWorkLocationType@EnvironmentVariant@@QAE_NHHABVQString@@@Z$17 00420ae6 f   environmentvariant.obj
 0001:0001faef       __unwindfunclet$?setWorkLocationType@EnvironmentVariant@@QAE_NHHABVQString@@@Z$18 00420aef f   environmentvariant.obj
 0001:0001faf8       __unwindfunclet$?setWorkLocationType@EnvironmentVariant@@QAE_NHHABVQString@@@Z$19 00420af8 f   environmentvariant.obj
 0001:0001fb01       __unwindfunclet$?setWorkLocationType@EnvironmentVariant@@QAE_NHHABVQString@@@Z$20 00420b01 f   environmentvariant.obj
 0001:0001fb0a       __unwindfunclet$?setWorkLocationType@EnvironmentVariant@@QAE_NHHABVQString@@@Z$21 00420b0a f   environmentvariant.obj
 0001:0001fb13       __ehhandler$?setWorkLocationType@EnvironmentVariant@@QAE_NHHABVQString@@@Z 00420b13 f   environmentvariant.obj
 0001:0001fb40       __unwindfunclet$?startCheckPlan@EnvironmentVariant@@QAEXH@Z$0 00420b40 f   environmentvariant.obj
 0001:0001fb49       __unwindfunclet$?startCheckPlan@EnvironmentVariant@@QAEXH@Z$1 00420b49 f   environmentvariant.obj
 0001:0001fb52       __unwindfunclet$?startCheckPlan@EnvironmentVariant@@QAEXH@Z$2 00420b52 f   environmentvariant.obj
 0001:0001fb5a       __unwindfunclet$?startCheckPlan@EnvironmentVariant@@QAEXH@Z$3 00420b5a f   environmentvariant.obj
 0001:0001fb63       __unwindfunclet$?startCheckPlan@EnvironmentVariant@@QAEXH@Z$4 00420b63 f   environmentvariant.obj
 0001:0001fb6c       __unwindfunclet$?startCheckPlan@EnvironmentVariant@@QAEXH@Z$5 00420b6c f   environmentvariant.obj
 0001:0001fb75       __unwindfunclet$?startCheckPlan@EnvironmentVariant@@QAEXH@Z$6 00420b75 f   environmentvariant.obj
 0001:0001fb7e       __unwindfunclet$?startCheckPlan@EnvironmentVariant@@QAEXH@Z$7 00420b7e f   environmentvariant.obj
 0001:0001fb87       __unwindfunclet$?startCheckPlan@EnvironmentVariant@@QAEXH@Z$8 00420b87 f   environmentvariant.obj
 0001:0001fb90       __unwindfunclet$?startCheckPlan@EnvironmentVariant@@QAEXH@Z$9 00420b90 f   environmentvariant.obj
 0001:0001fb98       __unwindfunclet$?startCheckPlan@EnvironmentVariant@@QAEXH@Z$10 00420b98 f   environmentvariant.obj
 0001:0001fba1       __unwindfunclet$?startCheckPlan@EnvironmentVariant@@QAEXH@Z$11 00420ba1 f   environmentvariant.obj
 0001:0001fbaa       __unwindfunclet$?startCheckPlan@EnvironmentVariant@@QAEXH@Z$12 00420baa f   environmentvariant.obj
 0001:0001fbb6       __unwindfunclet$?startCheckPlan@EnvironmentVariant@@QAEXH@Z$13 00420bb6 f   environmentvariant.obj
 0001:0001fbc2       __unwindfunclet$?startCheckPlan@EnvironmentVariant@@QAEXH@Z$14 00420bc2 f   environmentvariant.obj
 0001:0001fbce       __unwindfunclet$?startCheckPlan@EnvironmentVariant@@QAEXH@Z$43 00420bce f   environmentvariant.obj
 0001:0001fbd4       __unwindfunclet$?startCheckPlan@EnvironmentVariant@@QAEXH@Z$51 00420bd4 f   environmentvariant.obj
 0001:0001fbda       __unwindfunclet$?startCheckPlan@EnvironmentVariant@@QAEXH@Z$59 00420bda f   environmentvariant.obj
 0001:0001fbe0       __unwindfunclet$?startCheckPlan@EnvironmentVariant@@QAEXH@Z$15 00420be0 f   environmentvariant.obj
 0001:0001fbec       __unwindfunclet$?startCheckPlan@EnvironmentVariant@@QAEXH@Z$16 00420bec f   environmentvariant.obj
 0001:0001fbf5       __unwindfunclet$?startCheckPlan@EnvironmentVariant@@QAEXH@Z$17 00420bf5 f   environmentvariant.obj
 0001:0001fbfe       __unwindfunclet$?startCheckPlan@EnvironmentVariant@@QAEXH@Z$89 00420bfe f   environmentvariant.obj
 0001:0001fc04       __unwindfunclet$?startCheckPlan@EnvironmentVariant@@QAEXH@Z$18 00420c04 f   environmentvariant.obj
 0001:0001fc0d       __unwindfunclet$?startCheckPlan@EnvironmentVariant@@QAEXH@Z$19 00420c0d f   environmentvariant.obj
 0001:0001fc16       __unwindfunclet$?startCheckPlan@EnvironmentVariant@@QAEXH@Z$20 00420c16 f   environmentvariant.obj
 0001:0001fc1f       __unwindfunclet$?startCheckPlan@EnvironmentVariant@@QAEXH@Z$21 00420c1f f   environmentvariant.obj
 0001:0001fc28       __unwindfunclet$?startCheckPlan@EnvironmentVariant@@QAEXH@Z$22 00420c28 f   environmentvariant.obj
 0001:0001fc31       __unwindfunclet$?startCheckPlan@EnvironmentVariant@@QAEXH@Z$23 00420c31 f   environmentvariant.obj
 0001:0001fc3a       __unwindfunclet$?startCheckPlan@EnvironmentVariant@@QAEXH@Z$24 00420c3a f   environmentvariant.obj
 0001:0001fc43       __unwindfunclet$?startCheckPlan@EnvironmentVariant@@QAEXH@Z$96 00420c43 f   environmentvariant.obj
 0001:0001fc4c       __unwindfunclet$?startCheckPlan@EnvironmentVariant@@QAEXH@Z$25 00420c4c f   environmentvariant.obj
 0001:0001fc55       __ehhandler$?startCheckPlan@EnvironmentVariant@@QAEXH@Z 00420c55 f   environmentvariant.obj
 0001:0001fc80       __unwindfunclet$??$createInto@VStatusViewWatcher@@@QQmlPrivate@@YAXPAX@Z$0 00420c80 f   main.obj
 0001:0001fc80       __unwindfunclet$??$createInto@VPlanController@@@QQmlPrivate@@YAXPAX@Z$0 00420c80 f   main.obj
 0001:0001fc80       __unwindfunclet$??$createInto@VTextFieldDoubleValidator@@@QQmlPrivate@@YAXPAX@Z$0 00420c80 f   main.obj
 0001:0001fc80       __unwindfunclet$??$createInto@VPlanSelector@@@QQmlPrivate@@YAXPAX@Z$0 00420c80 f   main.obj
 0001:0001fc80       __unwindfunclet$??$createInto@VOperationParamObject@@@QQmlPrivate@@YAXPAX@Z$0 00420c80 f   main.obj
 0001:0001fc80       __unwindfunclet$??$createInto@VOperationParamSelector@@@QQmlPrivate@@YAXPAX@Z$0 00420c80 f   main.obj
 0001:0001fc91       __ehhandler$??$createInto@VPlanSelector@@@QQmlPrivate@@YAXPAX@Z 00420c91 f   main.obj
 0001:0001fc91       __ehhandler$??$createInto@VPlanController@@@QQmlPrivate@@YAXPAX@Z 00420c91 f   main.obj
 0001:0001fc91       __ehhandler$??$createInto@VOperationParamSelector@@@QQmlPrivate@@YAXPAX@Z 00420c91 f   main.obj
 0001:0001fc91       __ehhandler$??$createInto@VOperationParamObject@@@QQmlPrivate@@YAXPAX@Z 00420c91 f   main.obj
 0001:0001fc91       __ehhandler$??$createInto@VStatusViewWatcher@@@QQmlPrivate@@YAXPAX@Z 00420c91 f   main.obj
 0001:0001fc91       __ehhandler$??$createInto@VTextFieldDoubleValidator@@@QQmlPrivate@@YAXPAX@Z 00420c91 f   main.obj
 0001:0001fcb0       __unwindfunclet$??$qmlRegisterType@VPlanSelector@@@@YAHPBDHH0@Z$0 00420cb0 f   main.obj
 0001:0001fcb0       __unwindfunclet$??$qmlRegisterType@VOperationParamObject@@@@YAHPBDHH0@Z$0 00420cb0 f   main.obj
 0001:0001fcb0       __unwindfunclet$??$qmlRegisterType@VTextFieldDoubleValidator@@@@YAHPBDHH0@Z$0 00420cb0 f   main.obj
 0001:0001fcb0       __unwindfunclet$??$qmlRegisterType@VPlanController@@@@YAHPBDHH0@Z$0 00420cb0 f   main.obj
 0001:0001fcb0       __unwindfunclet$??$qmlRegisterType@VOperationParamSelector@@@@YAHPBDHH0@Z$0 00420cb0 f   main.obj
 0001:0001fcb0       __unwindfunclet$??$qmlRegisterType@VStatusViewWatcher@@@@YAHPBDHH0@Z$0 00420cb0 f   main.obj
 0001:0001fcb8       __unwindfunclet$??$qmlRegisterType@VPlanSelector@@@@YAHPBDHH0@Z$1 00420cb8 f   main.obj
 0001:0001fcb8       __unwindfunclet$??$qmlRegisterType@VOperationParamSelector@@@@YAHPBDHH0@Z$1 00420cb8 f   main.obj
 0001:0001fcb8       __unwindfunclet$??$qmlRegisterType@VTextFieldDoubleValidator@@@@YAHPBDHH0@Z$1 00420cb8 f   main.obj
 0001:0001fcb8       __unwindfunclet$??$qmlRegisterType@VStatusViewWatcher@@@@YAHPBDHH0@Z$1 00420cb8 f   main.obj
 0001:0001fcb8       __unwindfunclet$??$qmlRegisterType@VPlanController@@@@YAHPBDHH0@Z$1 00420cb8 f   main.obj
 0001:0001fcb8       __unwindfunclet$??$qmlRegisterType@VOperationParamObject@@@@YAHPBDHH0@Z$1 00420cb8 f   main.obj
 0001:0001fcc3       __unwindfunclet$??$qmlRegisterType@VOperationParamSelector@@@@YAHPBDHH0@Z$2 00420cc3 f   main.obj
 0001:0001fcc3       __unwindfunclet$??$qmlRegisterType@VTextFieldDoubleValidator@@@@YAHPBDHH0@Z$2 00420cc3 f   main.obj
 0001:0001fcc3       __unwindfunclet$??$qmlRegisterType@VOperationParamObject@@@@YAHPBDHH0@Z$2 00420cc3 f   main.obj
 0001:0001fcc3       __unwindfunclet$??$qmlRegisterType@VStatusViewWatcher@@@@YAHPBDHH0@Z$2 00420cc3 f   main.obj
 0001:0001fcc3       __unwindfunclet$??$qmlRegisterType@VPlanController@@@@YAHPBDHH0@Z$2 00420cc3 f   main.obj
 0001:0001fcc3       __unwindfunclet$??$qmlRegisterType@VPlanSelector@@@@YAHPBDHH0@Z$2 00420cc3 f   main.obj
 0001:0001fccc       __unwindfunclet$??$qmlRegisterType@VTextFieldDoubleValidator@@@@YAHPBDHH0@Z$3 00420ccc f   main.obj
 0001:0001fccc       __unwindfunclet$??$qmlRegisterType@VStatusViewWatcher@@@@YAHPBDHH0@Z$3 00420ccc f   main.obj
 0001:0001fccc       __unwindfunclet$??$qmlRegisterType@VPlanSelector@@@@YAHPBDHH0@Z$3 00420ccc f   main.obj
 0001:0001fccc       __unwindfunclet$??$qmlRegisterType@VPlanController@@@@YAHPBDHH0@Z$3 00420ccc f   main.obj
 0001:0001fccc       __unwindfunclet$??$qmlRegisterType@VOperationParamObject@@@@YAHPBDHH0@Z$3 00420ccc f   main.obj
 0001:0001fccc       __unwindfunclet$??$qmlRegisterType@VOperationParamSelector@@@@YAHPBDHH0@Z$3 00420ccc f   main.obj
 0001:0001fcd5       __unwindfunclet$??$qmlRegisterType@VOperationParamObject@@@@YAHPBDHH0@Z$5 00420cd5 f   main.obj
 0001:0001fcd5       __unwindfunclet$??$qmlRegisterType@VPlanController@@@@YAHPBDHH0@Z$5 00420cd5 f   main.obj
 0001:0001fcd5       __unwindfunclet$??$qmlRegisterType@VStatusViewWatcher@@@@YAHPBDHH0@Z$5 00420cd5 f   main.obj
 0001:0001fcd5       __unwindfunclet$??$qmlRegisterType@VPlanSelector@@@@YAHPBDHH0@Z$5 00420cd5 f   main.obj
 0001:0001fcd5       __unwindfunclet$??$qmlRegisterType@VTextFieldDoubleValidator@@@@YAHPBDHH0@Z$5 00420cd5 f   main.obj
 0001:0001fcd5       __unwindfunclet$??$qmlRegisterType@VOperationParamSelector@@@@YAHPBDHH0@Z$5 00420cd5 f   main.obj
 0001:0001fcdd       __ehhandler$??$qmlRegisterType@VOperationParamSelector@@@@YAHPBDHH0@Z 00420cdd f   main.obj
 0001:0001fcdd       __ehhandler$??$qmlRegisterType@VPlanSelector@@@@YAHPBDHH0@Z 00420cdd f   main.obj
 0001:0001fcdd       __ehhandler$??$qmlRegisterType@VTextFieldDoubleValidator@@@@YAHPBDHH0@Z 00420cdd f   main.obj
 0001:0001fcdd       __ehhandler$??$qmlRegisterType@VStatusViewWatcher@@@@YAHPBDHH0@Z 00420cdd f   main.obj
 0001:0001fcdd       __ehhandler$??$qmlRegisterType@VPlanController@@@@YAHPBDHH0@Z 00420cdd f   main.obj
 0001:0001fcdd       __ehhandler$??$qmlRegisterType@VOperationParamObject@@@@YAHPBDHH0@Z 00420cdd f   main.obj
 0001:0001fd00       __unwindfunclet$??1OperationParamSelector@@UAE@XZ$0 00420d00 f   main.obj
 0001:0001fd06       __unwindfunclet$??1OperationParamSelector@@UAE@XZ$7 00420d06 f   main.obj
 0001:0001fd0c       __ehhandler$??1OperationParamSelector@@UAE@XZ 00420d0c f   main.obj
 0001:0001fd30       __unwindfunclet$?customMessageHandler@@YAXW4QtMsgType@@ABVQMessageLogContext@@ABVQString@@@Z$0 00420d30 f   main.obj
 0001:0001fd39       __unwindfunclet$?customMessageHandler@@YAXW4QtMsgType@@ABVQMessageLogContext@@ABVQString@@@Z$1 00420d39 f   main.obj
 0001:0001fd42       __unwindfunclet$?customMessageHandler@@YAXW4QtMsgType@@ABVQMessageLogContext@@ABVQString@@@Z$2 00420d42 f   main.obj
 0001:0001fd4b       __unwindfunclet$?customMessageHandler@@YAXW4QtMsgType@@ABVQMessageLogContext@@ABVQString@@@Z$3 00420d4b f   main.obj
 0001:0001fd54       __unwindfunclet$?customMessageHandler@@YAXW4QtMsgType@@ABVQMessageLogContext@@ABVQString@@@Z$21 00420d54 f   main.obj
 0001:0001fd5d       __unwindfunclet$?customMessageHandler@@YAXW4QtMsgType@@ABVQMessageLogContext@@ABVQString@@@Z$22 00420d5d f   main.obj
 0001:0001fd66       __unwindfunclet$?customMessageHandler@@YAXW4QtMsgType@@ABVQMessageLogContext@@ABVQString@@@Z$23 00420d66 f   main.obj
 0001:0001fd6f       __unwindfunclet$?customMessageHandler@@YAXW4QtMsgType@@ABVQMessageLogContext@@ABVQString@@@Z$5 00420d6f f   main.obj
 0001:0001fd78       __unwindfunclet$?customMessageHandler@@YAXW4QtMsgType@@ABVQMessageLogContext@@ABVQString@@@Z$6 00420d78 f   main.obj
 0001:0001fd81       __unwindfunclet$?customMessageHandler@@YAXW4QtMsgType@@ABVQMessageLogContext@@ABVQString@@@Z$7 00420d81 f   main.obj
 0001:0001fd8a       __unwindfunclet$?customMessageHandler@@YAXW4QtMsgType@@ABVQMessageLogContext@@ABVQString@@@Z$9 00420d8a f   main.obj
 0001:0001fd93       __unwindfunclet$?customMessageHandler@@YAXW4QtMsgType@@ABVQMessageLogContext@@ABVQString@@@Z$10 00420d93 f   main.obj
 0001:0001fd9c       __unwindfunclet$?customMessageHandler@@YAXW4QtMsgType@@ABVQMessageLogContext@@ABVQString@@@Z$11 00420d9c f   main.obj
 0001:0001fda5       __unwindfunclet$?customMessageHandler@@YAXW4QtMsgType@@ABVQMessageLogContext@@ABVQString@@@Z$13 00420da5 f   main.obj
 0001:0001fdae       __unwindfunclet$?customMessageHandler@@YAXW4QtMsgType@@ABVQMessageLogContext@@ABVQString@@@Z$14 00420dae f   main.obj
 0001:0001fdb7       __unwindfunclet$?customMessageHandler@@YAXW4QtMsgType@@ABVQMessageLogContext@@ABVQString@@@Z$15 00420db7 f   main.obj
 0001:0001fdc0       __unwindfunclet$?customMessageHandler@@YAXW4QtMsgType@@ABVQMessageLogContext@@ABVQString@@@Z$17 00420dc0 f   main.obj
 0001:0001fdc9       __unwindfunclet$?customMessageHandler@@YAXW4QtMsgType@@ABVQMessageLogContext@@ABVQString@@@Z$18 00420dc9 f   main.obj
 0001:0001fdd2       __unwindfunclet$?customMessageHandler@@YAXW4QtMsgType@@ABVQMessageLogContext@@ABVQString@@@Z$19 00420dd2 f   main.obj
 0001:0001fddb       __ehhandler$?customMessageHandler@@YAXW4QtMsgType@@ABVQMessageLogContext@@ABVQString@@@Z 00420ddb f   main.obj
 0001:0001fe00       __unwindfunclet$?qt_metatype_id@?$QMetaTypeIdQObject@PAVOperationParamSelector@@$07@@SAHXZ$0 00420e00 f   main.obj
 0001:0001fe00       __unwindfunclet$?qt_metatype_id@?$QMetaTypeIdQObject@PAVOperationParamObject@@$07@@SAHXZ$0 00420e00 f   main.obj
 0001:0001fe00       __unwindfunclet$?qt_metatype_id@?$QMetaTypeIdQObject@PAVPlanSelector@@$07@@SAHXZ$0 00420e00 f   main.obj
 0001:0001fe00       __unwindfunclet$?qt_metatype_id@?$QMetaTypeIdQObject@PAVPlanController@@$07@@SAHXZ$0 00420e00 f   main.obj
 0001:0001fe00       __unwindfunclet$?qt_metatype_id@?$QMetaTypeIdQObject@PAVTextFieldDoubleValidator@@$07@@SAHXZ$0 00420e00 f   main.obj
 0001:0001fe00       __unwindfunclet$?qt_metatype_id@?$QMetaTypeIdQObject@PAVStatusViewWatcher@@$07@@SAHXZ$0 00420e00 f   main.obj
 0001:0001fe09       __ehhandler$?qt_metatype_id@?$QMetaTypeIdQObject@PAVOperationParamObject@@$07@@SAHXZ 00420e09 f   main.obj
 0001:0001fe09       __ehhandler$?qt_metatype_id@?$QMetaTypeIdQObject@PAVStatusViewWatcher@@$07@@SAHXZ 00420e09 f   main.obj
 0001:0001fe09       __ehhandler$?qt_metatype_id@?$QMetaTypeIdQObject@PAVOperationParamSelector@@$07@@SAHXZ 00420e09 f   main.obj
 0001:0001fe09       __ehhandler$?qt_metatype_id@?$QMetaTypeIdQObject@PAVTextFieldDoubleValidator@@$07@@SAHXZ 00420e09 f   main.obj
 0001:0001fe09       __ehhandler$?qt_metatype_id@?$QMetaTypeIdQObject@PAVPlanController@@$07@@SAHXZ 00420e09 f   main.obj
 0001:0001fe09       __ehhandler$?qt_metatype_id@?$QMetaTypeIdQObject@PAVPlanSelector@@$07@@SAHXZ 00420e09 f   main.obj
 0001:0001fe30       __unwindfunclet$?validate@TextFieldDoubleValidator@@UBE?AW4State@QValidator@@AAVQString@@AAH@Z$0 00420e30 f   main.obj
 0001:0001fe4a       __unwindfunclet$?validate@TextFieldDoubleValidator@@UBE?AW4State@QValidator@@AAVQString@@AAH@Z$1 00420e4a f   main.obj
 0001:0001fe53       __unwindfunclet$?validate@TextFieldDoubleValidator@@UBE?AW4State@QValidator@@AAVQString@@AAH@Z$2 00420e53 f   main.obj
 0001:0001fe5c       __ehhandler$?validate@TextFieldDoubleValidator@@UBE?AW4State@QValidator@@AAVQString@@AAH@Z 00420e5c f   main.obj
 0001:0001fe80       __unwindfunclet$_main$0    00420e80 f   main.obj
 0001:0001fe89       __unwindfunclet$_main$1    00420e89 f   main.obj
 0001:0001fe92       __unwindfunclet$_main$2    00420e92 f   main.obj
 0001:0001fe9b       __unwindfunclet$_main$3    00420e9b f   main.obj
 0001:0001fea4       __unwindfunclet$_main$4    00420ea4 f   main.obj
 0001:0001fead       __unwindfunclet$_main$5    00420ead f   main.obj
 0001:0001feb6       __unwindfunclet$_main$6    00420eb6 f   main.obj
 0001:0001febf       __unwindfunclet$_main$7    00420ebf f   main.obj
 0001:0001fec8       __unwindfunclet$_main$8    00420ec8 f   main.obj
 0001:0001fed1       __unwindfunclet$_main$9    00420ed1 f   main.obj
 0001:0001feda       __unwindfunclet$_main$10   00420eda f   main.obj
 0001:0001fee3       __unwindfunclet$_main$11   00420ee3 f   main.obj
 0001:0001feec       __unwindfunclet$_main$12   00420eec f   main.obj
 0001:0001fef5       __unwindfunclet$_main$13   00420ef5 f   main.obj
 0001:0001fefe       __unwindfunclet$_main$14   00420efe f   main.obj
 0001:0001ff07       __unwindfunclet$_main$15   00420f07 f   main.obj
 0001:0001ff10       __unwindfunclet$_main$17   00420f10 f   main.obj
 0001:0001ff19       __unwindfunclet$_main$18   00420f19 f   main.obj
 0001:0001ff22       __ehhandler$_main          00420f22 f   main.obj
 0001:0001ff40       __ehhandler$??0?$QList@PAVQObject@@@@QAE@ABV0@@Z 00420f40 f   workmodels.obj
 0001:0001ff40       __ehhandler$??0?$QList@H@@QAE@ABV0@@Z 00420f40 f   configfilehandler.obj
 0001:0001ff60       __unwindfunclet$??0PlanSelector@@QAE@PAVQObject@@@Z$0 00420f60 f   workmodels.obj
 0001:0001ff69       __unwindfunclet$??0PlanSelector@@QAE@PAVQObject@@@Z$1 00420f69 f   workmodels.obj
 0001:0001ff74       __unwindfunclet$??0PlanSelector@@QAE@PAVQObject@@@Z$2 00420f74 f   workmodels.obj
 0001:0001ff7f       __unwindfunclet$??0PlanSelector@@QAE@PAVQObject@@@Z$3 00420f7f f   workmodels.obj
 0001:0001ff8a       __ehhandler$??0PlanSelector@@QAE@PAVQObject@@@Z 00420f8a f   workmodels.obj
 0001:0001ffb0       __unwindfunclet$??1?$QForeachContainer@V?$QList@VOperationParamData@@@@@@QAE@XZ$0 00420fb0 f   configfilehandler.obj
 0001:0001ffb0       __unwindfunclet$??1?$QForeachContainer@V?$QList@PAVQObject@@@@@@QAE@XZ$0 00420fb0 f   workmodels.obj
 0001:0001ffb0       __unwindfunclet$??1?$QForeachContainer@$$CBV?$QList@VOperationParamData@@@@@@QAE@XZ$0 00420fb0 f   environmentvariant.obj
 0001:0001ffb6       __ehhandler$??1?$QForeachContainer@V?$QList@VOperationParamData@@@@@@QAE@XZ 00420fb6 f   configfilehandler.obj
 0001:0001ffb6       __ehhandler$??1?$QForeachContainer@V?$QList@PAVQObject@@@@@@QAE@XZ 00420fb6 f   workmodels.obj
 0001:0001ffb6       __ehhandler$??1?$QForeachContainer@$$CBV?$QList@VOperationParamData@@@@@@QAE@XZ 00420fb6 f   environmentvariant.obj
 0001:0001ffe0       __ehhandler$??1?$QList@U?$QPair@VQString@@V?$QList@VSingleOperationData@@@@@@@@QAE@XZ 00420fe0 f   configfilehandler.obj
 0001:0001ffe0       __ehhandler$??1?$QMap@VQString@@V1@@@QAE@XZ 00420fe0 f   configfilehandler.obj
 0001:0001ffe0       __ehhandler$??1?$QList@VSingleOperationData@@@@QAE@XZ 00420fe0 f   configfilehandler.obj
 0001:0001ffe0       __ehhandler$??1PlanController@@UAE@XZ 00420fe0 f   workmodels.obj
 0001:00020000       __unwindfunclet$??1PlanSelector@@UAE@XZ$1 00421000 f   workmodels.obj
 0001:00020006       __unwindfunclet$??1PlanSelector@@UAE@XZ$8 00421006 f   workmodels.obj
 0001:0002000c       __ehhandler$??1PlanSelector@@UAE@XZ 0042100c f   workmodels.obj
 0001:00020030       __ehhandler$??1StatusViewWatcher@@UAE@XZ 00421030 f   workmodels.obj
 0001:00020030       __ehhandler$??1?$QList@VQString@@@@QAE@XZ 00421030 f   workflowprotocol.obj
 0001:00020030       __ehhandler$??1?$QList@VQByteArray@@@@QAE@XZ 00421030 f   configfilehandler.obj
 0001:00020050       __unwindfunclet$??_GStatusViewWatcher@@UAEPAXI@Z$0 00421050 f   workmodels.obj
 0001:00020056       __ehhandler$??_GStatusViewWatcher@@UAEPAXI@Z 00421056 f   workmodels.obj
 0001:00020080       __ehhandler$?append@?$QList@PAVQObject@@@@QAEXABQAVQObject@@@Z 00421080 f   workmodels.obj
 0001:00020080       __ehhandler$?append@?$QList@H@@QAEXABH@Z 00421080 f   configfilehandler.obj
 0001:000200a0       __ehhandler$?detach_helper_grow@?$QList@PAVQObject@@@@AAEPAUNode@1@HH@Z 004210a0 f   workmodels.obj
 0001:000200a0       __ehhandler$?detach_helper_grow@?$QList@H@@AAEPAUNode@1@HH@Z 004210a0 f   configfilehandler.obj
 0001:000200c0       __unwindfunclet$?getSwitch@PlanSelector@@QAEPAVQObject@@ABVQString@@@Z$0 004210c0 f   workmodels.obj
 0001:000200c0       __unwindfunclet$?getSwitch@OperationParamSelector@@QAEPAVQObject@@ABVQString@@@Z$0 004210c0 f   workmodels.obj
 0001:000200c8       __unwindfunclet$?getSwitch@OperationParamSelector@@QAEPAVQObject@@ABVQString@@@Z$17 004210c8 f   workmodels.obj
 0001:000200c8       __unwindfunclet$?getSwitch@PlanSelector@@QAEPAVQObject@@ABVQString@@@Z$17 004210c8 f   workmodels.obj
 0001:000200ce       __unwindfunclet$?getSwitch@PlanSelector@@QAEPAVQObject@@ABVQString@@@Z$9 004210ce f   workmodels.obj
 0001:000200ce       __unwindfunclet$?getSwitch@OperationParamSelector@@QAEPAVQObject@@ABVQString@@@Z$9 004210ce f   workmodels.obj
 0001:000200d4       __ehhandler$?getSwitch@PlanSelector@@QAEPAVQObject@@ABVQString@@@Z 004210d4 f   workmodels.obj
 0001:000200d4       __ehhandler$?getSwitch@OperationParamSelector@@QAEPAVQObject@@ABVQString@@@Z 004210d4 f   workmodels.obj
 0001:000200f0       __unwindfunclet$?getConfigFullName@@YA?AVQString@@PBD@Z$0 004210f0 f   main.obj
 0001:000200f0       __unwindfunclet$?exportConfigFile@ConfigFileConverter@@QAE_NABVQUrl@@@Z$0 004210f0 f   workmodels.obj
 0001:000200f0       __unwindfunclet$?importConfigFile@ConfigFileConverter@@QAE_NABVQUrl@@@Z$0 004210f0 f   workmodels.obj
 0001:000200f9       __ehhandler$?getConfigFullName@@YA?AVQString@@PBD@Z 004210f9 f   main.obj
 0001:000200f9       __ehhandler$?importConfigFile@ConfigFileConverter@@QAE_NABVQUrl@@@Z 004210f9 f   workmodels.obj
 0001:000200f9       __ehhandler$?exportConfigFile@ConfigFileConverter@@QAE_NABVQUrl@@@Z 004210f9 f   workmodels.obj
 0001:00020120       __unwindfunclet$?onCompleteSingleOperation@OperationParamSelector@@QAEXXZ$0 00421120 f   workmodels.obj
 0001:00020128       __unwindfunclet$?onCompleteSingleOperation@OperationParamSelector@@QAEXXZ$2 00421128 f   workmodels.obj
 0001:00020130       __unwindfunclet$?onCompleteSingleOperation@OperationParamSelector@@QAEXXZ$13 00421130 f   workmodels.obj
 0001:00020136       __unwindfunclet$?onCompleteSingleOperation@OperationParamSelector@@QAEXXZ$21 00421136 f   workmodels.obj
 0001:0002013c       __unwindfunclet$?onCompleteSingleOperation@OperationParamSelector@@QAEXXZ$29 0042113c f   workmodels.obj
 0001:00020142       __unwindfunclet$?onCompleteSingleOperation@OperationParamSelector@@QAEXXZ$37 00421142 f   workmodels.obj
 0001:00020148       __ehhandler$?onCompleteSingleOperation@OperationParamSelector@@QAEXXZ 00421148 f   workmodels.obj
 0001:00020170       __unwindfunclet$?onMachineConfigChanged@TargetMachineObject@@QAE_NXZ$0 00421170 f   workmodels.obj
 0001:00020178       __ehhandler$?onMachineConfigChanged@TargetMachineObject@@QAE_NXZ 00421178 f   workmodels.obj
 0001:000201a0       __unwindfunclet$?setSelectedOperation@OperationParamSelector@@QAEXH@Z$13 004211a0 f   workmodels.obj
 0001:000201a6       __unwindfunclet$?setSelectedOperation@OperationParamSelector@@QAEXH@Z$20 004211a6 f   workmodels.obj
 0001:000201ac       __unwindfunclet$?setSelectedOperation@OperationParamSelector@@QAEXH@Z$34 004211ac f   workmodels.obj
 0001:000201b2       __unwindfunclet$?setSelectedOperation@OperationParamSelector@@QAEXH@Z$52 004211b2 f   workmodels.obj
 0001:000201b8       __unwindfunclet$?setSelectedOperation@OperationParamSelector@@QAEXH@Z$59 004211b8 f   workmodels.obj
 0001:000201be       __unwindfunclet$?setSelectedOperation@OperationParamSelector@@QAEXH@Z$2 004211be f   workmodels.obj
 0001:000201c6       __unwindfunclet$?setSelectedOperation@OperationParamSelector@@QAEXH@Z$3 004211c6 f   workmodels.obj
 0001:000201d5       __unwindfunclet$?setSelectedOperation@OperationParamSelector@@QAEXH@Z$72 004211d5 f   workmodels.obj
 0001:000201de       __unwindfunclet$?setSelectedOperation@OperationParamSelector@@QAEXH@Z$75 004211de f   workmodels.obj
 0001:000201e4       __unwindfunclet$?setSelectedOperation@OperationParamSelector@@QAEXH@Z$83 004211e4 f   workmodels.obj
 0001:000201ea       __unwindfunclet$?setSelectedOperation@OperationParamSelector@@QAEXH@Z$91 004211ea f   workmodels.obj
 0001:000201f0       __ehhandler$?setSelectedOperation@OperationParamSelector@@QAEXH@Z 004211f0 f   workmodels.obj
 0001:00020210       __unwindfunclet$?setSelectedOperation@PlanSelector@@QAEXHHH@Z$0 00421210 f   workmodels.obj
 0001:00020218       __unwindfunclet$?setSelectedOperation@PlanSelector@@QAEXHHH@Z$12 00421218 f   workmodels.obj
 0001:0002021e       __unwindfunclet$?setSelectedOperation@PlanSelector@@QAEXHHH@Z$30 0042121e f   workmodels.obj
 0001:00020224       __unwindfunclet$?setSelectedOperation@PlanSelector@@QAEXHHH@Z$37 00421224 f   workmodels.obj
 0001:0002022a       __unwindfunclet$?setSelectedOperation@PlanSelector@@QAEXHHH@Z$2 0042122a f   workmodels.obj
 0001:00020232       __unwindfunclet$?setSelectedOperation@PlanSelector@@QAEXHHH@Z$3 00421232 f   workmodels.obj
 0001:00020241       __unwindfunclet$?setSelectedOperation@PlanSelector@@QAEXHHH@Z$50 00421241 f   workmodels.obj
 0001:0002024a       __unwindfunclet$?setSelectedOperation@PlanSelector@@QAEXHHH@Z$53 0042124a f   workmodels.obj
 0001:00020250       __unwindfunclet$?setSelectedOperation@PlanSelector@@QAEXHHH@Z$61 00421250 f   workmodels.obj
 0001:00020256       __unwindfunclet$?setSelectedOperation@PlanSelector@@QAEXHHH@Z$69 00421256 f   workmodels.obj
 0001:0002025c       __unwindfunclet$?setSelectedOperation@PlanSelector@@QAEXHHH@Z$98 0042125c f   workmodels.obj
 0001:00020262       __unwindfunclet$?setSelectedOperation@PlanSelector@@QAEXHHH@Z$106 00421262 f   workmodels.obj
 0001:00020268       __unwindfunclet$?setSelectedOperation@PlanSelector@@QAEXHHH@Z$114 00421268 f   workmodels.obj
 0001:0002026e       __ehhandler$?setSelectedOperation@PlanSelector@@QAEXHHH@Z 0042126e f   workmodels.obj
 0001:00020290       __unwindfunclet$?setSelectedStep@PlanSelector@@QAEXHH@Z$14 00421290 f   workmodels.obj
 0001:00020296       __unwindfunclet$?setSelectedStep@PlanSelector@@QAEXHH@Z$22 00421296 f   workmodels.obj
 0001:0002029c       __unwindfunclet$?setSelectedStep@PlanSelector@@QAEXHH@Z$36 0042129c f   workmodels.obj
 0001:000202a2       __unwindfunclet$?setSelectedStep@PlanSelector@@QAEXHH@Z$54 004212a2 f   workmodels.obj
 0001:000202a8       __unwindfunclet$?setSelectedStep@PlanSelector@@QAEXHH@Z$61 004212a8 f   workmodels.obj
 0001:000202ae       __unwindfunclet$?setSelectedStep@PlanSelector@@QAEXHH@Z$2 004212ae f   workmodels.obj
 0001:000202b6       __unwindfunclet$?setSelectedStep@PlanSelector@@QAEXHH@Z$3 004212b6 f   workmodels.obj
 0001:000202c5       __unwindfunclet$?setSelectedStep@PlanSelector@@QAEXHH@Z$74 004212c5 f   workmodels.obj
 0001:000202ce       __unwindfunclet$?setSelectedStep@PlanSelector@@QAEXHH@Z$77 004212ce f   workmodels.obj
 0001:000202d4       __unwindfunclet$?setSelectedStep@PlanSelector@@QAEXHH@Z$85 004212d4 f   workmodels.obj
 0001:000202da       __unwindfunclet$?setSelectedStep@PlanSelector@@QAEXHH@Z$93 004212da f   workmodels.obj
 0001:000202e0       __ehhandler$?setSelectedStep@PlanSelector@@QAEXHH@Z 004212e0 f   workmodels.obj
 0001:00020300       __unwindfunclet$??0WorkflowCheckerController@@QAE@PAVQObject@@@Z$0 00421300 f   workflowChecker.obj
 0001:00020309       __unwindfunclet$??0WorkflowCheckerController@@QAE@PAVQObject@@@Z$1 00421309 f   workflowChecker.obj
 0001:00020315       __unwindfunclet$??0WorkflowCheckerController@@QAE@PAVQObject@@@Z$2 00421315 f   workflowChecker.obj
 0001:00020324       __unwindfunclet$??0WorkflowCheckerController@@QAE@PAVQObject@@@Z$8 00421324 f   workflowChecker.obj
 0001:0002032d       __unwindfunclet$??0WorkflowCheckerController@@QAE@PAVQObject@@@Z$9 0042132d f   workflowChecker.obj
 0001:00020339       __unwindfunclet$??0WorkflowCheckerController@@QAE@PAVQObject@@@Z$10 00421339 f   workflowChecker.obj
 0001:00020345       __ehhandler$??0WorkflowCheckerController@@QAE@PAVQObject@@@Z 00421345 f   workflowChecker.obj
 0001:00020360       __ehhandler$??1WorkflowController@@UAE@XZ 00421360 f   workflowprotocol.obj
 0001:00020360       __ehhandler$??1?$QMap@VQString@@VOperationParamData@@@@QAE@XZ 00421360 f   configfilehandler.obj
 0001:00020360       __ehhandler$??1?$QMap@VQString@@H@@QAE@XZ 00421360 f   workflowChecker.obj
 0001:00020360       __ehhandler$??1WorkflowCheckerController@@UAE@XZ 00421360 f   workflowChecker.obj
 0001:00020360       __ehhandler$??1?$QMap@VQString@@VQStringList@@@@QAE@XZ 00421360 f   configfilehandler.obj
 0001:00020380       __unwindfunclet$??4SingleOperationData@@QAEAAV0@$$QAV0@@Z$9 00421380 f   environmentvariant.obj
 0001:00020380       __unwindfunclet$??1?$QPair@VQString@@V?$QList@VSingleOperationData@@@@@@QAE@XZ$0 00421380 f   configfilehandler.obj
 0001:00020380       __unwindfunclet$??1SubThreadWorker@@UAE@XZ$2 00421380 f   workflowprotocol.obj
 0001:00020380       __unwindfunclet$??4?$QList@H@@QAEAAV0@$$QAV0@@Z$8 00421380 f   configfilehandler.obj
 0001:00020380       __unwindfunclet$??4?$QList@U?$QPair@VQString@@V?$QList@VSingleOperationData@@@@@@@@QAEAAV0@$$QAV0@@Z$8 00421380 f   configfilehandler.obj
 0001:00020380       __unwindfunclet$??_G?$QPair@VQString@@V?$QList@VSingleOperationData@@@@@@QAEPAXI@Z$1 00421380 f   configfilehandler.obj
 0001:00020380       __unwindfunclet$??_GWorkflowController@@UAEPAXI@Z$0 00421380 f   workflowprotocol.obj
 0001:00020380       __unwindfunclet$??4?$QList@PAVQObject@@@@QAEAAV0@$$QAV0@@Z$8 00421380 f   workmodels.obj
 0001:00020380       __unwindfunclet$??_GWorkflowCheckerController@@UAEPAXI@Z$0 00421380 f   workflowChecker.obj
 0001:00020386       __ehhandler$??_GWorkflowController@@UAEPAXI@Z 00421386 f   workflowprotocol.obj
 0001:00020386       __ehhandler$??_GWorkflowCheckerController@@UAEPAXI@Z 00421386 f   workflowChecker.obj
 0001:00020386       __ehhandler$??4?$QList@H@@QAEAAV0@$$QAV0@@Z 00421386 f   configfilehandler.obj
 0001:00020386       __ehhandler$??4?$QList@U?$QPair@VQString@@V?$QList@VSingleOperationData@@@@@@@@QAEAAV0@$$QAV0@@Z 00421386 f   configfilehandler.obj
 0001:00020386       __ehhandler$??1?$QPair@VQString@@V?$QList@VSingleOperationData@@@@@@QAE@XZ 00421386 f   configfilehandler.obj
 0001:00020386       __ehhandler$??1SubThreadWorker@@UAE@XZ 00421386 f   workflowprotocol.obj
 0001:00020386       __ehhandler$??_G?$QPair@VQString@@V?$QList@VSingleOperationData@@@@@@QAEPAXI@Z 00421386 f   configfilehandler.obj
 0001:00020386       __ehhandler$??4?$QList@PAVQObject@@@@QAEAAV0@$$QAV0@@Z 00421386 f   workmodels.obj
 0001:00020386       __ehhandler$??4SingleOperationData@@QAEAAV0@$$QAV0@@Z 00421386 f   environmentvariant.obj
 0001:000203b0       __unwindfunclet$?CheckBoardConstraint@SubThreadCheckWorker@@IAE_NABVQJsonObject@@@Z$0 004213b0 f   workflowChecker.obj
 0001:000203b9       __unwindfunclet$?CheckBoardConstraint@SubThreadCheckWorker@@IAE_NABVQJsonObject@@@Z$1 004213b9 f   workflowChecker.obj
 0001:000203c2       __unwindfunclet$?CheckBoardConstraint@SubThreadCheckWorker@@IAE_NABVQJsonObject@@@Z$2 004213c2 f   workflowChecker.obj
 0001:000203cb       __unwindfunclet$?CheckBoardConstraint@SubThreadCheckWorker@@IAE_NABVQJsonObject@@@Z$3 004213cb f   workflowChecker.obj
 0001:000203d4       __unwindfunclet$?CheckBoardConstraint@SubThreadCheckWorker@@IAE_NABVQJsonObject@@@Z$17 004213d4 f   workflowChecker.obj
 0001:000203dd       __unwindfunclet$?CheckBoardConstraint@SubThreadCheckWorker@@IAE_NABVQJsonObject@@@Z$4 004213dd f   workflowChecker.obj
 0001:000203e6       __unwindfunclet$?CheckBoardConstraint@SubThreadCheckWorker@@IAE_NABVQJsonObject@@@Z$5 004213e6 f   workflowChecker.obj
 0001:000203ef       __unwindfunclet$?CheckBoardConstraint@SubThreadCheckWorker@@IAE_NABVQJsonObject@@@Z$6 004213ef f   workflowChecker.obj
 0001:000203f8       __unwindfunclet$?CheckBoardConstraint@SubThreadCheckWorker@@IAE_NABVQJsonObject@@@Z$7 004213f8 f   workflowChecker.obj
 0001:00020401       __unwindfunclet$?CheckBoardConstraint@SubThreadCheckWorker@@IAE_NABVQJsonObject@@@Z$8 00421401 f   workflowChecker.obj
 0001:0002040d       __unwindfunclet$?CheckBoardConstraint@SubThreadCheckWorker@@IAE_NABVQJsonObject@@@Z$9 0042140d f   workflowChecker.obj
 0001:00020416       __unwindfunclet$?CheckBoardConstraint@SubThreadCheckWorker@@IAE_NABVQJsonObject@@@Z$10 00421416 f   workflowChecker.obj
 0001:0002041f       __unwindfunclet$?CheckBoardConstraint@SubThreadCheckWorker@@IAE_NABVQJsonObject@@@Z$11 0042141f f   workflowChecker.obj
 0001:00020428       __unwindfunclet$?CheckBoardConstraint@SubThreadCheckWorker@@IAE_NABVQJsonObject@@@Z$12 00421428 f   workflowChecker.obj
 0001:00020431       __unwindfunclet$?CheckBoardConstraint@SubThreadCheckWorker@@IAE_NABVQJsonObject@@@Z$14 00421431 f   workflowChecker.obj
 0001:0002043a       __unwindfunclet$?CheckBoardConstraint@SubThreadCheckWorker@@IAE_NABVQJsonObject@@@Z$15 0042143a f   workflowChecker.obj
 0001:00020443       __ehhandler$?CheckBoardConstraint@SubThreadCheckWorker@@IAE_NABVQJsonObject@@@Z 00421443 f   workflowChecker.obj
 0001:00020470       __unwindfunclet$?CheckParamConstraint@SubThreadCheckWorker@@IAE_NABVQJsonObject@@@Z$0 00421470 f   workflowChecker.obj
 0001:00020479       __unwindfunclet$?CheckParamConstraint@SubThreadCheckWorker@@IAE_NABVQJsonObject@@@Z$1 00421479 f   workflowChecker.obj
 0001:00020485       __unwindfunclet$?CheckParamConstraint@SubThreadCheckWorker@@IAE_NABVQJsonObject@@@Z$2 00421485 f   workflowChecker.obj
 0001:0002048e       __unwindfunclet$?CheckParamConstraint@SubThreadCheckWorker@@IAE_NABVQJsonObject@@@Z$3 0042148e f   workflowChecker.obj
 0001:00020497       __unwindfunclet$?CheckParamConstraint@SubThreadCheckWorker@@IAE_NABVQJsonObject@@@Z$32 00421497 f   workflowChecker.obj
 0001:000204a3       __unwindfunclet$?CheckParamConstraint@SubThreadCheckWorker@@IAE_NABVQJsonObject@@@Z$4 004214a3 f   workflowChecker.obj
 0001:000204ac       __unwindfunclet$?CheckParamConstraint@SubThreadCheckWorker@@IAE_NABVQJsonObject@@@Z$5 004214ac f   workflowChecker.obj
 0001:000204b8       __unwindfunclet$?CheckParamConstraint@SubThreadCheckWorker@@IAE_NABVQJsonObject@@@Z$6 004214b8 f   workflowChecker.obj
 0001:000204c1       __unwindfunclet$?CheckParamConstraint@SubThreadCheckWorker@@IAE_NABVQJsonObject@@@Z$7 004214c1 f   workflowChecker.obj
 0001:000204ca       __unwindfunclet$?CheckParamConstraint@SubThreadCheckWorker@@IAE_NABVQJsonObject@@@Z$8 004214ca f   workflowChecker.obj
 0001:000204d6       __unwindfunclet$?CheckParamConstraint@SubThreadCheckWorker@@IAE_NABVQJsonObject@@@Z$9 004214d6 f   workflowChecker.obj
 0001:000204e2       __unwindfunclet$?CheckParamConstraint@SubThreadCheckWorker@@IAE_NABVQJsonObject@@@Z$10 004214e2 f   workflowChecker.obj
 0001:000204eb       __unwindfunclet$?CheckParamConstraint@SubThreadCheckWorker@@IAE_NABVQJsonObject@@@Z$21 004214eb f   workflowChecker.obj
 0001:000204f4       __unwindfunclet$?CheckParamConstraint@SubThreadCheckWorker@@IAE_NABVQJsonObject@@@Z$22 004214f4 f   workflowChecker.obj
 0001:00020500       __unwindfunclet$?CheckParamConstraint@SubThreadCheckWorker@@IAE_NABVQJsonObject@@@Z$23 00421500 f   workflowChecker.obj
 0001:00020509       __unwindfunclet$?CheckParamConstraint@SubThreadCheckWorker@@IAE_NABVQJsonObject@@@Z$12 00421509 f   workflowChecker.obj
 0001:00020512       __unwindfunclet$?CheckParamConstraint@SubThreadCheckWorker@@IAE_NABVQJsonObject@@@Z$13 00421512 f   workflowChecker.obj
 0001:0002051e       __unwindfunclet$?CheckParamConstraint@SubThreadCheckWorker@@IAE_NABVQJsonObject@@@Z$14 0042151e f   workflowChecker.obj
 0001:00020527       __unwindfunclet$?CheckParamConstraint@SubThreadCheckWorker@@IAE_NABVQJsonObject@@@Z$16 00421527 f   workflowChecker.obj
 0001:00020530       __unwindfunclet$?CheckParamConstraint@SubThreadCheckWorker@@IAE_NABVQJsonObject@@@Z$17 00421530 f   workflowChecker.obj
 0001:0002053c       __unwindfunclet$?CheckParamConstraint@SubThreadCheckWorker@@IAE_NABVQJsonObject@@@Z$18 0042153c f   workflowChecker.obj
 0001:00020545       __unwindfunclet$?CheckParamConstraint@SubThreadCheckWorker@@IAE_NABVQJsonObject@@@Z$19 00421545 f   workflowChecker.obj
 0001:00020551       __unwindfunclet$?CheckParamConstraint@SubThreadCheckWorker@@IAE_NABVQJsonObject@@@Z$20 00421551 f   workflowChecker.obj
 0001:0002055d       __unwindfunclet$?CheckParamConstraint@SubThreadCheckWorker@@IAE_NABVQJsonObject@@@Z$33 0042155d f   workflowChecker.obj
 0001:00020569       __unwindfunclet$?CheckParamConstraint@SubThreadCheckWorker@@IAE_NABVQJsonObject@@@Z$26 00421569 f   workflowChecker.obj
 0001:00020572       __unwindfunclet$?CheckParamConstraint@SubThreadCheckWorker@@IAE_NABVQJsonObject@@@Z$27 00421572 f   workflowChecker.obj
 0001:0002057e       __unwindfunclet$?CheckParamConstraint@SubThreadCheckWorker@@IAE_NABVQJsonObject@@@Z$28 0042157e f   workflowChecker.obj
 0001:00020587       __unwindfunclet$?CheckParamConstraint@SubThreadCheckWorker@@IAE_NABVQJsonObject@@@Z$29 00421587 f   workflowChecker.obj
 0001:00020590       __unwindfunclet$?CheckParamConstraint@SubThreadCheckWorker@@IAE_NABVQJsonObject@@@Z$34 00421590 f   workflowChecker.obj
 0001:0002059c       __unwindfunclet$?CheckParamConstraint@SubThreadCheckWorker@@IAE_NABVQJsonObject@@@Z$31 0042159c f   workflowChecker.obj
 0001:000205a5       __ehhandler$?CheckParamConstraint@SubThreadCheckWorker@@IAE_NABVQJsonObject@@@Z 004215a5 f   workflowChecker.obj
 0001:000205d0       __unwindfunclet$?configChecker@SubThreadCheckWorker@@QAEXABVQJsonArray@@@Z$0 004215d0 f   workflowChecker.obj
 0001:000205d9       __unwindfunclet$?configChecker@SubThreadCheckWorker@@QAEXABVQJsonArray@@@Z$1 004215d9 f   workflowChecker.obj
 0001:000205e2       __unwindfunclet$?configChecker@SubThreadCheckWorker@@QAEXABVQJsonArray@@@Z$2 004215e2 f   workflowChecker.obj
 0001:000205eb       __unwindfunclet$?configChecker@SubThreadCheckWorker@@QAEXABVQJsonArray@@@Z$3 004215eb f   workflowChecker.obj
 0001:000205f4       __unwindfunclet$?configChecker@SubThreadCheckWorker@@QAEXABVQJsonArray@@@Z$4 004215f4 f   workflowChecker.obj
 0001:000205fd       __unwindfunclet$?configChecker@SubThreadCheckWorker@@QAEXABVQJsonArray@@@Z$5 004215fd f   workflowChecker.obj
 0001:00020606       __unwindfunclet$?configChecker@SubThreadCheckWorker@@QAEXABVQJsonArray@@@Z$6 00421606 f   workflowChecker.obj
 0001:0002060f       __unwindfunclet$?configChecker@SubThreadCheckWorker@@QAEXABVQJsonArray@@@Z$7 0042160f f   workflowChecker.obj
 0001:00020618       __unwindfunclet$?configChecker@SubThreadCheckWorker@@QAEXABVQJsonArray@@@Z$8 00421618 f   workflowChecker.obj
 0001:00020621       __unwindfunclet$?configChecker@SubThreadCheckWorker@@QAEXABVQJsonArray@@@Z$9 00421621 f   workflowChecker.obj
 0001:0002062a       __unwindfunclet$?configChecker@SubThreadCheckWorker@@QAEXABVQJsonArray@@@Z$10 0042162a f   workflowChecker.obj
 0001:00020633       __unwindfunclet$?configChecker@SubThreadCheckWorker@@QAEXABVQJsonArray@@@Z$11 00421633 f   workflowChecker.obj
 0001:0002063c       __unwindfunclet$?configChecker@SubThreadCheckWorker@@QAEXABVQJsonArray@@@Z$12 0042163c f   workflowChecker.obj
 0001:00020645       __unwindfunclet$?configChecker@SubThreadCheckWorker@@QAEXABVQJsonArray@@@Z$13 00421645 f   workflowChecker.obj
 0001:0002064e       __unwindfunclet$?configChecker@SubThreadCheckWorker@@QAEXABVQJsonArray@@@Z$14 0042164e f   workflowChecker.obj
 0001:00020657       __ehhandler$?configChecker@SubThreadCheckWorker@@QAEXABVQJsonArray@@@Z 00421657 f   workflowChecker.obj
 0001:00020680       __unwindfunclet$?doCheck@SubThreadCheckWorker@@QAEXABVQJsonObject@@@Z$0 00421680 f   workflowChecker.obj
 0001:00020689       __unwindfunclet$?doCheck@SubThreadCheckWorker@@QAEXABVQJsonObject@@@Z$1 00421689 f   workflowChecker.obj
 0001:00020692       __unwindfunclet$?doCheck@SubThreadCheckWorker@@QAEXABVQJsonObject@@@Z$2 00421692 f   workflowChecker.obj
 0001:0002069b       __unwindfunclet$?doCheck@SubThreadCheckWorker@@QAEXABVQJsonObject@@@Z$3 0042169b f   workflowChecker.obj
 0001:000206a4       __unwindfunclet$?doCheck@SubThreadCheckWorker@@QAEXABVQJsonObject@@@Z$4 004216a4 f   workflowChecker.obj
 0001:000206ad       __unwindfunclet$?doCheck@SubThreadCheckWorker@@QAEXABVQJsonObject@@@Z$5 004216ad f   workflowChecker.obj
 0001:000206b6       __unwindfunclet$?doCheck@SubThreadCheckWorker@@QAEXABVQJsonObject@@@Z$6 004216b6 f   workflowChecker.obj
 0001:000206bf       __unwindfunclet$?doCheck@SubThreadCheckWorker@@QAEXABVQJsonObject@@@Z$7 004216bf f   workflowChecker.obj
 0001:000206c8       __unwindfunclet$?doCheck@SubThreadCheckWorker@@QAEXABVQJsonObject@@@Z$8 004216c8 f   workflowChecker.obj
 0001:000206d1       __unwindfunclet$?doCheck@SubThreadCheckWorker@@QAEXABVQJsonObject@@@Z$9 004216d1 f   workflowChecker.obj
 0001:000206da       __unwindfunclet$?doCheck@SubThreadCheckWorker@@QAEXABVQJsonObject@@@Z$10 004216da f   workflowChecker.obj
 0001:000206e3       __unwindfunclet$?doCheck@SubThreadCheckWorker@@QAEXABVQJsonObject@@@Z$11 004216e3 f   workflowChecker.obj
 0001:000206ec       __unwindfunclet$?doCheck@SubThreadCheckWorker@@QAEXABVQJsonObject@@@Z$12 004216ec f   workflowChecker.obj
 0001:000206f5       __unwindfunclet$?doCheck@SubThreadCheckWorker@@QAEXABVQJsonObject@@@Z$13 004216f5 f   workflowChecker.obj
 0001:000206fe       __unwindfunclet$?doCheck@SubThreadCheckWorker@@QAEXABVQJsonObject@@@Z$14 004216fe f   workflowChecker.obj
 0001:00020707       __unwindfunclet$?doCheck@SubThreadCheckWorker@@QAEXABVQJsonObject@@@Z$15 00421707 f   workflowChecker.obj
 0001:00020710       __unwindfunclet$?doCheck@SubThreadCheckWorker@@QAEXABVQJsonObject@@@Z$16 00421710 f   workflowChecker.obj
 0001:00020719       __unwindfunclet$?doCheck@SubThreadCheckWorker@@QAEXABVQJsonObject@@@Z$17 00421719 f   workflowChecker.obj
 0001:00020722       __unwindfunclet$?doCheck@SubThreadCheckWorker@@QAEXABVQJsonObject@@@Z$18 00421722 f   workflowChecker.obj
 0001:0002072b       __unwindfunclet$?doCheck@SubThreadCheckWorker@@QAEXABVQJsonObject@@@Z$19 0042172b f   workflowChecker.obj
 0001:00020734       __unwindfunclet$?doCheck@SubThreadCheckWorker@@QAEXABVQJsonObject@@@Z$38 00421734 f   workflowChecker.obj
 0001:0002073d       __unwindfunclet$?doCheck@SubThreadCheckWorker@@QAEXABVQJsonObject@@@Z$20 0042173d f   workflowChecker.obj
 0001:00020746       __unwindfunclet$?doCheck@SubThreadCheckWorker@@QAEXABVQJsonObject@@@Z$21 00421746 f   workflowChecker.obj
 0001:0002074f       __unwindfunclet$?doCheck@SubThreadCheckWorker@@QAEXABVQJsonObject@@@Z$22 0042174f f   workflowChecker.obj
 0001:00020758       __unwindfunclet$?doCheck@SubThreadCheckWorker@@QAEXABVQJsonObject@@@Z$23 00421758 f   workflowChecker.obj
 0001:00020761       __unwindfunclet$?doCheck@SubThreadCheckWorker@@QAEXABVQJsonObject@@@Z$24 00421761 f   workflowChecker.obj
 0001:0002076a       __unwindfunclet$?doCheck@SubThreadCheckWorker@@QAEXABVQJsonObject@@@Z$25 0042176a f   workflowChecker.obj
 0001:00020773       __unwindfunclet$?doCheck@SubThreadCheckWorker@@QAEXABVQJsonObject@@@Z$26 00421773 f   workflowChecker.obj
 0001:0002077c       __unwindfunclet$?doCheck@SubThreadCheckWorker@@QAEXABVQJsonObject@@@Z$27 0042177c f   workflowChecker.obj
 0001:00020785       __ehhandler$?doCheck@SubThreadCheckWorker@@QAEXABVQJsonObject@@@Z 00421785 f   workflowChecker.obj
 0001:000207a0       __unwindfunclet$?Construct@?$QMetaTypeFunctionHelper@V?$QList@PAVQObject@@@@$00@QtMetaTypePrivate@@SAPAXPAXPBX@Z$0 004217a0 f   moc_workmodels.obj
 0001:000207a0       __unwindfunclet$?Construct@?$QMetaTypeFunctionHelper@V?$QList@H@@$00@QtMetaTypePrivate@@SAPAXPAXPBX@Z$0 004217a0 f   moc_workmodels.obj
 0001:000207b1       __ehhandler$?Construct@?$QMetaTypeFunctionHelper@V?$QList@PAVQObject@@@@$00@QtMetaTypePrivate@@SAPAXPAXPBX@Z 004217b1 f   moc_workmodels.obj
 0001:000207b1       __ehhandler$?Construct@?$QMetaTypeFunctionHelper@V?$QList@H@@$00@QtMetaTypePrivate@@SAPAXPAXPBX@Z 004217b1 f   moc_workmodels.obj
 0001:000207d0       __unwindfunclet$?Destruct@?$QMetaTypeFunctionHelper@V?$QList@H@@$00@QtMetaTypePrivate@@SAXPAX@Z$1 004217d0 f   moc_workmodels.obj
 0001:000207d0       __unwindfunclet$??__Ff@?4??registerConverter@?$ValueTypeIsMetaType@V?$QList@H@@$00@QtPrivate@@SA_NH@Z@YAXXZ$0 004217d0 f   moc_workmodels.obj
 0001:000207d0       __unwindfunclet$??__Ff@?4??registerConverter@?$ValueTypeIsMetaType@V?$QList@PAVQObject@@@@$00@QtPrivate@@SA_NH@Z@YAXXZ$0 004217d0 f   moc_workmodels.obj
 0001:000207d0       __unwindfunclet$??__Fdummy@?A0x60b45615@@YAXXZ$0 004217d0 f   qrc_qml.obj
 0001:000207d0       __unwindfunclet$?Destruct@?$QMetaTypeFunctionHelper@V?$QList@PAVQObject@@@@$00@QtMetaTypePrivate@@SAXPAX@Z$1 004217d0 f   moc_workmodels.obj
 0001:000207d6       __ehhandler$??__Fdummy@?A0x60b45615@@YAXXZ 004217d6 f   qrc_qml.obj
 0001:000207d6       __ehhandler$??__Ff@?4??registerConverter@?$ValueTypeIsMetaType@V?$QList@PAVQObject@@@@$00@QtPrivate@@SA_NH@Z@YAXXZ 004217d6 f   moc_workmodels.obj
 0001:000207d6       __ehhandler$?Destruct@?$QMetaTypeFunctionHelper@V?$QList@PAVQObject@@@@$00@QtMetaTypePrivate@@SAXPAX@Z 004217d6 f   moc_workmodels.obj
 0001:000207d6       __ehhandler$?Destruct@?$QMetaTypeFunctionHelper@V?$QList@H@@$00@QtMetaTypePrivate@@SAXPAX@Z 004217d6 f   moc_workmodels.obj
 0001:000207d6       __ehhandler$??__Ff@?4??registerConverter@?$ValueTypeIsMetaType@V?$QList@H@@$00@QtPrivate@@SA_NH@Z@YAXXZ 004217d6 f   moc_workmodels.obj
 0001:00020800       __unwindfunclet$?qt_metatype_id@?$QMetaTypeId@V?$QList@H@@@@SAHXZ$0 00421800 f   moc_workmodels.obj
 0001:00020809       __ehhandler$?qt_metatype_id@?$QMetaTypeId@V?$QList@H@@@@SAHXZ 00421809 f   moc_workmodels.obj
 0001:00020830       __unwindfunclet$?qt_metatype_id@?$QMetaTypeId@V?$QList@PAVQObject@@@@@@SAHXZ$2 00421830 f   moc_workmodels.obj
 0001:00020830       __unwindfunclet$?qt_metatype_id@?$QMetaTypeId@VQSequentialIterableImpl@QtMetaTypePrivate@@@@SAHXZ$2 00421830 f   moc_workmodels.obj
 0001:00020839       __ehhandler$?qt_metatype_id@?$QMetaTypeId@VQSequentialIterableImpl@QtMetaTypePrivate@@@@SAHXZ 00421839 f   moc_workmodels.obj
 0001:00020839       __ehhandler$?qt_metatype_id@?$QMetaTypeId@V?$QList@PAVQObject@@@@@@SAHXZ 00421839 f   moc_workmodels.obj
 0001:00020860       __unwindfunclet$?qt_static_metacall@OperationParamSelector@@CAXPAVQObject@@W4Call@QMetaObject@@HPAPAX@Z$0 00421860 f   moc_workmodels.obj
 0001:00020868       __ehhandler$?qt_static_metacall@OperationParamSelector@@CAXPAVQObject@@W4Call@QMetaObject@@HPAPAX@Z 00421868 f   moc_workmodels.obj
 0001:00020890       __unwindfunclet$?qt_static_metacall@PlanSelector@@CAXPAVQObject@@W4Call@QMetaObject@@HPAPAX@Z$0 00421890 f   moc_workmodels.obj
 0001:00020898       __unwindfunclet$?qt_static_metacall@PlanSelector@@CAXPAVQObject@@W4Call@QMetaObject@@HPAPAX@Z$1 00421898 f   moc_workmodels.obj
 0001:000208a0       __unwindfunclet$?qt_static_metacall@PlanSelector@@CAXPAVQObject@@W4Call@QMetaObject@@HPAPAX@Z$2 004218a0 f   moc_workmodels.obj
 0001:000208a8       __unwindfunclet$?qt_static_metacall@PlanSelector@@CAXPAVQObject@@W4Call@QMetaObject@@HPAPAX@Z$3 004218a8 f   moc_workmodels.obj
 0001:000208b0       __ehhandler$?qt_static_metacall@PlanSelector@@CAXPAVQObject@@W4Call@QMetaObject@@HPAPAX@Z 004218b0 f   moc_workmodels.obj
 0001:000208d0       __unwindfunclet$?qt_static_metacall@StatusViewWatcher@@CAXPAVQObject@@W4Call@QMetaObject@@HPAPAX@Z$0 004218d0 f   moc_workmodels.obj
 0001:000208d9       __unwindfunclet$?qt_static_metacall@StatusViewWatcher@@CAXPAVQObject@@W4Call@QMetaObject@@HPAPAX@Z$1 004218d9 f   moc_workmodels.obj
 0001:000208e2       __ehhandler$?qt_static_metacall@StatusViewWatcher@@CAXPAVQObject@@W4Call@QMetaObject@@HPAPAX@Z 004218e2 f   moc_workmodels.obj
 0001:00020900       __unwindfunclet$?setIntListValue@OperationParamObject@@QAEXABV?$QList@H@@@Z$7 00421900 f   moc_workmodels.obj
 0001:00020900       __unwindfunclet$?clear@?$QList@UloopControl@SubThreadWorker@@@@QAEXXZ$2 00421900 f   workflowprotocol.obj
 0001:00020900       __unwindfunclet$?setParamModel@OperationParamSelector@@QAEXABV?$QList@PAVQObject@@@@@Z$7 00421900 f   moc_workmodels.obj
 0001:00020900       __unwindfunclet$??4OperationParamData@@QAEAAV0@ABV0@@Z$14 00421900 f   configfilehandler.obj
 0001:00020900       __unwindfunclet$?setParamListModel@PlanSelector@@QAEXABV?$QList@PAVQObject@@@@@Z$7 00421900 f   moc_workmodels.obj
 0001:00020906       __ehhandler$?clear@?$QList@UloopControl@SubThreadWorker@@@@QAEXXZ 00421906 f   workflowprotocol.obj
 0001:00020906       __ehhandler$??4OperationParamData@@QAEAAV0@ABV0@@Z 00421906 f   configfilehandler.obj
 0001:00020906       __ehhandler$?setIntListValue@OperationParamObject@@QAEXABV?$QList@H@@@Z 00421906 f   moc_workmodels.obj
 0001:00020906       __ehhandler$?setParamListModel@PlanSelector@@QAEXABV?$QList@PAVQObject@@@@@Z 00421906 f   moc_workmodels.obj
 0001:00020906       __ehhandler$?setParamModel@OperationParamSelector@@QAEXABV?$QList@PAVQObject@@@@@Z 00421906 f   moc_workmodels.obj
 0001:00020930       ??__Fdummy@?A0x60b45615@@YAXXZ 00421930 f   qrc_qml.obj
 0002:00000588       ?pre_cpp_initializer@@3P6AXXZA 00422588     MSVCRT:exe_winmain.obj
 0002:0000058c       ?dummy$initializer$@?A0x60b45615@@3P6AXXZA 0042258c     qrc_qml.obj
 0002:00000590       ??staticMetaObject$initializer$@SubThreadWorker@@2P6AXXZA@@3P6AXXZA 00422590     moc_workflowprotocol.obj
 0002:00000594       ??staticMetaObject$initializer$@WorkflowController@@2P6AXXZA@@3P6AXXZA 00422594     moc_workflowprotocol.obj
 0002:00000598       ??staticMetaObject$initializer$@SubThreadCheckWorker@@2P6AXXZA@@3P6AXXZA 00422598     moc_workflowChecker.obj
 0002:0000059c       ??staticMetaObject$initializer$@WorkflowCheckerController@@2P6AXXZA@@3P6AXXZA 0042259c     moc_workflowChecker.obj
 0002:000005a0       ??staticMetaObject$initializer$@configFileHandler@@2P6AXXZA@@3P6AXXZA 004225a0     moc_configfilehandler.obj
 0002:000005a4       ??staticMetaObject$initializer$@EnvironmentVariant@@2P6AXXZA@@3P6AXXZA 004225a4     moc_environmentvariant.obj
 0002:000005a8       ??staticMetaObject$initializer$@OperationParamObject@@2P6AXXZA@@3P6AXXZA 004225a8     moc_workmodels.obj
 0002:000005ac       ??staticMetaObject$initializer$@OperationParamSelector@@2P6AXXZA@@3P6AXXZA 004225ac     moc_workmodels.obj
 0002:000005b0       ??staticMetaObject$initializer$@SingleOperationObject@@2P6AXXZA@@3P6AXXZA 004225b0     moc_workmodels.obj
 0002:000005b4       ??staticMetaObject$initializer$@PlanSelector@@2P6AXXZA@@3P6AXXZA 004225b4     moc_workmodels.obj
 0002:000005b8       ??staticMetaObject$initializer$@PlanController@@2P6AXXZA@@3P6AXXZA 004225b8     moc_workmodels.obj
 0002:000005bc       ??staticMetaObject$initializer$@StatusViewWatcher@@2P6AXXZA@@3P6AXXZA 004225bc     moc_workmodels.obj
 0002:000005c0       ??staticMetaObject$initializer$@TargetMachineObject@@2P6AXXZA@@3P6AXXZA 004225c0     moc_workmodels.obj
 0002:000005c4       ??staticMetaObject$initializer$@ConfigFileConverter@@2P6AXXZA@@3P6AXXZA 004225c4     moc_workmodels.obj
 0002:000005d0       ?pre_c_initializer@@3P6AHXZA 004225d0     MSVCRT:exe_winmain.obj
 0002:000005d4       ?post_pgo_initializer@@3P6AHXZA 004225d4     MSVCRT:exe_winmain.obj
 0002:000005d8       ?__scrt_initialize_tss_var@@3P6AHXZA 004225d8     MSVCRT:thread_safe_statics.obj
 0002:000010c8       ?qt_resource_data@@3QBEB   004230c8     qrc_qml.obj
 0002:0004c4a0       ?qt_resource_name@@3QBEB   0046e4a0     qrc_qml.obj
 0002:0004c7f0       ?qt_resource_struct@@3QBEB 0046e7f0     qrc_qml.obj
 0002:0004ca88       ?qt_meta_stringdata_SubThreadWorker@@3Uqt_meta_stringdata_SubThreadWorker_t@@B 0046ea88     moc_workflowprotocol.obj
 0002:0004cbd8       ?qt_meta_data_SubThreadWorker@@3QBIB 0046ebd8     moc_workflowprotocol.obj
 0002:0004cd00       ?qt_meta_stringdata_WorkflowController@@3Uqt_meta_stringdata_WorkflowController_t@@B 0046ed00     moc_workflowprotocol.obj
 0002:0004ce58       ?qt_meta_data_WorkflowController@@3QBIB 0046ee58     moc_workflowprotocol.obj
 0002:0004cf80       ?qt_meta_stringdata_SubThreadCheckWorker@@3Uqt_meta_stringdata_SubThreadCheckWorker_t@@B 0046ef80     moc_workflowChecker.obj
 0002:0004d028       ?qt_meta_data_SubThreadCheckWorker@@3QBIB 0046f028     moc_workflowChecker.obj
 0002:0004d0e0       ?qt_meta_stringdata_WorkflowCheckerController@@3Uqt_meta_stringdata_WorkflowCheckerController_t@@B 0046f0e0     moc_workflowChecker.obj
 0002:0004d1a8       ?qt_meta_data_WorkflowCheckerController@@3QBIB 0046f1a8     moc_workflowChecker.obj
 0002:0004d25c       ?qt_meta_stringdata_configFileHandler@@3Uqt_meta_stringdata_configFileHandler_t@@B 0046f25c     moc_configfilehandler.obj
 0002:0004d280       ?qt_meta_data_configFileHandler@@3QBIB 0046f280     moc_configfilehandler.obj
 0002:0004d2c0       ?qt_meta_stringdata_EnvironmentVariant@@3Uqt_meta_stringdata_EnvironmentVariant_t@@B 0046f2c0     moc_environmentvariant.obj
 0002:0004d320       ?qt_meta_data_EnvironmentVariant@@3QBIB 0046f320     moc_environmentvariant.obj
 0002:0004d378       ?qt_meta_data_PlanSelector@@3QBIB 0046f378     moc_workmodels.obj
 0002:0004d6b0       ?qt_meta_stringdata_OperationParamObject@@3Uqt_meta_stringdata_OperationParamObject_t@@B 0046f6b0     moc_workmodels.obj
 0002:0004da08       ?qt_meta_data_OperationParamObject@@3QBIB 0046fa08     moc_workmodels.obj
 0002:0004dc50       ?qt_meta_stringdata_PlanController@@3Uqt_meta_stringdata_PlanController_t@@B 0046fc50     moc_workmodels.obj
 0002:0004dd48       ?qt_meta_data_PlanController@@3QBIB 0046fd48     moc_workmodels.obj
 0002:0004de00       ?qt_meta_stringdata_StatusViewWatcher@@3Uqt_meta_stringdata_StatusViewWatcher_t@@B 0046fe00     moc_workmodels.obj
 0002:0004df78       ?qt_meta_data_StatusViewWatcher@@3QBIB 0046ff78     moc_workmodels.obj
 0002:0004e070       ?qt_meta_stringdata_TargetMachineObject@@3Uqt_meta_stringdata_TargetMachineObject_t@@B 00470070     moc_workmodels.obj
 0002:0004e140       ?qt_meta_data_TargetMachineObject@@3QBIB 00470140     moc_workmodels.obj
 0002:0004e1e0       ?qt_meta_stringdata_OperationParamSelector@@3Uqt_meta_stringdata_OperationParamSelector_t@@B 004701e0     moc_workmodels.obj
 0002:0004e3c8       ?qt_meta_data_OperationParamSelector@@3QBIB 004703c8     moc_workmodels.obj
 0002:0004e510       ?qt_meta_stringdata_ConfigFileConverter@@3Uqt_meta_stringdata_ConfigFileConverter_t@@B 00470510     moc_workmodels.obj
 0002:0004e5a0       ?qt_meta_data_ConfigFileConverter@@3QBIB 004705a0     moc_workmodels.obj
 0002:0004e620       ?qt_meta_stringdata_SingleOperationObject@@3Uqt_meta_stringdata_SingleOperationObject_t@@B 00470620     moc_workmodels.obj
 0002:0004e6a0       ?qt_meta_data_SingleOperationObject@@3QBIB 004706a0     moc_workmodels.obj
 0002:0004e708       ?qt_meta_stringdata_PlanSelector@@3Uqt_meta_stringdata_PlanSelector_t@@B 00470708     moc_workmodels.obj
 0002:0004ebf8       _GS_ExceptionPointers      00470bf8     MSVCRT:gs_report.obj
 0002:0004fd00       __ehfuncinfo$?connectToServer@Communication@@QAE_NABVQString@@G@Z 00471d00     communication.obj
 0002:0004fd24       __unwindtable$?connectToServer@Communication@@QAE_NABVQString@@G@Z 00471d24     communication.obj
 0002:0004fd4c       __catchsym$??0?$QList@VQString@@@@QAE@ABV0@@Z$7 00471d4c     workflowprotocol.obj
 0002:0004fd5c       __unwindtable$??0?$QList@VQString@@@@QAE@ABV0@@Z 00471d5c     workflowprotocol.obj
 0002:0004fd6c       __tryblocktable$??0?$QList@VQString@@@@QAE@ABV0@@Z 00471d6c     workflowprotocol.obj
 0002:0004fd80       __ehfuncinfo$??0?$QList@VQString@@@@QAE@ABV0@@Z 00471d80     workflowprotocol.obj
 0002:0004fda4       __catchsym$?append@?$QList@VQString@@@@QAEXABVQString@@@Z$11 00471da4     workflowprotocol.obj
 0002:0004fdb4       __tryblocktable$?append@?$QList@VQString@@@@QAEXABVQString@@@Z 00471db4     workflowprotocol.obj
 0002:0004fdc8       __ehfuncinfo$?append@?$QList@VQString@@@@QAEXABVQString@@@Z 00471dc8     workflowprotocol.obj
 0002:0004fdec       __unwindtable$?append@?$QList@VQString@@@@QAEXABVQString@@@Z 00471dec     workflowprotocol.obj
 0002:0004fe1c       __catchsym$?detach_helper_grow@?$QList@VQString@@@@AAEPAUNode@1@HH@Z$12 00471e1c     workflowprotocol.obj
 0002:0004fe2c       __catchsym$?detach_helper_grow@?$QList@VQString@@@@AAEPAUNode@1@HH@Z$11 00471e2c     workflowprotocol.obj
 0002:0004fe3c       __unwindtable$?detach_helper_grow@?$QList@VQString@@@@AAEPAUNode@1@HH@Z 00471e3c     workflowprotocol.obj
 0002:0004fe5c       __ehfuncinfo$?detach_helper_grow@?$QList@VQString@@@@AAEPAUNode@1@HH@Z 00471e5c     workflowprotocol.obj
 0002:0004fe80       __tryblocktable$?detach_helper_grow@?$QList@VQString@@@@AAEPAUNode@1@HH@Z 00471e80     workflowprotocol.obj
 0002:0004fea8       __ehfuncinfo$?initProtocol@WorkflowProtocol@@QAE_NABVQString@@@Z 00471ea8     workflowprotocol.obj
 0002:0004fecc       __unwindtable$?initProtocol@WorkflowProtocol@@QAE_NABVQString@@@Z 00471ecc     workflowprotocol.obj
 0002:0004fefc       __ehfuncinfo$?parseJsonObjectToSendFrame@WorkflowProtocol@@QAE_NABVQJsonObject@@AAV2@@Z 00471efc     workflowprotocol.obj
 0002:0004ff20       __unwindtable$?parseJsonObjectToSendFrame@WorkflowProtocol@@QAE_NABVQJsonObject@@AAV2@@Z 00471f20     workflowprotocol.obj
 0002:00050088       __unwindtable$?formatRecvFrameToJsonObject@WorkflowProtocol@@QAE_NAAVQJsonObject@@@Z 00472088     workflowprotocol.obj
 0002:00050098       __ehfuncinfo$?formatRecvFrameToJsonObject@WorkflowProtocol@@QAE_NAAVQJsonObject@@@Z 00472098     workflowprotocol.obj
 0002:000500bc       __unwindtable$?parseAckFrame@WorkflowProtocol@@QAE_NABVQByteArray@@AAVQJsonObject@@@Z 004720bc     workflowprotocol.obj
 0002:000500c4       __ehfuncinfo$?parseAckFrame@WorkflowProtocol@@QAE_NABVQByteArray@@AAVQJsonObject@@@Z 004720c4     workflowprotocol.obj
 0002:000500e8       __ehfuncinfo$?serializeSendFrame@WorkflowProtocol@@QAE?AVQByteArray@@XZ 004720e8     workflowprotocol.obj
 0002:0005010c       __unwindtable$?serializeSendFrame@WorkflowProtocol@@QAE?AVQByteArray@@XZ 0047210c     workflowprotocol.obj
 0002:0005013c       __unwindtable$?unserializeRecvFrame@WorkflowProtocol@@QAEXABVQByteArray@@@Z 0047213c     workflowprotocol.obj
 0002:00050144       __ehfuncinfo$?unserializeRecvFrame@WorkflowProtocol@@QAEXABVQByteArray@@@Z 00472144     workflowprotocol.obj
 0002:00050168       __ehfuncinfo$?doTunning@SubThreadWorker@@QAEXABVQJsonObject@@@Z 00472168     workflowprotocol.obj
 0002:0005018c       __unwindtable$?doTunning@SubThreadWorker@@QAEXABVQJsonObject@@@Z 0047218c     workflowprotocol.obj
 0002:000501cc       __ehfuncinfo$?doWork@SubThreadWorker@@QAEXABVQJsonObject@@@Z 004721cc     workflowprotocol.obj
 0002:000501f0       __unwindtable$?doWork@SubThreadWorker@@QAEXABVQJsonObject@@@Z 004721f0     workflowprotocol.obj
 0002:00050260       __ehfuncinfo$?handleControlCommand@SubThreadWorker@@IAE_NAAVCommunication@@AAVQJsonObject@@@Z 00472260     workflowprotocol.obj
 0002:00050284       __unwindtable$?handleControlCommand@SubThreadWorker@@IAE_NAAVCommunication@@AAVQJsonObject@@@Z 00472284     workflowprotocol.obj
 0002:000503f4       __ehfuncinfo$?handleLogicalCommand@SubThreadWorker@@IAE_NAAVQJsonObject@@AAH@Z 004723f4     workflowprotocol.obj
 0002:00050418       __unwindtable$?handleLogicalCommand@SubThreadWorker@@IAE_NAAVQJsonObject@@AAH@Z 00472418     workflowprotocol.obj
 0002:00050560       __ehfuncinfo$?isLogicalCommand@SubThreadWorker@@IAE_NABVQString@@@Z 00472560     workflowprotocol.obj
 0002:00050584       __unwindtable$?isLogicalCommand@SubThreadWorker@@IAE_NABVQString@@@Z 00472584     workflowprotocol.obj
 0002:000505ac       __ehfuncinfo$?isLoopCommand@SubThreadWorker@@IAE_NABVQString@@@Z 004725ac     workflowprotocol.obj
 0002:000505d0       __unwindtable$?isLoopCommand@SubThreadWorker@@IAE_NABVQString@@@Z 004725d0     workflowprotocol.obj
 0002:00050600       __ehfuncinfo$?handleLoopCommand@SubThreadWorker@@IAE_NAAVQJsonObject@@AAH@Z 00472600     workflowprotocol.obj
 0002:00050624       __unwindtable$?handleLoopCommand@SubThreadWorker@@IAE_NAAVQJsonObject@@AAH@Z 00472624     workflowprotocol.obj
 0002:0005075c       __unwindtable$??4?$QList@UloopControl@SubThreadWorker@@@@QAEAAV0@$$QAV0@@Z 0047275c     workflowprotocol.obj
 0002:00050764       __ehfuncinfo$??4?$QList@UloopControl@SubThreadWorker@@@@QAEAAV0@$$QAV0@@Z 00472764     workflowprotocol.obj
 0002:00050788       __catchsym$?append@?$QList@UloopControl@SubThreadWorker@@@@QAEXABUloopControl@SubThreadWorker@@@Z$10 00472788     workflowprotocol.obj
 0002:00050798       __catchsym$?append@?$QList@UloopControl@SubThreadWorker@@@@QAEXABUloopControl@SubThreadWorker@@@Z$9 00472798     workflowprotocol.obj
 0002:000507a8       __ehfuncinfo$?append@?$QList@UloopControl@SubThreadWorker@@@@QAEXABUloopControl@SubThreadWorker@@@Z 004727a8     workflowprotocol.obj
 0002:000507cc       __tryblocktable$?append@?$QList@UloopControl@SubThreadWorker@@@@QAEXABUloopControl@SubThreadWorker@@@Z 004727cc     workflowprotocol.obj
 0002:000507f4       __unwindtable$?append@?$QList@UloopControl@SubThreadWorker@@@@QAEXABUloopControl@SubThreadWorker@@@Z 004727f4     workflowprotocol.obj
 0002:00050824       __catchsym$?detach_helper_grow@?$QList@UloopControl@SubThreadWorker@@@@AAEPAUNode@1@HH@Z$10 00472824     workflowprotocol.obj
 0002:00050834       __catchsym$?detach_helper_grow@?$QList@UloopControl@SubThreadWorker@@@@AAEPAUNode@1@HH@Z$9 00472834     workflowprotocol.obj
 0002:00050844       __unwindtable$?detach_helper_grow@?$QList@UloopControl@SubThreadWorker@@@@AAEPAUNode@1@HH@Z 00472844     workflowprotocol.obj
 0002:00050864       __ehfuncinfo$?detach_helper_grow@?$QList@UloopControl@SubThreadWorker@@@@AAEPAUNode@1@HH@Z 00472864     workflowprotocol.obj
 0002:00050888       __tryblocktable$?detach_helper_grow@?$QList@UloopControl@SubThreadWorker@@@@AAEPAUNode@1@HH@Z 00472888     workflowprotocol.obj
 0002:000508b0       __catchsym$?detach_helper@?$QList@UloopControl@SubThreadWorker@@@@AAEXH@Z$7 004728b0     workflowprotocol.obj
 0002:000508c0       __unwindtable$?detach_helper@?$QList@UloopControl@SubThreadWorker@@@@AAEXH@Z 004728c0     workflowprotocol.obj
 0002:000508d0       __tryblocktable$?detach_helper@?$QList@UloopControl@SubThreadWorker@@@@AAEXH@Z 004728d0     workflowprotocol.obj
 0002:000508e4       __ehfuncinfo$?detach_helper@?$QList@UloopControl@SubThreadWorker@@@@AAEXH@Z 004728e4     workflowprotocol.obj
 0002:00050908       __catchsym$?node_copy@?$QList@UloopControl@SubThreadWorker@@@@AAEXPAUNode@1@00@Z$4 00472908     workflowprotocol.obj
 0002:00050918       __tryblocktable$?node_copy@?$QList@UloopControl@SubThreadWorker@@@@AAEXPAUNode@1@00@Z 00472918     workflowprotocol.obj
 0002:0005092c       __unwindtable$?node_copy@?$QList@UloopControl@SubThreadWorker@@@@AAEXPAUNode@1@00@Z 0047292c     workflowprotocol.obj
 0002:0005094c       __ehfuncinfo$?node_copy@?$QList@UloopControl@SubThreadWorker@@@@AAEXPAUNode@1@00@Z 0047294c     workflowprotocol.obj
 0002:00050970       __unwindtable$??0WorkflowController@@QAE@PAVQObject@@@Z 00472970     workflowprotocol.obj
 0002:00050990       __ehfuncinfo$??0WorkflowController@@QAE@PAVQObject@@@Z 00472990     workflowprotocol.obj
 0002:000509b4       __unwindtable$?statusChanged@WorkflowCheckerController@@QAEXABVQJsonObject@@@Z 004729b4     workflowChecker.obj
 0002:000509b4       __unwindtable$?statusChanged@WorkflowController@@QAEXABVQJsonObject@@@Z 004729b4     workflowprotocol.obj
 0002:000509c4       __ehfuncinfo$?statusChanged@WorkflowController@@QAEXABVQJsonObject@@@Z 004729c4     workflowprotocol.obj
 0002:000509c4       __ehfuncinfo$?statusChanged@WorkflowCheckerController@@QAEXABVQJsonObject@@@Z 004729c4     workflowChecker.obj
 0002:000509e8       __unwindtable$?taskStateChanged@WorkflowController@@QAEX_NH@Z 004729e8     workflowprotocol.obj
 0002:000509f0       __ehfuncinfo$?taskStateChanged@WorkflowController@@QAEX_NH@Z 004729f0     workflowprotocol.obj
 0002:00050a14       __unwindtable$??H@YA?BVQString@@ABV0@PBD@Z 00472a14     configfilehandler.obj
 0002:00050a24       __ehfuncinfo$??H@YA?BVQString@@ABV0@PBD@Z 00472a24     configfilehandler.obj
 0002:00050a48       __unwindtable$??H@YA?BVQString@@PBDABV0@@Z 00472a48     configfilehandler.obj
 0002:00050a48       __unwindtable$??H@YA?BVQString@@ABV0@0@Z 00472a48     environmentvariant.obj
 0002:00050a50       __ehfuncinfo$??H@YA?BVQString@@ABV0@0@Z 00472a50     environmentvariant.obj
 0002:00050a50       __ehfuncinfo$??H@YA?BVQString@@PBDABV0@@Z 00472a50     configfilehandler.obj
 0002:00050a74       __unwindtable$??H@YA?BVQString@@ABV0@D@Z 00472a74     configfilehandler.obj
 0002:00050a7c       __ehfuncinfo$??H@YA?BVQString@@ABV0@D@Z 00472a7c     configfilehandler.obj
 0002:00050aa0       __catchsym$?detach_helper@?$QList@VQByteArray@@@@AAEXH@Z$9 00472aa0     configfilehandler.obj
 0002:00050ab0       __unwindtable$?detach_helper@?$QList@VQByteArray@@@@AAEXH@Z 00472ab0     configfilehandler.obj
 0002:00050ac0       __tryblocktable$?detach_helper@?$QList@VQByteArray@@@@AAEXH@Z 00472ac0     configfilehandler.obj
 0002:00050ad4       __ehfuncinfo$?detach_helper@?$QList@VQByteArray@@@@AAEXH@Z 00472ad4     configfilehandler.obj
 0002:00050af8       __catchsym$?detach_helper@?$QList@VQString@@@@AAEXH@Z$9 00472af8     configfilehandler.obj
 0002:00050b08       __unwindtable$?detach_helper@?$QList@VQString@@@@AAEXH@Z 00472b08     configfilehandler.obj
 0002:00050b18       __tryblocktable$?detach_helper@?$QList@VQString@@@@AAEXH@Z 00472b18     configfilehandler.obj
 0002:00050b2c       __ehfuncinfo$?detach_helper@?$QList@VQString@@@@AAEXH@Z 00472b2c     configfilehandler.obj
 0002:00050b50       __unwindtable$??Cconst_iterator@QJsonArray@@QBE?AVQJsonValuePtr@@XZ 00472b50     configfilehandler.obj
 0002:00050b58       __ehfuncinfo$??Cconst_iterator@QJsonArray@@QBE?AVQJsonValuePtr@@XZ 00472b58     configfilehandler.obj
 0002:00050b7c       __ehfuncinfo$??0OperationParamData@@QAE@ABVQString@@00ABVQStringList@@_NHH0V?$QList@H@@00HH@Z 00472b7c     configfilehandler.obj
 0002:00050ba0       __unwindtable$??0OperationParamData@@QAE@ABVQString@@00ABVQStringList@@_NHH0V?$QList@H@@00HH@Z 00472ba0     configfilehandler.obj
 0002:00050bf8       __ehfuncinfo$??0OperationParamData@@QAE@ABV0@@Z 00472bf8     configfilehandler.obj
 0002:00050c1c       __unwindtable$??0OperationParamData@@QAE@ABV0@@Z 00472c1c     configfilehandler.obj
 0002:00050c64       __ehfuncinfo$??1?$QList@H@@QAE@XZ 00472c64     configfilehandler.obj
 0002:00050c64       __ehfuncinfo$??1?$QList@U?$QPair@VQString@@V?$QList@VSingleOperationData@@@@@@@@QAE@XZ 00472c64     configfilehandler.obj
 0002:00050c64       __ehfuncinfo$??1StatusViewWatcher@@UAE@XZ 00472c64     workmodels.obj
 0002:00050c64       __ehfuncinfo$??1WorkflowCheckerController@@UAE@XZ 00472c64     workflowChecker.obj
 0002:00050c64       __ehfuncinfo$??1?$QMap@VQString@@VOperationParamData@@@@QAE@XZ 00472c64     configfilehandler.obj
 0002:00050c64       __ehfuncinfo$??1?$QMap@VQString@@H@@QAE@XZ 00472c64     workflowChecker.obj
 0002:00050c64       __ehfuncinfo$??1?$QMap@VQString@@V1@@@QAE@XZ 00472c64     configfilehandler.obj
 0002:00050c64       __ehfuncinfo$??1?$QList@VOperationParamData@@@@QAE@XZ 00472c64     configfilehandler.obj
 0002:00050c64       __ehfuncinfo$??1WorkflowController@@UAE@XZ 00472c64     workflowprotocol.obj
 0002:00050c64       __ehfuncinfo$??1PlanController@@UAE@XZ 00472c64     workmodels.obj
 0002:00050c64       __ehfuncinfo$??1?$QMap@VQString@@VQStringList@@@@QAE@XZ 00472c64     configfilehandler.obj
 0002:00050c64       __ehfuncinfo$??1?$QList@VSingleOperationData@@@@QAE@XZ 00472c64     configfilehandler.obj
 0002:00050c64       __ehfuncinfo$??1?$QList@VQString@@@@QAE@XZ 00472c64     workflowprotocol.obj
 0002:00050c64       __ehfuncinfo$??1?$QList@PAVQObject@@@@QAE@XZ 00472c64     main.obj
 0002:00050c64       __ehfuncinfo$??1?$QList@VQByteArray@@@@QAE@XZ 00472c64     configfilehandler.obj
 0002:00050c88       __catchsym$??0?$QList@VOperationParamData@@@@QAE@ABV0@@Z$7 00472c88     configfilehandler.obj
 0002:00050c98       __unwindtable$??0?$QList@VOperationParamData@@@@QAE@ABV0@@Z 00472c98     configfilehandler.obj
 0002:00050ca8       __tryblocktable$??0?$QList@VOperationParamData@@@@QAE@ABV0@@Z 00472ca8     configfilehandler.obj
 0002:00050cbc       __ehfuncinfo$??0?$QList@VOperationParamData@@@@QAE@ABV0@@Z 00472cbc     configfilehandler.obj
 0002:00050ce0       __catchsym$?append@?$QList@VOperationParamData@@@@QAEXABVOperationParamData@@@Z$16 00472ce0     configfilehandler.obj
 0002:00050cf0       __catchsym$?append@?$QList@VOperationParamData@@@@QAEXABVOperationParamData@@@Z$15 00472cf0     configfilehandler.obj
 0002:00050d00       __ehfuncinfo$?append@?$QList@VOperationParamData@@@@QAEXABVOperationParamData@@@Z 00472d00     configfilehandler.obj
 0002:00050d24       __tryblocktable$?append@?$QList@VOperationParamData@@@@QAEXABVOperationParamData@@@Z 00472d24     configfilehandler.obj
 0002:00050d4c       __unwindtable$?append@?$QList@VOperationParamData@@@@QAEXABVOperationParamData@@@Z 00472d4c     configfilehandler.obj
 0002:00050dac       __catchsym$?detach_helper_grow@?$QList@VOperationParamData@@@@AAEPAUNode@1@HH@Z$10 00472dac     configfilehandler.obj
 0002:00050dbc       __catchsym$?detach_helper_grow@?$QList@VOperationParamData@@@@AAEPAUNode@1@HH@Z$9 00472dbc     configfilehandler.obj
 0002:00050dcc       __unwindtable$?detach_helper_grow@?$QList@VOperationParamData@@@@AAEPAUNode@1@HH@Z 00472dcc     configfilehandler.obj
 0002:00050dec       __ehfuncinfo$?detach_helper_grow@?$QList@VOperationParamData@@@@AAEPAUNode@1@HH@Z 00472dec     configfilehandler.obj
 0002:00050e10       __tryblocktable$?detach_helper_grow@?$QList@VOperationParamData@@@@AAEPAUNode@1@HH@Z 00472e10     configfilehandler.obj
 0002:00050e38       __catchsym$?node_copy@?$QList@VOperationParamData@@@@AAEXPAUNode@1@00@Z$8 00472e38     configfilehandler.obj
 0002:00050e48       __tryblocktable$?node_copy@?$QList@VOperationParamData@@@@AAEXPAUNode@1@00@Z 00472e48     configfilehandler.obj
 0002:00050e5c       __ehfuncinfo$?node_copy@?$QList@VOperationParamData@@@@AAEXPAUNode@1@00@Z 00472e5c     configfilehandler.obj
 0002:00050e80       __unwindtable$?node_copy@?$QList@VOperationParamData@@@@AAEXPAUNode@1@00@Z 00472e80     configfilehandler.obj
 0002:00050eb0       __unwindtable$??1OperationParamData@@QAE@XZ 00472eb0     configfilehandler.obj
 0002:00050eb0       __unwindtable$??_GSingleOperationData@@QAEPAXI@Z 00472eb0     configfilehandler.obj
 0002:00050eb0       __unwindtable$??_G?$QQmlElement@VStatusViewWatcher@@@QQmlPrivate@@UAEPAXI@Z 00472eb0     main.obj
 0002:00050eb0       __unwindtable$??_GPlanController@@UAEPAXI@Z 00472eb0     workmodels.obj
 0002:00050eb0       __unwindtable$??1?$QForeachContainer@$$CBV?$QList@VSingleOperationData@@@@@@QAE@XZ 00472eb0     environmentvariant.obj
 0002:00050eb0       __unwindtable$??_G?$QQmlElement@VTextFieldDoubleValidator@@@QQmlPrivate@@UAEPAXI@Z 00472eb0     main.obj
 0002:00050eb0       __unwindtable$??_G?$QQmlElement@VOperationParamObject@@@QQmlPrivate@@UAEPAXI@Z 00472eb0     main.obj
 0002:00050eb0       __unwindtable$??1SingleOperationData@@QAE@XZ 00472eb0     configfilehandler.obj
 0002:00050eb0       __unwindtable$??_G?$QQmlElement@VOperationParamSelector@@@QQmlPrivate@@UAEPAXI@Z 00472eb0     main.obj
 0002:00050eb0       __unwindtable$??_G?$QQmlElement@VPlanController@@@QQmlPrivate@@UAEPAXI@Z 00472eb0     main.obj
 0002:00050eb0       __unwindtable$??_G?$QQmlElement@VPlanSelector@@@QQmlPrivate@@UAEPAXI@Z 00472eb0     main.obj
 0002:00050eb8       __ehfuncinfo$??_GPlanController@@UAEPAXI@Z 00472eb8     workmodels.obj
 0002:00050eb8       __ehfuncinfo$??_G?$QQmlElement@VTextFieldDoubleValidator@@@QQmlPrivate@@UAEPAXI@Z 00472eb8     main.obj
 0002:00050eb8       __ehfuncinfo$??1OperationParamData@@QAE@XZ 00472eb8     configfilehandler.obj
 0002:00050eb8       __ehfuncinfo$??_G?$QQmlElement@VPlanController@@@QQmlPrivate@@UAEPAXI@Z 00472eb8     main.obj
 0002:00050eb8       __ehfuncinfo$??_G?$QQmlElement@VStatusViewWatcher@@@QQmlPrivate@@UAEPAXI@Z 00472eb8     main.obj
 0002:00050eb8       __ehfuncinfo$??1SingleOperationData@@QAE@XZ 00472eb8     configfilehandler.obj
 0002:00050eb8       __ehfuncinfo$??_G?$QQmlElement@VPlanSelector@@@QQmlPrivate@@UAEPAXI@Z 00472eb8     main.obj
 0002:00050eb8       __ehfuncinfo$??1?$QForeachContainer@$$CBV?$QList@VSingleOperationData@@@@@@QAE@XZ 00472eb8     environmentvariant.obj
 0002:00050eb8       __ehfuncinfo$??_G?$QQmlElement@VOperationParamSelector@@@QQmlPrivate@@UAEPAXI@Z 00472eb8     main.obj
 0002:00050eb8       __ehfuncinfo$??_GSingleOperationData@@QAEPAXI@Z 00472eb8     configfilehandler.obj
 0002:00050eb8       __ehfuncinfo$??_G?$QQmlElement@VOperationParamObject@@@QQmlPrivate@@UAEPAXI@Z 00472eb8     main.obj
 0002:00050edc       __unwindtable$??0SingleOperationData@@QAE@ABV0@@Z 00472edc     configfilehandler.obj
 0002:00050ee4       __ehfuncinfo$??0SingleOperationData@@QAE@ABV0@@Z 00472ee4     configfilehandler.obj
 0002:00050f08       __unwindtable$??0StatusViewWatcher@@QAE@PAVQObject@@@Z 00472f08     workmodels.obj
 0002:00050f08       __unwindtable$??0configFileHandler@@QAE@PAVQObject@@@Z 00472f08     configfilehandler.obj
 0002:00050f08       __unwindtable$??0PlanController@@QAE@PAVQObject@@@Z 00472f08     workmodels.obj
 0002:00050f10       __ehfuncinfo$??0configFileHandler@@QAE@PAVQObject@@@Z 00472f10     configfilehandler.obj
 0002:00050f10       __ehfuncinfo$??0PlanController@@QAE@PAVQObject@@@Z 00472f10     workmodels.obj
 0002:00050f10       __ehfuncinfo$??0StatusViewWatcher@@QAE@PAVQObject@@@Z 00472f10     workmodels.obj
 0002:00050f34       __unwindtable$?loadConfigFile@configFileHandler@@QAE_NABVQString@@@Z 00472f34     configfilehandler.obj
 0002:00050f54       __ehfuncinfo$?loadConfigFile@configFileHandler@@QAE_NABVQString@@@Z 00472f54     configfilehandler.obj
 0002:00050f78       __unwindtable$?toList@configFileHandler@@QAE?AVQStringList@@ABVQString@@@Z 00472f78     configfilehandler.obj
 0002:00050f90       __ehfuncinfo$?toList@configFileHandler@@QAE?AVQStringList@@ABVQString@@@Z 00472f90     configfilehandler.obj
 0002:00050fb4       __ehfuncinfo$?ParseListMap@configFileHandler@@QAE?AV?$QMap@VQString@@VQStringList@@@@ABVQString@@@Z 00472fb4     configfilehandler.obj
 0002:00050fd8       __unwindtable$?ParseListMap@configFileHandler@@QAE?AV?$QMap@VQString@@VQStringList@@@@ABVQString@@@Z 00472fd8     configfilehandler.obj
 0002:00051030       __ehfuncinfo$?ParseMap@configFileHandler@@QAE?AV?$QMap@VQString@@V1@@@ABVQString@@@Z 00473030     configfilehandler.obj
 0002:00051030       __ehfuncinfo$?ParseMapRevertKeyValue@configFileHandler@@QAE?AV?$QMap@VQString@@V1@@@ABVQString@@@Z 00473030     configfilehandler.obj
 0002:00051054       __unwindtable$?ParseMap@configFileHandler@@QAE?AV?$QMap@VQString@@V1@@@ABVQString@@@Z 00473054     configfilehandler.obj
 0002:00051054       __unwindtable$?ParseMapRevertKeyValue@configFileHandler@@QAE?AV?$QMap@VQString@@V1@@@ABVQString@@@Z 00473054     configfilehandler.obj
 0002:0005108c       __ehfuncinfo$?ParseParamValue@configFileHandler@@QAE?AV?$QMap@VQString@@VOperationParamData@@@@ABVQString@@@Z 0047308c     configfilehandler.obj
 0002:000510b0       __unwindtable$?ParseParamValue@configFileHandler@@QAE?AV?$QMap@VQString@@VOperationParamData@@@@ABVQString@@@Z 004730b0     configfilehandler.obj
 0002:000512c8       __unwindtable$?ParseWorkPlaceConstraint@configFileHandler@@QAE?AVQJsonArray@@XZ 004732c8     configfilehandler.obj
 0002:000512d0       __ehfuncinfo$?ParseWorkPlaceConstraint@configFileHandler@@QAE?AVQJsonArray@@XZ 004732d0     configfilehandler.obj
 0002:000512f4       __unwindtable$?ParseHostIP@configFileHandler@@QAE?AVQString@@XZ 004732f4     configfilehandler.obj
 0002:00051314       __ehfuncinfo$?ParseHostIP@configFileHandler@@QAE?AVQString@@XZ 00473314     configfilehandler.obj
 0002:00051338       __ehfuncinfo$?ParseHostSingleOperationThreshold@configFileHandler@@QAEHXZ 00473338     configfilehandler.obj
 0002:00051338       __ehfuncinfo$?ParseHostPort@configFileHandler@@QAEFXZ 00473338     configfilehandler.obj
 0002:0005135c       __unwindtable$?ParseHostPort@configFileHandler@@QAEFXZ 0047335c     configfilehandler.obj
 0002:0005135c       __unwindtable$?ParseHostSingleOperationThreshold@configFileHandler@@QAEHXZ 0047335c     configfilehandler.obj
 0002:00051384       __ehfuncinfo$?ParsePlanList@configFileHandler@@QAEXAAV?$QList@U?$QPair@VQString@@V?$QList@VSingleOperationData@@@@@@@@ABV?$QMap@VQString@@VOperationParamData@@@@@Z 00473384     configfilehandler.obj
 0002:000513a8       __unwindtable$?ParsePlanList@configFileHandler@@QAEXAAV?$QList@U?$QPair@VQString@@V?$QList@VSingleOperationData@@@@@@@@ABV?$QMap@VQString@@VOperationParamData@@@@@Z 004733a8     configfilehandler.obj
 0002:000514c0       __ehfuncinfo$?SavePlanList@configFileHandler@@QAE_NABVQString@@ABV?$QList@U?$QPair@VQString@@V?$QList@VSingleOperationData@@@@@@@@ABV?$QMap@VQString@@VQStringList@@@@@Z 004734c0     configfilehandler.obj
 0002:000514e4       __unwindtable$?SavePlanList@configFileHandler@@QAE_NABVQString@@ABV?$QList@U?$QPair@VQString@@V?$QList@VSingleOperationData@@@@@@@@ABV?$QMap@VQString@@VQStringList@@@@@Z 004734e4     configfilehandler.obj
 0002:0005160c       __ehfuncinfo$?SaveMachineConfig@configFileHandler@@QAE_NABVQString@@ABVMachineConfigData@@ABVQJsonObject@@@Z 0047360c     configfilehandler.obj
 0002:00051630       __unwindtable$?SaveMachineConfig@configFileHandler@@QAE_NABVQString@@ABVMachineConfigData@@ABVQJsonObject@@@Z 00473630     configfilehandler.obj
 0002:000516c0       __unwindtable$?ParseWorkSpaceTypeList@configFileHandler@@QAEXAAVQJsonObject@@@Z 004736c0     configfilehandler.obj
 0002:000516d0       __ehfuncinfo$?ParseWorkSpaceTypeList@configFileHandler@@QAEXAAVQJsonObject@@@Z 004736d0     configfilehandler.obj
 0002:000516f4       __ehfuncinfo$?ParseLicense@configFileHandler@@QAEXAAVQByteArray@@@Z 004736f4     configfilehandler.obj
 0002:00051718       __unwindtable$?ParseLicense@configFileHandler@@QAEXAAVQByteArray@@@Z 00473718     configfilehandler.obj
 0002:00051748       __ehfuncinfo$?ConvertCSVtoJSON@configFileHandler@@QAE_NABVQString@@0@Z 00473748     configfilehandler.obj
 0002:0005176c       __unwindtable$?ConvertCSVtoJSON@configFileHandler@@QAE_NABVQString@@0@Z 0047376c     configfilehandler.obj
 0002:000517ac       __ehfuncinfo$?ConvertJSONtoCSV@configFileHandler@@QAE_NABVQString@@0@Z 004737ac     configfilehandler.obj
 0002:000517d0       __unwindtable$?ConvertJSONtoCSV@configFileHandler@@QAE_NABVQString@@0@Z 004737d0     configfilehandler.obj
 0002:00051848       __ehfuncinfo$?ParsePlan@configFileHandler@@QAE?AVQString@@ABVQJsonArray@@@Z 00473848     configfilehandler.obj
 0002:0005186c       __unwindtable$?ParsePlan@configFileHandler@@QAE?AVQString@@ABVQJsonArray@@@Z 0047386c     configfilehandler.obj
 0002:0005196c       __ehfuncinfo$?ParseWorkSpace@configFileHandler@@QAE?AVQString@@ABVQJsonObject@@@Z 0047396c     configfilehandler.obj
 0002:00051990       __unwindtable$?ParseWorkSpace@configFileHandler@@QAE?AVQString@@ABVQJsonObject@@@Z 00473990     configfilehandler.obj
 0002:00051a70       __unwindtable$?ImportConfig@configFileHandler@@QAE_NAAVQJsonObject@@ABVQByteArray@@@Z 00473a70     configfilehandler.obj
 0002:00051a80       __ehfuncinfo$?ImportConfig@configFileHandler@@QAE_NAAVQJsonObject@@ABVQByteArray@@@Z 00473a80     configfilehandler.obj
 0002:00051aa4       __ehfuncinfo$?ImportWorkSpace@configFileHandler@@QAE_NABV?$QList@VQByteArray@@@@AAVQJsonObject@@@Z 00473aa4     configfilehandler.obj
 0002:00051ac8       __unwindtable$?ImportWorkSpace@configFileHandler@@QAE_NABV?$QList@VQByteArray@@@@AAVQJsonObject@@@Z 00473ac8     configfilehandler.obj
 0002:00051c30       __ehfuncinfo$?ImportPlan@configFileHandler@@QAE_NABV?$QList@VQByteArray@@@@AAVQJsonObject@@@Z 00473c30     configfilehandler.obj
 0002:00051c54       __unwindtable$?ImportPlan@configFileHandler@@QAE_NABV?$QList@VQByteArray@@@@AAVQJsonObject@@@Z 00473c54     configfilehandler.obj
 0002:00051d9c       __unwindtable$??A?$QMap@VQString@@VQStringList@@@@QAEAAVQStringList@@ABVQString@@@Z 00473d9c     configfilehandler.obj
 0002:00051da4       __ehfuncinfo$??A?$QMap@VQString@@VQStringList@@@@QAEAAVQStringList@@ABVQString@@@Z 00473da4     configfilehandler.obj
 0002:00051dc8       __unwindtable$??A?$QMap@VQString@@V1@@@QAEAAVQString@@ABV1@@Z 00473dc8     configfilehandler.obj
 0002:00051dd0       __ehfuncinfo$??A?$QMap@VQString@@V1@@@QAEAAVQString@@ABV1@@Z 00473dd0     configfilehandler.obj
 0002:00051df4       __unwindtable$??A?$QMap@VQString@@VOperationParamData@@@@QAEAAVOperationParamData@@ABVQString@@@Z 00473df4     configfilehandler.obj
 0002:00051dfc       __ehfuncinfo$??A?$QMap@VQString@@VOperationParamData@@@@QAEAAVOperationParamData@@ABVQString@@@Z 00473dfc     configfilehandler.obj
 0002:00051e20       __unwindtable$??A?$QMap@VQString@@VOperationParamData@@@@QBE?BVOperationParamData@@ABVQString@@@Z 00473e20     configfilehandler.obj
 0002:00051e28       __ehfuncinfo$??A?$QMap@VQString@@VOperationParamData@@@@QBE?BVOperationParamData@@ABVQString@@@Z 00473e28     configfilehandler.obj
 0002:00051e4c       __catchsym$?append@?$QList@U?$QPair@VQString@@V?$QList@VSingleOperationData@@@@@@@@QAEXABU?$QPair@VQString@@V?$QList@VSingleOperationData@@@@@@@Z$28 00473e4c     configfilehandler.obj
 0002:00051e5c       __catchsym$?append@?$QList@U?$QPair@VQString@@V?$QList@VSingleOperationData@@@@@@@@QAEXABU?$QPair@VQString@@V?$QList@VSingleOperationData@@@@@@@Z$27 00473e5c     configfilehandler.obj
 0002:00051e6c       __ehfuncinfo$?append@?$QList@U?$QPair@VQString@@V?$QList@VSingleOperationData@@@@@@@@QAEXABU?$QPair@VQString@@V?$QList@VSingleOperationData@@@@@@@Z 00473e6c     configfilehandler.obj
 0002:00051e90       __tryblocktable$?append@?$QList@U?$QPair@VQString@@V?$QList@VSingleOperationData@@@@@@@@QAEXABU?$QPair@VQString@@V?$QList@VSingleOperationData@@@@@@@Z 00473e90     configfilehandler.obj
 0002:00051eb8       __unwindtable$?append@?$QList@U?$QPair@VQString@@V?$QList@VSingleOperationData@@@@@@@@QAEXABU?$QPair@VQString@@V?$QList@VSingleOperationData@@@@@@@Z 00473eb8     configfilehandler.obj
 0002:00051f48       __catchsym$?detach_helper_grow@?$QList@U?$QPair@VQString@@V?$QList@VSingleOperationData@@@@@@@@AAEPAUNode@1@HH@Z$10 00473f48     configfilehandler.obj
 0002:00051f58       __catchsym$?detach_helper_grow@?$QList@U?$QPair@VQString@@V?$QList@VSingleOperationData@@@@@@@@AAEPAUNode@1@HH@Z$9 00473f58     configfilehandler.obj
 0002:00051f68       __unwindtable$?detach_helper_grow@?$QList@U?$QPair@VQString@@V?$QList@VSingleOperationData@@@@@@@@AAEPAUNode@1@HH@Z 00473f68     configfilehandler.obj
 0002:00051f88       __ehfuncinfo$?detach_helper_grow@?$QList@U?$QPair@VQString@@V?$QList@VSingleOperationData@@@@@@@@AAEPAUNode@1@HH@Z 00473f88     configfilehandler.obj
 0002:00051fac       __tryblocktable$?detach_helper_grow@?$QList@U?$QPair@VQString@@V?$QList@VSingleOperationData@@@@@@@@AAEPAUNode@1@HH@Z 00473fac     configfilehandler.obj
 0002:00051fd4       __catchsym$?node_copy@?$QList@U?$QPair@VQString@@V?$QList@VSingleOperationData@@@@@@@@AAEXPAUNode@1@00@Z$10 00473fd4     configfilehandler.obj
 0002:00051fe4       __tryblocktable$?node_copy@?$QList@U?$QPair@VQString@@V?$QList@VSingleOperationData@@@@@@@@AAEXPAUNode@1@00@Z 00473fe4     configfilehandler.obj
 0002:00051ff8       __ehfuncinfo$?node_copy@?$QList@U?$QPair@VQString@@V?$QList@VSingleOperationData@@@@@@@@AAEXPAUNode@1@00@Z 00473ff8     configfilehandler.obj
 0002:0005201c       __unwindtable$?node_copy@?$QList@U?$QPair@VQString@@V?$QList@VSingleOperationData@@@@@@@@AAEXPAUNode@1@00@Z 0047401c     configfilehandler.obj
 0002:0005205c       __unwindtable$?node_destruct@?$QList@U?$QPair@VQString@@V?$QList@VSingleOperationData@@@@@@@@AAEXPAUNode@1@0@Z 0047405c     configfilehandler.obj
 0002:0005205c       __unwindtable$?node_destruct@?$QList@VSingleOperationData@@@@AAEXPAUNode@1@0@Z 0047405c     configfilehandler.obj
 0002:0005206c       __ehfuncinfo$?node_destruct@?$QList@VSingleOperationData@@@@AAEXPAUNode@1@0@Z 0047406c     configfilehandler.obj
 0002:0005206c       __ehfuncinfo$?node_destruct@?$QList@U?$QPair@VQString@@V?$QList@VSingleOperationData@@@@@@@@AAEXPAUNode@1@0@Z 0047406c     configfilehandler.obj
 0002:00052090       __catchsym$??0?$QList@VSingleOperationData@@@@QAE@ABV0@@Z$7 00474090     configfilehandler.obj
 0002:000520a0       __unwindtable$??0?$QList@VSingleOperationData@@@@QAE@ABV0@@Z 004740a0     configfilehandler.obj
 0002:000520b0       __tryblocktable$??0?$QList@VSingleOperationData@@@@QAE@ABV0@@Z 004740b0     configfilehandler.obj
 0002:000520c4       __ehfuncinfo$??0?$QList@VSingleOperationData@@@@QAE@ABV0@@Z 004740c4     configfilehandler.obj
 0002:000520e8       __catchsym$?append@?$QList@VSingleOperationData@@@@QAEXABVSingleOperationData@@@Z$28 004740e8     configfilehandler.obj
 0002:000520f8       __catchsym$?append@?$QList@VSingleOperationData@@@@QAEXABVSingleOperationData@@@Z$27 004740f8     configfilehandler.obj
 0002:00052108       __ehfuncinfo$?append@?$QList@VSingleOperationData@@@@QAEXABVSingleOperationData@@@Z 00474108     configfilehandler.obj
 0002:0005212c       __tryblocktable$?append@?$QList@VSingleOperationData@@@@QAEXABVSingleOperationData@@@Z 0047412c     configfilehandler.obj
 0002:00052154       __unwindtable$?append@?$QList@VSingleOperationData@@@@QAEXABVSingleOperationData@@@Z 00474154     configfilehandler.obj
 0002:000521e4       __catchsym$?detach_helper_grow@?$QList@VSingleOperationData@@@@AAEPAUNode@1@HH@Z$10 004741e4     configfilehandler.obj
 0002:000521f4       __catchsym$?detach_helper_grow@?$QList@VSingleOperationData@@@@AAEPAUNode@1@HH@Z$9 004741f4     configfilehandler.obj
 0002:00052204       __unwindtable$?detach_helper_grow@?$QList@VSingleOperationData@@@@AAEPAUNode@1@HH@Z 00474204     configfilehandler.obj
 0002:00052224       __ehfuncinfo$?detach_helper_grow@?$QList@VSingleOperationData@@@@AAEPAUNode@1@HH@Z 00474224     configfilehandler.obj
 0002:00052248       __tryblocktable$?detach_helper_grow@?$QList@VSingleOperationData@@@@AAEPAUNode@1@HH@Z 00474248     configfilehandler.obj
 0002:00052270       __unwindtable$?node_destruct@?$QList@VSingleOperationData@@@@AAEXPAUNode@1@@Z 00474270     configfilehandler.obj
 0002:00052280       __ehfuncinfo$?node_destruct@?$QList@VSingleOperationData@@@@AAEXPAUNode@1@@Z 00474280     configfilehandler.obj
 0002:000522a4       __catchsym$?node_copy@?$QList@VSingleOperationData@@@@AAEXPAUNode@1@00@Z$10 004742a4     configfilehandler.obj
 0002:000522b4       __tryblocktable$?node_copy@?$QList@VSingleOperationData@@@@AAEXPAUNode@1@00@Z 004742b4     configfilehandler.obj
 0002:000522c8       __ehfuncinfo$?node_copy@?$QList@VSingleOperationData@@@@AAEXPAUNode@1@00@Z 004742c8     configfilehandler.obj
 0002:000522ec       __unwindtable$?node_copy@?$QList@VSingleOperationData@@@@AAEXPAUNode@1@00@Z 004742ec     configfilehandler.obj
 0002:0005232c       __unwindtable$??$qMakePair@VQString@@V?$QList@VSingleOperationData@@@@@@YA?AU?$QPair@VQString@@V?$QList@VSingleOperationData@@@@@@ABVQString@@ABV?$QList@VSingleOperationData@@@@@Z 0047432c     configfilehandler.obj
 0002:00052334       __ehfuncinfo$??$qMakePair@VQString@@V?$QList@VSingleOperationData@@@@@@YA?AU?$QPair@VQString@@V?$QList@VSingleOperationData@@@@@@ABVQString@@ABV?$QList@VSingleOperationData@@@@@Z 00474334     configfilehandler.obj
 0002:00052358       __catchsym$?createNode@?$QMapData@VQString@@VOperationParamData@@@@QAEPAU?$QMapNode@VQString@@VOperationParamData@@@@ABVQString@@ABVOperationParamData@@PAU2@_N@Z$7 00474358     configfilehandler.obj
 0002:00052368       __catchsym$?createNode@?$QMapData@VQString@@VOperationParamData@@@@QAEPAU?$QMapNode@VQString@@VOperationParamData@@@@ABVQString@@ABVOperationParamData@@PAU2@_N@Z$6 00474368     configfilehandler.obj
 0002:00052378       __ehfuncinfo$?createNode@?$QMapData@VQString@@VOperationParamData@@@@QAEPAU?$QMapNode@VQString@@VOperationParamData@@@@ABVQString@@ABVOperationParamData@@PAU2@_N@Z 00474378     configfilehandler.obj
 0002:0005239c       __tryblocktable$?createNode@?$QMapData@VQString@@VOperationParamData@@@@QAEPAU?$QMapNode@VQString@@VOperationParamData@@@@ABVQString@@ABVOperationParamData@@PAU2@_N@Z 0047439c     configfilehandler.obj
 0002:000523c4       __unwindtable$?createNode@?$QMapData@VQString@@VOperationParamData@@@@QAEPAU?$QMapNode@VQString@@VOperationParamData@@@@ABVQString@@ABVOperationParamData@@PAU2@_N@Z 004743c4     configfilehandler.obj
 0002:000523ec       __catchsym$?createNode@?$QMapData@VQString@@VQStringList@@@@QAEPAU?$QMapNode@VQString@@VQStringList@@@@ABVQString@@ABVQStringList@@PAU2@_N@Z$8 004743ec     configfilehandler.obj
 0002:000523fc       __catchsym$?createNode@?$QMapData@VQString@@VQStringList@@@@QAEPAU?$QMapNode@VQString@@VQStringList@@@@ABVQString@@ABVQStringList@@PAU2@_N@Z$7 004743fc     configfilehandler.obj
 0002:0005240c       __ehfuncinfo$?createNode@?$QMapData@VQString@@VQStringList@@@@QAEPAU?$QMapNode@VQString@@VQStringList@@@@ABVQString@@ABVQStringList@@PAU2@_N@Z 0047440c     configfilehandler.obj
 0002:00052430       __tryblocktable$?createNode@?$QMapData@VQString@@VQStringList@@@@QAEPAU?$QMapNode@VQString@@VQStringList@@@@ABVQString@@ABVQStringList@@PAU2@_N@Z 00474430     configfilehandler.obj
 0002:00052458       __unwindtable$?createNode@?$QMapData@VQString@@VQStringList@@@@QAEPAU?$QMapNode@VQString@@VQStringList@@@@ABVQString@@ABVQStringList@@PAU2@_N@Z 00474458     configfilehandler.obj
 0002:00052480       __catchsym$??Y?$QList@VQString@@@@QAEAAV0@ABV0@@Z$14 00474480     environmentvariant.obj
 0002:00052490       __unwindtable$??Y?$QList@VQString@@@@QAEAAV0@ABV0@@Z 00474490     environmentvariant.obj
 0002:000524a0       __tryblocktable$??Y?$QList@VQString@@@@QAEAAV0@ABV0@@Z 004744a0     environmentvariant.obj
 0002:000524b4       __ehfuncinfo$??Y?$QList@VQString@@@@QAEAAV0@ABV0@@Z 004744b4     environmentvariant.obj
 0002:000524d8       __catchsym$?detach_helper@?$QList@H@@AAEXH@Z$7 004744d8     environmentvariant.obj
 0002:000524e8       __unwindtable$?detach_helper@?$QList@H@@AAEXH@Z 004744e8     environmentvariant.obj
 0002:000524f8       __tryblocktable$?detach_helper@?$QList@H@@AAEXH@Z 004744f8     environmentvariant.obj
 0002:0005250c       __ehfuncinfo$?detach_helper@?$QList@H@@AAEXH@Z 0047450c     environmentvariant.obj
 0002:00052530       __catchsym$?detach_helper@?$QList@VOperationParamData@@@@AAEXH@Z$7 00474530     environmentvariant.obj
 0002:00052540       __unwindtable$?detach_helper@?$QList@VOperationParamData@@@@AAEXH@Z 00474540     environmentvariant.obj
 0002:00052550       __tryblocktable$?detach_helper@?$QList@VOperationParamData@@@@AAEXH@Z 00474550     environmentvariant.obj
 0002:00052564       __ehfuncinfo$?detach_helper@?$QList@VOperationParamData@@@@AAEXH@Z 00474564     environmentvariant.obj
 0002:00052588       __unwindtable$?clear@?$QList@U?$QPair@VQString@@V?$QList@VSingleOperationData@@@@@@@@QAEXXZ 00474588     configfilehandler.obj
 0002:00052588       __unwindtable$??4SingleOperationData@@QAEAAV0@ABV0@@Z 00474588     environmentvariant.obj
 0002:00052588       __unwindtable$??4?$QList@VSingleOperationData@@@@QAEAAV0@ABV0@@Z 00474588     environmentvariant.obj
 0002:00052590       __ehfuncinfo$?clear@?$QList@U?$QPair@VQString@@V?$QList@VSingleOperationData@@@@@@@@QAEXXZ 00474590     configfilehandler.obj
 0002:00052590       __ehfuncinfo$??4SingleOperationData@@QAEAAV0@ABV0@@Z 00474590     environmentvariant.obj
 0002:00052590       __ehfuncinfo$??4?$QList@VSingleOperationData@@@@QAEAAV0@ABV0@@Z 00474590     environmentvariant.obj
 0002:000525b4       __unwindtable$?instance@EnvironmentVariant@@SAPAV1@XZ 004745b4     environmentvariant.obj
 0002:000525bc       __ehfuncinfo$?instance@EnvironmentVariant@@SAPAV1@XZ 004745bc     environmentvariant.obj
 0002:000525e0       __ehfuncinfo$?parseConfigFile@EnvironmentVariant@@QAEXABVQString@@@Z 004745e0     environmentvariant.obj
 0002:00052604       __unwindtable$?parseConfigFile@EnvironmentVariant@@QAEXABVQString@@@Z 00474604     environmentvariant.obj
 0002:000526a4       __unwindtable$?initProtocol@EnvironmentVariant@@QAEXABVQString@@@Z 004746a4     environmentvariant.obj
 0002:000526ac       __ehfuncinfo$?initProtocol@EnvironmentVariant@@QAEXABVQString@@@Z 004746ac     environmentvariant.obj
 0002:000526d0       __unwindtable$?initUserConfig@EnvironmentVariant@@QAEXABVQString@@@Z 004746d0     environmentvariant.obj
 0002:000526e8       __ehfuncinfo$?initUserConfig@EnvironmentVariant@@QAEXABVQString@@@Z 004746e8     environmentvariant.obj
 0002:0005270c       __ehfuncinfo$?initModels@EnvironmentVariant@@QAEXPAVQQmlContext@@@Z 0047470c     environmentvariant.obj
 0002:00052730       __unwindtable$?initModels@EnvironmentVariant@@QAEXPAVQQmlContext@@@Z 00474730     environmentvariant.obj
 0002:00052760       __unwindtable$?getOperationParams@EnvironmentVariant@@QAE?AV?$QList@VOperationParamData@@@@H@Z 00474760     environmentvariant.obj
 0002:00052778       __ehfuncinfo$?getOperationParams@EnvironmentVariant@@QAE?AV?$QList@VOperationParamData@@@@H@Z 00474778     environmentvariant.obj
 0002:0005279c       __unwindtable$?OperationNameList@EnvironmentVariant@@QAE?AVQStringList@@XZ 0047479c     environmentvariant.obj
 0002:0005279c       __unwindtable$?LogicalControlList@EnvironmentVariant@@QAE?AVQStringList@@XZ 0047479c     environmentvariant.obj
 0002:000527b4       __ehfuncinfo$?LogicalControlList@EnvironmentVariant@@QAE?AVQStringList@@XZ 004747b4     environmentvariant.obj
 0002:000527b4       __ehfuncinfo$?OperationNameList@EnvironmentVariant@@QAE?AVQStringList@@XZ 004747b4     environmentvariant.obj
 0002:000527d8       __unwindtable$?PlanList@EnvironmentVariant@@QAE?AVQStringList@@XZ 004747d8     environmentvariant.obj
 0002:000527e0       __ehfuncinfo$?PlanList@EnvironmentVariant@@QAE?AVQStringList@@XZ 004747e0     environmentvariant.obj
 0002:00052804       __ehfuncinfo$?StepList@EnvironmentVariant@@QAE?AVQStringList@@H@Z 00474804     environmentvariant.obj
 0002:00052828       __unwindtable$?StepList@EnvironmentVariant@@QAE?AVQStringList@@H@Z 00474828     environmentvariant.obj
 0002:00052890       __ehfuncinfo$?planSelectStepListModel@EnvironmentVariant@@QAE?AVQStringList@@H@Z 00474890     environmentvariant.obj
 0002:000528b4       __unwindtable$?planSelectStepListModel@EnvironmentVariant@@QAE?AVQStringList@@H@Z 004748b4     environmentvariant.obj
 0002:000528e4       __ehfuncinfo$?planStepParam@EnvironmentVariant@@QAE?AVSingleOperationData@@HH@Z 004748e4     environmentvariant.obj
 0002:00052908       __unwindtable$?planStepParam@EnvironmentVariant@@QAE?AVSingleOperationData@@HH@Z 00474908     environmentvariant.obj
 0002:00052940       __unwindtable$?AddPlanStep@EnvironmentVariant@@QAEXHHH@Z 00474940     environmentvariant.obj
 0002:00052960       __ehfuncinfo$?AddPlanStep@EnvironmentVariant@@QAEXHHH@Z 00474960     environmentvariant.obj
 0002:00052984       __unwindtable$?MovePlanStep@EnvironmentVariant@@QAEXHHH@Z 00474984     environmentvariant.obj
 0002:00052984       __unwindtable$?SetPlanStepToDefault@EnvironmentVariant@@QAEXHHH@Z 00474984     environmentvariant.obj
 0002:0005298c       __ehfuncinfo$?SetPlanStepToDefault@EnvironmentVariant@@QAEXHHH@Z 0047498c     environmentvariant.obj
 0002:0005298c       __ehfuncinfo$?MovePlanStep@EnvironmentVariant@@QAEXHHH@Z 0047498c     environmentvariant.obj
 0002:000529b0       __unwindtable$?AddPlan@EnvironmentVariant@@QAEXABVQString@@@Z 004749b0     environmentvariant.obj
 0002:000529d0       __ehfuncinfo$?AddPlan@EnvironmentVariant@@QAEXABVQString@@@Z 004749d0     environmentvariant.obj
 0002:000529f4       __unwindtable$?SavePlan@EnvironmentVariant@@QAE_NXZ 004749f4     environmentvariant.obj
 0002:000529fc       __ehfuncinfo$?SavePlan@EnvironmentVariant@@QAE_NXZ 004749fc     environmentvariant.obj
 0002:00052a20       __ehfuncinfo$?StartPlan@EnvironmentVariant@@QAEXHH@Z 00474a20     environmentvariant.obj
 0002:00052a44       __unwindtable$?StartPlan@EnvironmentVariant@@QAEXHH@Z 00474a44     environmentvariant.obj
 0002:00052b3c       __unwindtable$?SaveMachineConfig@EnvironmentVariant@@QAE_NABVMachineConfigData@@@Z 00474b3c     environmentvariant.obj
 0002:00052b44       __ehfuncinfo$?SaveMachineConfig@EnvironmentVariant@@QAE_NABVMachineConfigData@@@Z 00474b44     environmentvariant.obj
 0002:00052b68       __ehfuncinfo$?formatSingleOperationParam@EnvironmentVariant@@QAE?AVQJsonObject@@ABVSingleOperationData@@@Z 00474b68     environmentvariant.obj
 0002:00052b8c       __unwindtable$?formatSingleOperationParam@EnvironmentVariant@@QAE?AVQJsonObject@@ABVSingleOperationData@@@Z 00474b8c     environmentvariant.obj
 0002:00052c4c       __unwindtable$?StartTunning@EnvironmentVariant@@QAEXABVSingleOperationData@@@Z 00474c4c     environmentvariant.obj
 0002:00052c6c       __ehfuncinfo$?StartTunning@EnvironmentVariant@@QAEXABVSingleOperationData@@@Z 00474c6c     environmentvariant.obj
 0002:00052c90       __unwindtable$?defaultValue@EnvironmentVariant@@QAE?AVSingleOperationData@@ABVQString@@@Z 00474c90     environmentvariant.obj
 0002:00052cb0       __ehfuncinfo$?defaultValue@EnvironmentVariant@@QAE?AVSingleOperationData@@ABVQString@@@Z 00474cb0     environmentvariant.obj
 0002:00052cd4       __ehfuncinfo$?setWorkLocationType@EnvironmentVariant@@QAE_NHHABVQString@@@Z 00474cd4     environmentvariant.obj
 0002:00052cf8       __unwindtable$?setWorkLocationType@EnvironmentVariant@@QAE_NHHABVQString@@@Z 00474cf8     environmentvariant.obj
 0002:00052dc8       __ehfuncinfo$?startCheckPlan@EnvironmentVariant@@QAEXH@Z 00474dc8     environmentvariant.obj
 0002:00052dec       __unwindtable$?startCheckPlan@EnvironmentVariant@@QAEXH@Z 00474dec     environmentvariant.obj
 0002:00052ef4       __ehfuncinfo$?getBoardTypeIndexByPosition@EnvironmentVariant@@QAEHH@Z 00474ef4     environmentvariant.obj
 0002:00052f18       __unwindtable$?getBoardTypeIndexByPosition@EnvironmentVariant@@QAEHH@Z 00474f18     environmentvariant.obj
 0002:00052fd0       __unwindtable$?ImportConfig@EnvironmentVariant@@QAE_NABVQString@@@Z 00474fd0     environmentvariant.obj
 0002:00052fd0       __unwindtable$?ExportConfig@EnvironmentVariant@@QAE_NABVQString@@@Z 00474fd0     environmentvariant.obj
 0002:00052fe0       __ehfuncinfo$?ImportConfig@EnvironmentVariant@@QAE_NABVQString@@@Z 00474fe0     environmentvariant.obj
 0002:00052fe0       __ehfuncinfo$?ExportConfig@EnvironmentVariant@@QAE_NABVQString@@@Z 00474fe0     environmentvariant.obj
 0002:00053004       __ehfuncinfo$??0EnvironmentVariant@@AAE@XZ 00475004     environmentvariant.obj
 0002:00053028       __unwindtable$??0EnvironmentVariant@@AAE@XZ 00475028     environmentvariant.obj
 0002:000530a0       __unwindtable$??1EnvironmentVariant@@EAE@XZ 004750a0     environmentvariant.obj
 0002:000530b8       __ehfuncinfo$??1EnvironmentVariant@@EAE@XZ 004750b8     environmentvariant.obj
 0002:000530dc       __catchsym$?detach_helper@?$QList@U?$QPair@VQString@@V?$QList@VSingleOperationData@@@@@@@@AAEXH@Z$7 004750dc     environmentvariant.obj
 0002:000530ec       __unwindtable$?detach_helper@?$QList@U?$QPair@VQString@@V?$QList@VSingleOperationData@@@@@@@@AAEXH@Z 004750ec     environmentvariant.obj
 0002:000530fc       __tryblocktable$?detach_helper@?$QList@U?$QPair@VQString@@V?$QList@VSingleOperationData@@@@@@@@AAEXH@Z 004750fc     environmentvariant.obj
 0002:00053110       __ehfuncinfo$?detach_helper@?$QList@U?$QPair@VQString@@V?$QList@VSingleOperationData@@@@@@@@AAEXH@Z 00475110     environmentvariant.obj
 0002:00053134       __catchsym$?insert@?$QList@VSingleOperationData@@@@QAEXHABVSingleOperationData@@@Z$28 00475134     environmentvariant.obj
 0002:00053144       __catchsym$?insert@?$QList@VSingleOperationData@@@@QAEXHABVSingleOperationData@@@Z$27 00475144     environmentvariant.obj
 0002:00053154       __ehfuncinfo$?insert@?$QList@VSingleOperationData@@@@QAEXHABVSingleOperationData@@@Z 00475154     environmentvariant.obj
 0002:00053178       __tryblocktable$?insert@?$QList@VSingleOperationData@@@@QAEXHABVSingleOperationData@@@Z 00475178     environmentvariant.obj
 0002:000531a0       __unwindtable$?insert@?$QList@VSingleOperationData@@@@QAEXHABVSingleOperationData@@@Z 004751a0     environmentvariant.obj
 0002:00053230       __catchsym$?detach_helper@?$QList@VSingleOperationData@@@@AAEXH@Z$7 00475230     environmentvariant.obj
 0002:00053240       __unwindtable$?detach_helper@?$QList@VSingleOperationData@@@@AAEXH@Z 00475240     environmentvariant.obj
 0002:00053250       __tryblocktable$?detach_helper@?$QList@VSingleOperationData@@@@AAEXH@Z 00475250     environmentvariant.obj
 0002:00053264       __ehfuncinfo$?detach_helper@?$QList@VSingleOperationData@@@@AAEXH@Z 00475264     environmentvariant.obj
 0002:00053288       __unwindtable$??1OperationParamSelector@@UAE@XZ 00475288     main.obj
 0002:00053298       __ehfuncinfo$??1OperationParamSelector@@UAE@XZ 00475298     main.obj
 0002:000532bc       __unwindtable$?validate@TextFieldDoubleValidator@@UBE?AW4State@QValidator@@AAVQString@@AAH@Z 004752bc     main.obj
 0002:000532d4       __ehfuncinfo$?validate@TextFieldDoubleValidator@@UBE?AW4State@QValidator@@AAVQString@@AAH@Z 004752d4     main.obj
 0002:000532f8       __ehfuncinfo$?customMessageHandler@@YAXW4QtMsgType@@ABVQMessageLogContext@@ABVQString@@@Z 004752f8     main.obj
 0002:0005331c       __unwindtable$?customMessageHandler@@YAXW4QtMsgType@@ABVQMessageLogContext@@ABVQString@@@Z 0047531c     main.obj
 0002:000533bc       __ehfuncinfo$_main         004753bc     main.obj
 0002:000533e0       __unwindtable$_main        004753e0     main.obj
 0002:00053470       __ehfuncinfo$??$qmlRegisterType@VTextFieldDoubleValidator@@@@YAHPBDHH0@Z 00475470     main.obj
 0002:00053470       __ehfuncinfo$??$qmlRegisterType@VStatusViewWatcher@@@@YAHPBDHH0@Z 00475470     main.obj
 0002:00053470       __ehfuncinfo$??$qmlRegisterType@VPlanSelector@@@@YAHPBDHH0@Z 00475470     main.obj
 0002:00053470       __ehfuncinfo$??$qmlRegisterType@VOperationParamSelector@@@@YAHPBDHH0@Z 00475470     main.obj
 0002:00053470       __ehfuncinfo$??$qmlRegisterType@VPlanController@@@@YAHPBDHH0@Z 00475470     main.obj
 0002:00053470       __ehfuncinfo$??$qmlRegisterType@VOperationParamObject@@@@YAHPBDHH0@Z 00475470     main.obj
 0002:00053494       __unwindtable$??$qmlRegisterType@VTextFieldDoubleValidator@@@@YAHPBDHH0@Z 00475494     main.obj
 0002:00053494       __unwindtable$??$qmlRegisterType@VPlanSelector@@@@YAHPBDHH0@Z 00475494     main.obj
 0002:00053494       __unwindtable$??$qmlRegisterType@VStatusViewWatcher@@@@YAHPBDHH0@Z 00475494     main.obj
 0002:00053494       __unwindtable$??$qmlRegisterType@VPlanController@@@@YAHPBDHH0@Z 00475494     main.obj
 0002:00053494       __unwindtable$??$qmlRegisterType@VOperationParamObject@@@@YAHPBDHH0@Z 00475494     main.obj
 0002:00053494       __unwindtable$??$qmlRegisterType@VOperationParamSelector@@@@YAHPBDHH0@Z 00475494     main.obj
 0002:000534bc       __unwindtable$??$createInto@VTextFieldDoubleValidator@@@QQmlPrivate@@YAXPAX@Z 004754bc     main.obj
 0002:000534bc       __unwindtable$??$createInto@VPlanController@@@QQmlPrivate@@YAXPAX@Z 004754bc     main.obj
 0002:000534bc       __unwindtable$??$createInto@VOperationParamSelector@@@QQmlPrivate@@YAXPAX@Z 004754bc     main.obj
 0002:000534bc       __unwindtable$??$createInto@VOperationParamObject@@@QQmlPrivate@@YAXPAX@Z 004754bc     main.obj
 0002:000534bc       __unwindtable$??$createInto@VStatusViewWatcher@@@QQmlPrivate@@YAXPAX@Z 004754bc     main.obj
 0002:000534bc       __unwindtable$??$createInto@VPlanSelector@@@QQmlPrivate@@YAXPAX@Z 004754bc     main.obj
 0002:000534c4       __ehfuncinfo$??$createInto@VPlanController@@@QQmlPrivate@@YAXPAX@Z 004754c4     main.obj
 0002:000534c4       __ehfuncinfo$??$createInto@VPlanSelector@@@QQmlPrivate@@YAXPAX@Z 004754c4     main.obj
 0002:000534c4       __ehfuncinfo$??$createInto@VTextFieldDoubleValidator@@@QQmlPrivate@@YAXPAX@Z 004754c4     main.obj
 0002:000534c4       __ehfuncinfo$??$createInto@VStatusViewWatcher@@@QQmlPrivate@@YAXPAX@Z 004754c4     main.obj
 0002:000534c4       __ehfuncinfo$??$createInto@VOperationParamObject@@@QQmlPrivate@@YAXPAX@Z 004754c4     main.obj
 0002:000534c4       __ehfuncinfo$??$createInto@VOperationParamSelector@@@QQmlPrivate@@YAXPAX@Z 004754c4     main.obj
 0002:000534e8       __unwindtable$?qt_metatype_id@?$QMetaTypeIdQObject@PAVPlanSelector@@$07@@SAHXZ 004754e8     main.obj
 0002:000534e8       __unwindtable$?qt_metatype_id@?$QMetaTypeIdQObject@PAVTextFieldDoubleValidator@@$07@@SAHXZ 004754e8     main.obj
 0002:000534e8       __unwindtable$?qt_metatype_id@?$QMetaTypeIdQObject@PAVPlanController@@$07@@SAHXZ 004754e8     main.obj
 0002:000534e8       __unwindtable$?qt_metatype_id@?$QMetaTypeIdQObject@PAVOperationParamObject@@$07@@SAHXZ 004754e8     main.obj
 0002:000534e8       __unwindtable$?qt_metatype_id@?$QMetaTypeIdQObject@PAVStatusViewWatcher@@$07@@SAHXZ 004754e8     main.obj
 0002:000534e8       __unwindtable$?qt_metatype_id@?$QMetaTypeIdQObject@PAVOperationParamSelector@@$07@@SAHXZ 004754e8     main.obj
 0002:000534f0       __ehfuncinfo$?qt_metatype_id@?$QMetaTypeIdQObject@PAVStatusViewWatcher@@$07@@SAHXZ 004754f0     main.obj
 0002:000534f0       __ehfuncinfo$?qt_metatype_id@?$QMetaTypeIdQObject@PAVPlanSelector@@$07@@SAHXZ 004754f0     main.obj
 0002:000534f0       __ehfuncinfo$?qt_metatype_id@?$QMetaTypeIdQObject@PAVPlanController@@$07@@SAHXZ 004754f0     main.obj
 0002:000534f0       __ehfuncinfo$?qt_metatype_id@?$QMetaTypeIdQObject@PAVOperationParamObject@@$07@@SAHXZ 004754f0     main.obj
 0002:000534f0       __ehfuncinfo$?qt_metatype_id@?$QMetaTypeIdQObject@PAVTextFieldDoubleValidator@@$07@@SAHXZ 004754f0     main.obj
 0002:000534f0       __ehfuncinfo$?qt_metatype_id@?$QMetaTypeIdQObject@PAVOperationParamSelector@@$07@@SAHXZ 004754f0     main.obj
 0002:00053514       __catchsym$??0?$QList@PAVQObject@@@@QAE@ABV0@@Z$7 00475514     workmodels.obj
 0002:00053514       __catchsym$??0?$QList@H@@QAE@ABV0@@Z$7 00475514     configfilehandler.obj
 0002:00053524       __unwindtable$??0?$QList@H@@QAE@ABV0@@Z 00475524     configfilehandler.obj
 0002:00053524       __unwindtable$??0?$QList@PAVQObject@@@@QAE@ABV0@@Z 00475524     workmodels.obj
 0002:00053534       __tryblocktable$??0?$QList@PAVQObject@@@@QAE@ABV0@@Z 00475534     workmodels.obj
 0002:00053534       __tryblocktable$??0?$QList@H@@QAE@ABV0@@Z 00475534     configfilehandler.obj
 0002:00053548       __ehfuncinfo$??0?$QList@H@@QAE@ABV0@@Z 00475548     configfilehandler.obj
 0002:00053548       __ehfuncinfo$??0?$QList@PAVQObject@@@@QAE@ABV0@@Z 00475548     workmodels.obj
 0002:0005356c       __catchsym$?append@?$QList@H@@QAEXABH@Z$9 0047556c     configfilehandler.obj
 0002:0005356c       __catchsym$?append@?$QList@PAVQObject@@@@QAEXABQAVQObject@@@Z$9 0047556c     workmodels.obj
 0002:0005357c       __tryblocktable$?append@?$QList@PAVQObject@@@@QAEXABQAVQObject@@@Z 0047557c     workmodels.obj
 0002:0005357c       __tryblocktable$?append@?$QList@H@@QAEXABH@Z 0047557c     configfilehandler.obj
 0002:00053590       __ehfuncinfo$?append@?$QList@PAVQObject@@@@QAEXABQAVQObject@@@Z 00475590     workmodels.obj
 0002:00053590       __ehfuncinfo$?append@?$QList@H@@QAEXABH@Z 00475590     configfilehandler.obj
 0002:000535b4       __unwindtable$?append@?$QList@PAVQObject@@@@QAEXABQAVQObject@@@Z 004755b4     workmodels.obj
 0002:000535b4       __unwindtable$?append@?$QList@H@@QAEXABH@Z 004755b4     configfilehandler.obj
 0002:000535e4       __catchsym$?detach_helper_grow@?$QList@PAVQObject@@@@AAEPAUNode@1@HH@Z$10 004755e4     workmodels.obj
 0002:000535e4       __catchsym$?detach_helper_grow@?$QList@H@@AAEPAUNode@1@HH@Z$10 004755e4     configfilehandler.obj
 0002:000535f4       __catchsym$?detach_helper_grow@?$QList@H@@AAEPAUNode@1@HH@Z$9 004755f4     configfilehandler.obj
 0002:000535f4       __catchsym$?detach_helper_grow@?$QList@PAVQObject@@@@AAEPAUNode@1@HH@Z$9 004755f4     workmodels.obj
 0002:00053604       __unwindtable$?detach_helper_grow@?$QList@PAVQObject@@@@AAEPAUNode@1@HH@Z 00475604     workmodels.obj
 0002:00053604       __unwindtable$?detach_helper_grow@?$QList@H@@AAEPAUNode@1@HH@Z 00475604     configfilehandler.obj
 0002:00053624       __ehfuncinfo$?detach_helper_grow@?$QList@H@@AAEPAUNode@1@HH@Z 00475624     configfilehandler.obj
 0002:00053624       __ehfuncinfo$?detach_helper_grow@?$QList@PAVQObject@@@@AAEPAUNode@1@HH@Z 00475624     workmodels.obj
 0002:00053648       __tryblocktable$?detach_helper_grow@?$QList@PAVQObject@@@@AAEPAUNode@1@HH@Z 00475648     workmodels.obj
 0002:00053648       __tryblocktable$?detach_helper_grow@?$QList@H@@AAEPAUNode@1@HH@Z 00475648     configfilehandler.obj
 0002:00053670       __ehfuncinfo$?setSelectedOperation@OperationParamSelector@@QAEXH@Z 00475670     workmodels.obj
 0002:00053694       __unwindtable$?setSelectedOperation@OperationParamSelector@@QAEXH@Z 00475694     workmodels.obj
 0002:000536fc       __ehfuncinfo$?onCompleteSingleOperation@OperationParamSelector@@QAEXXZ 004756fc     workmodels.obj
 0002:00053720       __unwindtable$?onCompleteSingleOperation@OperationParamSelector@@QAEXXZ 00475720     workmodels.obj
 0002:00053760       __unwindtable$??0PlanSelector@@QAE@PAVQObject@@@Z 00475760     workmodels.obj
 0002:00053780       __ehfuncinfo$??0PlanSelector@@QAE@PAVQObject@@@Z 00475780     workmodels.obj
 0002:000537a4       __unwindtable$??1PlanSelector@@UAE@XZ 004757a4     workmodels.obj
 0002:000537b4       __ehfuncinfo$??1PlanSelector@@UAE@XZ 004757b4     workmodels.obj
 0002:000537d8       __ehfuncinfo$?setSelectedStep@PlanSelector@@QAEXHH@Z 004757d8     workmodels.obj
 0002:000537fc       __unwindtable$?setSelectedStep@PlanSelector@@QAEXHH@Z 004757fc     workmodels.obj
 0002:00053864       __ehfuncinfo$?setSelectedOperation@PlanSelector@@QAEXHHH@Z 00475864     workmodels.obj
 0002:00053888       __unwindtable$?setSelectedOperation@PlanSelector@@QAEXHHH@Z 00475888     workmodels.obj
 0002:00053910       __unwindtable$?getSwitch@OperationParamSelector@@QAEPAVQObject@@ABVQString@@@Z 00475910     workmodels.obj
 0002:00053910       __unwindtable$?getSwitch@PlanSelector@@QAEPAVQObject@@ABVQString@@@Z 00475910     workmodels.obj
 0002:00053928       __ehfuncinfo$?getSwitch@PlanSelector@@QAEPAVQObject@@ABVQString@@@Z 00475928     workmodels.obj
 0002:00053928       __ehfuncinfo$?getSwitch@OperationParamSelector@@QAEPAVQObject@@ABVQString@@@Z 00475928     workmodels.obj
 0002:0005394c       __unwindtable$??_GStatusViewWatcher@@UAEPAXI@Z 0047594c     workmodels.obj
 0002:00053954       __ehfuncinfo$??_GStatusViewWatcher@@UAEPAXI@Z 00475954     workmodels.obj
 0002:00053978       __unwindtable$?onMachineConfigChanged@TargetMachineObject@@QAE_NXZ 00475978     workmodels.obj
 0002:00053980       __ehfuncinfo$?onMachineConfigChanged@TargetMachineObject@@QAE_NXZ 00475980     workmodels.obj
 0002:000539a4       __unwindtable$?getConfigFullName@@YA?AVQString@@PBD@Z 004759a4     main.obj
 0002:000539a4       __unwindtable$?exportConfigFile@ConfigFileConverter@@QAE_NABVQUrl@@@Z 004759a4     workmodels.obj
 0002:000539a4       __unwindtable$?importConfigFile@ConfigFileConverter@@QAE_NABVQUrl@@@Z 004759a4     workmodels.obj
 0002:000539ac       __ehfuncinfo$?importConfigFile@ConfigFileConverter@@QAE_NABVQUrl@@@Z 004759ac     workmodels.obj
 0002:000539ac       __ehfuncinfo$?getConfigFullName@@YA?AVQString@@PBD@Z 004759ac     main.obj
 0002:000539ac       __ehfuncinfo$?exportConfigFile@ConfigFileConverter@@QAE_NABVQUrl@@@Z 004759ac     workmodels.obj
 0002:000539d0       __unwindtable$??1?$QForeachContainer@V?$QList@VOperationParamData@@@@@@QAE@XZ 004759d0     configfilehandler.obj
 0002:000539d0       __unwindtable$??1?$QForeachContainer@$$CBV?$QList@VOperationParamData@@@@@@QAE@XZ 004759d0     environmentvariant.obj
 0002:000539d0       __unwindtable$??1?$QForeachContainer@V?$QList@PAVQObject@@@@@@QAE@XZ 004759d0     workmodels.obj
 0002:000539d8       __ehfuncinfo$??1?$QForeachContainer@V?$QList@VOperationParamData@@@@@@QAE@XZ 004759d8     configfilehandler.obj
 0002:000539d8       __ehfuncinfo$??1?$QForeachContainer@$$CBV?$QList@VOperationParamData@@@@@@QAE@XZ 004759d8     environmentvariant.obj
 0002:000539d8       __ehfuncinfo$??1?$QForeachContainer@V?$QList@PAVQObject@@@@@@QAE@XZ 004759d8     workmodels.obj
 0002:000539fc       __ehfuncinfo$?doCheck@SubThreadCheckWorker@@QAEXABVQJsonObject@@@Z 004759fc     workflowChecker.obj
 0002:00053a20       __unwindtable$?doCheck@SubThreadCheckWorker@@QAEXABVQJsonObject@@@Z 00475a20     workflowChecker.obj
 0002:00053b18       __ehfuncinfo$?configChecker@SubThreadCheckWorker@@QAEXABVQJsonArray@@@Z 00475b18     workflowChecker.obj
 0002:00053b3c       __unwindtable$?configChecker@SubThreadCheckWorker@@QAEXABVQJsonArray@@@Z 00475b3c     workflowChecker.obj
 0002:00053bc4       __ehfuncinfo$?CheckBoardConstraint@SubThreadCheckWorker@@IAE_NABVQJsonObject@@@Z 00475bc4     workflowChecker.obj
 0002:00053be8       __unwindtable$?CheckBoardConstraint@SubThreadCheckWorker@@IAE_NABVQJsonObject@@@Z 00475be8     workflowChecker.obj
 0002:00053c98       __ehfuncinfo$?CheckParamConstraint@SubThreadCheckWorker@@IAE_NABVQJsonObject@@@Z 00475c98     workflowChecker.obj
 0002:00053cbc       __unwindtable$?CheckParamConstraint@SubThreadCheckWorker@@IAE_NABVQJsonObject@@@Z 00475cbc     workflowChecker.obj
 0002:00053e24       __ehfuncinfo$??0WorkflowCheckerController@@QAE@PAVQObject@@@Z 00475e24     workflowChecker.obj
 0002:00053e48       __unwindtable$??0WorkflowCheckerController@@QAE@PAVQObject@@@Z 00475e48     workflowChecker.obj
 0002:00053e78       __unwindtable$??_GWorkflowCheckerController@@UAEPAXI@Z 00475e78     workflowChecker.obj
 0002:00053e78       __unwindtable$??4?$QList@H@@QAEAAV0@$$QAV0@@Z 00475e78     configfilehandler.obj
 0002:00053e78       __unwindtable$??1SubThreadWorker@@UAE@XZ 00475e78     workflowprotocol.obj
 0002:00053e78       __unwindtable$??4?$QList@PAVQObject@@@@QAEAAV0@$$QAV0@@Z 00475e78     workmodels.obj
 0002:00053e78       __unwindtable$??1?$QPair@VQString@@V?$QList@VSingleOperationData@@@@@@QAE@XZ 00475e78     configfilehandler.obj
 0002:00053e78       __unwindtable$??_GWorkflowController@@UAEPAXI@Z 00475e78     workflowprotocol.obj
 0002:00053e78       __unwindtable$??4SingleOperationData@@QAEAAV0@$$QAV0@@Z 00475e78     environmentvariant.obj
 0002:00053e78       __unwindtable$??_G?$QPair@VQString@@V?$QList@VSingleOperationData@@@@@@QAEPAXI@Z 00475e78     configfilehandler.obj
 0002:00053e78       __unwindtable$??4?$QList@U?$QPair@VQString@@V?$QList@VSingleOperationData@@@@@@@@QAEAAV0@$$QAV0@@Z 00475e78     configfilehandler.obj
 0002:00053e80       __ehfuncinfo$??4?$QList@U?$QPair@VQString@@V?$QList@VSingleOperationData@@@@@@@@QAEAAV0@$$QAV0@@Z 00475e80     configfilehandler.obj
 0002:00053e80       __ehfuncinfo$??4?$QList@H@@QAEAAV0@$$QAV0@@Z 00475e80     configfilehandler.obj
 0002:00053e80       __ehfuncinfo$??1SubThreadWorker@@UAE@XZ 00475e80     workflowprotocol.obj
 0002:00053e80       __ehfuncinfo$??4SingleOperationData@@QAEAAV0@$$QAV0@@Z 00475e80     environmentvariant.obj
 0002:00053e80       __ehfuncinfo$??1?$QPair@VQString@@V?$QList@VSingleOperationData@@@@@@QAE@XZ 00475e80     configfilehandler.obj
 0002:00053e80       __ehfuncinfo$??_G?$QPair@VQString@@V?$QList@VSingleOperationData@@@@@@QAEPAXI@Z 00475e80     configfilehandler.obj
 0002:00053e80       __ehfuncinfo$??_GWorkflowCheckerController@@UAEPAXI@Z 00475e80     workflowChecker.obj
 0002:00053e80       __ehfuncinfo$??_GWorkflowController@@UAEPAXI@Z 00475e80     workflowprotocol.obj
 0002:00053e80       __ehfuncinfo$??4?$QList@PAVQObject@@@@QAEAAV0@$$QAV0@@Z 00475e80     workmodels.obj
 0002:00053ea4       __unwindtable$?qt_metatype_id@?$QMetaTypeId@VQSequentialIterableImpl@QtMetaTypePrivate@@@@SAHXZ 00475ea4     moc_workmodels.obj
 0002:00053ea4       __unwindtable$?qt_metatype_id@?$QMetaTypeId@V?$QList@PAVQObject@@@@@@SAHXZ 00475ea4     moc_workmodels.obj
 0002:00053eac       __ehfuncinfo$?qt_metatype_id@?$QMetaTypeId@VQSequentialIterableImpl@QtMetaTypePrivate@@@@SAHXZ 00475eac     moc_workmodels.obj
 0002:00053eac       __ehfuncinfo$?qt_metatype_id@?$QMetaTypeId@V?$QList@PAVQObject@@@@@@SAHXZ 00475eac     moc_workmodels.obj
 0002:00053ed0       __unwindtable$?qt_static_metacall@OperationParamSelector@@CAXPAVQObject@@W4Call@QMetaObject@@HPAPAX@Z 00475ed0     moc_workmodels.obj
 0002:00053ed8       __ehfuncinfo$?qt_static_metacall@OperationParamSelector@@CAXPAVQObject@@W4Call@QMetaObject@@HPAPAX@Z 00475ed8     moc_workmodels.obj
 0002:00053efc       __unwindtable$?qt_static_metacall@PlanSelector@@CAXPAVQObject@@W4Call@QMetaObject@@HPAPAX@Z 00475efc     moc_workmodels.obj
 0002:00053f1c       __ehfuncinfo$?qt_static_metacall@PlanSelector@@CAXPAVQObject@@W4Call@QMetaObject@@HPAPAX@Z 00475f1c     moc_workmodels.obj
 0002:00053f40       __unwindtable$?setParamListModel@PlanSelector@@QAEXABV?$QList@PAVQObject@@@@@Z 00475f40     moc_workmodels.obj
 0002:00053f40       __unwindtable$?clear@?$QList@UloopControl@SubThreadWorker@@@@QAEXXZ 00475f40     workflowprotocol.obj
 0002:00053f40       __unwindtable$??4OperationParamData@@QAEAAV0@ABV0@@Z 00475f40     configfilehandler.obj
 0002:00053f40       __unwindtable$?setIntListValue@OperationParamObject@@QAEXABV?$QList@H@@@Z 00475f40     moc_workmodels.obj
 0002:00053f40       __unwindtable$?setParamModel@OperationParamSelector@@QAEXABV?$QList@PAVQObject@@@@@Z 00475f40     moc_workmodels.obj
 0002:00053f48       __ehfuncinfo$?setParamListModel@PlanSelector@@QAEXABV?$QList@PAVQObject@@@@@Z 00475f48     moc_workmodels.obj
 0002:00053f48       __ehfuncinfo$?setParamModel@OperationParamSelector@@QAEXABV?$QList@PAVQObject@@@@@Z 00475f48     moc_workmodels.obj
 0002:00053f48       __ehfuncinfo$?clear@?$QList@UloopControl@SubThreadWorker@@@@QAEXXZ 00475f48     workflowprotocol.obj
 0002:00053f48       __ehfuncinfo$?setIntListValue@OperationParamObject@@QAEXABV?$QList@H@@@Z 00475f48     moc_workmodels.obj
 0002:00053f48       __ehfuncinfo$??4OperationParamData@@QAEAAV0@ABV0@@Z 00475f48     configfilehandler.obj
 0002:00053f6c       __unwindtable$?qt_static_metacall@StatusViewWatcher@@CAXPAVQObject@@W4Call@QMetaObject@@HPAPAX@Z 00475f6c     moc_workmodels.obj
 0002:00053f7c       __ehfuncinfo$?qt_static_metacall@StatusViewWatcher@@CAXPAVQObject@@W4Call@QMetaObject@@HPAPAX@Z 00475f7c     moc_workmodels.obj
 0002:00053fa0       __unwindtable$?qt_metatype_id@?$QMetaTypeId@V?$QList@H@@@@SAHXZ 00475fa0     moc_workmodels.obj
 0002:00053fa8       __ehfuncinfo$?qt_metatype_id@?$QMetaTypeId@V?$QList@H@@@@SAHXZ 00475fa8     moc_workmodels.obj
 0002:00053fcc       __unwindtable$?Destruct@?$QMetaTypeFunctionHelper@V?$QList@PAVQObject@@@@$00@QtMetaTypePrivate@@SAXPAX@Z 00475fcc     moc_workmodels.obj
 0002:00053fcc       __unwindtable$?Destruct@?$QMetaTypeFunctionHelper@V?$QList@H@@$00@QtMetaTypePrivate@@SAXPAX@Z 00475fcc     moc_workmodels.obj
 0002:00053fcc       __unwindtable$??__Ff@?4??registerConverter@?$ValueTypeIsMetaType@V?$QList@PAVQObject@@@@$00@QtPrivate@@SA_NH@Z@YAXXZ 00475fcc     moc_workmodels.obj
 0002:00053fcc       __unwindtable$??__Ff@?4??registerConverter@?$ValueTypeIsMetaType@V?$QList@H@@$00@QtPrivate@@SA_NH@Z@YAXXZ 00475fcc     moc_workmodels.obj
 0002:00053fcc       __unwindtable$??__Fdummy@?A0x60b45615@@YAXXZ 00475fcc     qrc_qml.obj
 0002:00053fd4       __ehfuncinfo$??__Ff@?4??registerConverter@?$ValueTypeIsMetaType@V?$QList@H@@$00@QtPrivate@@SA_NH@Z@YAXXZ 00475fd4     moc_workmodels.obj
 0002:00053fd4       __ehfuncinfo$?Destruct@?$QMetaTypeFunctionHelper@V?$QList@PAVQObject@@@@$00@QtMetaTypePrivate@@SAXPAX@Z 00475fd4     moc_workmodels.obj
 0002:00053fd4       __ehfuncinfo$?Destruct@?$QMetaTypeFunctionHelper@V?$QList@H@@$00@QtMetaTypePrivate@@SAXPAX@Z 00475fd4     moc_workmodels.obj
 0002:00053fd4       __ehfuncinfo$??__Ff@?4??registerConverter@?$ValueTypeIsMetaType@V?$QList@PAVQObject@@@@$00@QtPrivate@@SA_NH@Z@YAXXZ 00475fd4     moc_workmodels.obj
 0002:00053fd4       __ehfuncinfo$??__Fdummy@?A0x60b45615@@YAXXZ 00475fd4     qrc_qml.obj
 0002:00053ff8       __unwindtable$?Construct@?$QMetaTypeFunctionHelper@V?$QList@PAVQObject@@@@$00@QtMetaTypePrivate@@SAPAXPAXPBX@Z 00475ff8     moc_workmodels.obj
 0002:00053ff8       __unwindtable$?Construct@?$QMetaTypeFunctionHelper@V?$QList@H@@$00@QtMetaTypePrivate@@SAPAXPAXPBX@Z 00475ff8     moc_workmodels.obj
 0002:00054000       __ehfuncinfo$?Construct@?$QMetaTypeFunctionHelper@V?$QList@PAVQObject@@@@$00@QtMetaTypePrivate@@SAPAXPAXPBX@Z 00476000     moc_workmodels.obj
 0002:00054000       __ehfuncinfo$?Construct@?$QMetaTypeFunctionHelper@V?$QList@H@@$00@QtMetaTypePrivate@@SAPAXPAXPBX@Z 00476000     moc_workmodels.obj
 0002:00054028       __sehtable$___scrt_is_nonwritable_in_current_image 00476028     MSVCRT:utility.obj
 0002:00054048       __sehtable$?__scrt_common_main_seh@@YAHXZ 00476048     MSVCRT:exe_winmain.obj
 0002:000547b4       .idata$6                   004767b4     DbgHelp:dbghelp.dll
 0002:000548b8       .idata$6                   004768b8     Qt5Quick:Qt5Quick.dll
 0002:00054c10       .idata$6                   00476c10     Qt5Gui:Qt5Gui.dll
 0002:00054d6c       .idata$6                   00476d6c     Qt5Qml:Qt5Qml.dll
 0002:00054e7e       .idata$6                   00476e7e     Qt5Network:Qt5Network.dll
 0002:000571e8       .idata$6                   004791e8     Qt5Core:Qt5Core.dll
 0002:000573da       .idata$6                   004793da     kernel32:KERNEL32.dll
 0002:000574be       .idata$6                   004794be     vcruntime:VCRUNTIME140.dll
 0002:0005769e       .idata$6                   0047969e     ucrt:api-ms-win-crt-heap-l1-1-0.dll
 0002:000576be       .idata$6                   004796be     ucrt:api-ms-win-crt-runtime-l1-1-0.dll
 0002:000576e0       .idata$6                   004796e0     ucrt:api-ms-win-crt-math-l1-1-0.dll
 0002:00057700       .idata$6                   00479700     ucrt:api-ms-win-crt-stdio-l1-1-0.dll
 0002:00057720       .idata$6                   00479720     ucrt:api-ms-win-crt-locale-l1-1-0.dll
 0002:00057758       .idata$6                   00479758     shell32:SHELL32.dll
 0003:00000708       ?_Tss_mutex@@3U_RTL_CRITICAL_SECTION@@A 0047a708     MSVCRT:thread_safe_statics.obj
 0003:00000720       ?_Tss_cv@@3U_RTL_CONDITION_VARIABLE@@A 0047a720     MSVCRT:thread_safe_statics.obj
 0003:00000724       ?_Tss_event@@3PAXA         0047a724     MSVCRT:thread_safe_statics.obj
 0003:00000728       ?encoded_sleep_condition_variable_cs@@3P6GHPAU_RTL_CONDITION_VARIABLE@@PAU_RTL_CRITICAL_SECTION@@K@ZA 0047a728     MSVCRT:thread_safe_statics.obj
 0003:0000072c       ?encoded_wake_all_condition_variable@@3P6GXPAU_RTL_CONDITION_VARIABLE@@@ZA 0047a72c     MSVCRT:thread_safe_statics.obj
 0003:0000073c       ?module_local_atexit_table@@3U_onexit_table_t@@A 0047a73c     MSVCRT:utility.obj
 0003:00000748       ?module_local_at_quick_exit_table@@3U_onexit_table_t@@A 0047a748     MSVCRT:utility.obj
 0003:00000754       ?is_initialized_as_dll@@3_NA 0047a754     MSVCRT:utility.obj
 0003:00000758       _GS_ExceptionRecord        0047a758     MSVCRT:gs_report.obj
 0003:000007a8       _GS_ContextRecord          0047a7a8     MSVCRT:gs_report.obj
 0005:00000000       __guard_fids__             0047c000     MSVCRT:thread_safe_statics.obj
 0005:00000004       __guard_fids_?__scrt_initialize_thread_safe_statics@@YAHXZ 0047c004     MSVCRT:thread_safe_statics.obj
 0005:00000008       __guard_fids__             0047c008     MSVCRT:std_type_info_static.obj
 0005:0000000c       __guard_fids__             0047c00c     MSVCRT:exe_winmain.obj
 0005:00000010       __guard_fids__             0047c010     MSVCRT:exe_winmain.obj
 0005:00000014       __guard_fids__             0047c014     MSVCRT:exe_winmain.obj
 0005:00000018       __guard_fids_?pre_c_initialization@@YAHXZ 0047c018     MSVCRT:exe_winmain.obj
 0005:00000020       __guard_fids__             0047c020     MSVCRT:throw_bad_alloc.obj
 0005:00000028       __guard_fids__             0047c028     MSVCRT:throw_bad_alloc.obj
 0005:00000030       __guard_fids__             0047c030     MSVCRT:throw_bad_alloc.obj
 0005:00000038       __guard_fids__             0047c038     MSVCRT:throw_bad_alloc.obj
 0005:0000003c       __guard_fids__             0047c03c     MSVCRT:throw_bad_alloc.obj
 0005:00000040       __guard_fids__             0047c040     MSVCRT:throw_bad_alloc.obj
 0005:00000044       __guard_fids__             0047c044     MSVCRT:throw_bad_alloc.obj
 0005:00000048       __guard_fids__             0047c048     MSVCRT:throw_bad_alloc.obj
 0005:0000004c       __guard_fids____scrt_set_unhandled_exception_filter 0047c04c     MSVCRT:utility_desktop.obj
 0005:00000050       __guard_fids___except_handler4 0047c050     MSVCRT:_chandler4gs_.obj
 0005:00000054       __guard_fids__             0047c054     MSVCRT:guard_support.obj
 0006:00000060       $R000000                   0047d060     * linker generated manifest res *
