 MindGoTool_AllInOne

 Timestamp is 599c510d (Tue Aug 22 23:43:09 2017)

 Preferred load address is 00400000

 Start         Length     Name                   Class
 0001:00000000 00000130H .text$di                CODE
 0001:00000130 0001e720H .text$mn                CODE
 0001:0001e850 00003cf0H .text$x                 CODE
 0001:00022540 000000fdH .text$yd                CODE
 0002:00000000 0000057cH .idata$5                DATA
 0002:0000057c 00000004H .00cfg                  DATA
 0002:00000580 00000004H .CRT$XCA                DATA
 0002:00000584 00000004H .CRT$XCAA               DATA
 0002:00000588 00000044H .CRT$XCU                DATA
 0002:000005cc 00000004H .CRT$XCZ                DATA
 0002:000005d0 00000004H .CRT$XIA                DATA
 0002:000005d4 00000004H .CRT$XIAA               DATA
 0002:000005d8 00000004H .CRT$XIAC               DATA
 0002:000005dc 00000004H .CRT$XIC                DATA
 0002:000005e0 00000004H .CRT$XIZ                DATA
 0002:000005e4 00000004H .CRT$XLA                DATA
 0002:000005e8 00000004H .CRT$XLZ                DATA
 0002:000005ec 00000004H .CRT$XPA                DATA
 0002:000005f0 00000004H .CRT$XPZ                DATA
 0002:000005f4 00000004H .CRT$XTA                DATA
 0002:000005f8 00000008H .CRT$XTZ                DATA
 0002:00000600 0004f4e4H .rdata                  DATA
 0002:0004fae4 00000018H .rdata$T                DATA
 0002:0004fafc 00000a84H .rdata$r                DATA
 0002:00050580 00000258H .rdata$sxdata           DATA
 0002:000507d8 000003ccH .rdata$zzzdbg           DATA
 0002:00050ba4 00000004H .rtc$IAA                DATA
 0002:00050ba8 00000004H .rtc$IZZ                DATA
 0002:00050bac 00000004H .rtc$TAA                DATA
 0002:00050bb0 00000008H .rtc$TZZ                DATA
 0002:00050bb8 000045f4H .xdata$x                DATA
 0002:000551ac 00000000H .edata                  DATA
 0002:000551ac 00000118H .idata$2                DATA
 0002:000552c4 00000014H .idata$3                DATA
 0002:000552d8 0000057cH .idata$4                DATA
 0002:00055854 00002fdcH .idata$6                DATA
 0003:00000000 000001a8H .data                   DATA
 0003:000001a8 00000588H .data$r                 DATA
 0003:00000730 00000428H .bss                    DATA
 0004:00000000 00000004H .tls                    DATA
 0004:00000004 00000004H .tls$                   DATA
 0004:00000008 00000001H .tls$ZZZ                DATA
 0005:00000000 00000058H .gfids$y                DATA
 0006:00000000 00000060H .rsrc$01                DATA
 0006:00000060 00000290H .rsrc$02                DATA

  Address         Publics by Value              Rva+Base       Lib:Object

 0000:00000000       ___guard_iat_table         00000000     <absolute>
 0000:00000000       ___guard_longjmp_count     00000000     <absolute>
 0000:00000000       ___guard_longjmp_table     00000000     <absolute>
 0000:00000000       ___guard_fids_table        00000000     <absolute>
 0000:00000000       ___guard_iat_count         00000000     <absolute>
 0000:00000000       ___guard_fids_count        00000000     <absolute>
 0000:00000000       ___dynamic_value_reloc_table 00000000     <absolute>
 0000:0000002c       __tls_array                0000002c     <absolute>
 0000:00000096       ___safe_se_handler_count   00000096     <absolute>
 0000:00000100       ___guard_flags             00000100     <absolute>
 0000:00000000       ___ImageBase               00400000     <linker-defined>
 0001:00000130       ??0Communication@@QAE@XZ   00401130 f   communication.obj
 0001:00000150       ?connectToServer@Communication@@QAE_NABVQString@@G@Z 00401150 f   communication.obj
 0001:00000270       ?disconnect@Communication@@QAEXXZ 00401270 f   communication.obj
 0001:00000290       ?readData@Communication@@QAE?AVQByteArray@@H@Z 00401290 f   communication.obj
 0001:00000310       ?write@Communication@@QAE_JABVQByteArray@@@Z 00401310 f   communication.obj
 0001:00000360       ??$connect@P8QThread@@AEXUQPrivateSignal@1@@ZP8QObject@@AEXXZ@QObject@@SA?AVConnection@QMetaObject@@PBVQThread@@P83@AEXUQPrivateSignal@3@@ZPBV0@P80@AEXXZW4ConnectionType@Qt@@@Z 00401360 f i workflowprotocol.obj
 0001:000003c0       ??$connect@P8SubThreadWorker@@AEXABVQJsonObject@@@ZP8WorkflowController@@AEX0@Z@QObject@@SA?AVConnection@QMetaObject@@PBVSubThreadWorker@@P83@AEXABVQJsonObject@@@ZPBVWorkflowController@@P85@AEX1@ZW4ConnectionType@Qt@@@Z 004013c0 f i workflowprotocol.obj
 0001:00000430       ??$connect@P8SubThreadWorker@@AEXABVQString@@H@ZP8WorkflowController@@AEX0H@Z@QObject@@SA?AVConnection@QMetaObject@@PBVSubThreadWorker@@P83@AEXABVQString@@H@ZPBVWorkflowController@@P85@AEX1H@ZW4ConnectionType@Qt@@@Z 00401430 f i workflowprotocol.obj
 0001:000004a0       ??$connect@P8WorkflowController@@AEXABVQJsonObject@@@ZP8SubThreadWorker@@AEX0@Z@QObject@@SA?AVConnection@QMetaObject@@PBVWorkflowController@@P83@AEXABVQJsonObject@@@ZPBVSubThreadWorker@@P85@AEX1@ZW4ConnectionType@Qt@@@Z 004014a0 f i workflowprotocol.obj
 0001:00000510       ??$connect@P8WorkflowController@@AEXABVQString@@@ZP8SubThreadWorker@@AEX0@Z@QObject@@SA?AVConnection@QMetaObject@@PBVWorkflowController@@P83@AEXABVQString@@@ZPBVSubThreadWorker@@P85@AEX1@ZW4ConnectionType@Qt@@@Z 00401510 f i workflowprotocol.obj
 0001:00000580       ??$connect@P8WorkflowController@@AEXABVQString@@G@ZP8SubThreadWorker@@AEX0G@Z@QObject@@SA?AVConnection@QMetaObject@@PBVWorkflowController@@P83@AEXABVQString@@G@ZPBVSubThreadWorker@@P85@AEX1G@ZW4ConnectionType@Qt@@@Z 00401580 f i workflowprotocol.obj
 0001:000005f0       ??$connect@P8WorkflowController@@AEXXZP8SubThreadWorker@@AEXXZ@QObject@@SA?AVConnection@QMetaObject@@PBVWorkflowController@@P83@AEXXZPBVSubThreadWorker@@P84@AEXXZW4ConnectionType@Qt@@@Z 004015f0 f i workflowprotocol.obj
 0001:00000650       ??$formatWord@E@WorkflowProtocol@@IAE?AVQByteArray@@E@Z 00401650 f i workflowprotocol.obj
 0001:00000680       ??$formatWord@G@WorkflowProtocol@@IAE?AVQByteArray@@G@Z 00401680 f i workflowprotocol.obj
 0001:000006b0       ??0?$QList@VQString@@@@QAE@ABV0@@Z 004016b0 f i workflowprotocol.obj
 0001:00000760       ??0WorkflowController@@QAE@PAVQObject@@@Z 00401760 f   workflowprotocol.obj
 0001:000009a0       ??1?$QList@VQString@@@@QAE@XZ 004019a0 f i workflowprotocol.obj
 0001:00000a30       ??1Communication@@QAE@XZ   00401a30 f i workflowprotocol.obj
 0001:00000a40       ??1QStringList@@QAE@XZ     00401a40 f i workflowprotocol.obj
 0001:00000a40       ??1?$QForeachContainer@VQStringList@@@@QAE@XZ 00401a40 f i workflowprotocol.obj
 0001:00000a40       ??1?$QForeachContainer@$$CBVQStringList@@@@QAE@XZ 00401a40 f i environmentvariant.obj
 0001:00000a50       ??1SubThreadWorker@@UAE@XZ 00401a50 f   workflowprotocol.obj
 0001:00000b00       ??1WorkflowController@@UAE@XZ 00401b00 f   workflowprotocol.obj
 0001:00000b70       ??4?$QList@UloopControl@SubThreadWorker@@@@QAEAAV0@$$QAV0@@Z 00401b70 f i workflowprotocol.obj
 0001:00000c20       ??_GRunningStateChangeEvent@@UAEPAXI@Z 00401c20 f i workflowprotocol.obj
 0001:00000c20       ??_ERunningStateChangeEvent@@UAEPAXI@Z 00401c20 f i workflowprotocol.obj
 0001:00000c50       ??_GCheckStateChangeEvent@@UAEPAXI@Z 00401c50 f i workflowChecker.obj
 0001:00000c50       ??_GStatusChangeEvent@@UAEPAXI@Z 00401c50 f i workflowprotocol.obj
 0001:00000c50       ??_EStatusChangeEvent@@UAEPAXI@Z 00401c50 f i workflowprotocol.obj
 0001:00000c50       ??_ECheckStateChangeEvent@@UAEPAXI@Z 00401c50 f i workflowChecker.obj
 0001:00000c80       ??_GSubThreadWorker@@UAEPAXI@Z 00401c80 f i workflowprotocol.obj
 0001:00000c80       ??_ESubThreadWorker@@UAEPAXI@Z 00401c80 f i workflowprotocol.obj
 0001:00000ca0       ??_GWorkflowController@@UAEPAXI@Z 00401ca0 f i workflowprotocol.obj
 0001:00000ca0       ??_EWorkflowController@@UAEPAXI@Z 00401ca0 f i workflowprotocol.obj
 0001:00000d30       ?append@?$QList@UloopControl@SubThreadWorker@@@@QAEXABUloopControl@SubThreadWorker@@@Z 00401d30 f i workflowprotocol.obj
 0001:00000de0       ?append@?$QList@VQString@@@@QAEXABVQString@@@Z 00401de0 f i workflowprotocol.obj
 0001:00000e90       ?changeHost@SubThreadWorker@@QAEXABVQString@@G@Z 00401e90 f   workflowprotocol.obj
 0001:00000eb0       ?clear@?$QList@UloopControl@SubThreadWorker@@@@QAEXXZ 00401eb0 f i workflowprotocol.obj
 0001:00000f50       ?configProtocol@SubThreadWorker@@QAEXABVQString@@@Z 00401f50 f   workflowprotocol.obj
 0001:00000f60       ?dealloc@?$QList@UloopControl@SubThreadWorker@@@@AAEXPAUData@QListData@@@Z 00401f60 f i workflowprotocol.obj
 0001:00000fb0       ?detach_helper@?$QList@UloopControl@SubThreadWorker@@@@AAEXH@Z 00401fb0 f i workflowprotocol.obj
 0001:00001080       ?detach_helper_grow@?$QList@UloopControl@SubThreadWorker@@@@AAEPAUNode@1@HH@Z 00402080 f i workflowprotocol.obj
 0001:000011d0       ?detach_helper_grow@?$QList@VQString@@@@AAEPAUNode@1@HH@Z 004021d0 f i workflowprotocol.obj
 0001:00001350       ?doTunning@SubThreadWorker@@QAEXABVQJsonObject@@@Z 00402350 f   workflowprotocol.obj
 0001:00001490       ?doWork@SubThreadWorker@@QAEXABVQJsonObject@@@Z 00402490 f   workflowprotocol.obj
 0001:00001810       ?erase@?$QList@UloopControl@SubThreadWorker@@@@QAE?AViterator@1@V21@@Z 00402810 f i workflowprotocol.obj
 0001:00001890       ?formatRecvFrameToJsonObject@WorkflowProtocol@@QAE_NAAVQJsonObject@@@Z 00402890 f   workflowprotocol.obj
 0001:00001930       ?handleControlCommand@SubThreadWorker@@IAE_NAAVCommunication@@AAVQJsonObject@@@Z 00402930 f   workflowprotocol.obj
 0001:00002430       ?handleLogicalCommand@SubThreadWorker@@IAE_NAAVQJsonObject@@AAH@Z 00403430 f   workflowprotocol.obj
 0001:00002d00       ?handleLoopCommand@SubThreadWorker@@IAE_NAAVQJsonObject@@AAH@Z 00403d00 f   workflowprotocol.obj
 0001:000034f0       ?impl@?$QSlotObject@P8SubThreadWorker@@AEXXZU?$List@$$V@QtPrivate@@X@QtPrivate@@CAXHPAVQSlotObjectBase@2@PAVQObject@@PAPAXPA_N@Z 004044f0 f i workflowprotocol.obj
 0001:000034f0       ?impl@?$QSlotObject@P8QObject@@AEXXZU?$List@$$V@QtPrivate@@X@QtPrivate@@CAXHPAVQSlotObjectBase@2@PAVQObject@@PAPAXPA_N@Z 004044f0 f i workflowprotocol.obj
 0001:000034f0       ?impl@?$QSlotObject@P8StatusViewWatcher@@AEXXZU?$List@$$V@QtPrivate@@X@QtPrivate@@CAXHPAVQSlotObjectBase@2@PAVQObject@@PAPAXPA_N@Z 004044f0 f i workmodels.obj
 0001:000034f0       ?impl@?$QSlotObject@P8SubThreadCheckWorker@@AEXXZU?$List@$$V@QtPrivate@@X@QtPrivate@@CAXHPAVQSlotObjectBase@2@PAVQObject@@PAPAXPA_N@Z 004044f0 f i workflowChecker.obj
 0001:00003540       ?impl@?$QSlotObject@P8SubThreadWorker@@AEXABVQString@@G@ZU?$List@ABVQString@@G@QtPrivate@@X@QtPrivate@@CAXHPAVQSlotObjectBase@2@PAVQObject@@PAPAXPA_N@Z 00404540 f i workflowprotocol.obj
 0001:000035a0       ?impl@?$QSlotObject@P8WorkflowController@@AEXABVQString@@H@ZU?$List@ABVQString@@H@QtPrivate@@X@QtPrivate@@CAXHPAVQSlotObjectBase@2@PAVQObject@@PAPAXPA_N@Z 004045a0 f i workflowprotocol.obj
 0001:00003600       ?init@WorkflowController@@QAEXABVQString@@@Z 00404600 f   workflowprotocol.obj
 0001:00003610       ?initProtocol@WorkflowProtocol@@QAE_NABVQString@@@Z 00404610 f   workflowprotocol.obj
 0001:00003760       ?isLogicalCommand@SubThreadWorker@@IAE_NABVQString@@@Z 00404760 f   workflowprotocol.obj
 0001:00003980       ?isLoopCommand@SubThreadWorker@@IAE_NABVQString@@@Z 00404980 f   workflowprotocol.obj
 0001:00003bd0       ?node_copy@?$QList@UloopControl@SubThreadWorker@@@@AAEXPAUNode@1@00@Z 00404bd0 f i workflowprotocol.obj
 0001:00003c70       ?node_copy@?$QList@VQString@@@@AAEXPAUNode@1@00@Z 00404c70 f i workflowprotocol.obj
 0001:00003cb0       ?node_destruct@?$QList@UloopControl@SubThreadWorker@@@@AAEXPAUNode@1@0@Z 00404cb0 f i workflowprotocol.obj
 0001:00003ce0       ?node_destruct@?$QList@VQString@@@@AAEXPAUNode@1@0@Z 00404ce0 f i workflowprotocol.obj
 0001:00003d10       ?parseAckFrame@WorkflowProtocol@@QAE_NABVQByteArray@@AAVQJsonObject@@@Z 00404d10 f   workflowprotocol.obj
 0001:00003df0       ?parseJsonObjectToSendFrame@WorkflowProtocol@@QAE_NABVQJsonObject@@AAV2@@Z 00404df0 f   workflowprotocol.obj
 0001:000044c0       ?pauseCurrentTask@WorkflowController@@QAEXXZ 004054c0 f   workflowprotocol.obj
 0001:000044e0       ?pauseTask@SubThreadWorker@@QAEXXZ 004054e0 f   workflowprotocol.obj
 0001:000044f0       ?pop_back@?$QList@UloopControl@SubThreadWorker@@@@QAEXXZ 004054f0 f i workflowprotocol.obj
 0001:00004530       ?runTask@WorkflowController@@QAEXABVQJsonObject@@@Z 00405530 f   workflowprotocol.obj
 0001:00004580       ?runTunning@WorkflowController@@QAEXABVQJsonObject@@@Z 00405580 f   workflowprotocol.obj
 0001:000045d0       ?serializeSendFrame@WorkflowProtocol@@QAE?AVQByteArray@@XZ 004055d0 f   workflowprotocol.obj
 0001:00004730       ?sethost@WorkflowController@@QAEXABVQString@@G@Z 00405730 f   workflowprotocol.obj
 0001:00004740       ?statusChanged@WorkflowController@@QAEXABVQJsonObject@@@Z 00405740 f   workflowprotocol.obj
 0001:000047e0       ?stopCurrentTask@WorkflowController@@QAEXXZ 004057e0 f   workflowprotocol.obj
 0001:00004810       ?stopTask@SubThreadWorker@@QAEXXZ 00405810 f   workflowprotocol.obj
 0001:00004820       ?taskStateChanged@WorkflowController@@QAEXABVQString@@H@Z 00405820 f   workflowprotocol.obj
 0001:000048d0       ?types@?$ConnectionTypes@U?$List@ABVQJsonObject@@@QtPrivate@@$00@QtPrivate@@SAPBHXZ 004058d0 f i workflowprotocol.obj
 0001:00004930       ?types@?$ConnectionTypes@U?$List@ABVQString@@@QtPrivate@@$00@QtPrivate@@SAPBHXZ 00405930 f i workflowprotocol.obj
 0001:00004990       ?types@?$ConnectionTypes@U?$List@ABVQString@@G@QtPrivate@@$00@QtPrivate@@SAPBHXZ 00405990 f i workflowprotocol.obj
 0001:00004a00       ?types@?$ConnectionTypes@U?$List@ABVQString@@H@QtPrivate@@$00@QtPrivate@@SAPBHXZ 00405a00 f i workflowprotocol.obj
 0001:00004a70       ?unserializeRecvFrame@WorkflowProtocol@@QAEXABVQByteArray@@@Z 00405a70 f   workflowprotocol.obj
 0001:00004bb0       ?updateStopState@SubThreadWorker@@QAEXXZ 00405bb0 f   workflowprotocol.obj
 0001:00004bf0       ??0?$QList@H@@QAE@ABV0@@Z  00405bf0 f i configfilehandler.obj
 0001:00004bf0       ??0?$QList@PAVQObject@@@@QAE@ABV0@@Z 00405bf0 f i workmodels.obj
 0001:00004ca0       ??0?$QList@VOperationParamData@@@@QAE@ABV0@@Z 00405ca0 f i configfilehandler.obj
 0001:00004d50       ??0?$QList@VSingleOperationData@@@@QAE@ABV0@@Z 00405d50 f i configfilehandler.obj
 0001:00004e00       ??0OperationParamData@@QAE@ABV0@@Z 00405e00 f i configfilehandler.obj
 0001:00004f70       ??0OperationParamData@@QAE@ABVQString@@00ABVQStringList@@_NHH0V?$QList@H@@00HH2@Z 00405f70 f i configfilehandler.obj
 0001:00005110       ??0OperationParamData@@QAE@XZ 00406110 f i configfilehandler.obj
 0001:00005180       ??0SingleOperationData@@QAE@ABV0@@Z 00406180 f i configfilehandler.obj
 0001:000051f0       ??0configFileHandler@@QAE@PAVQObject@@@Z 004061f0 f   configfilehandler.obj
 0001:00005250       ??1?$QForeachContainer@V?$QList@VOperationParamData@@@@@@QAE@XZ 00406250 f i configfilehandler.obj
 0001:00005250       ??1?$QForeachContainer@$$CBV?$QList@VOperationParamData@@@@@@QAE@XZ 00406250 f i environmentvariant.obj
 0001:000052b0       ??1?$QList@H@@QAE@XZ       004062b0 f i configfilehandler.obj
 0001:000052b0       ??1?$QList@PAVQObject@@@@QAE@XZ 004062b0 f i main.obj
 0001:00005310       ??1?$QList@VOperationParamData@@@@QAE@XZ 00406310 f i configfilehandler.obj
 0001:00005370       ??1?$QList@VQByteArray@@@@QAE@XZ 00406370 f i configfilehandler.obj
 0001:00005400       ??1?$QList@VSingleOperationData@@@@QAE@XZ 00406400 f i configfilehandler.obj
 0001:00005480       ??1?$QList@VSinglePlanData@@@@QAE@XZ 00406480 f i configfilehandler.obj
 0001:00005500       ??1?$QMap@VQString@@V1@@@QAE@XZ 00406500 f i configfilehandler.obj
 0001:00005580       ??1?$QMap@VQString@@VOperationParamData@@@@QAE@XZ 00406580 f i configfilehandler.obj
 0001:00005620       ??1?$QMap@VQString@@VQStringList@@@@QAE@XZ 00406620 f i configfilehandler.obj
 0001:000056c0       ??1OperationParamData@@QAE@XZ 004066c0 f i configfilehandler.obj
 0001:00005770       ??1QJsonValuePtr@@QAE@XZ   00406770 f i configfilehandler.obj
 0001:00005780       ??1SingleOperationData@@QAE@XZ 00406780 f i configfilehandler.obj
 0001:000057f0       ??1SinglePlanData@@QAE@XZ  004067f0 f i configfilehandler.obj
 0001:00005880       ??1configFileHandler@@UAE@XZ 00406880 f i configfilehandler.obj
 0001:000058a0       ??4?$QList@H@@QAEAAV0@$$QAV0@@Z 004068a0 f i configfilehandler.obj
 0001:000058a0       ??4?$QList@PAVQObject@@@@QAEAAV0@$$QAV0@@Z 004068a0 f i workmodels.obj
 0001:00005920       ??4?$QList@VSinglePlanData@@@@QAEAAV0@$$QAV0@@Z 00406920 f i configfilehandler.obj
 0001:000059c0       ??4OperationParamData@@QAEAAV0@ABV0@@Z 004069c0 f i configfilehandler.obj
 0001:00005ae0       ??4QStringList@@QAEAAV0@ABV0@@Z 00406ae0 f i configfilehandler.obj
 0001:00005b20       ??A?$QList@VQString@@@@QAEAAVQString@@H@Z 00406b20 f i configfilehandler.obj
 0001:00005b50       ??A?$QMap@VQString@@V1@@@QAEAAVQString@@ABV1@@Z 00406b50 f i configfilehandler.obj
 0001:00005c10       ??A?$QMap@VQString@@VOperationParamData@@@@QAEAAVOperationParamData@@ABVQString@@@Z 00406c10 f i configfilehandler.obj
 0001:00005cd0       ??A?$QMap@VQString@@VOperationParamData@@@@QBE?BVOperationParamData@@ABVQString@@@Z 00406cd0 f i configfilehandler.obj
 0001:00005d90       ??A?$QMap@VQString@@VQStringList@@@@QAEAAVQStringList@@ABVQString@@@Z 00406d90 f i configfilehandler.obj
 0001:00005e50       ??Cconst_iterator@QJsonArray@@QBE?AVQJsonValuePtr@@XZ 00406e50 f i configfilehandler.obj
 0001:00005ec0       ??H@YA?BVQString@@ABV0@D@Z 00406ec0 f i configfilehandler.obj
 0001:00005f40       ??H@YA?BVQString@@ABV0@PBD@Z 00406f40 f i configfilehandler.obj
 0001:00005fd0       ??H@YA?BVQString@@PBDABV0@@Z 00406fd0 f i configfilehandler.obj
 0001:00006040       ??_GSingleOperationData@@QAEPAXI@Z 00407040 f i configfilehandler.obj
 0001:000060c0       ??_GSinglePlanData@@QAEPAXI@Z 004070c0 f i configfilehandler.obj
 0001:00006160       ??_GconfigFileHandler@@UAEPAXI@Z 00407160 f i configfilehandler.obj
 0001:00006160       ??_EconfigFileHandler@@UAEPAXI@Z 00407160 f i configfilehandler.obj
 0001:00006190       ?ConvertCSVtoJSON@configFileHandler@@QAE_NABVQString@@0@Z 00407190 f   configfilehandler.obj
 0001:00006380       ?ConvertJSONtoCSV@configFileHandler@@QAE_NABVQString@@0@Z 00407380 f   configfilehandler.obj
 0001:00006670       ?GetLicense@configFileHandler@@QAE?AVQString@@XZ 00407670 f   configfilehandler.obj
 0001:00006700       ?ImportConfig@configFileHandler@@QAE_NAAVQJsonObject@@ABVQByteArray@@@Z 00407700 f   configfilehandler.obj
 0001:00006840       ?ImportPlan@configFileHandler@@QAE_NABV?$QList@VQByteArray@@@@AAVQJsonObject@@@Z 00407840 f   configfilehandler.obj
 0001:00007150       ?ImportWorkSpace@configFileHandler@@QAE_NABV?$QList@VQByteArray@@@@AAVQJsonObject@@@Z 00408150 f   configfilehandler.obj
 0001:00007ab0       ?ParseHostIP@configFileHandler@@QAE?AVQString@@XZ 00408ab0 f   configfilehandler.obj
 0001:00007b80       ?ParseHostPort@configFileHandler@@QAEFXZ 00408b80 f   configfilehandler.obj
 0001:00007c60       ?ParseHostSingleOperationThreshold@configFileHandler@@QAEHXZ 00408c60 f   configfilehandler.obj
 0001:00007d40       ?ParseListMap@configFileHandler@@QAE?AV?$QMap@VQString@@VQStringList@@@@ABVQString@@@Z 00408d40 f   configfilehandler.obj
 0001:00007fe0       ?ParseMap@configFileHandler@@QAE?AV?$QMap@VQString@@V1@@@ABVQString@@@Z 00408fe0 f   configfilehandler.obj
 0001:00008130       ?ParseMapRevertKeyValue@configFileHandler@@QAE?AV?$QMap@VQString@@V1@@@ABVQString@@@Z 00409130 f   configfilehandler.obj
 0001:00008290       ?ParseParamValue@configFileHandler@@QAE?AV?$QMap@VQString@@VOperationParamData@@@@ABVQString@@@Z 00409290 f   configfilehandler.obj
 0001:00009490       ?ParsePlan@configFileHandler@@QAE?AVQString@@ABVQJsonArray@@@Z 0040a490 f   configfilehandler.obj
 0001:00009b50       ?ParsePlanList@configFileHandler@@QAEXAAV?$QList@VSinglePlanData@@@@ABV?$QMap@VQString@@VOperationParamData@@@@@Z 0040ab50 f   configfilehandler.obj
 0001:0000a660       ?ParseWorkPlaceConstraint@configFileHandler@@QAE?AVQJsonArray@@XZ 0040b660 f   configfilehandler.obj
 0001:0000a6f0       ?ParseWorkSpace@configFileHandler@@QAE?AVQString@@ABVQJsonObject@@@Z 0040b6f0 f   configfilehandler.obj
 0001:0000acd0       ?ParseWorkSpaceTypeList@configFileHandler@@QAEXAAVQJsonObject@@@Z 0040bcd0 f   configfilehandler.obj
 0001:0000ad70       ?SaveMachineConfig@configFileHandler@@QAE_NABVQString@@ABVMachineConfigData@@ABVQJsonObject@@@Z 0040bd70 f   configfilehandler.obj
 0001:0000b140       ?SavePlanList@configFileHandler@@QAE_NABVQString@@ABV?$QList@VSinglePlanData@@@@ABV?$QMap@VQString@@VQStringList@@@@@Z 0040c140 f   configfilehandler.obj
 0001:0000ba10       ?append@?$QList@H@@QAEXABH@Z 0040ca10 f i configfilehandler.obj
 0001:0000ba10       ?append@?$QList@PAVQObject@@@@QAEXABQAVQObject@@@Z 0040ca10 f i workmodels.obj
 0001:0000baa0       ?append@?$QList@VOperationParamData@@@@QAEXABVOperationParamData@@@Z 0040caa0 f i configfilehandler.obj
 0001:0000bb60       ?append@?$QList@VSingleOperationData@@@@QAEXABVSingleOperationData@@@Z 0040cb60 f i configfilehandler.obj
 0001:0000bc40       ?append@?$QList@VSinglePlanData@@@@QAEXABVSinglePlanData@@@Z 0040cc40 f i configfilehandler.obj
 0001:0000bd20       ?clear@?$QList@VSinglePlanData@@@@QAEXXZ 0040cd20 f i configfilehandler.obj
 0001:0000bdb0       ?copy@?$QMapNode@VQString@@V1@@@QBEPAU1@PAU?$QMapData@VQString@@V1@@@@Z 0040cdb0 f i configfilehandler.obj
 0001:0000be30       ?copy@?$QMapNode@VQString@@VOperationParamData@@@@QBEPAU1@PAU?$QMapData@VQString@@VOperationParamData@@@@@Z 0040ce30 f i configfilehandler.obj
 0001:0000beb0       ?copy@?$QMapNode@VQString@@VQStringList@@@@QBEPAU1@PAU?$QMapData@VQString@@VQStringList@@@@@Z 0040ceb0 f i configfilehandler.obj
 0001:0000bf30       ?createNode@?$QMapData@VQString@@V1@@@QAEPAU?$QMapNode@VQString@@V1@@@ABVQString@@0PAU2@_N@Z 0040cf30 f i configfilehandler.obj
 0001:0000bf80       ?createNode@?$QMapData@VQString@@VOperationParamData@@@@QAEPAU?$QMapNode@VQString@@VOperationParamData@@@@ABVQString@@ABVOperationParamData@@PAU2@_N@Z 0040cf80 f i configfilehandler.obj
 0001:0000c040       ?createNode@?$QMapData@VQString@@VQStringList@@@@QAEPAU?$QMapNode@VQString@@VQStringList@@@@ABVQString@@ABVQStringList@@PAU2@_N@Z 0040d040 f i configfilehandler.obj
 0001:0000c100       ?dealloc@?$QList@VOperationParamData@@@@AAEXPAUData@QListData@@@Z 0040d100 f i configfilehandler.obj
 0001:0000c160       ?destroySubTree@?$QMapNode@VQString@@V1@@@QAEXXZ 0040d160 f i configfilehandler.obj
 0001:0000c190       ?destroySubTree@?$QMapNode@VQString@@VOperationParamData@@@@QAEXXZ 0040d190 f i configfilehandler.obj
 0001:0000c1c0       ?destroySubTree@?$QMapNode@VQString@@VQStringList@@@@QAEXXZ 0040d1c0 f i configfilehandler.obj
 0001:0000c1f0       ?detach_helper@?$QList@VQByteArray@@@@AAEXH@Z 0040d1f0 f i configfilehandler.obj
 0001:0000c2e0       ?detach_helper@?$QList@VQString@@@@AAEXH@Z 0040d2e0 f i configfilehandler.obj
 0001:0000c3d0       ?detach_helper@?$QMap@VQString@@V1@@@AAEXXZ 0040d3d0 f i configfilehandler.obj
 0001:0000c450       ?detach_helper@?$QMap@VQString@@VOperationParamData@@@@AAEXXZ 0040d450 f i configfilehandler.obj
 0001:0000c4f0       ?detach_helper@?$QMap@VQString@@VQStringList@@@@AAEXXZ 0040d4f0 f i configfilehandler.obj
 0001:0000c590       ?detach_helper_grow@?$QList@VOperationParamData@@@@AAEPAUNode@1@HH@Z 0040d590 f i configfilehandler.obj
 0001:0000c6e0       ?detach_helper_grow@?$QList@VSingleOperationData@@@@AAEPAUNode@1@HH@Z 0040d6e0 f i configfilehandler.obj
 0001:0000c850       ?detach_helper_grow@?$QList@VSinglePlanData@@@@AAEPAUNode@1@HH@Z 0040d850 f i configfilehandler.obj
 0001:0000c9c0       ?insert@?$QMap@VQString@@V1@@@QAE?AViterator@1@ABVQString@@0@Z 0040d9c0 f i configfilehandler.obj
 0001:0000ca90       ?insert@?$QMap@VQString@@VOperationParamData@@@@QAE?AViterator@1@ABVQString@@ABVOperationParamData@@@Z 0040da90 f i configfilehandler.obj
 0001:0000cb60       ?insert@?$QMap@VQString@@VQStringList@@@@QAE?AViterator@1@ABVQString@@ABVQStringList@@@Z 0040db60 f i configfilehandler.obj
 0001:0000cc50       ?key@iterator@QJsonObject@@QBE?AVQString@@XZ 0040dc50 f i configfilehandler.obj
 0001:0000cc70       ?loadConfigFile@configFileHandler@@QAE_NABVQString@@@Z 0040dc70 f   configfilehandler.obj
 0001:0000cd70       ?lowerBound@?$QMapNode@VQString@@H@@QAEPAU1@ABVQString@@@Z 0040dd70 f i workflowChecker.obj
 0001:0000cd70       ?lowerBound@?$QMapNode@VQString@@V1@@@QAEPAU1@ABVQString@@@Z 0040dd70 f i configfilehandler.obj
 0001:0000cd70       ?lowerBound@?$QMapNode@VQString@@VOperationParamData@@@@QAEPAU1@ABVQString@@@Z 0040dd70 f i configfilehandler.obj
 0001:0000cd70       ?lowerBound@?$QMapNode@VQString@@VQStringList@@@@QAEPAU1@ABVQString@@@Z 0040dd70 f i configfilehandler.obj
 0001:0000cdb0       ?node_copy@?$QList@PAVQObject@@@@AAEXPAUNode@1@00@Z 0040ddb0 f i workmodels.obj
 0001:0000cdb0       ?node_copy@?$QList@H@@AAEXPAUNode@1@00@Z 0040ddb0 f i configfilehandler.obj
 0001:0000cde0       ?node_copy@?$QList@VOperationParamData@@@@AAEXPAUNode@1@00@Z 0040dde0 f i configfilehandler.obj
 0001:0000ceb0       ?node_copy@?$QList@VQByteArray@@@@AAEXPAUNode@1@00@Z 0040deb0 f i configfilehandler.obj
 0001:0000cef0       ?node_copy@?$QList@VSingleOperationData@@@@AAEXPAUNode@1@00@Z 0040def0 f i configfilehandler.obj
 0001:0000cfc0       ?node_copy@?$QList@VSinglePlanData@@@@AAEXPAUNode@1@00@Z 0040dfc0 f i configfilehandler.obj
 0001:0000d090       ?node_destruct@?$QList@VOperationParamData@@@@AAEXPAUNode@1@0@Z 0040e090 f i configfilehandler.obj
 0001:0000d0d0       ?node_destruct@?$QList@VSingleOperationData@@@@AAEXPAUNode@1@0@Z 0040e0d0 f i configfilehandler.obj
 0001:0000d170       ?node_destruct@?$QList@VSingleOperationData@@@@AAEXPAUNode@1@@Z 0040e170 f i configfilehandler.obj
 0001:0000d1f0       ?node_destruct@?$QList@VSinglePlanData@@@@AAEXPAUNode@1@0@Z 0040e1f0 f i configfilehandler.obj
 0001:0000d2b0       ?toList@configFileHandler@@QAE?AVQStringList@@ABVQString@@@Z 0040e2b0 f   configfilehandler.obj
 0001:0000d390       ?value@?$QMap@VQString@@VOperationParamData@@@@QBE?BVOperationParamData@@ABVQString@@ABV2@@Z 0040e390 f i configfilehandler.obj
 0001:0000d400       ??0EnvironmentVariant@@AAE@XZ 0040e400 f i environmentvariant.obj
 0001:0000d550       ??0SingleOperationData@@QAE@$$QAV0@@Z 0040e550 f i environmentvariant.obj
 0001:0000d580       ??1?$QForeachContainer@$$CBV?$QList@VSingleOperationData@@@@@@QAE@XZ 0040e580 f i environmentvariant.obj
 0001:0000d600       ??1AdministratorChecker@@UAE@XZ 0040e600 f i environmentvariant.obj
 0001:0000d600       ??1ConfigFileConverter@@UAE@XZ 0040e600 f i environmentvariant.obj
 0001:0000d610       ??1EnvironmentVariant@@EAE@XZ 0040e610 f i environmentvariant.obj
 0001:0000d7c0       ??1MachineConfigData@@QAE@XZ 0040e7c0 f i environmentvariant.obj
 0001:0000d7e0       ??1TargetMachineObject@@UAE@XZ 0040e7e0 f i environmentvariant.obj
 0001:0000d800       ??4?$QList@VSingleOperationData@@@@QAEAAV0@ABV0@@Z 0040e800 f i environmentvariant.obj
 0001:0000d8a0       ??4QStringList@@QAEAAV0@$$QAV0@@Z 0040e8a0 f i environmentvariant.obj
 0001:0000d8d0       ??4SingleOperationData@@QAEAAV0@$$QAV0@@Z 0040e8d0 f i environmentvariant.obj
 0001:0000d960       ??4SingleOperationData@@QAEAAV0@ABV0@@Z 0040e960 f i environmentvariant.obj
 0001:0000da00       ??A?$QList@VSingleOperationData@@@@QAEAAVSingleOperationData@@H@Z 0040ea00 f i environmentvariant.obj
 0001:0000da30       ??H@YA?BVQString@@ABV0@0@Z 0040ea30 f i environmentvariant.obj
 0001:0000daa0       ??Y?$QList@VQString@@@@QAEAAV0@ABV0@@Z 0040eaa0 f i environmentvariant.obj
 0001:0000dba0       ??_EAdministratorChecker@@UAEPAXI@Z 0040eba0 f i environmentvariant.obj
 0001:0000dba0       ??_GAdministratorChecker@@UAEPAXI@Z 0040eba0 f i environmentvariant.obj
 0001:0000dbd0       ??_GConfigFileConverter@@UAEPAXI@Z 0040ebd0 f i environmentvariant.obj
 0001:0000dbd0       ??_EConfigFileConverter@@UAEPAXI@Z 0040ebd0 f i environmentvariant.obj
 0001:0000dc00       ??_EEnvironmentVariant@@EAEPAXI@Z 0040ec00 f i environmentvariant.obj
 0001:0000dc00       ??_GEnvironmentVariant@@EAEPAXI@Z 0040ec00 f i environmentvariant.obj
 0001:0000dc30       ??_ETargetMachineObject@@UAEPAXI@Z 0040ec30 f i environmentvariant.obj
 0001:0000dc30       ??_GTargetMachineObject@@UAEPAXI@Z 0040ec30 f i environmentvariant.obj
 0001:0000dc70       ?AddPlan@EnvironmentVariant@@QAEXABVQString@@@Z 0040ec70 f   environmentvariant.obj
 0001:0000dd90       ?AddPlanStep@EnvironmentVariant@@QAEXHHH@Z 0040ed90 f   environmentvariant.obj
 0001:0000df30       ?ExportConfig@EnvironmentVariant@@QAE_NABVQString@@@Z 0040ef30 f   environmentvariant.obj
 0001:0000dff0       ?ImportConfig@EnvironmentVariant@@QAE_NABVQString@@@Z 0040eff0 f   environmentvariant.obj
 0001:0000e0c0       ?LogicalControlList@EnvironmentVariant@@QAE?AVQStringList@@XZ 0040f0c0 f   environmentvariant.obj
 0001:0000e260       ?MovePlanStep@EnvironmentVariant@@QAEXHHH@Z 0040f260 f   environmentvariant.obj
 0001:0000e340       ?OperationNameList@EnvironmentVariant@@QAE?AVQStringList@@XZ 0040f340 f   environmentvariant.obj
 0001:0000e4e0       ?PausePlan@EnvironmentVariant@@QAEXXZ 0040f4e0 f   environmentvariant.obj
 0001:0000e4f0       ?PlanList@EnvironmentVariant@@QAE?AVQStringList@@XZ 0040f4f0 f   environmentvariant.obj
 0001:0000e5b0       ?RemovePlan@EnvironmentVariant@@QAEXH@Z 0040f5b0 f   environmentvariant.obj
 0001:0000e5e0       ?RemovePlanStep@EnvironmentVariant@@QAEXHH@Z 0040f5e0 f   environmentvariant.obj
 0001:0000e640       ?SaveMachineConfig@EnvironmentVariant@@QAE_NABVMachineConfigData@@@Z 0040f640 f   environmentvariant.obj
 0001:0000e740       ?SavePlan@EnvironmentVariant@@QAE_NXZ 0040f740 f   environmentvariant.obj
 0001:0000e7c0       ?SetPlanName@EnvironmentVariant@@QAEXHABVQString@@@Z 0040f7c0 f   environmentvariant.obj
 0001:0000e810       ?SetPlanStepSingleParam@EnvironmentVariant@@QAEXHHABVQString@@ABVQVariant@@@Z 0040f810 f   environmentvariant.obj
 0001:0000e9b0       ?SetPlanStepToDefault@EnvironmentVariant@@QAEXHHH@Z 0040f9b0 f   environmentvariant.obj
 0001:0000ea90       ?StartPlan@EnvironmentVariant@@QAEXHH@Z 0040fa90 f   environmentvariant.obj
 0001:0000f260       ?StartTunning@EnvironmentVariant@@QAEXABVSingleOperationData@@@Z 00410260 f   environmentvariant.obj
 0001:0000f350       ?StepList@EnvironmentVariant@@QAE?AVQStringList@@H@Z 00410350 f   environmentvariant.obj
 0001:0000f790       ?StopPlan@EnvironmentVariant@@QAEXXZ 00410790 f   environmentvariant.obj
 0001:0000f7a0       ?begin@?$QList@VOperationParamData@@@@QAE?AViterator@1@XZ 004107a0 f i environmentvariant.obj
 0001:0000f7d0       ?calculateLicense@EnvironmentVariant@@QAEXABVQString@@@Z 004107d0 f   environmentvariant.obj
 0001:0000f900       ?contains@?$QMap@VQString@@VQStringList@@@@QBE_NABVQString@@@Z 00410900 f i environmentvariant.obj
 0001:0000f940       ?defaultValue@EnvironmentVariant@@QAE?AVSingleOperationData@@ABVQString@@@Z 00410940 f   environmentvariant.obj
 0001:0000fb70       ?detach_helper@?$QList@H@@AAEXH@Z 00410b70 f i environmentvariant.obj
 0001:0000fc40       ?detach_helper@?$QList@VOperationParamData@@@@AAEXH@Z 00410c40 f i environmentvariant.obj
 0001:0000fd10       ?detach_helper@?$QList@VSingleOperationData@@@@AAEXH@Z 00410d10 f i environmentvariant.obj
 0001:0000fdf0       ?detach_helper@?$QList@VSinglePlanData@@@@AAEXH@Z 00410df0 f i environmentvariant.obj
 0001:0000fed0       ?formatSingleOperationParam@EnvironmentVariant@@QAE?AVQJsonObject@@ABVSingleOperationData@@@Z 00410ed0 f   environmentvariant.obj
 0001:00010470       ?getBoardTypeIndexByPosition@EnvironmentVariant@@QAEHH@Z 00411470 f   environmentvariant.obj
 0001:00010720       ?getOperationIndex@EnvironmentVariant@@QAEHABVQString@@@Z 00411720 f   environmentvariant.obj
 0001:00010790       ?getOperationParams@EnvironmentVariant@@QAE?AV?$QList@VOperationParamData@@@@H@Z 00411790 f   environmentvariant.obj
 0001:00010970       ?getPlanBoardTypeIndexByPosition@EnvironmentVariant@@QAEHHH@Z 00411970 f   environmentvariant.obj
 0001:00010c70       ?getWorkLocationTypeList@EnvironmentVariant@@QAE?AVQJsonObject@@XZ 00411c70 f   environmentvariant.obj
 0001:00010c90       ?initModels@EnvironmentVariant@@QAEXPAVQQmlContext@@@Z 00411c90 f   environmentvariant.obj
 0001:00010df0       ?initProtocol@EnvironmentVariant@@QAEXABVQString@@@Z 00411df0 f   environmentvariant.obj
 0001:00010e60       ?initUserConfig@EnvironmentVariant@@QAEXABVQString@@@Z 00411e60 f   environmentvariant.obj
 0001:00010f80       ?insert@?$QList@VSingleOperationData@@@@QAEXHABVSingleOperationData@@@Z 00411f80 f i environmentvariant.obj
 0001:00011060       ?instance@EnvironmentVariant@@SAPAV1@XZ 00412060 f   environmentvariant.obj
 0001:000110c0       ?parseConfigFile@EnvironmentVariant@@QAEXABVQString@@@Z 004120c0 f   environmentvariant.obj
 0001:000117a0       ?planBoardConfig@EnvironmentVariant@@QAEHH@Z 004127a0 f   environmentvariant.obj
 0001:000117e0       ?planSelectStepListModel@EnvironmentVariant@@QAE?AVQStringList@@H@Z 004127e0 f   environmentvariant.obj
 0001:00011a60       ?planStepParam@EnvironmentVariant@@QAE?AVSingleOperationData@@HH@Z 00412a60 f   environmentvariant.obj
 0001:00011dc0       ?removeAt@?$QList@VSingleOperationData@@@@QAEXH@Z 00412dc0 f i environmentvariant.obj
 0001:00011e10       ?removeAt@?$QList@VSinglePlanData@@@@QAEXH@Z 00412e10 f i environmentvariant.obj
 0001:00011e70       ?setAdministrator@AdministratorChecker@@QAEX_N@Z 00412e70 f i environmentvariant.obj
 0001:00011e90       ?setIpAddress@TargetMachineObject@@QAEXABVQString@@@Z 00412e90 f i environmentvariant.obj
 0001:00011ed0       ?setLicenseNumber@TargetMachineObject@@QAEXABVQString@@@Z 00412ed0 f i environmentvariant.obj
 0001:00011f10       ?setMaxReceiveTime@TargetMachineObject@@QAEXH@Z 00412f10 f i environmentvariant.obj
 0001:00011f30       ?setPlanBoardConfig@EnvironmentVariant@@QAEXHH@Z 00412f30 f   environmentvariant.obj
 0001:00011fa0       ?setPort@TargetMachineObject@@QAEXF@Z 00412fa0 f i environmentvariant.obj
 0001:00011fc0       ?setWorkLocationType@EnvironmentVariant@@QAE_NHHABVQString@@@Z 00412fc0 f   environmentvariant.obj
 0001:00012410       ?startCheckPlan@EnvironmentVariant@@QAEXH@Z 00413410 f   environmentvariant.obj
 0001:00012bf0       ?stopCheckPlan@EnvironmentVariant@@QAEXXZ 00413bf0 f   environmentvariant.obj
 0001:00012c00       ?updateWorkPlace@EnvironmentVariant@@QAE_NABVQJsonObject@@@Z 00413c00 f   environmentvariant.obj
 0001:00012c50       ??$connect@P8QQmlEngine@@AEXXZP6AXXZ@QObject@@SA?AVConnection@QMetaObject@@PBVQQmlEngine@@P83@AEXXZPBV0@P6AXXZW4ConnectionType@Qt@@@Z 00413c50 f i main.obj
 0001:00012cb0       ??$createInto@VOperationParamObject@@@QQmlPrivate@@YAXPAX@Z 00413cb0 f i main.obj
 0001:00012d10       ??$createInto@VOperationParamSelector@@@QQmlPrivate@@YAXPAX@Z 00413d10 f i main.obj
 0001:00012d70       ??$createInto@VPlanController@@@QQmlPrivate@@YAXPAX@Z 00413d70 f i main.obj
 0001:00012dd0       ??$createInto@VPlanSelector@@@QQmlPrivate@@YAXPAX@Z 00413dd0 f i main.obj
 0001:00012e30       ??$createInto@VStatusViewWatcher@@@QQmlPrivate@@YAXPAX@Z 00413e30 f i main.obj
 0001:00012e90       ??$createInto@VTextFieldDoubleValidator@@@QQmlPrivate@@YAXPAX@Z 00413e90 f i main.obj
 0001:00012ef0       ??$createInto@VWorkLocationManager@@@QQmlPrivate@@YAXPAX@Z 00413ef0 f i main.obj
 0001:00012f50       ??$qRegisterNormalizedMetaType@PAVOperationParamObject@@@@YAHABVQByteArray@@PAPAVOperationParamObject@@W4DefinedType@?$MetaTypeDefinedHelper@PAVOperationParamObject@@$00@QtPrivate@@@Z 00413f50 f i main.obj
 0001:00012fb0       ??$qRegisterNormalizedMetaType@PAVOperationParamSelector@@@@YAHABVQByteArray@@PAPAVOperationParamSelector@@W4DefinedType@?$MetaTypeDefinedHelper@PAVOperationParamSelector@@$00@QtPrivate@@@Z 00413fb0 f i main.obj
 0001:00013010       ??$qRegisterNormalizedMetaType@PAVPlanController@@@@YAHABVQByteArray@@PAPAVPlanController@@W4DefinedType@?$MetaTypeDefinedHelper@PAVPlanController@@$00@QtPrivate@@@Z 00414010 f i main.obj
 0001:00013070       ??$qRegisterNormalizedMetaType@PAVPlanSelector@@@@YAHABVQByteArray@@PAPAVPlanSelector@@W4DefinedType@?$MetaTypeDefinedHelper@PAVPlanSelector@@$00@QtPrivate@@@Z 00414070 f i main.obj
 0001:000130d0       ??$qRegisterNormalizedMetaType@PAVStatusViewWatcher@@@@YAHABVQByteArray@@PAPAVStatusViewWatcher@@W4DefinedType@?$MetaTypeDefinedHelper@PAVStatusViewWatcher@@$00@QtPrivate@@@Z 004140d0 f i main.obj
 0001:00013130       ??$qRegisterNormalizedMetaType@PAVTextFieldDoubleValidator@@@@YAHABVQByteArray@@PAPAVTextFieldDoubleValidator@@W4DefinedType@?$MetaTypeDefinedHelper@PAVTextFieldDoubleValidator@@$00@QtPrivate@@@Z 00414130 f i main.obj
 0001:00013190       ??$qRegisterNormalizedMetaType@PAVWorkLocationManager@@@@YAHABVQByteArray@@PAPAVWorkLocationManager@@W4DefinedType@?$MetaTypeDefinedHelper@PAVWorkLocationManager@@$00@QtPrivate@@@Z 00414190 f i main.obj
 0001:000131f0       ??$qmlRegisterType@VOperationParamObject@@@@YAHPBDHH0@Z 004141f0 f i main.obj
 0001:000134a0       ??$qmlRegisterType@VOperationParamSelector@@@@YAHPBDHH0@Z 004144a0 f i main.obj
 0001:00013750       ??$qmlRegisterType@VPlanController@@@@YAHPBDHH0@Z 00414750 f i main.obj
 0001:00013a00       ??$qmlRegisterType@VPlanSelector@@@@YAHPBDHH0@Z 00414a00 f i main.obj
 0001:00013cb0       ??$qmlRegisterType@VStatusViewWatcher@@@@YAHPBDHH0@Z 00414cb0 f i main.obj
 0001:00013f60       ??$qmlRegisterType@VTextFieldDoubleValidator@@@@YAHPBDHH0@Z 00414f60 f i main.obj
 0001:00014210       ??$qmlRegisterType@VWorkLocationManager@@@@YAHPBDHH0@Z 00415210 f i main.obj
 0001:000144c0       ??1?$QVarLengthArray@D$0EA@@@QAE@XZ 004154c0 f i main.obj
 0001:000144c0       ??1?$QVarLengthArray@D$0DA@@@QAE@XZ 004154c0 f i main.obj
 0001:000144e0       ??1OperationParamSelector@@UAE@XZ 004154e0 f i main.obj
 0001:00014590       ??1RegisterType@QQmlPrivate@@QAE@XZ 00415590 f i main.obj
 0001:000145a0       ??_E?$QQmlElement@VOperationParamObject@@@QQmlPrivate@@UAEPAXI@Z 004155a0 f i main.obj
 0001:000145a0       ??_G?$QQmlElement@VOperationParamObject@@@QQmlPrivate@@UAEPAXI@Z 004155a0 f i main.obj
 0001:00014620       ??_G?$QQmlElement@VOperationParamSelector@@@QQmlPrivate@@UAEPAXI@Z 00415620 f i main.obj
 0001:00014620       ??_E?$QQmlElement@VOperationParamSelector@@@QQmlPrivate@@UAEPAXI@Z 00415620 f i main.obj
 0001:00014690       ??_E?$QQmlElement@VPlanController@@@QQmlPrivate@@UAEPAXI@Z 00415690 f i main.obj
 0001:00014690       ??_G?$QQmlElement@VPlanController@@@QQmlPrivate@@UAEPAXI@Z 00415690 f i main.obj
 0001:00014700       ??_E?$QQmlElement@VPlanSelector@@@QQmlPrivate@@UAEPAXI@Z 00415700 f i main.obj
 0001:00014700       ??_G?$QQmlElement@VPlanSelector@@@QQmlPrivate@@UAEPAXI@Z 00415700 f i main.obj
 0001:00014770       ??_E?$QQmlElement@VStatusViewWatcher@@@QQmlPrivate@@UAEPAXI@Z 00415770 f i main.obj
 0001:00014770       ??_G?$QQmlElement@VStatusViewWatcher@@@QQmlPrivate@@UAEPAXI@Z 00415770 f i main.obj
 0001:000147e0       ??_G?$QQmlElement@VTextFieldDoubleValidator@@@QQmlPrivate@@UAEPAXI@Z 004157e0 f i main.obj
 0001:000147e0       ??_E?$QQmlElement@VTextFieldDoubleValidator@@@QQmlPrivate@@UAEPAXI@Z 004157e0 f i main.obj
 0001:00014850       ??_E?$QQmlElement@VWorkLocationManager@@@QQmlPrivate@@UAEPAXI@Z 00415850 f i main.obj
 0001:00014850       ??_G?$QQmlElement@VWorkLocationManager@@@QQmlPrivate@@UAEPAXI@Z 00415850 f i main.obj
 0001:000148c0       ??_GOperationParamObject@@UAEPAXI@Z 004158c0 f i main.obj
 0001:000148c0       ??_EOperationParamObject@@UAEPAXI@Z 004158c0 f i main.obj
 0001:000148f0       ?Construct@?$QMetaTypeFunctionHelper@PAVStatusViewWatcher@@$00@QtMetaTypePrivate@@SAPAXPAXPBX@Z 004158f0 f i main.obj
 0001:000148f0       ?Construct@?$QMetaTypeFunctionHelper@PAVPlanController@@$00@QtMetaTypePrivate@@SAPAXPAXPBX@Z 004158f0 f i main.obj
 0001:000148f0       ?Construct@?$QMetaTypeFunctionHelper@PAVOperationParamObject@@$00@QtMetaTypePrivate@@SAPAXPAXPBX@Z 004158f0 f i main.obj
 0001:000148f0       ?Construct@?$QMetaTypeFunctionHelper@PAVPlanSelector@@$00@QtMetaTypePrivate@@SAPAXPAXPBX@Z 004158f0 f i main.obj
 0001:000148f0       ?Construct@?$QMetaTypeFunctionHelper@PAVOperationParamSelector@@$00@QtMetaTypePrivate@@SAPAXPAXPBX@Z 004158f0 f i main.obj
 0001:000148f0       ?Construct@?$QMetaTypeFunctionHelper@PAVWorkLocationManager@@$00@QtMetaTypePrivate@@SAPAXPAXPBX@Z 004158f0 f i main.obj
 0001:000148f0       ?Construct@?$QMetaTypeFunctionHelper@PAVTextFieldDoubleValidator@@$00@QtMetaTypePrivate@@SAPAXPAXPBX@Z 004158f0 f i main.obj
 0001:00014920       ?Construct@?$QMetaTypeFunctionHelper@V?$QQmlListProperty@VStatusViewWatcher@@@@$00@QtMetaTypePrivate@@SAPAXPAXPBX@Z 00415920 f i main.obj
 0001:00014920       ?Construct@?$QMetaTypeFunctionHelper@V?$QQmlListProperty@VTextFieldDoubleValidator@@@@$00@QtMetaTypePrivate@@SAPAXPAXPBX@Z 00415920 f i main.obj
 0001:00014920       ?Construct@?$QMetaTypeFunctionHelper@V?$QQmlListProperty@VWorkLocationManager@@@@$00@QtMetaTypePrivate@@SAPAXPAXPBX@Z 00415920 f i main.obj
 0001:00014920       ?Construct@?$QMetaTypeFunctionHelper@V?$QQmlListProperty@VPlanSelector@@@@$00@QtMetaTypePrivate@@SAPAXPAXPBX@Z 00415920 f i main.obj
 0001:00014920       ?Construct@?$QMetaTypeFunctionHelper@V?$QQmlListProperty@VPlanController@@@@$00@QtMetaTypePrivate@@SAPAXPAXPBX@Z 00415920 f i main.obj
 0001:00014920       ?Construct@?$QMetaTypeFunctionHelper@V?$QQmlListProperty@VOperationParamObject@@@@$00@QtMetaTypePrivate@@SAPAXPAXPBX@Z 00415920 f i main.obj
 0001:00014920       ?Construct@?$QMetaTypeFunctionHelper@V?$QQmlListProperty@VOperationParamSelector@@@@$00@QtMetaTypePrivate@@SAPAXPAXPBX@Z 00415920 f i main.obj
 0001:00014980       ?TopLevelExceptionFilter@@YGJPAU_EXCEPTION_POINTERS@@@Z 00415980 f   main.obj
 0001:000149f0       ?customMessageHandler@@YAXW4QtMsgType@@ABVQMessageLogContext@@ABVQString@@@Z 004159f0 f   main.obj
 0001:00014d60       ?getConfigFullName@@YA?AVQString@@PBD@Z 00415d60 f   main.obj
 0001:00014dd0       ?impl@?$QStaticSlotObject@P6AXXZU?$List@$$V@QtPrivate@@X@QtPrivate@@CAXHPAVQSlotObjectBase@2@PAVQObject@@PAPAXPA_N@Z 00415dd0 f i main.obj
 0001:00014e00       ?qt_metatype_id@?$QMetaTypeIdQObject@PAVOperationParamObject@@$07@@SAHXZ 00415e00 f i main.obj
 0001:00014eb0       ?qt_metatype_id@?$QMetaTypeIdQObject@PAVOperationParamSelector@@$07@@SAHXZ 00415eb0 f i main.obj
 0001:00014f60       ?qt_metatype_id@?$QMetaTypeIdQObject@PAVPlanController@@$07@@SAHXZ 00415f60 f i main.obj
 0001:00015010       ?qt_metatype_id@?$QMetaTypeIdQObject@PAVPlanSelector@@$07@@SAHXZ 00416010 f i main.obj
 0001:000150c0       ?qt_metatype_id@?$QMetaTypeIdQObject@PAVStatusViewWatcher@@$07@@SAHXZ 004160c0 f i main.obj
 0001:00015170       ?qt_metatype_id@?$QMetaTypeIdQObject@PAVTextFieldDoubleValidator@@$07@@SAHXZ 00416170 f i main.obj
 0001:00015220       ?qt_metatype_id@?$QMetaTypeIdQObject@PAVWorkLocationManager@@$07@@SAHXZ 00416220 f i main.obj
 0001:000152d0       ?validate@TextFieldDoubleValidator@@UBE?AW4State@QValidator@@AAVQString@@AAH@Z 004162d0 f i main.obj
 0001:00015450       _main                      00416450 f   main.obj
 0001:00015890       ??$connect@P8EnvironmentVariant@@AEXXZP8StatusViewWatcher@@AEXXZ@QObject@@SA?AVConnection@QMetaObject@@PBVEnvironmentVariant@@P83@AEXXZPBVStatusViewWatcher@@P84@AEXXZW4ConnectionType@Qt@@@Z 00416890 f i workmodels.obj
 0001:000158f0       ??0OperationParamSelector@@QAE@PAVQObject@@@Z 004168f0 f   workmodels.obj
 0001:00015940       ??0PlanController@@QAE@PAVQObject@@@Z 00416940 f   workmodels.obj
 0001:000159b0       ??0PlanSelector@@QAE@PAVQObject@@@Z 004169b0 f   workmodels.obj
 0001:00015a70       ??0StatusViewWatcher@@QAE@PAVQObject@@@Z 00416a70 f   workmodels.obj
 0001:00015b00       ??0WorkLocationManager@@QAE@PAVQObject@@@Z 00416b00 f   workmodels.obj
 0001:00015b20       ??1?$QForeachContainer@V?$QList@PAVQObject@@@@@@QAE@XZ 00416b20 f i workmodels.obj
 0001:00015b80       ??1PlanController@@UAE@XZ  00416b80 f   workmodels.obj
 0001:00015be0       ??1PlanSelector@@UAE@XZ    00416be0 f   workmodels.obj
 0001:00015ca0       ??1StatusViewWatcher@@UAE@XZ 00416ca0 f   workmodels.obj
 0001:00015d20       ??1WorkLocationManager@@UAE@XZ 00416d20 f   workmodels.obj
 0001:00015d30       ??_GOperationParamSelector@@UAEPAXI@Z 00416d30 f i workmodels.obj
 0001:00015d30       ??_EOperationParamSelector@@UAEPAXI@Z 00416d30 f i workmodels.obj
 0001:00015d50       ??_GPlanController@@UAEPAXI@Z 00416d50 f i workmodels.obj
 0001:00015d50       ??_EPlanController@@UAEPAXI@Z 00416d50 f i workmodels.obj
 0001:00015dc0       ??_GPlanSelector@@UAEPAXI@Z 00416dc0 f i workmodels.obj
 0001:00015dc0       ??_EPlanSelector@@UAEPAXI@Z 00416dc0 f i workmodels.obj
 0001:00015de0       ??_GStatusViewWatcher@@UAEPAXI@Z 00416de0 f i workmodels.obj
 0001:00015de0       ??_EStatusViewWatcher@@UAEPAXI@Z 00416de0 f i workmodels.obj
 0001:00015e80       ??_GWorkLocationManager@@UAEPAXI@Z 00416e80 f i workmodels.obj
 0001:00015e80       ??_EWorkLocationManager@@UAEPAXI@Z 00416e80 f i workmodels.obj
 0001:00015eb0       ?WorkPlaceConstraint@EnvironmentVariant@@QAE?AVQJsonArray@@XZ 00416eb0 f i workmodels.obj
 0001:00015ee0       ?addPlan@PlanSelector@@QAEXABVQString@@@Z 00416ee0 f   workmodels.obj
 0001:00015f00       ?addStep@PlanSelector@@QAEXHHH@Z 00416f00 f   workmodels.obj
 0001:00015f20       ?boardConfigIndex@PlanSelector@@QAEHH@Z 00416f20 f   workmodels.obj
 0001:00015f40       ?commitParam@PlanSelector@@QAEXHHABVQString@@ABVQVariant@@@Z 00416f40 f   workmodels.obj
 0001:00015f60       ?detach_helper_grow@?$QList@H@@AAEPAUNode@1@HH@Z 00416f60 f i configfilehandler.obj
 0001:00015f60       ?detach_helper_grow@?$QList@PAVQObject@@@@AAEPAUNode@1@HH@Z 00416f60 f i workmodels.obj
 0001:000160a0       ?eventFilter@PlanController@@UAE_NPAVQObject@@PAVQEvent@@@Z 004170a0 f   workmodels.obj
 0001:000160f0       ?eventFilter@PlanSelector@@MAE_NPAVQObject@@PAVQEvent@@@Z 004170f0 f   workmodels.obj
 0001:00016140       ?eventFilter@StatusViewWatcher@@UAE_NPAVQObject@@PAVQEvent@@@Z 00417140 f   workmodels.obj
 0001:00016180       ?exportConfigFile@ConfigFileConverter@@QAE_NABVQUrl@@@Z 00417180 f   workmodels.obj
 0001:000161f0       ?getBoardTypeIndexByPosition@OperationParamSelector@@QAEHH@Z 004171f0 f   workmodels.obj
 0001:000161f0       ?getBoardTypeIndexByPosition@PlanSelector@@QAEHH@Z 004171f0 f   workmodels.obj
 0001:00016210       ?getPlanBoardTypeIndexByPosition@PlanSelector@@QAEHHH@Z 00417210 f   workmodels.obj
 0001:00016230       ?getSwitch@OperationParamSelector@@QAEPAVQObject@@ABVQString@@@Z 00417230 f   workmodels.obj
 0001:000163a0       ?getSwitch@PlanSelector@@QAEPAVQObject@@ABVQString@@@Z 004173a0 f   workmodels.obj
 0001:00016510       ?getWorkLocationTypeList@WorkLocationManager@@QAE?AVQJsonObject@@XZ 00417510 f   workmodels.obj
 0001:00016540       ?getWorkPlaceConstraint@WorkLocationManager@@QAE?AVQJsonArray@@XZ 00417540 f   workmodels.obj
 0001:00016570       ?importConfigFile@ConfigFileConverter@@QAE_NABVQUrl@@@Z 00417570 f   workmodels.obj
 0001:000165e0       ?init@OperationParamSelector@@QAEXABVQString@@@Z 004175e0 f   workmodels.obj
 0001:00016660       ?moveStep@PlanSelector@@QAEXHHH@Z 00417660 f   workmodels.obj
 0001:00016680       ?onCompleteSingleOperation@OperationParamSelector@@QAEXXZ 00417680 f   workmodels.obj
 0001:00016910       ?onMachineConfigChanged@TargetMachineObject@@QAE_NXZ 00417910 f   workmodels.obj
 0001:000169b0       ?onSave@PlanSelector@@QAE_NXZ 004179b0 f   workmodels.obj
 0001:000169c0       ?operationCurrentIndex@PlanSelector@@QAEHXZ 004179c0 f   workmodels.obj
 0001:000169e0       ?pausePlan@PlanController@@QAEXXZ 004179e0 f   workmodels.obj
 0001:000169f0       ?planListModel@PlanSelector@@QAE?AVQStringList@@XZ 004179f0 f   workmodels.obj
 0001:00016a20       ?planSelectStepListModel@PlanSelector@@QAE?AVQStringList@@H@Z 00417a20 f   workmodels.obj
 0001:00016a50       ?removePlan@PlanSelector@@QAEXH@Z 00417a50 f   workmodels.obj
 0001:00016a70       ?removeStep@PlanSelector@@QAEXHH@Z 00417a70 f   workmodels.obj
 0001:00016a90       ?resumePlan@PlanController@@QAEXXZ 00417a90 f   workmodels.obj
 0001:00016ac0       ?setBoardConfigIndex@PlanSelector@@QAEXHH@Z 00417ac0 f   workmodels.obj
 0001:00016ae0       ?setPlanName@PlanSelector@@QAEXHABVQString@@@Z 00417ae0 f   workmodels.obj
 0001:00016b00       ?setSelectedOperation@OperationParamSelector@@QAEXH@Z 00417b00 f   workmodels.obj
 0001:00016ed0       ?setSelectedOperation@PlanSelector@@QAEXHHH@Z 00417ed0 f   workmodels.obj
 0001:00017390       ?setSelectedStep@PlanSelector@@QAEXHH@Z 00418390 f   workmodels.obj
 0001:00017770       ?setWorkLocationType@WorkLocationManager@@QAE_NHHABVQString@@@Z 00418770 f   workmodels.obj
 0001:00017790       ?startCheckPlan@PlanSelector@@QAEXH@Z 00418790 f   workmodels.obj
 0001:000177b0       ?startPlan@PlanController@@QAEXHH@Z 004187b0 f   workmodels.obj
 0001:000177e0       ?stepListModel@PlanSelector@@QAE?AVQStringList@@H@Z 004187e0 f   workmodels.obj
 0001:00017810       ?stopCheckPlan@PlanSelector@@QAEXXZ 00418810 f   workmodels.obj
 0001:00017820       ?stopPlan@PlanController@@QAEXXZ 00418820 f   workmodels.obj
 0001:00017830       ?updateWorkPlace@WorkLocationManager@@QAE_NABVQJsonObject@@@Z 00418830 f   workmodels.obj
 0001:00017850       ??$connect@P8SubThreadCheckWorker@@AEXABVQJsonObject@@@ZP8WorkflowCheckerController@@AEX0@Z@QObject@@SA?AVConnection@QMetaObject@@PBVSubThreadCheckWorker@@P83@AEXABVQJsonObject@@@ZPBVWorkflowCheckerController@@P85@AEX1@ZW4ConnectionType@Qt@@@Z 00418850 f i workflowChecker.obj
 0001:000178c0       ??$connect@P8WorkflowCheckerController@@AEXABVQJsonArray@@@ZP8SubThreadCheckWorker@@AEX0@Z@QObject@@SA?AVConnection@QMetaObject@@PBVWorkflowCheckerController@@P83@AEXABVQJsonArray@@@ZPBVSubThreadCheckWorker@@P85@AEX1@ZW4ConnectionType@Qt@@@Z 004188c0 f i workflowChecker.obj
 0001:00017930       ??$connect@P8WorkflowCheckerController@@AEXABVQJsonObject@@@ZP8SubThreadCheckWorker@@AEX0@Z@QObject@@SA?AVConnection@QMetaObject@@PBVWorkflowCheckerController@@P83@AEXABVQJsonObject@@@ZPBVSubThreadCheckWorker@@P85@AEX1@ZW4ConnectionType@Qt@@@Z 00418930 f i workflowChecker.obj
 0001:000179a0       ??$connect@P8WorkflowCheckerController@@AEXXZP8SubThreadCheckWorker@@AEXXZ@QObject@@SA?AVConnection@QMetaObject@@PBVWorkflowCheckerController@@P83@AEXXZPBVSubThreadCheckWorker@@P84@AEXXZW4ConnectionType@Qt@@@Z 004189a0 f i workflowChecker.obj
 0001:00017a00       ??0WorkflowCheckerController@@QAE@PAVQObject@@@Z 00418a00 f   workflowChecker.obj
 0001:00017b80       ??1?$QMap@VQString@@H@@QAE@XZ 00418b80 f i workflowChecker.obj
 0001:00017c20       ??1WorkflowCheckerController@@UAE@XZ 00418c20 f   workflowChecker.obj
 0001:00017c90       ??A?$QMap@VQString@@H@@QAEAAHABVQString@@@Z 00418c90 f i workflowChecker.obj
 0001:00017d10       ??_GSubThreadCheckWorker@@UAEPAXI@Z 00418d10 f i workflowChecker.obj
 0001:00017d10       ??_ESubThreadCheckWorker@@UAEPAXI@Z 00418d10 f i workflowChecker.obj
 0001:00017d60       ??_EWorkflowCheckerController@@UAEPAXI@Z 00418d60 f i workflowChecker.obj
 0001:00017d60       ??_GWorkflowCheckerController@@UAEPAXI@Z 00418d60 f i workflowChecker.obj
 0001:00017df0       ?CheckBoardConstraint@SubThreadCheckWorker@@IAE_NABVQJsonObject@@@Z 00418df0 f   workflowChecker.obj
 0001:000181a0       ?CheckParamConstraint@SubThreadCheckWorker@@IAE_NABVQJsonObject@@@Z 004191a0 f   workflowChecker.obj
 0001:00018a50       ?checkTask@WorkflowCheckerController@@QAEXABVQJsonObject@@@Z 00419a50 f   workflowChecker.obj
 0001:00018a60       ?configChecker@SubThreadCheckWorker@@QAEXABVQJsonArray@@@Z 00419a60 f   workflowChecker.obj
 0001:00018dc0       ?copy@?$QMapNode@VQString@@H@@QBEPAU1@PAU?$QMapData@VQString@@H@@@Z 00419dc0 f i workflowChecker.obj
 0001:00018e40       ?createNode@?$QMapData@VQString@@H@@QAEPAU?$QMapNode@VQString@@H@@ABVQString@@ABHPAU2@_N@Z 00419e40 f i workflowChecker.obj
 0001:00018e80       ?destroySubTree@?$QMapNode@VQString@@H@@QAEXXZ 00419e80 f i workflowChecker.obj
 0001:00018eb0       ?detach_helper@?$QMap@VQString@@H@@AAEXXZ 00419eb0 f i workflowChecker.obj
 0001:00018f50       ?doCheck@SubThreadCheckWorker@@QAEXABVQJsonObject@@@Z 00419f50 f   workflowChecker.obj
 0001:000194c0       ?forceStop@SubThreadCheckWorker@@QAEXXZ 0041a4c0 f   workflowChecker.obj
 0001:000194d0       ?impl@?$QSlotObject@P8SubThreadWorker@@AEXABVQJsonObject@@@ZU?$List@ABVQJsonObject@@@QtPrivate@@X@QtPrivate@@CAXHPAVQSlotObjectBase@2@PAVQObject@@PAPAXPA_N@Z 0041a4d0 f i workflowprotocol.obj
 0001:000194d0       ?impl@?$QSlotObject@P8WorkflowController@@AEXABVQJsonObject@@@ZU?$List@ABVQJsonObject@@@QtPrivate@@X@QtPrivate@@CAXHPAVQSlotObjectBase@2@PAVQObject@@PAPAXPA_N@Z 0041a4d0 f i workflowprotocol.obj
 0001:000194d0       ?impl@?$QSlotObject@P8WorkflowCheckerController@@AEXABVQJsonObject@@@ZU?$List@ABVQJsonObject@@@QtPrivate@@X@QtPrivate@@CAXHPAVQSlotObjectBase@2@PAVQObject@@PAPAXPA_N@Z 0041a4d0 f i workflowChecker.obj
 0001:000194d0       ?impl@?$QSlotObject@P8SubThreadCheckWorker@@AEXABVQJsonObject@@@ZU?$List@ABVQJsonObject@@@QtPrivate@@X@QtPrivate@@CAXHPAVQSlotObjectBase@2@PAVQObject@@PAPAXPA_N@Z 0041a4d0 f i workflowChecker.obj
 0001:000194d0       ?impl@?$QSlotObject@P8SubThreadCheckWorker@@AEXABVQJsonArray@@@ZU?$List@ABVQJsonArray@@@QtPrivate@@X@QtPrivate@@CAXHPAVQSlotObjectBase@2@PAVQObject@@PAPAXPA_N@Z 0041a4d0 f i workflowChecker.obj
 0001:000194d0       ?impl@?$QSlotObject@P8SubThreadWorker@@AEXABVQString@@@ZU?$List@ABVQString@@@QtPrivate@@X@QtPrivate@@CAXHPAVQSlotObjectBase@2@PAVQObject@@PAPAXPA_N@Z 0041a4d0 f i workflowprotocol.obj
 0001:00019530       ?init@WorkflowCheckerController@@QAEXABVQJsonArray@@@Z 0041a530 f   workflowChecker.obj
 0001:00019540       ?insert@?$QMap@VQString@@H@@QAE?AViterator@1@ABVQString@@ABH@Z 0041a540 f i workflowChecker.obj
 0001:00019600       ?isFilteredCommand@SubThreadCheckWorker@@IAE_NABVQJsonObject@@@Z 0041a600 f   workflowChecker.obj
 0001:000199a0       ?remove@?$QMap@VQString@@H@@QAEHABVQString@@@Z 0041a9a0 f i workflowChecker.obj
 0001:00019a50       ?statusChanged@WorkflowCheckerController@@QAEXABVQJsonObject@@@Z 0041aa50 f   workflowChecker.obj
 0001:00019af0       ?stopCurrentCheck@WorkflowCheckerController@@QAEXXZ 0041aaf0 f   workflowChecker.obj
 0001:00019b10       ?types@?$ConnectionTypes@U?$List@ABVQJsonArray@@@QtPrivate@@$00@QtPrivate@@SAPBHXZ 0041ab10 f i workflowChecker.obj
 0001:00019b70       ?changeHost@WorkflowController@@QAEXABVQString@@G@Z 0041ab70 f   moc_workflowprotocol.obj
 0001:00019bc0       ?configProtocol@WorkflowController@@QAEXABVQString@@@Z 0041abc0 f   moc_workflowprotocol.obj
 0001:00019bf0       ?metaObject@SubThreadWorker@@UBEPBUQMetaObject@@XZ 0041abf0 f   moc_workflowprotocol.obj
 0001:00019c10       ?metaObject@WorkflowController@@UBEPBUQMetaObject@@XZ 0041ac10 f   moc_workflowprotocol.obj
 0001:00019c30       ?pauseTask@WorkflowController@@QAEXXZ 0041ac30 f   moc_workflowprotocol.obj
 0001:00019c50       ?qt_metacall@SubThreadWorker@@UAEHW4Call@QMetaObject@@HPAPAX@Z 0041ac50 f   moc_workflowprotocol.obj
 0001:00019cb0       ?qt_metacall@WorkflowController@@UAEHW4Call@QMetaObject@@HPAPAX@Z 0041acb0 f   moc_workflowprotocol.obj
 0001:00019d10       ?qt_metacast@SubThreadWorker@@UAEPAXPBD@Z 0041ad10 f   moc_workflowprotocol.obj
 0001:00019d70       ?qt_metacast@WorkflowController@@UAEPAXPBD@Z 0041ad70 f   moc_workflowprotocol.obj
 0001:00019dd0       ?qt_static_metacall@SubThreadWorker@@CAXPAVQObject@@W4Call@QMetaObject@@HPAPAX@Z 0041add0 f   moc_workflowprotocol.obj
 0001:00019ed0       ?qt_static_metacall@WorkflowController@@CAXPAVQObject@@W4Call@QMetaObject@@HPAPAX@Z 0041aed0 f   moc_workflowprotocol.obj
 0001:0001a020       ?runNewTask@WorkflowController@@QAEXABVQJsonObject@@@Z 0041b020 f   moc_workflowprotocol.obj
 0001:0001a050       ?runNewTunning@WorkflowController@@QAEXABVQJsonObject@@@Z 0041b050 f   moc_workflowprotocol.obj
 0001:0001a080       ?statusChanged@SubThreadWorker@@QAEXABVQJsonObject@@@Z 0041b080 f   moc_workflowprotocol.obj
 0001:0001a0b0       ?stopTask@WorkflowController@@QAEXXZ 0041b0b0 f   moc_workflowprotocol.obj
 0001:0001a0d0       ?taskStateChanged@SubThreadWorker@@QAEXABVQString@@H@Z 0041b0d0 f   moc_workflowprotocol.obj
 0001:0001a120       ?updateStopState@WorkflowController@@QAEXXZ 0041b120 f   moc_workflowprotocol.obj
 0001:0001a140       ?configChecker@WorkflowCheckerController@@QAEXABVQJsonArray@@@Z 0041b140 f   moc_workflowChecker.obj
 0001:0001a170       ?metaObject@SubThreadCheckWorker@@UBEPBUQMetaObject@@XZ 0041b170 f   moc_workflowChecker.obj
 0001:0001a190       ?metaObject@WorkflowCheckerController@@UBEPBUQMetaObject@@XZ 0041b190 f   moc_workflowChecker.obj
 0001:0001a1b0       ?qt_metacall@SubThreadCheckWorker@@UAEHW4Call@QMetaObject@@HPAPAX@Z 0041b1b0 f   moc_workflowChecker.obj
 0001:0001a210       ?qt_metacall@WorkflowCheckerController@@UAEHW4Call@QMetaObject@@HPAPAX@Z 0041b210 f   moc_workflowChecker.obj
 0001:0001a270       ?qt_metacast@SubThreadCheckWorker@@UAEPAXPBD@Z 0041b270 f   moc_workflowChecker.obj
 0001:0001a2d0       ?qt_metacast@WorkflowCheckerController@@UAEPAXPBD@Z 0041b2d0 f   moc_workflowChecker.obj
 0001:0001a330       ?qt_static_metacall@SubThreadCheckWorker@@CAXPAVQObject@@W4Call@QMetaObject@@HPAPAX@Z 0041b330 f   moc_workflowChecker.obj
 0001:0001a3c0       ?qt_static_metacall@WorkflowCheckerController@@CAXPAVQObject@@W4Call@QMetaObject@@HPAPAX@Z 0041b3c0 f   moc_workflowChecker.obj
 0001:0001a480       ?runNewCheck@WorkflowCheckerController@@QAEXABVQJsonObject@@@Z 0041b480 f   moc_workflowChecker.obj
 0001:0001a4b0       ?statusChanged@SubThreadCheckWorker@@QAEXABVQJsonObject@@@Z 0041b4b0 f   moc_workflowChecker.obj
 0001:0001a4e0       ?stopCheck@WorkflowCheckerController@@QAEXXZ 0041b4e0 f   moc_workflowChecker.obj
 0001:0001a500       ?metaObject@configFileHandler@@UBEPBUQMetaObject@@XZ 0041b500 f   moc_configfilehandler.obj
 0001:0001a520       ?qt_metacall@configFileHandler@@UAEHW4Call@QMetaObject@@HPAPAX@Z 0041b520 f   moc_configfilehandler.obj
 0001:0001a530       ?qt_metacast@configFileHandler@@UAEPAXPBD@Z 0041b530 f   moc_configfilehandler.obj
 0001:0001a590       ?metaObject@EnvironmentVariant@@UBEPBUQMetaObject@@XZ 0041b590 f   moc_environmentvariant.obj
 0001:0001a5b0       ?qt_metacall@EnvironmentVariant@@UAEHW4Call@QMetaObject@@HPAPAX@Z 0041b5b0 f   moc_environmentvariant.obj
 0001:0001a610       ?qt_metacast@EnvironmentVariant@@UAEPAXPBD@Z 0041b610 f   moc_environmentvariant.obj
 0001:0001a670       ?qt_static_metacall@EnvironmentVariant@@CAXPAVQObject@@W4Call@QMetaObject@@HPAPAX@Z 0041b670 f   moc_environmentvariant.obj
 0001:0001a6c0       ?workLocationTypeChanged@EnvironmentVariant@@QAEXXZ 0041b6c0 f   moc_environmentvariant.obj
 0001:0001a6e0       ??$atImpl@V?$QList@H@@@QSequentialIterableImpl@QtMetaTypePrivate@@SAPBXPBXH@Z 0041b6e0 f i moc_workmodels.obj
 0001:0001a6e0       ??$atImpl@V?$QList@PAVQObject@@@@@QSequentialIterableImpl@QtMetaTypePrivate@@SAPBXPBXH@Z 0041b6e0 f i moc_workmodels.obj
 0001:0001a700       ??$equal@PBQAVQObject@@V?$checked_array_iterator@PBQAVQObject@@@stdext@@U?$equal_to@X@std@@@std@@YA_NPBQAVQObject@@0V?$checked_array_iterator@PBQAVQObject@@@stdext@@U?$equal_to@X@0@@Z 0041b700 f i moc_workmodels.obj
 0001:0001a700       ??$equal@PBHV?$checked_array_iterator@PBH@stdext@@U?$equal_to@X@std@@@std@@YA_NPBH0V?$checked_array_iterator@PBH@stdext@@U?$equal_to@X@0@@Z 0041b700 f i moc_workmodels.obj
 0001:0001a780       ??$getImpl@V?$QList@PAVQObject@@@@@QSequentialIterableImpl@QtMetaTypePrivate@@SA?AUVariantData@1@PBQAXHI@Z 0041b780 f i moc_workmodels.obj
 0001:0001a780       ??$getImpl@V?$QList@H@@@QSequentialIterableImpl@QtMetaTypePrivate@@SA?AUVariantData@1@PBQAXHI@Z 0041b780 f i moc_workmodels.obj
 0001:0001a7a0       ??$moveToBeginImpl@V?$QList@PAVQObject@@@@@QSequentialIterableImpl@QtMetaTypePrivate@@SAXPBXPAPAX@Z 0041b7a0 f i moc_workmodels.obj
 0001:0001a7a0       ??$moveToBeginImpl@V?$QList@H@@@QSequentialIterableImpl@QtMetaTypePrivate@@SAXPBXPAPAX@Z 0041b7a0 f i moc_workmodels.obj
 0001:0001a7d0       ??$moveToEndImpl@V?$QList@PAVQObject@@@@@QSequentialIterableImpl@QtMetaTypePrivate@@SAXPBXPAPAX@Z 0041b7d0 f i moc_workmodels.obj
 0001:0001a7d0       ??$moveToEndImpl@V?$QList@H@@@QSequentialIterableImpl@QtMetaTypePrivate@@SAXPBXPAPAX@Z 0041b7d0 f i moc_workmodels.obj
 0001:0001a800       ??$sizeImpl@V?$QList@H@@@QSequentialIterableImpl@QtMetaTypePrivate@@SAHPBX@Z 0041b800 f i moc_workmodels.obj
 0001:0001a800       ??$sizeImpl@V?$QList@PAVQObject@@@@@QSequentialIterableImpl@QtMetaTypePrivate@@SAHPBX@Z 0041b800 f i moc_workmodels.obj
 0001:0001a810       ??0QSequentialIterableImpl@QtMetaTypePrivate@@QAE@XZ 0041b810 f i moc_workmodels.obj
 0001:0001a880       ?Construct@?$QMetaTypeFunctionHelper@V?$QList@H@@$00@QtMetaTypePrivate@@SAPAXPAXPBX@Z 0041b880 f i moc_workmodels.obj
 0001:0001a880       ?Construct@?$QMetaTypeFunctionHelper@V?$QList@PAVQObject@@@@$00@QtMetaTypePrivate@@SAPAXPAXPBX@Z 0041b880 f i moc_workmodels.obj
 0001:0001a900       ?Construct@?$QMetaTypeFunctionHelper@VQSequentialIterableImpl@QtMetaTypePrivate@@$00@QtMetaTypePrivate@@SAPAXPAXPBX@Z 0041b900 f i moc_workmodels.obj
 0001:0001a940       ?Destruct@?$QMetaTypeFunctionHelper@V?$QList@PAVQObject@@@@$00@QtMetaTypePrivate@@SAXPAX@Z 0041b940 f i moc_workmodels.obj
 0001:0001a940       ?Destruct@?$QMetaTypeFunctionHelper@V?$QList@H@@$00@QtMetaTypePrivate@@SAXPAX@Z 0041b940 f i moc_workmodels.obj
 0001:0001a9b0       ?MachineConfigChanged@TargetMachineObject@@QAEXXZ 0041b9b0 f   moc_workmodels.obj
 0001:0001a9d0       ?UnitChanged@OperationParamObject@@QAEXXZ 0041b9d0 f   moc_workmodels.obj
 0001:0001a9f0       ?administratorChanged@AdministratorChecker@@QAEXXZ 0041b9f0 f   moc_workmodels.obj
 0001:0001aa10       ?advance@?$IteratorOwnerCommon@Vconst_iterator@?$QList@PAVQObject@@@@@QtMetaTypePrivate@@SAXPAPAXH@Z 0041ba10 f i moc_workmodels.obj
 0001:0001aa10       ?advance@?$IteratorOwnerCommon@Vconst_iterator@?$QList@H@@@QtMetaTypePrivate@@SAXPAPAXH@Z 0041ba10 f i moc_workmodels.obj
 0001:0001aa20       ?assign@?$IteratorOwnerCommon@Vconst_iterator@?$QList@H@@@QtMetaTypePrivate@@SAXPAPAXPBQAX@Z 0041ba20 f i moc_workmodels.obj
 0001:0001aa20       ?assign@?$IteratorOwnerCommon@Vconst_iterator@?$QList@PAVQObject@@@@@QtMetaTypePrivate@@SAXPAPAXPBQAX@Z 0041ba20 f i moc_workmodels.obj
 0001:0001aa40       ?boolValueChanged@OperationParamObject@@QAEXXZ 0041ba40 f   moc_workmodels.obj
 0001:0001aa60       ?bottomValueChanged@OperationParamObject@@QAEXXZ 0041ba60 f   moc_workmodels.obj
 0001:0001aa80       ?convert@?$ConverterFunctor@V?$QList@H@@VQSequentialIterableImpl@QtMetaTypePrivate@@U?$QSequentialIterableConvertFunctor@V?$QList@H@@@3@@QtPrivate@@SA_NPBUAbstractConverterFunction@2@PBXPAX@Z 0041ba80 f i moc_workmodels.obj
 0001:0001ab20       ?convert@?$ConverterFunctor@V?$QList@PAVQObject@@@@VQSequentialIterableImpl@QtMetaTypePrivate@@U?$QSequentialIterableConvertFunctor@V?$QList@PAVQObject@@@@@3@@QtPrivate@@SA_NPBUAbstractConverterFunction@2@PBXPAX@Z 0041bb20 f i moc_workmodels.obj
 0001:0001abc0       ?currentIndexChanged@OperationParamSelector@@QAEXXZ 0041bbc0 f   moc_workmodels.obj
 0001:0001abe0       ?destroy@?$IteratorOwnerCommon@Vconst_iterator@?$QList@H@@@QtMetaTypePrivate@@SAXPAPAX@Z 0041bbe0 f i moc_workmodels.obj
 0001:0001abe0       ?destroy@?$IteratorOwnerCommon@Vconst_iterator@?$QList@PAVQObject@@@@@QtMetaTypePrivate@@SAXPAPAX@Z 0041bbe0 f i moc_workmodels.obj
 0001:0001ac00       ?display@OperationParamObject@@QBE?AVQString@@XZ 0041bc00 f i moc_workmodels.obj
 0001:0001ac20       ?displayChanged@OperationParamObject@@QAEXXZ 0041bc20 f   moc_workmodels.obj
 0001:0001ac40       ?equal@?$IteratorOwnerCommon@Vconst_iterator@?$QList@PAVQObject@@@@@QtMetaTypePrivate@@SA_NPBQAX0@Z 0041bc40 f i moc_workmodels.obj
 0001:0001ac40       ?equal@?$IteratorOwnerCommon@Vconst_iterator@?$QList@H@@@QtMetaTypePrivate@@SA_NPBQAX0@Z 0041bc40 f i moc_workmodels.obj
 0001:0001ac60       ?floatValueChanged@OperationParamObject@@QAEXXZ 0041bc60 f   moc_workmodels.obj
 0001:0001ac80       ?getLicenseNumber@TargetMachineObject@@QBE?AVQString@@XZ 0041bc80 f i moc_workmodels.obj
 0001:0001aca0       ?getIpAddress@TargetMachineObject@@QBE?AVQString@@XZ 0041bca0 f i environmentvariant.obj
 0001:0001aca0       ?name@OperationParamObject@@QBE?AVQString@@XZ 0041bca0 f i workmodels.obj
 0001:0001aca0       ?getOperationName@SingleOperationObject@@QAE?AVQString@@XZ 0041bca0 f i moc_workmodels.obj
 0001:0001acc0       ?getParamListModel@PlanSelector@@QAE?AV?$QList@PAVQObject@@@@XZ 0041bcc0 f i moc_workmodels.obj
 0001:0001ace0       ?getParamModel@OperationParamSelector@@QAE?AV?$QList@PAVQObject@@@@XZ 0041bce0 f i moc_workmodels.obj
 0001:0001ad00       ?intListValue@OperationParamObject@@QAE?AV?$QList@H@@XZ 0041bd00 f i moc_workmodels.obj
 0001:0001ad20       ?intListValueChanged@OperationParamObject@@QAEXXZ 0041bd20 f   moc_workmodels.obj
 0001:0001ad40       ?integerValueChanged@OperationParamObject@@QAEXXZ 0041bd40 f   moc_workmodels.obj
 0001:0001ad60       ?metaObject@AdministratorChecker@@UBEPBUQMetaObject@@XZ 0041bd60 f   moc_workmodels.obj
 0001:0001ad80       ?metaObject@ConfigFileConverter@@UBEPBUQMetaObject@@XZ 0041bd80 f   moc_workmodels.obj
 0001:0001ada0       ?metaObject@OperationParamObject@@UBEPBUQMetaObject@@XZ 0041bda0 f   moc_workmodels.obj
 0001:0001adc0       ?metaObject@OperationParamSelector@@UBEPBUQMetaObject@@XZ 0041bdc0 f   moc_workmodels.obj
 0001:0001ade0       ?metaObject@PlanController@@UBEPBUQMetaObject@@XZ 0041bde0 f   moc_workmodels.obj
 0001:0001ae00       ?metaObject@PlanSelector@@UBEPBUQMetaObject@@XZ 0041be00 f   moc_workmodels.obj
 0001:0001ae20       ?metaObject@StatusViewWatcher@@UBEPBUQMetaObject@@XZ 0041be20 f   moc_workmodels.obj
 0001:0001ae40       ?metaObject@TargetMachineObject@@UBEPBUQMetaObject@@XZ 0041be40 f   moc_workmodels.obj
 0001:0001ae60       ?metaObject@WorkLocationManager@@UBEPBUQMetaObject@@XZ 0041be60 f   moc_workmodels.obj
 0001:0001ae80       ?nameChanged@OperationParamObject@@QAEXXZ 0041be80 f   moc_workmodels.obj
 0001:0001aea0       ?op_eq_impl@?$QList@PAVQObject@@@@ABE_NABV1@UArrayCompatibleLayout@QListData@@@Z 0041bea0 f i moc_workmodels.obj
 0001:0001aea0       ?op_eq_impl@?$QList@H@@ABE_NABV1@UArrayCompatibleLayout@QListData@@@Z 0041bea0 f i moc_workmodels.obj
 0001:0001af10       ?op_eq_impl@?$QList@VQString@@@@ABE_NABV1@UArrayCompatibleLayout@QListData@@@Z 0041bf10 f i moc_workmodels.obj
 0001:0001af80       ?operationListModel@PlanSelector@@QAE?AVQStringList@@XZ 0041bf80 f i moc_workmodels.obj
 0001:0001afa0       ?operationModel@OperationParamSelector@@QAE?AVQStringList@@XZ 0041bfa0 f i moc_workmodels.obj
 0001:0001afc0       ?operationNameChanged@SingleOperationObject@@QAEXXZ 0041bfc0 f   moc_workmodels.obj
 0001:0001afe0       ?pageNameChanged@OperationParamSelector@@QAEXXZ 0041bfe0 f   moc_workmodels.obj
 0001:0001b000       ?paramListModelChanged@PlanSelector@@QAEXXZ 0041c000 f   moc_workmodels.obj
 0001:0001b020       ?paramModelChanged@OperationParamSelector@@QAEXXZ 0041c020 f   moc_workmodels.obj
 0001:0001b040       ?planCheckStatusChanged@PlanSelector@@QAEXABVQJsonObject@@@Z 0041c040 f   moc_workmodels.obj
 0001:0001b070       ?qt_metacall@AdministratorChecker@@UAEHW4Call@QMetaObject@@HPAPAX@Z 0041c070 f   moc_workmodels.obj
 0001:0001b120       ?qt_metacall@ConfigFileConverter@@UAEHW4Call@QMetaObject@@HPAPAX@Z 0041c120 f   moc_workmodels.obj
 0001:0001b180       ?qt_metacall@OperationParamObject@@UAEHW4Call@QMetaObject@@HPAPAX@Z 0041c180 f   moc_workmodels.obj
 0001:0001b220       ?qt_metacall@OperationParamSelector@@UAEHW4Call@QMetaObject@@HPAPAX@Z 0041c220 f   moc_workmodels.obj
 0001:0001b2d0       ?qt_metacall@PlanController@@UAEHW4Call@QMetaObject@@HPAPAX@Z 0041c2d0 f   moc_workmodels.obj
 0001:0001b330       ?qt_metacall@PlanSelector@@UAEHW4Call@QMetaObject@@HPAPAX@Z 0041c330 f   moc_workmodels.obj
 0001:0001b3e0       ?qt_metacall@StatusViewWatcher@@UAEHW4Call@QMetaObject@@HPAPAX@Z 0041c3e0 f   moc_workmodels.obj
 0001:0001b440       ?qt_metacall@TargetMachineObject@@UAEHW4Call@QMetaObject@@HPAPAX@Z 0041c440 f   moc_workmodels.obj
 0001:0001b500       ?qt_metacall@WorkLocationManager@@UAEHW4Call@QMetaObject@@HPAPAX@Z 0041c500 f   moc_workmodels.obj
 0001:0001b560       ?qt_metacast@AdministratorChecker@@UAEPAXPBD@Z 0041c560 f   moc_workmodels.obj
 0001:0001b5c0       ?qt_metacast@ConfigFileConverter@@UAEPAXPBD@Z 0041c5c0 f   moc_workmodels.obj
 0001:0001b620       ?qt_metacast@OperationParamObject@@UAEPAXPBD@Z 0041c620 f   moc_workmodels.obj
 0001:0001b6c0       ?qt_metacast@OperationParamSelector@@UAEPAXPBD@Z 0041c6c0 f   moc_workmodels.obj
 0001:0001b720       ?qt_metacast@PlanController@@UAEPAXPBD@Z 0041c720 f   moc_workmodels.obj
 0001:0001b780       ?qt_metacast@PlanSelector@@UAEPAXPBD@Z 0041c780 f   moc_workmodels.obj
 0001:0001b7e0       ?qt_metacast@StatusViewWatcher@@UAEPAXPBD@Z 0041c7e0 f   moc_workmodels.obj
 0001:0001b840       ?qt_metacast@TargetMachineObject@@UAEPAXPBD@Z 0041c840 f   moc_workmodels.obj
 0001:0001b8e0       ?qt_metacast@WorkLocationManager@@UAEPAXPBD@Z 0041c8e0 f   moc_workmodels.obj
 0001:0001b940       ?qt_metatype_id@?$QMetaTypeId@V?$QList@H@@@@SAHXZ 0041c940 f i moc_workmodels.obj
 0001:0001ba60       ?qt_metatype_id@?$QMetaTypeId@V?$QList@PAVQObject@@@@@@SAHXZ 0041ca60 f i moc_workmodels.obj
 0001:0001bb00       ?qt_metatype_id@?$QMetaTypeId@VQSequentialIterableImpl@QtMetaTypePrivate@@@@SAHXZ 0041cb00 f i moc_workmodels.obj
 0001:0001bb90       ?qt_static_metacall@AdministratorChecker@@CAXPAVQObject@@W4Call@QMetaObject@@HPAPAX@Z 0041cb90 f   moc_workmodels.obj
 0001:0001bc10       ?qt_static_metacall@ConfigFileConverter@@CAXPAVQObject@@W4Call@QMetaObject@@HPAPAX@Z 0041cc10 f   moc_workmodels.obj
 0001:0001bc60       ?qt_static_metacall@OperationParamObject@@CAXPAVQObject@@W4Call@QMetaObject@@HPAPAX@Z 0041cc60 f   moc_workmodels.obj
 0001:0001c180       ?qt_static_metacall@OperationParamSelector@@CAXPAVQObject@@W4Call@QMetaObject@@HPAPAX@Z 0041d180 f   moc_workmodels.obj
 0001:0001c430       ?qt_static_metacall@PlanController@@CAXPAVQObject@@W4Call@QMetaObject@@HPAPAX@Z 0041d430 f   moc_workmodels.obj
 0001:0001c4c0       ?qt_static_metacall@PlanSelector@@CAXPAVQObject@@W4Call@QMetaObject@@HPAPAX@Z 0041d4c0 f   moc_workmodels.obj
 0001:0001c9f0       ?qt_static_metacall@SingleOperationObject@@CAXPAVQObject@@W4Call@QMetaObject@@HPAPAX@Z 0041d9f0 f   moc_workmodels.obj
 0001:0001caa0       ?qt_static_metacall@StatusViewWatcher@@CAXPAVQObject@@W4Call@QMetaObject@@HPAPAX@Z 0041daa0 f   moc_workmodels.obj
 0001:0001cb40       ?qt_static_metacall@TargetMachineObject@@CAXPAVQObject@@W4Call@QMetaObject@@HPAPAX@Z 0041db40 f   moc_workmodels.obj
 0001:0001cca0       ?qt_static_metacall@WorkLocationManager@@CAXPAVQObject@@W4Call@QMetaObject@@HPAPAX@Z 0041dca0 f   moc_workmodels.obj
 0001:0001cdd0       ?registerConverter@?$ValueTypeIsMetaType@V?$QList@H@@$00@QtPrivate@@SA_NH@Z 0041ddd0 f i moc_workmodels.obj
 0001:0001ce60       ?registerConverter@?$ValueTypeIsMetaType@V?$QList@PAVQObject@@@@$00@QtPrivate@@SA_NH@Z 0041de60 f i moc_workmodels.obj
 0001:0001cef0       ?revertSwitchChanged@OperationParamObject@@QAEXXZ 0041def0 f   moc_workmodels.obj
 0001:0001cf10       ?setBoolValue@OperationParamObject@@QAEX_N@Z 0041df10 f i moc_workmodels.obj
 0001:0001cf40       ?setBottomValue@OperationParamObject@@QAEXH@Z 0041df40 f i moc_workmodels.obj
 0001:0001cf70       ?setDisplay@OperationParamObject@@QAEXABVQString@@@Z 0041df70 f i moc_workmodels.obj
 0001:0001cfb0       ?setFloatValue@OperationParamObject@@QAEXN@Z 0041dfb0 f i moc_workmodels.obj
 0001:0001cff0       ?setIntListValue@OperationParamObject@@QAEXABV?$QList@H@@@Z 0041dff0 f i moc_workmodels.obj
 0001:0001d0d0       ?setIntegerValue@OperationParamObject@@QAEXH@Z 0041e0d0 f i moc_workmodels.obj
 0001:0001d100       ?setName@OperationParamObject@@QAEXABVQString@@@Z 0041e100 f i moc_workmodels.obj
 0001:0001d140       ?setOperationName@SingleOperationObject@@QAEXABVQString@@@Z 0041e140 f i moc_workmodels.obj
 0001:0001d180       ?setParamListModel@PlanSelector@@QAEXABV?$QList@PAVQObject@@@@@Z 0041e180 f i moc_workmodels.obj
 0001:0001d260       ?setParamModel@OperationParamSelector@@QAEXABV?$QList@PAVQObject@@@@@Z 0041e260 f i moc_workmodels.obj
 0001:0001d340       ?setRevertSwitch@OperationParamObject@@QAEX_N@Z 0041e340 f i moc_workmodels.obj
 0001:0001d370       ?setStringValue@OperationParamObject@@QAEXABVQString@@@Z 0041e370 f i moc_workmodels.obj
 0001:0001d3b0       ?setStringlistValue@OperationParamObject@@QAEXABVQStringList@@@Z 0041e3b0 f i moc_workmodels.obj
 0001:0001d430       ?setSwitchValue@OperationParamObject@@QAEXABVQString@@@Z 0041e430 f i moc_workmodels.obj
 0001:0001d470       ?setTopValue@OperationParamObject@@QAEXH@Z 0041e470 f i moc_workmodels.obj
 0001:0001d4a0       ?setUnit@OperationParamObject@@QAEXABVQString@@@Z 0041e4a0 f i moc_workmodels.obj
 0001:0001d4e0       ?settype@OperationParamObject@@QAEXABVQString@@@Z 0041e4e0 f i moc_workmodels.obj
 0001:0001d520       ?statusChanged@StatusViewWatcher@@QAEXABVQJsonObject@@@Z 0041e520 f   moc_workmodels.obj
 0001:0001d550       ?stringListValue@OperationParamObject@@QBE?AVQStringList@@XZ 0041e550 f i moc_workmodels.obj
 0001:0001d570       ?stringValue@OperationParamObject@@QBE?AVQString@@XZ 0041e570 f i moc_workmodels.obj
 0001:0001d590       ?stringValueChanged@OperationParamObject@@QAEXXZ 0041e590 f   moc_workmodels.obj
 0001:0001d5b0       ?stringlistValueChanged@OperationParamObject@@QAEXXZ 0041e5b0 f   moc_workmodels.obj
 0001:0001d5d0       ?switchValue@OperationParamObject@@QBE?AVQString@@XZ 0041e5d0 f i moc_workmodels.obj
 0001:0001d5f0       ?switchValueChanged@OperationParamObject@@QAEXXZ 0041e5f0 f   moc_workmodels.obj
 0001:0001d610       ?taskStateChanged@PlanController@@QAEXABVQString@@@Z 0041e610 f   moc_workmodels.obj
 0001:0001d640       ?topValueChanged@OperationParamObject@@QAEXXZ 0041e640 f   moc_workmodels.obj
 0001:0001d660       ?type@OperationParamObject@@QBE?AVQString@@XZ 0041e660 f i moc_workmodels.obj
 0001:0001d680       ?typeChanged@OperationParamObject@@QAEXXZ 0041e680 f   moc_workmodels.obj
 0001:0001d6a0       ?unit@OperationParamObject@@QBE?AVQString@@XZ 0041e6a0 f i moc_workmodels.obj
 0001:0001d6c0       ?workLocationTypeChanged@StatusViewWatcher@@QAEXXZ 0041e6c0 f   moc_workmodels.obj
 0001:0001d6d4       _MiniDumpWriteDump@28      0041e6d4 f   DbgHelp:dbghelp.dll
 0001:0001d6da       ?fixup@QValidator@@UBEXAAVQString@@@Z 0041e6da f   Qt5Gui:Qt5Gui.dll
 0001:0001d6e0       ?metaObject@QDoubleValidator@@UBEPBUQMetaObject@@XZ 0041e6e0 f   Qt5Gui:Qt5Gui.dll
 0001:0001d6e6       ?qt_metacall@QDoubleValidator@@UAEHW4Call@QMetaObject@@HPAPAX@Z 0041e6e6 f   Qt5Gui:Qt5Gui.dll
 0001:0001d6ec       ?qt_metacast@QDoubleValidator@@UAEPAXPBD@Z 0041e6ec f   Qt5Gui:Qt5Gui.dll
 0001:0001d6f2       ?setRange@QDoubleValidator@@UAEXNNH@Z 0041e6f2 f   Qt5Gui:Qt5Gui.dll
 0001:0001d6f8       ?childEvent@QObject@@MAEXPAVQChildEvent@@@Z 0041e6f8 f   Qt5Core:Qt5Core.dll
 0001:0001d6fe       ?connectNotify@QObject@@MAEXABVQMetaMethod@@@Z 0041e6fe f   Qt5Core:Qt5Core.dll
 0001:0001d704       ?customEvent@QObject@@MAEXPAVQEvent@@@Z 0041e704 f   Qt5Core:Qt5Core.dll
 0001:0001d70a       ?disconnectNotify@QObject@@MAEXABVQMetaMethod@@@Z 0041e70a f   Qt5Core:Qt5Core.dll
 0001:0001d710       ?event@QObject@@UAE_NPAVQEvent@@@Z 0041e710 f   Qt5Core:Qt5Core.dll
 0001:0001d716       ?eventFilter@QObject@@UAE_NPAV1@PAVQEvent@@@Z 0041e716 f   Qt5Core:Qt5Core.dll
 0001:0001d71c       ?timerEvent@QObject@@MAEXPAVQTimerEvent@@@Z 0041e71c f   Qt5Core:Qt5Core.dll
 0001:0001d722       ?qRegisterResourceData@@YA_NHPBE00@Z 0041e722 f   Qt5Core:Qt5Core.dll
 0001:0001d728       ?qUnregisterResourceData@@YA_NHPBE00@Z 0041e728 f   Qt5Core:Qt5Core.dll
 0001:0001d72e       @__security_check_cookie@4 0041e72e f   MSVCRT:_secchk_.obj
 0001:0001d73f       ??2@YAPAXI@Z               0041e73f f   MSVCRT:new_scalar.obj
 0001:0001d772       ??3@YAXPAXI@Z              0041e772 f   MSVCRT:delete_scalar_size.obj
 0001:0001d840       ??$__crt_fast_encode_pointer@P6GHPAU_RTL_CONDITION_VARIABLE@@PAU_RTL_CRITICAL_SECTION@@K@Z@@YAP6GHPAU_RTL_CONDITION_VARIABLE@@PAU_RTL_CRITICAL_SECTION@@K@ZQ6GH01K@Z@Z 0041e840 f i MSVCRT:thread_safe_statics.obj
 0001:0001d840       ??$__crt_fast_encode_pointer@P6GXPAU_RTL_CONDITION_VARIABLE@@@Z@@YAP6GXPAU_RTL_CONDITION_VARIABLE@@@ZQ6GX0@Z@Z 0041e840 f i MSVCRT:thread_safe_statics.obj
 0001:0001d879       __Init_thread_footer       0041e879 f   MSVCRT:thread_safe_statics.obj
 0001:0001d8b8       __Init_thread_header       0041e8b8 f   MSVCRT:thread_safe_statics.obj
 0001:0001d8fe       __Init_thread_lock         0041e8fe f   MSVCRT:thread_safe_statics.obj
 0001:0001d90a       __Init_thread_notify       0041e90a f   MSVCRT:thread_safe_statics.obj
 0001:0001d94b       __Init_thread_unlock       0041e94b f   MSVCRT:thread_safe_statics.obj
 0001:0001d957       __Init_thread_wait         0041e957 f   MSVCRT:thread_safe_statics.obj
 0001:0001d9bc       ??_Gtype_info@@UAEPAXI@Z   0041e9bc f i MSVCRT:std_type_info_static.obj
 0001:0001d9bc       ??_Etype_info@@UAEPAXI@Z   0041e9bc f i MSVCRT:std_type_info_static.obj
 0001:0001da23       ___scrt_acquire_startup_lock 0041ea23 f   MSVCRT:utility.obj
 0001:0001da58       ___scrt_initialize_crt     0041ea58 f   MSVCRT:utility.obj
 0001:0001da91       ___scrt_initialize_onexit_tables 0041ea91 f   MSVCRT:utility.obj
 0001:0001db28       ___scrt_is_nonwritable_in_current_image 0041eb28 f   MSVCRT:utility.obj
 0001:0001dbb2       ___scrt_release_startup_lock 0041ebb2 f   MSVCRT:utility.obj
 0001:0001dbcf       ___scrt_uninitialize_crt   0041ebcf f   MSVCRT:utility.obj
 0001:0001dbf7       __onexit                   0041ebf7 f   MSVCRT:utility.obj
 0001:0001dc32       _atexit                    0041ec32 f   MSVCRT:utility.obj
 0001:0001de6d       _WinMainCRTStartup         0041ee6d f   MSVCRT:exe_winmain.obj
 0001:0001de77       ___raise_securityfailure   0041ee77 f   MSVCRT:gs_report.obj
 0001:0001de9f       ___report_gsfailure        0041ee9f f   MSVCRT:gs_report.obj
 0001:0001df9a       ??0bad_alloc@std@@QAE@ABV01@@Z 0041ef9a f i MSVCRT:throw_bad_alloc.obj
 0001:0001dfb5       ??0bad_alloc@std@@QAE@XZ   0041efb5 f i MSVCRT:throw_bad_alloc.obj
 0001:0001dfcd       ??0bad_array_new_length@std@@QAE@ABV01@@Z 0041efcd f i MSVCRT:throw_bad_alloc.obj
 0001:0001dfe8       ??0bad_array_new_length@std@@QAE@XZ 0041efe8 f i MSVCRT:throw_bad_alloc.obj
 0001:0001e000       ??0exception@std@@QAE@ABV01@@Z 0041f000 f i MSVCRT:throw_bad_alloc.obj
 0001:0001e02c       ??1bad_alloc@std@@UAE@XZ   0041f02c f i MSVCRT:throw_bad_alloc.obj
 0001:0001e02c       ??1bad_array_new_length@std@@UAE@XZ 0041f02c f i MSVCRT:throw_bad_alloc.obj
 0001:0001e03d       ??_Gbad_array_new_length@std@@UAEPAXI@Z 0041f03d f i MSVCRT:throw_bad_alloc.obj
 0001:0001e03d       ??_Gbad_alloc@std@@UAEPAXI@Z 0041f03d f i MSVCRT:throw_bad_alloc.obj
 0001:0001e03d       ??_Ebad_alloc@std@@UAEPAXI@Z 0041f03d f i MSVCRT:throw_bad_alloc.obj
 0001:0001e03d       ??_Eexception@std@@UAEPAXI@Z 0041f03d f i MSVCRT:throw_bad_alloc.obj
 0001:0001e03d       ??_Gexception@std@@UAEPAXI@Z 0041f03d f i MSVCRT:throw_bad_alloc.obj
 0001:0001e03d       ??_Ebad_array_new_length@std@@UAEPAXI@Z 0041f03d f i MSVCRT:throw_bad_alloc.obj
 0001:0001e06a       ?__scrt_throw_std_bad_alloc@@YAXXZ 0041f06a f   MSVCRT:throw_bad_alloc.obj
 0001:0001e087       ?__scrt_throw_std_bad_array_new_length@@YAXXZ 0041f087 f   MSVCRT:throw_bad_alloc.obj
 0001:0001e0a4       ?what@exception@std@@UBEPBDXZ 0041f0a4 f i MSVCRT:throw_bad_alloc.obj
 0001:0001e0b1       ??3@YAXPAX@Z               0041f0b1 f   MSVCRT:delete_scalar.obj
 0001:0001e0b6       ___scrt_fastfail           0041f0b6 f   MSVCRT:utility_desktop.obj
 0001:0001e1d1       ___scrt_get_show_window_mode 0041f1d1 f   MSVCRT:utility_desktop.obj
 0001:0001e204       ___scrt_is_managed_app     0041f204 f   MSVCRT:utility_desktop.obj
 0001:0001e248       ___scrt_set_unhandled_exception_filter 0041f248 f   MSVCRT:utility_desktop.obj
 0001:0001e254       ___scrt_unhandled_exception_filter@4 0041f254 f   MSVCRT:utility_desktop.obj
 0001:0001e295       @_guard_check_icall@4      0041f295 f i MSVCRT:checkcfg.obj
 0001:0001e29b       ___isa_available_init      0041f29b f   MSVCRT:_cpu_disp_.obj
 0001:0001e435       __get_startup_argv_mode    0041f435 f   MSVCRT:argv_mode.obj
 0001:0001e439       ___scrt_is_ucrt_dll_in_use 0041f439 f   MSVCRT:ucrt_detection.obj
 0001:0001e450       __SEH_prolog4              0041f450 f   MSVCRT:_sehprolg4_.obj
 0001:0001e496       __SEH_epilog4              0041f496 f   MSVCRT:_sehprolg4_.obj
 0001:0001e4ab       __except_handler4          0041f4ab f   MSVCRT:_chandler4gs_.obj
 0001:0001e4ce       ___security_init_cookie    0041f4ce f   MSVCRT:gs_support.obj
 0001:0001e56a       ___scrt_initialize_winrt   0041f56a f   MSVCRT:utility_desktop.obj
 0001:0001e56a       __get_startup_new_mode     0041f56a f   MSVCRT:new_mode.obj
 0001:0001e56a       __get_startup_commit_mode  0041f56a f   MSVCRT:commit_mode.obj
 0001:0001e56a       __matherr                  0041f56a f   MSVCRT:matherr.obj
 0001:0001e56a       __get_startup_thread_locale_mode 0041f56a f   MSVCRT:thread_locale.obj
 0001:0001e56d       __get_startup_file_mode    0041f56d f   MSVCRT:file_mode.obj
 0001:0001e573       ?__scrt_initialize_type_info@@YAXXZ 0041f573 f   MSVCRT:tncleanup.obj
 0001:0001e57f       ___scrt_stub_for_acrt_uninitialize 0041f57f f   MSVCRT:ucrt_stubs.obj
 0001:0001e57f       ___acrt_uninitialize       0041f57f f   MSVCRT:ucrt_stubs.obj
 0001:0001e57f       ___acrt_initialize         0041f57f f   MSVCRT:ucrt_stubs.obj
 0001:0001e57f       ___scrt_stub_for_acrt_initialize 0041f57f f   MSVCRT:ucrt_stubs.obj
 0001:0001e57f       ___vcrt_initialize         0041f57f f   MSVCRT:ucrt_stubs.obj
 0001:0001e57f       __should_initialize_environment 0041f57f f   MSVCRT:env_mode.obj
 0001:0001e57f       ___vcrt_uninitialize       0041f57f f   MSVCRT:ucrt_stubs.obj
 0001:0001e582       __initialize_default_precision 0041f582 f   MSVCRT:default_precision.obj
 0001:0001e5a3       ___local_stdio_printf_options 0041f5a3 f i MSVCRT:default_local_stdio_options.obj
 0001:0001e5a9       ___local_stdio_scanf_options 0041f5a9 f i MSVCRT:default_local_stdio_options.obj
 0001:0001e5af       ___scrt_initialize_default_local_stdio_options 0041f5af f   MSVCRT:default_local_stdio_options.obj
 0001:0001e5cc       ___scrt_is_user_matherr_present 0041f5cc f   MSVCRT:matherr_detection.obj
 0001:0001e5d8       ___scrt_get_dyn_tls_init_callback 0041f5d8 f   MSVCRT:dyn_tls_init.obj
 0001:0001e5de       ___scrt_get_dyn_tls_dtor_callback 0041f5de f   MSVCRT:dyn_tls_dtor.obj
 0001:0001e5e4       __RTC_Initialize           0041f5e4 f   MSVCRT:_initsect_.obj
 0001:0001e60f       __RTC_Terminate            0041f60f f   MSVCRT:_initsect_.obj
 0001:0001e640       ?Destruct@?$QMetaTypeFunctionHelper@V?$QQmlListProperty@VStatusViewWatcher@@@@$00@QtMetaTypePrivate@@SAXPAX@Z 0041f640 f i main.obj
 0001:0001e640       ?Destruct@?$QMetaTypeFunctionHelper@V?$QQmlListProperty@VWorkLocationManager@@@@$00@QtMetaTypePrivate@@SAXPAX@Z 0041f640 f i main.obj
 0001:0001e640       @_guard_check_icall_nop@4  0041f640 f i MSVCRT:guard_support.obj
 0001:0001e640       ?Destruct@?$QMetaTypeFunctionHelper@PAVStatusViewWatcher@@$00@QtMetaTypePrivate@@SAXPAX@Z 0041f640 f i main.obj
 0001:0001e640       ?Destruct@?$QMetaTypeFunctionHelper@PAVPlanSelector@@$00@QtMetaTypePrivate@@SAXPAX@Z 0041f640 f i main.obj
 0001:0001e640       ??3@YAXPAX0@Z              0041f640 f i configfilehandler.obj
 0001:0001e640       ?Destruct@?$QMetaTypeFunctionHelper@PAVOperationParamSelector@@$00@QtMetaTypePrivate@@SAXPAX@Z 0041f640 f i main.obj
 0001:0001e640       ?qt_static_metacall@configFileHandler@@CAXPAVQObject@@W4Call@QMetaObject@@HPAPAX@Z 0041f640 f i moc_configfilehandler.obj
 0001:0001e640       ?Destruct@?$QMetaTypeFunctionHelper@V?$QQmlListProperty@VTextFieldDoubleValidator@@@@$00@QtMetaTypePrivate@@SAXPAX@Z 0041f640 f i main.obj
 0001:0001e640       ?Destruct@?$QMetaTypeFunctionHelper@VQSequentialIterableImpl@QtMetaTypePrivate@@$00@QtMetaTypePrivate@@SAXPAX@Z 0041f640 f i moc_workmodels.obj
 0001:0001e640       ?Destruct@?$QMetaTypeFunctionHelper@PAVTextFieldDoubleValidator@@$00@QtMetaTypePrivate@@SAXPAX@Z 0041f640 f i main.obj
 0001:0001e640       ?Destruct@?$QMetaTypeFunctionHelper@PAVWorkLocationManager@@$00@QtMetaTypePrivate@@SAXPAX@Z 0041f640 f i main.obj
 0001:0001e640       ?Destruct@?$QMetaTypeFunctionHelper@V?$QQmlListProperty@VPlanSelector@@@@$00@QtMetaTypePrivate@@SAXPAX@Z 0041f640 f i main.obj
 0001:0001e640       __initialize_denormal_control 0041f640 f i MSVCRT:denormal_control.obj
 0001:0001e640       ?Destruct@?$QMetaTypeFunctionHelper@PAVOperationParamObject@@$00@QtMetaTypePrivate@@SAXPAX@Z 0041f640 f i main.obj
 0001:0001e640       ?Destruct@?$QMetaTypeFunctionHelper@V?$QQmlListProperty@VOperationParamObject@@@@$00@QtMetaTypePrivate@@SAXPAX@Z 0041f640 f i main.obj
 0001:0001e640       ?Destruct@?$QMetaTypeFunctionHelper@V?$QQmlListProperty@VPlanController@@@@$00@QtMetaTypePrivate@@SAXPAX@Z 0041f640 f i main.obj
 0001:0001e640       __initialize_invalid_parameter_handler 0041f640 f i MSVCRT:invalid_parameter_handler.obj
 0001:0001e640       ?Destruct@?$QMetaTypeFunctionHelper@PAVPlanController@@$00@QtMetaTypePrivate@@SAXPAX@Z 0041f640 f i main.obj
 0001:0001e640       ?onComplete@PlanSelector@@QAEXXZ 0041f640 f i workmodels.obj
 0001:0001e640       ?Destruct@?$QMetaTypeFunctionHelper@V?$QQmlListProperty@VOperationParamSelector@@@@$00@QtMetaTypePrivate@@SAXPAX@Z 0041f640 f i main.obj
 0001:0001e642       _IsProcessorFeaturePresent@4 0041f642 f   kernel32:KERNEL32.dll
 0001:0001e648       ___CxxFrameHandler3        0041f648 f   vcruntime:VCRUNTIME140.dll
 0001:0001e64e       ___std_terminate           0041f64e f   vcruntime:VCRUNTIME140.dll
 0001:0001e654       __CxxThrowException@8      0041f654 f   vcruntime:VCRUNTIME140.dll
 0001:0001e65a       _memcpy                    0041f65a f   vcruntime:VCRUNTIME140.dll
 0001:0001e660       ___RTDynamicCast           0041f660 f   vcruntime:VCRUNTIME140.dll
 0001:0001e666       ___vcrt_InitializeCriticalSectionEx 0041f666 f   vcruntime:VCRUNTIME140.dll
 0001:0001e66c       ___std_exception_copy      0041f66c f   vcruntime:VCRUNTIME140.dll
 0001:0001e672       ___std_exception_destroy   0041f672 f   vcruntime:VCRUNTIME140.dll
 0001:0001e678       _memset                    0041f678 f   vcruntime:VCRUNTIME140.dll
 0001:0001e67e       __except_handler4_common   0041f67e f   vcruntime:VCRUNTIME140.dll
 0001:0001e684       _free                      0041f684 f   ucrt:api-ms-win-crt-heap-l1-1-0.dll
 0001:0001e68a       _malloc                    0041f68a f   ucrt:api-ms-win-crt-heap-l1-1-0.dll
 0001:0001e690       __callnewh                 0041f690 f   ucrt:api-ms-win-crt-heap-l1-1-0.dll
 0001:0001e696       __configure_narrow_argv    0041f696 f   ucrt:api-ms-win-crt-runtime-l1-1-0.dll
 0001:0001e69c       __initialize_narrow_environment 0041f69c f   ucrt:api-ms-win-crt-runtime-l1-1-0.dll
 0001:0001e6a2       __initialize_onexit_table  0041f6a2 f   ucrt:api-ms-win-crt-runtime-l1-1-0.dll
 0001:0001e6a8       __register_onexit_function 0041f6a8 f   ucrt:api-ms-win-crt-runtime-l1-1-0.dll
 0001:0001e6ae       __crt_atexit               0041f6ae f   ucrt:api-ms-win-crt-runtime-l1-1-0.dll
 0001:0001e6b4       __cexit                    0041f6b4 f   ucrt:api-ms-win-crt-runtime-l1-1-0.dll
 0001:0001e6ba       __seh_filter_exe           0041f6ba f   ucrt:api-ms-win-crt-runtime-l1-1-0.dll
 0001:0001e6c0       __set_app_type             0041f6c0 f   ucrt:api-ms-win-crt-runtime-l1-1-0.dll
 0001:0001e6c6       ___setusermatherr          0041f6c6 f   ucrt:api-ms-win-crt-math-l1-1-0.dll
 0001:0001e6cc       __get_narrow_winmain_command_line 0041f6cc f   ucrt:api-ms-win-crt-runtime-l1-1-0.dll
 0001:0001e6d2       __initterm                 0041f6d2 f   ucrt:api-ms-win-crt-runtime-l1-1-0.dll
 0001:0001e6d8       __initterm_e               0041f6d8 f   ucrt:api-ms-win-crt-runtime-l1-1-0.dll
 0001:0001e6de       _exit                      0041f6de f   ucrt:api-ms-win-crt-runtime-l1-1-0.dll
 0001:0001e6e4       __exit                     0041f6e4 f   ucrt:api-ms-win-crt-runtime-l1-1-0.dll
 0001:0001e6ea       __set_fmode                0041f6ea f   ucrt:api-ms-win-crt-stdio-l1-1-0.dll
 0001:0001e6f0       __c_exit                   0041f6f0 f   ucrt:api-ms-win-crt-runtime-l1-1-0.dll
 0001:0001e6f6       __register_thread_local_exe_atexit_callback 0041f6f6 f   ucrt:api-ms-win-crt-runtime-l1-1-0.dll
 0001:0001e6fc       __configthreadlocale       0041f6fc f   ucrt:api-ms-win-crt-locale-l1-1-0.dll
 0001:0001e702       __set_new_mode             0041f702 f   ucrt:api-ms-win-crt-heap-l1-1-0.dll
 0001:0001e708       ___p__commode              0041f708 f   ucrt:api-ms-win-crt-stdio-l1-1-0.dll
 0001:0001e70e       _terminate                 0041f70e f   ucrt:api-ms-win-crt-runtime-l1-1-0.dll
 0001:0001e714       __controlfp_s              0041f714 f   ucrt:api-ms-win-crt-runtime-l1-1-0.dll
 0001:0001e720       _WinMain@16                0041f720 f   qtmain:qtmain_win.obj
 0001:0001e83e       ??_U@YAPAXI@Z              0041f83e f   MSVCRT:new_array.obj
 0001:0001e847       ??_V@YAXPAX@Z              0041f847 f   MSVCRT:delete_array.obj
 0001:000225a0       ??__Ff@?4??registerConverter@?$ValueTypeIsMetaType@V?$QList@H@@$00@QtPrivate@@SA_NH@Z@YAXXZ 004235a0 f i moc_workmodels.obj
 0001:000225f0       ??__Ff@?4??registerConverter@?$ValueTypeIsMetaType@V?$QList@PAVQObject@@@@$00@QtPrivate@@SA_NH@Z@YAXXZ 004235f0 f i moc_workmodels.obj
 0002:00000000       __imp__WideCharToMultiByte@32 00424000     kernel32:KERNEL32.dll
 0002:00000004       __imp__LocalFree@4         00424004     kernel32:KERNEL32.dll
 0002:00000008       __imp__GetCommandLineW@0   00424008     kernel32:KERNEL32.dll
 0002:0000000c       __imp__InitializeSListHead@4 0042400c     kernel32:KERNEL32.dll
 0002:00000010       __imp__GetSystemTimeAsFileTime@4 00424010     kernel32:KERNEL32.dll
 0002:00000014       __imp__QueryPerformanceCounter@4 00424014     kernel32:KERNEL32.dll
 0002:00000018       __imp__GetStartupInfoW@4   00424018     kernel32:KERNEL32.dll
 0002:0000001c       __imp__IsDebuggerPresent@0 0042401c     kernel32:KERNEL32.dll
 0002:00000020       __imp__IsProcessorFeaturePresent@4 00424020     kernel32:KERNEL32.dll
 0002:00000024       __imp__TerminateProcess@8  00424024     kernel32:KERNEL32.dll
 0002:00000028       __imp__UnhandledExceptionFilter@4 00424028     kernel32:KERNEL32.dll
 0002:0000002c       __imp__GetProcAddress@8    0042402c     kernel32:KERNEL32.dll
 0002:00000030       __imp__GetModuleHandleW@4  00424030     kernel32:KERNEL32.dll
 0002:00000034       __imp__CreateEventW@16     00424034     kernel32:KERNEL32.dll
 0002:00000038       __imp__WaitForSingleObjectEx@12 00424038     kernel32:KERNEL32.dll
 0002:0000003c       __imp__ResetEvent@4        0042403c     kernel32:KERNEL32.dll
 0002:00000040       __imp__SetEvent@4          00424040     kernel32:KERNEL32.dll
 0002:00000044       __imp__DeleteCriticalSection@4 00424044     kernel32:KERNEL32.dll
 0002:00000048       __imp__LeaveCriticalSection@4 00424048     kernel32:KERNEL32.dll
 0002:0000004c       __imp__EnterCriticalSection@4 0042404c     kernel32:KERNEL32.dll
 0002:00000050       __imp__GetCurrentThreadId@0 00424050     kernel32:KERNEL32.dll
 0002:00000054       __imp__GetCurrentProcessId@0 00424054     kernel32:KERNEL32.dll
 0002:00000058       __imp__GetCurrentProcess@0 00424058     kernel32:KERNEL32.dll
 0002:0000005c       __imp__SetUnhandledExceptionFilter@4 0042405c     kernel32:KERNEL32.dll
 0002:00000060       __imp__CloseHandle@4       00424060     kernel32:KERNEL32.dll
 0002:00000064       __imp__CreateFileW@28      00424064     kernel32:KERNEL32.dll
 0002:00000068       \177KERNEL32_NULL_THUNK_DATA 00424068     kernel32:KERNEL32.dll
 0002:0000006c       __imp_?unregisterConverterFunction@QMetaType@@SAXHH@Z 0042406c     Qt5Core:Qt5Core.dll
 0002:00000070       __imp_?registerConverterFunction@QMetaType@@SA_NPBUAbstractConverterFunction@QtPrivate@@HH@Z 00424070     Qt5Core:Qt5Core.dll
 0002:00000074       __imp_?hasRegisteredConverterFunction@QMetaType@@SA_NHH@Z 00424074     Qt5Core:Qt5Core.dll
 0002:00000078       __imp_?typeName@QMetaType@@SAPBDH@Z 00424078     Qt5Core:Qt5Core.dll
 0002:0000007c       __imp_?append@QByteArray@@QAEAAV1@PBDH@Z 0042407c     Qt5Core:Qt5Core.dll
 0002:00000080       __imp_?endsWith@QByteArray@@QBE_ND@Z 00424080     Qt5Core:Qt5Core.dll
 0002:00000084       __imp_?normalizedType@QMetaObject@@SA?AVQByteArray@@PBD@Z 00424084     Qt5Core:Qt5Core.dll
 0002:00000088       __imp_?staticMetaObject@QObject@@2UQMetaObject@@B 00424088     Qt5Core:Qt5Core.dll
 0002:0000008c       __imp_?qt_metacall@QObject@@UAEHW4Call@QMetaObject@@HPAPAX@Z 0042408c     Qt5Core:Qt5Core.dll
 0002:00000090       __imp_?qt_metacast@QObject@@UAEPAXPBD@Z 00424090     Qt5Core:Qt5Core.dll
 0002:00000094       __imp_?dynamicMetaObject@QObjectData@@QBEPAUQMetaObject@@XZ 00424094     Qt5Core:Qt5Core.dll
 0002:00000098       __imp_?activate@QMetaObject@@SAXPAVQObject@@PBU1@HPAPAX@Z 00424098     Qt5Core:Qt5Core.dll
 0002:0000009c       __imp_?qUnregisterResourceData@@YA_NHPBE00@Z 0042409c     Qt5Core:Qt5Core.dll
 0002:000000a0       __imp_?qRegisterResourceData@@YA_NHPBE00@Z 004240a0     Qt5Core:Qt5Core.dll
 0002:000000a4       __imp_??8QJsonValue@@QBE_NABV0@@Z 004240a4     Qt5Core:Qt5Core.dll
 0002:000000a8       __imp_??0QJsonArray@@QAE@ABV0@@Z 004240a8     Qt5Core:Qt5Core.dll
 0002:000000ac       __imp_?toLocalFile@QUrl@@QBE?AVQString@@XZ 004240ac     Qt5Core:Qt5Core.dll
 0002:000000b0       __imp_?disconnectImpl@QObject@@CA_NPBV1@PAPAX01PBUQMetaObject@@@Z 004240b0     Qt5Core:Qt5Core.dll
 0002:000000b4       __imp_??0QMessageLogger@@QAE@PBDH0@Z 004240b4     Qt5Core:Qt5Core.dll
 0002:000000b8       __imp_?warning@QMessageLogger@@QBAXPBDZZ 004240b8     Qt5Core:Qt5Core.dll
 0002:000000bc       __imp_??0QByteArray@@QAE@PBDH@Z 004240bc     Qt5Core:Qt5Core.dll
 0002:000000c0       __imp_??0QString@@QAE@XZ   004240c0     Qt5Core:Qt5Core.dll
 0002:000000c4       __imp_??1QString@@QAE@XZ   004240c4     Qt5Core:Qt5Core.dll
 0002:000000c8       __imp_?isOpen@QIODevice@@QBE_NXZ 004240c8     Qt5Core:Qt5Core.dll
 0002:000000cc       __imp_?isWritable@QIODevice@@QBE_NXZ 004240cc     Qt5Core:Qt5Core.dll
 0002:000000d0       __imp_?read@QIODevice@@QAE?AVQByteArray@@_J@Z 004240d0     Qt5Core:Qt5Core.dll
 0002:000000d4       __imp_?write@QIODevice@@QAE_JABVQByteArray@@@Z 004240d4     Qt5Core:Qt5Core.dll
 0002:000000d8       __imp_?debug@QMessageLogger@@QBE?AVQDebug@@XZ 004240d8     Qt5Core:Qt5Core.dll
 0002:000000dc       __imp_??0QChar@@QAE@H@Z    004240dc     Qt5Core:Qt5Core.dll
 0002:000000e0       __imp_??0QByteArray@@QAE@XZ 004240e0     Qt5Core:Qt5Core.dll
 0002:000000e4       __imp_??0QByteArray@@QAE@ABV0@@Z 004240e4     Qt5Core:Qt5Core.dll
 0002:000000e8       __imp_??1QByteArray@@QAE@XZ 004240e8     Qt5Core:Qt5Core.dll
 0002:000000ec       __imp_??4QByteArray@@QAEAAV0@$$QAV0@@Z 004240ec     Qt5Core:Qt5Core.dll
 0002:000000f0       __imp_?data@QByteArray@@QAEPADXZ 004240f0     Qt5Core:Qt5Core.dll
 0002:000000f4       __imp_?data@QByteArray@@QBEPBDXZ 004240f4     Qt5Core:Qt5Core.dll
 0002:000000f8       __imp_?left@QByteArray@@QBE?AV1@H@Z 004240f8     Qt5Core:Qt5Core.dll
 0002:000000fc       __imp_?right@QByteArray@@QBE?AV1@H@Z 004240fc     Qt5Core:Qt5Core.dll
 0002:00000100       __imp_?append@QByteArray@@QAEAAV1@ABV1@@Z 00424100     Qt5Core:Qt5Core.dll
 0002:00000104       __imp_?remove@QByteArray@@QAEAAV1@HH@Z 00424104     Qt5Core:Qt5Core.dll
 0002:00000108       __imp_??0QString@@QAE@ABV0@@Z 00424108     Qt5Core:Qt5Core.dll
 0002:0000010c       __imp_??4QString@@QAEAAV0@ABV0@@Z 0042410c     Qt5Core:Qt5Core.dll
 0002:00000110       __imp_?at@QString@@QBE?BVQChar@@H@Z 00424110     Qt5Core:Qt5Core.dll
 0002:00000114       __imp_?right@QString@@QBE?AV1@H@Z 00424114     Qt5Core:Qt5Core.dll
 0002:00000118       __imp_?toInt@QString@@QBEHPA_NH@Z 00424118     Qt5Core:Qt5Core.dll
 0002:0000011c       __imp_??8@YA_NABVQString@@0@Z 0042411c     Qt5Core:Qt5Core.dll
 0002:00000120       __imp_??4QString@@QAEAAV0@PBD@Z 00424120     Qt5Core:Qt5Core.dll
 0002:00000124       __imp_??8QString@@QBE_NPBD@Z 00424124     Qt5Core:Qt5Core.dll
 0002:00000128       __imp_??9QString@@QBE_NPBD@Z 00424128     Qt5Core:Qt5Core.dll
 0002:0000012c       __imp_?fromAscii_helper@QString@@CAPAU?$QTypedArrayData@G@@PBDH@Z 0042412c     Qt5Core:Qt5Core.dll
 0002:00000130       __imp_??0QJsonValue@@QAE@_N@Z 00424130     Qt5Core:Qt5Core.dll
 0002:00000134       __imp_??0QJsonValue@@QAE@H@Z 00424134     Qt5Core:Qt5Core.dll
 0002:00000138       __imp_??0QJsonValue@@QAE@ABVQString@@@Z 00424138     Qt5Core:Qt5Core.dll
 0002:0000013c       __imp_??0QJsonValue@@QAE@PBD@Z 0042413c     Qt5Core:Qt5Core.dll
 0002:00000140       __imp_??1QJsonValue@@QAE@XZ 00424140     Qt5Core:Qt5Core.dll
 0002:00000144       __imp_?toInt@QJsonValue@@QBEHH@Z 00424144     Qt5Core:Qt5Core.dll
 0002:00000148       __imp_?toString@QJsonValue@@QBE?AVQString@@XZ 00424148     Qt5Core:Qt5Core.dll
 0002:0000014c       __imp_?toArray@QJsonValue@@QBE?AVQJsonArray@@XZ 0042414c     Qt5Core:Qt5Core.dll
 0002:00000150       __imp_?toObject@QJsonValue@@QBE?AVQJsonObject@@XZ 00424150     Qt5Core:Qt5Core.dll
 0002:00000154       __imp_??9QJsonValue@@QBE_NABV0@@Z 00424154     Qt5Core:Qt5Core.dll
 0002:00000158       __imp_??4QJsonValueRef@@QAEAAV0@ABVQJsonValue@@@Z 00424158     Qt5Core:Qt5Core.dll
 0002:0000015c       __imp_??4QJsonValueRef@@QAEAAV0@ABV0@@Z 0042415c     Qt5Core:Qt5Core.dll
 0002:00000160       __imp_?toString@QJsonValueRef@@QBE?AVQString@@XZ 00424160     Qt5Core:Qt5Core.dll
 0002:00000164       __imp_?toArray@QJsonValueRef@@QBE?AVQJsonArray@@XZ 00424164     Qt5Core:Qt5Core.dll
 0002:00000168       __imp_?toObject@QJsonValueRef@@QBE?AVQJsonObject@@XZ 00424168     Qt5Core:Qt5Core.dll
 0002:0000016c       __imp_?toValue@QJsonValueRef@@ABE?AVQJsonValue@@XZ 0042416c     Qt5Core:Qt5Core.dll
 0002:00000170       __imp_??0QJsonObject@@QAE@XZ 00424170     Qt5Core:Qt5Core.dll
 0002:00000174       __imp_??1QJsonObject@@QAE@XZ 00424174     Qt5Core:Qt5Core.dll
 0002:00000178       __imp_??4QJsonObject@@QAEAAV0@ABV0@@Z 00424178     Qt5Core:Qt5Core.dll
 0002:0000017c       __imp_??AQJsonObject@@QBE?AVQJsonValue@@ABVQString@@@Z 0042417c     Qt5Core:Qt5Core.dll
 0002:00000180       __imp_??AQJsonObject@@QAE?AVQJsonValueRef@@ABVQString@@@Z 00424180     Qt5Core:Qt5Core.dll
 0002:00000184       __imp_??6@YA?AVQDebug@@V0@ABVQJsonObject@@@Z 00424184     Qt5Core:Qt5Core.dll
 0002:00000188       __imp_??1Connection@QMetaObject@@QAE@XZ 00424188     Qt5Core:Qt5Core.dll
 0002:0000018c       __imp_?detach@QListData@@QAEPAUData@1@H@Z 0042418c     Qt5Core:Qt5Core.dll
 0002:00000190       __imp_?detach_grow@QListData@@QAEPAUData@1@PAHH@Z 00424190     Qt5Core:Qt5Core.dll
 0002:00000194       __imp_?dispose@QListData@@SAXPAUData@1@@Z 00424194     Qt5Core:Qt5Core.dll
 0002:00000198       __imp_?erase@QListData@@QAEPAPAXPAPAX@Z 00424198     Qt5Core:Qt5Core.dll
 0002:0000019c       __imp_?append@QListData@@QAEPAPAXXZ 0042419c     Qt5Core:Qt5Core.dll
 0002:000001a0       __imp_?isEmpty@QListData@@QBE_NXZ 004241a0     Qt5Core:Qt5Core.dll
 0002:000001a4       __imp_?begin@QListData@@QBEPAPAXXZ 004241a4     Qt5Core:Qt5Core.dll
 0002:000001a8       __imp_?end@QListData@@QBEPAPAXXZ 004241a8     Qt5Core:Qt5Core.dll
 0002:000001ac       __imp_??0QObject@@QAE@PAV0@@Z 004241ac     Qt5Core:Qt5Core.dll
 0002:000001b0       __imp_??1QObject@@UAE@XZ   004241b0     Qt5Core:Qt5Core.dll
 0002:000001b4       __imp_?moveToThread@QObject@@QAEXPAVQThread@@@Z 004241b4     Qt5Core:Qt5Core.dll
 0002:000001b8       __imp_?deleteLater@QObject@@QAEXXZ 004241b8     Qt5Core:Qt5Core.dll
 0002:000001bc       __imp_?connectImpl@QObject@@CA?AVConnection@QMetaObject@@PBV1@PAPAX01PAVQSlotObjectBase@QtPrivate@@W4ConnectionType@Qt@@PBHPBU3@@Z 004241bc     Qt5Core:Qt5Core.dll
 0002:000001c0       __imp_??0QThread@@QAE@PAVQObject@@@Z 004241c0     Qt5Core:Qt5Core.dll
 0002:000001c4       __imp_??1QThread@@UAE@XZ   004241c4     Qt5Core:Qt5Core.dll
 0002:000001c8       __imp_?isRunning@QThread@@QBE_NXZ 004241c8     Qt5Core:Qt5Core.dll
 0002:000001cc       __imp_?start@QThread@@QAEXW4Priority@1@@Z 004241cc     Qt5Core:Qt5Core.dll
 0002:000001d0       __imp_?quit@QThread@@QAEXXZ 004241d0     Qt5Core:Qt5Core.dll
 0002:000001d4       __imp_?wait@QThread@@QAE_NK@Z 004241d4     Qt5Core:Qt5Core.dll
 0002:000001d8       __imp_?msleep@QThread@@SAXK@Z 004241d8     Qt5Core:Qt5Core.dll
 0002:000001dc       __imp_?finished@QThread@@QAEXUQPrivateSignal@1@@Z 004241dc     Qt5Core:Qt5Core.dll
 0002:000001e0       __imp_?readAll@QIODevice@@QAE?AVQByteArray@@XZ 004241e0     Qt5Core:Qt5Core.dll
 0002:000001e4       __imp_?hex@@YAAAVQTextStream@@AAV1@@Z 004241e4     Qt5Core:Qt5Core.dll
 0002:000001e8       __imp_??1QDebug@@QAE@XZ    004241e8     Qt5Core:Qt5Core.dll
 0002:000001ec       __imp_??6QDebug@@QAEAAV0@H@Z 004241ec     Qt5Core:Qt5Core.dll
 0002:000001f0       __imp_??6QDebug@@QAEAAV0@PBD@Z 004241f0     Qt5Core:Qt5Core.dll
 0002:000001f4       __imp_??6QDebug@@QAEAAV0@ABVQByteArray@@@Z 004241f4     Qt5Core:Qt5Core.dll
 0002:000001f8       __imp_??6QDebug@@QAEAAV0@P6AAAVQTextStream@@AAV1@@Z@Z 004241f8     Qt5Core:Qt5Core.dll
 0002:000001fc       __imp_??0QEvent@@QAE@W4Type@0@@Z 004241fc     Qt5Core:Qt5Core.dll
 0002:00000200       __imp_??1QEvent@@UAE@XZ    00424200     Qt5Core:Qt5Core.dll
 0002:00000204       __imp_??1QJsonDocument@@QAE@XZ 00424204     Qt5Core:Qt5Core.dll
 0002:00000208       __imp_?fromJson@QJsonDocument@@SA?AV1@ABVQByteArray@@PAUQJsonParseError@@@Z 00424208     Qt5Core:Qt5Core.dll
 0002:0000020c       __imp_?object@QJsonDocument@@QBE?AVQJsonObject@@XZ 0042420c     Qt5Core:Qt5Core.dll
 0002:00000210       __imp_??1QJsonArray@@QAE@XZ 00424210     Qt5Core:Qt5Core.dll
 0002:00000214       __imp_?size@QJsonArray@@QBEHXZ 00424214     Qt5Core:Qt5Core.dll
 0002:00000218       __imp_??AQJsonArray@@QAE?AVQJsonValueRef@@H@Z 00424218     Qt5Core:Qt5Core.dll
 0002:0000021c       __imp_?start@QElapsedTimer@@QAEXXZ 0042421c     Qt5Core:Qt5Core.dll
 0002:00000220       __imp_?restart@QElapsedTimer@@QAE_JXZ 00424220     Qt5Core:Qt5Core.dll
 0002:00000224       __imp_?elapsed@QElapsedTimer@@QBE_JXZ 00424224     Qt5Core:Qt5Core.dll
 0002:00000228       __imp_?close@QFileDevice@@UAEXXZ 00424228     Qt5Core:Qt5Core.dll
 0002:0000022c       __imp_??0QFile@@QAE@ABVQString@@@Z 0042422c     Qt5Core:Qt5Core.dll
 0002:00000230       __imp_??1QFile@@UAE@XZ     00424230     Qt5Core:Qt5Core.dll
 0002:00000234       __imp_?open@QFile@@UAE_NV?$QFlags@W4OpenModeFlag@QIODevice@@@@@Z 00424234     Qt5Core:Qt5Core.dll
 0002:00000238       __imp_?postEvent@QCoreApplication@@SAXPAVQObject@@PAVQEvent@@H@Z 00424238     Qt5Core:Qt5Core.dll
 0002:0000023c       __imp_?childEvent@QObject@@MAEXPAVQChildEvent@@@Z 0042423c     Qt5Core:Qt5Core.dll
 0002:00000240       __imp_?connectNotify@QObject@@MAEXABVQMetaMethod@@@Z 00424240     Qt5Core:Qt5Core.dll
 0002:00000244       __imp_?customEvent@QObject@@MAEXPAVQEvent@@@Z 00424244     Qt5Core:Qt5Core.dll
 0002:00000248       __imp_?disconnectNotify@QObject@@MAEXABVQMetaMethod@@@Z 00424248     Qt5Core:Qt5Core.dll
 0002:0000024c       __imp_?event@QObject@@UAE_NPAVQEvent@@@Z 0042424c     Qt5Core:Qt5Core.dll
 0002:00000250       __imp_?eventFilter@QObject@@UAE_NPAV1@PAVQEvent@@@Z 00424250     Qt5Core:Qt5Core.dll
 0002:00000254       __imp_?timerEvent@QObject@@MAEXPAVQTimerEvent@@@Z 00424254     Qt5Core:Qt5Core.dll
 0002:00000258       __imp_?shared_null@QListData@@2UData@1@B 00424258     Qt5Core:Qt5Core.dll
 0002:0000025c       __imp_?staticMetaObject@QThread@@2UQMetaObject@@B 0042425c     Qt5Core:Qt5Core.dll
 0002:00000260       __imp_?self@QCoreApplication@@0PAV1@A 00424260     Qt5Core:Qt5Core.dll
 0002:00000264       __imp_?fromLatin1@QChar@@SA?AV1@D@Z 00424264     Qt5Core:Qt5Core.dll
 0002:00000268       __imp_?qstrcmp@@YAHABVQByteArray@@PBD@Z 00424268     Qt5Core:Qt5Core.dll
 0002:0000026c       __imp_?resize@QByteArray@@QAEXH@Z 0042426c     Qt5Core:Qt5Core.dll
 0002:00000270       __imp_?at@QByteArray@@QBEDH@Z 00424270     Qt5Core:Qt5Core.dll
 0002:00000274       __imp_?split@QByteArray@@QBE?AV?$QList@VQByteArray@@@@D@Z 00424274     Qt5Core:Qt5Core.dll
 0002:00000278       __imp_??8QByteArray@@QBE_NABVQString@@@Z 00424278     Qt5Core:Qt5Core.dll
 0002:0000027c       __imp_?toInt@QByteArray@@QBEHPA_NH@Z 0042427c     Qt5Core:Qt5Core.dll
 0002:00000280       __imp_??4QString@@QAEAAV0@$$QAV0@@Z 00424280     Qt5Core:Qt5Core.dll
 0002:00000284       __imp_?clear@QString@@QAEXXZ 00424284     Qt5Core:Qt5Core.dll
 0002:00000288       __imp_?append@QString@@QAEAAV1@ABV1@@Z 00424288     Qt5Core:Qt5Core.dll
 0002:0000028c       __imp_??YQString@@QAEAAV0@VQChar@@@Z 0042428c     Qt5Core:Qt5Core.dll
 0002:00000290       __imp_?toLocal8Bit@QString@@QGBE?AVQByteArray@@XZ 00424290     Qt5Core:Qt5Core.dll
 0002:00000294       __imp_?fromUtf8@QString@@SA?AV1@PBDH@Z 00424294     Qt5Core:Qt5Core.dll
 0002:00000298       __imp_?number@QString@@SA?AV1@HH@Z 00424298     Qt5Core:Qt5Core.dll
 0002:0000029c       __imp_?number@QString@@SA?AV1@NDH@Z 0042429c     Qt5Core:Qt5Core.dll
 0002:000002a0       __imp_??M@YA_NABVQString@@0@Z 004242a0     Qt5Core:Qt5Core.dll
 0002:000002a4       __imp_??0QString@@QAE@ABVQByteArray@@@Z 004242a4     Qt5Core:Qt5Core.dll
 0002:000002a8       __imp_??YQString@@QAEAAV0@PBD@Z 004242a8     Qt5Core:Qt5Core.dll
 0002:000002ac       __imp_??YQString@@QAEAAV0@D@Z 004242ac     Qt5Core:Qt5Core.dll
 0002:000002b0       __imp_?size@QListData@@QBEHXZ 004242b0     Qt5Core:Qt5Core.dll
 0002:000002b4       __imp_?at@QListData@@QBEPAPAXH@Z 004242b4     Qt5Core:Qt5Core.dll
 0002:000002b8       __imp_?QStringList_contains@QtPrivate@@YA_NPBVQStringList@@ABVQString@@W4CaseSensitivity@Qt@@@Z 004242b8     Qt5Core:Qt5Core.dll
 0002:000002bc       __imp_??0QJsonValue@@QAE@N@Z 004242bc     Qt5Core:Qt5Core.dll
 0002:000002c0       __imp_??0QJsonValue@@QAE@ABVQJsonArray@@@Z 004242c0     Qt5Core:Qt5Core.dll
 0002:000002c4       __imp_??0QJsonValue@@QAE@ABVQJsonObject@@@Z 004242c4     Qt5Core:Qt5Core.dll
 0002:000002c8       __imp_??0QJsonValue@@QAE@ABV0@@Z 004242c8     Qt5Core:Qt5Core.dll
 0002:000002cc       __imp_?toBool@QJsonValue@@QBE_N_N@Z 004242cc     Qt5Core:Qt5Core.dll
 0002:000002d0       __imp_?toDouble@QJsonValue@@QBENN@Z 004242d0     Qt5Core:Qt5Core.dll
 0002:000002d4       __imp_??BQJsonValueRef@@QBE?AVQJsonValue@@XZ 004242d4     Qt5Core:Qt5Core.dll
 0002:000002d8       __imp_?remove@QJsonObject@@QAEXABVQString@@@Z 004242d8     Qt5Core:Qt5Core.dll
 0002:000002dc       __imp_?contains@QJsonObject@@QBE_NABVQString@@@Z 004242dc     Qt5Core:Qt5Core.dll
 0002:000002e0       __imp_?begin@QJsonObject@@QAE?AViterator@1@XZ 004242e0     Qt5Core:Qt5Core.dll
 0002:000002e4       __imp_?end@QJsonObject@@QAE?AViterator@1@XZ 004242e4     Qt5Core:Qt5Core.dll
 0002:000002e8       __imp_?keyAt@QJsonObject@@ABE?AVQString@@H@Z 004242e8     Qt5Core:Qt5Core.dll
 0002:000002ec       __imp_?freeNodeAndRebalance@QMapDataBase@@QAEXPAUQMapNodeBase@@@Z 004242ec     Qt5Core:Qt5Core.dll
 0002:000002f0       __imp_?recalcMostLeftNode@QMapDataBase@@QAEXXZ 004242f0     Qt5Core:Qt5Core.dll
 0002:000002f4       __imp_?createNode@QMapDataBase@@QAEPAUQMapNodeBase@@HHPAU2@_N@Z 004242f4     Qt5Core:Qt5Core.dll
 0002:000002f8       __imp_?freeTree@QMapDataBase@@QAEXPAUQMapNodeBase@@H@Z 004242f8     Qt5Core:Qt5Core.dll
 0002:000002fc       __imp_?createData@QMapDataBase@@SAPAU1@XZ 004242fc     Qt5Core:Qt5Core.dll
 0002:00000300       __imp_?freeData@QMapDataBase@@SAXPAU1@@Z 00424300     Qt5Core:Qt5Core.dll
 0002:00000304       __imp_?resize@QFile@@UAE_N_J@Z 00424304     Qt5Core:Qt5Core.dll
 0002:00000308       __imp_?resize@QFile@@SA_NABVQString@@_J@Z 00424308     Qt5Core:Qt5Core.dll
 0002:0000030c       __imp_??0QJsonArray@@QAE@XZ 0042430c     Qt5Core:Qt5Core.dll
 0002:00000310       __imp_??4QJsonArray@@QAEAAV0@ABV0@@Z 00424310     Qt5Core:Qt5Core.dll
 0002:00000314       __imp_?at@QJsonArray@@QBE?AVQJsonValue@@H@Z 00424314     Qt5Core:Qt5Core.dll
 0002:00000318       __imp_?append@QJsonArray@@QAEXABVQJsonValue@@@Z 00424318     Qt5Core:Qt5Core.dll
 0002:0000031c       __imp_?begin@QJsonArray@@QAE?AViterator@1@XZ 0042431c     Qt5Core:Qt5Core.dll
 0002:00000320       __imp_?begin@QJsonArray@@QBE?AVconst_iterator@1@XZ 00424320     Qt5Core:Qt5Core.dll
 0002:00000324       __imp_?end@QJsonArray@@QAE?AViterator@1@XZ 00424324     Qt5Core:Qt5Core.dll
 0002:00000328       __imp_?end@QJsonArray@@QBE?AVconst_iterator@1@XZ 00424328     Qt5Core:Qt5Core.dll
 0002:0000032c       __imp_??0QJsonDocument@@QAE@ABVQJsonObject@@@Z 0042432c     Qt5Core:Qt5Core.dll
 0002:00000330       __imp_?toJson@QJsonDocument@@QBE?AVQByteArray@@XZ 00424330     Qt5Core:Qt5Core.dll
 0002:00000334       __imp_??0QCryptographicHash@@QAE@W4Algorithm@0@@Z 00424334     Qt5Core:Qt5Core.dll
 0002:00000338       __imp_??1QCryptographicHash@@QAE@XZ 00424338     Qt5Core:Qt5Core.dll
 0002:0000033c       __imp_?hash@QCryptographicHash@@SA?AVQByteArray@@ABV2@W4Algorithm@1@@Z 0042433c     Qt5Core:Qt5Core.dll
 0002:00000340       __imp_?shared_null@QMapDataBase@@2U1@B 00424340     Qt5Core:Qt5Core.dll
 0002:00000344       __imp_??0QString@@QAE@$$QAV0@@Z 00424344     Qt5Core:Qt5Core.dll
 0002:00000348       __imp_?append@QListData@@QAEPAPAXABU1@@Z 00424348     Qt5Core:Qt5Core.dll
 0002:0000034c       __imp_?insert@QListData@@QAEPAPAXH@Z 0042434c     Qt5Core:Qt5Core.dll
 0002:00000350       __imp_?remove@QListData@@QAEXH@Z 00424350     Qt5Core:Qt5Core.dll
 0002:00000354       __imp_?nextNode@QMapNodeBase@@QBEPBU1@XZ 00424354     Qt5Core:Qt5Core.dll
 0002:00000358       __imp_??1QVariant@@QAE@XZ  00424358     Qt5Core:Qt5Core.dll
 0002:0000035c       __imp_??0QVariant@@QAE@ABVQString@@@Z 0042435c     Qt5Core:Qt5Core.dll
 0002:00000360       __imp_?toInt@QVariant@@QBEHPA_N@Z 00424360     Qt5Core:Qt5Core.dll
 0002:00000364       __imp_?toBool@QVariant@@QBE_NXZ 00424364     Qt5Core:Qt5Core.dll
 0002:00000368       __imp_?toDouble@QVariant@@QBENPA_N@Z 00424368     Qt5Core:Qt5Core.dll
 0002:0000036c       __imp_?toString@QVariant@@QBE?AVQString@@XZ 0042436c     Qt5Core:Qt5Core.dll
 0002:00000370       __imp_??AQJsonArray@@QBE?AVQJsonValue@@H@Z 00424370     Qt5Core:Qt5Core.dll
 0002:00000374       __imp_??6QDebug@@QAEAAV0@ABVQString@@@Z 00424374     Qt5Core:Qt5Core.dll
 0002:00000378       __imp_??0QJsonObject@@QAE@ABV0@@Z 00424378     Qt5Core:Qt5Core.dll
 0002:0000037c       __imp_??9QJsonObject@@QBE_NABV0@@Z 0042437c     Qt5Core:Qt5Core.dll
 0002:00000380       __imp_?currentPath@QDir@@SA?AVQString@@XZ 00424380     Qt5Core:Qt5Core.dll
 0002:00000384       __imp_?qBadAlloc@@YAXXZ    00424384     Qt5Core:Qt5Core.dll
 0002:00000388       __imp_?qInstallMessageHandler@@YAP6AXW4QtMsgType@@ABVQMessageLogContext@@ABVQString@@@ZP6AX012@Z@Z 00424388     Qt5Core:Qt5Core.dll
 0002:0000038c       __imp_??0QChar@@QAE@UQLatin1Char@@@Z 0042438c     Qt5Core:Qt5Core.dll
 0002:00000390       __imp_?reserve@QByteArray@@QAEXH@Z 00424390     Qt5Core:Qt5Core.dll
 0002:00000394       __imp_?append@QByteArray@@QAEAAV1@D@Z 00424394     Qt5Core:Qt5Core.dll
 0002:00000398       __imp_?append@QByteArray@@QAEAAV1@PBD@Z 00424398     Qt5Core:Qt5Core.dll
 0002:0000039c       __imp_?arg@QString@@QBE?AV1@ABV1@HVQChar@@@Z 0042439c     Qt5Core:Qt5Core.dll
 0002:000003a0       __imp_?indexOf@QString@@QBEHVQChar@@HW4CaseSensitivity@Qt@@@Z 004243a0     Qt5Core:Qt5Core.dll
 0002:000003a4       __imp_?startsWith@QString@@QBE_NABV1@W4CaseSensitivity@Qt@@@Z 004243a4     Qt5Core:Qt5Core.dll
 0002:000003a8       __imp_?fromWCharArray@QString@@SA?AV1@PB_WH@Z 004243a8     Qt5Core:Qt5Core.dll
 0002:000003ac       __imp_?className@QMetaObject@@QBEPBDXZ 004243ac     Qt5Core:Qt5Core.dll
 0002:000003b0       __imp_?registerNormalizedType@QMetaType@@SAHABVQByteArray@@P6AXPAX@ZP6APAX1PBX@ZHV?$QFlags@W4TypeFlag@QMetaType@@@@PBUQMetaObject@@@Z 004243b0     Qt5Core:Qt5Core.dll
 0002:000003b4       __imp_?registerNormalizedTypedef@QMetaType@@SAHABVQByteArray@@H@Z 004243b4     Qt5Core:Qt5Core.dll
 0002:000003b8       __imp_?setApplicationName@QCoreApplication@@SAXABVQString@@@Z 004243b8     Qt5Core:Qt5Core.dll
 0002:000003bc       __imp_?installTranslator@QCoreApplication@@SA_NPAVQTranslator@@@Z 004243bc     Qt5Core:Qt5Core.dll
 0002:000003c0       __imp_?quit@QCoreApplication@@SAXXZ 004243c0     Qt5Core:Qt5Core.dll
 0002:000003c4       __imp_??1QLocale@@QAE@XZ   004243c4     Qt5Core:Qt5Core.dll
 0002:000003c8       __imp_?toDouble@QLocale@@QBENABVQString@@PA_N@Z 004243c8     Qt5Core:Qt5Core.dll
 0002:000003cc       __imp_?decimalPoint@QLocale@@QBE?AVQChar@@XZ 004243cc     Qt5Core:Qt5Core.dll
 0002:000003d0       __imp_??0QSize@@QAE@HH@Z   004243d0     Qt5Core:Qt5Core.dll
 0002:000003d4       __imp_??6@YA?AVQDebug@@V0@ABVQSizeF@@@Z 004243d4     Qt5Core:Qt5Core.dll
 0002:000003d8       __imp_??0QUrl@@QAE@ABVQString@@W4ParsingMode@0@@Z 004243d8     Qt5Core:Qt5Core.dll
 0002:000003dc       __imp_??1QUrl@@QAE@XZ      004243dc     Qt5Core:Qt5Core.dll
 0002:000003e0       __imp_??0QTextStream@@QAE@PAVQIODevice@@@Z 004243e0     Qt5Core:Qt5Core.dll
 0002:000003e4       __imp_??1QTextStream@@UAE@XZ 004243e4     Qt5Core:Qt5Core.dll
 0002:000003e8       __imp_??6QTextStream@@QAEAAV0@ABVQString@@@Z 004243e8     Qt5Core:Qt5Core.dll
 0002:000003ec       __imp_?endl@@YAAAVQTextStream@@AAV1@@Z 004243ec     Qt5Core:Qt5Core.dll
 0002:000003f0       __imp_??0QTranslator@@QAE@PAVQObject@@@Z 004243f0     Qt5Core:Qt5Core.dll
 0002:000003f4       __imp_??1QTranslator@@UAE@XZ 004243f4     Qt5Core:Qt5Core.dll
 0002:000003f8       __imp_?load@QTranslator@@QAE_NABVQString@@000@Z 004243f8     Qt5Core:Qt5Core.dll
 0002:000003fc       __imp_?toString@QTime@@QBE?AVQString@@W4DateFormat@Qt@@@Z 004243fc     Qt5Core:Qt5Core.dll
 0002:00000400       __imp_?currentTime@QTime@@SA?AV1@XZ 00424400     Qt5Core:Qt5Core.dll
 0002:00000404       __imp_?cast@QMetaObject@@QBEPAVQObject@@PAV2@@Z 00424404     Qt5Core:Qt5Core.dll
 0002:00000408       __imp_?installEventFilter@QObject@@QAEXPAV1@@Z 00424408     Qt5Core:Qt5Core.dll
 0002:0000040c       __imp_?removeEventFilter@QObject@@QAEXPAV1@@Z 0042440c     Qt5Core:Qt5Core.dll
 0002:00000410       \177Qt5Core_NULL_THUNK_DATA 00424410     Qt5Core:Qt5Core.dll
 0002:00000414       __imp_?setMinimumSize@QWindow@@QAEXABVQSize@@@Z 00424414     Qt5Gui:Qt5Gui.dll
 0002:00000418       __imp_?show@QWindow@@QAEXXZ 00424418     Qt5Gui:Qt5Gui.dll
 0002:0000041c       __imp_?locale@QValidator@@QBE?AVQLocale@@XZ 0042441c     Qt5Gui:Qt5Gui.dll
 0002:00000420       __imp_??0QDoubleValidator@@QAE@PAVQObject@@@Z 00424420     Qt5Gui:Qt5Gui.dll
 0002:00000424       __imp_??1QDoubleValidator@@UAE@XZ 00424424     Qt5Gui:Qt5Gui.dll
 0002:00000428       __imp_?addApplicationFont@QFontDatabase@@SAHABVQString@@@Z 00424428     Qt5Gui:Qt5Gui.dll
 0002:0000042c       __imp_?physicalSize@QScreen@@QBE?AVQSizeF@@XZ 0042442c     Qt5Gui:Qt5Gui.dll
 0002:00000430       __imp_?fixup@QValidator@@UBEXAAVQString@@@Z 00424430     Qt5Gui:Qt5Gui.dll
 0002:00000434       __imp_??0QGuiApplication@@QAE@AAHPAPADH@Z 00424434     Qt5Gui:Qt5Gui.dll
 0002:00000438       __imp_??1QGuiApplication@@UAE@XZ 00424438     Qt5Gui:Qt5Gui.dll
 0002:0000043c       __imp_?setFont@QGuiApplication@@SAXABVQFont@@@Z 0042443c     Qt5Gui:Qt5Gui.dll
 0002:00000440       __imp_?exec@QGuiApplication@@SAHXZ 00424440     Qt5Gui:Qt5Gui.dll
 0002:00000444       __imp_??0QFont@@QAE@XZ     00424444     Qt5Gui:Qt5Gui.dll
 0002:00000448       __imp_??1QFont@@QAE@XZ     00424448     Qt5Gui:Qt5Gui.dll
 0002:0000044c       __imp_?setFamily@QFont@@QAEXABVQString@@@Z 0042444c     Qt5Gui:Qt5Gui.dll
 0002:00000450       __imp_?staticMetaObject@QDoubleValidator@@2UQMetaObject@@B 00424450     Qt5Gui:Qt5Gui.dll
 0002:00000454       __imp_?setRange@QDoubleValidator@@UAEXNNH@Z 00424454     Qt5Gui:Qt5Gui.dll
 0002:00000458       __imp_?qt_metacast@QDoubleValidator@@UAEPAXPBD@Z 00424458     Qt5Gui:Qt5Gui.dll
 0002:0000045c       __imp_?qt_metacall@QDoubleValidator@@UAEHW4Call@QMetaObject@@HPAPAX@Z 0042445c     Qt5Gui:Qt5Gui.dll
 0002:00000460       __imp_?metaObject@QDoubleValidator@@UBEPBUQMetaObject@@XZ 00424460     Qt5Gui:Qt5Gui.dll
 0002:00000464       __imp_?screen@QWindow@@QBEPAVQScreen@@XZ 00424464     Qt5Gui:Qt5Gui.dll
 0002:00000468       \177Qt5Gui_NULL_THUNK_DATA 00424468     Qt5Gui:Qt5Gui.dll
 0002:0000046c       __imp_??0QHostAddress@@QAE@ABVQString@@@Z 0042446c     Qt5Network:Qt5Network.dll
 0002:00000470       __imp_??1QHostAddress@@QAE@XZ 00424470     Qt5Network:Qt5Network.dll
 0002:00000474       __imp_??0QNetworkProxy@@QAE@W4ProxyType@0@ABVQString@@G11@Z 00424474     Qt5Network:Qt5Network.dll
 0002:00000478       __imp_??1QNetworkProxy@@QAE@XZ 00424478     Qt5Network:Qt5Network.dll
 0002:0000047c       __imp_??1QTcpSocket@@UAE@XZ 0042447c     Qt5Network:Qt5Network.dll
 0002:00000480       __imp_??0QTcpSocket@@QAE@PAVQObject@@@Z 00424480     Qt5Network:Qt5Network.dll
 0002:00000484       __imp_?setProxy@QAbstractSocket@@QAEXABVQNetworkProxy@@@Z 00424484     Qt5Network:Qt5Network.dll
 0002:00000488       \177Qt5Network_NULL_THUNK_DATA 00424488     Qt5Network:Qt5Network.dll
 0002:0000048c       __imp_?setContextProperty@QQmlContext@@QAEXABVQString@@ABVQVariant@@@Z 0042448c     Qt5Qml:Qt5Qml.dll
 0002:00000490       __imp_?qdeclarativeelement_destructor@QQmlPrivate@@YAXPAVQObject@@@Z 00424490     Qt5Qml:Qt5Qml.dll
 0002:00000494       __imp_?qmlregister@QQmlPrivate@@YAHW4RegistrationType@1@PAX@Z 00424494     Qt5Qml:Qt5Qml.dll
 0002:00000498       __imp_?quit@QQmlEngine@@QAEXXZ 00424498     Qt5Qml:Qt5Qml.dll
 0002:0000049c       __imp_?staticMetaObject@QQmlEngine@@2UQMetaObject@@B 0042449c     Qt5Qml:Qt5Qml.dll
 0002:000004a0       __imp_?setContextProperty@QQmlContext@@QAEXABVQString@@PAVQObject@@@Z 004244a0     Qt5Qml:Qt5Qml.dll
 0002:000004a4       \177Qt5Qml_NULL_THUNK_DATA 004244a4     Qt5Qml:Qt5Qml.dll
 0002:000004a8       __imp_?setSource@QQuickView@@QAEXABVQUrl@@@Z 004244a8     Qt5Quick:Qt5Quick.dll
 0002:000004ac       __imp_?setResizeMode@QQuickView@@QAEXW4ResizeMode@1@@Z 004244ac     Qt5Quick:Qt5Quick.dll
 0002:000004b0       __imp_?rootContext@QQuickView@@QBEPAVQQmlContext@@XZ 004244b0     Qt5Quick:Qt5Quick.dll
 0002:000004b4       __imp_?engine@QQuickView@@QBEPAVQQmlEngine@@XZ 004244b4     Qt5Quick:Qt5Quick.dll
 0002:000004b8       __imp_??1QQuickView@@UAE@XZ 004244b8     Qt5Quick:Qt5Quick.dll
 0002:000004bc       __imp_??0QQuickView@@QAE@PAVQWindow@@@Z 004244bc     Qt5Quick:Qt5Quick.dll
 0002:000004c0       \177Qt5Quick_NULL_THUNK_DATA 004244c0     Qt5Quick:Qt5Quick.dll
 0002:000004c4       __imp__CommandLineToArgvW@8 004244c4     shell32:SHELL32.dll
 0002:000004c8       \177SHELL32_NULL_THUNK_DATA 004244c8     shell32:SHELL32.dll
 0002:000004cc       __imp__memcpy              004244cc     vcruntime:VCRUNTIME140.dll
 0002:000004d0       __imp____RTDynamicCast     004244d0     vcruntime:VCRUNTIME140.dll
 0002:000004d4       __imp____vcrt_InitializeCriticalSectionEx 004244d4     vcruntime:VCRUNTIME140.dll
 0002:000004d8       __imp____std_exception_copy 004244d8     vcruntime:VCRUNTIME140.dll
 0002:000004dc       __imp____std_exception_destroy 004244dc     vcruntime:VCRUNTIME140.dll
 0002:000004e0       __imp__memset              004244e0     vcruntime:VCRUNTIME140.dll
 0002:000004e4       __imp___except_handler4_common 004244e4     vcruntime:VCRUNTIME140.dll
 0002:000004e8       __imp___CxxThrowException@8 004244e8     vcruntime:VCRUNTIME140.dll
 0002:000004ec       __imp____CxxFrameHandler3  004244ec     vcruntime:VCRUNTIME140.dll
 0002:000004f0       __imp____std_terminate     004244f0     vcruntime:VCRUNTIME140.dll
 0002:000004f4       \177VCRUNTIME140_NULL_THUNK_DATA 004244f4     vcruntime:VCRUNTIME140.dll
 0002:000004f8       __imp___callnewh           004244f8     ucrt:api-ms-win-crt-heap-l1-1-0.dll
 0002:000004fc       __imp__malloc              004244fc     ucrt:api-ms-win-crt-heap-l1-1-0.dll
 0002:00000500       __imp___set_new_mode       00424500     ucrt:api-ms-win-crt-heap-l1-1-0.dll
 0002:00000504       __imp__free                00424504     ucrt:api-ms-win-crt-heap-l1-1-0.dll
 0002:00000508       \177api-ms-win-crt-heap-l1-1-0_NULL_THUNK_DATA 00424508     ucrt:api-ms-win-crt-heap-l1-1-0.dll
 0002:0000050c       __imp___configthreadlocale 0042450c     ucrt:api-ms-win-crt-locale-l1-1-0.dll
 0002:00000510       \177api-ms-win-crt-locale-l1-1-0_NULL_THUNK_DATA 00424510     ucrt:api-ms-win-crt-locale-l1-1-0.dll
 0002:00000514       __imp____setusermatherr    00424514     ucrt:api-ms-win-crt-math-l1-1-0.dll
 0002:00000518       \177api-ms-win-crt-math-l1-1-0_NULL_THUNK_DATA 00424518     ucrt:api-ms-win-crt-math-l1-1-0.dll
 0002:0000051c       __imp___cexit              0042451c     ucrt:api-ms-win-crt-runtime-l1-1-0.dll
 0002:00000520       __imp___seh_filter_exe     00424520     ucrt:api-ms-win-crt-runtime-l1-1-0.dll
 0002:00000524       __imp___set_app_type       00424524     ucrt:api-ms-win-crt-runtime-l1-1-0.dll
 0002:00000528       __imp___crt_atexit         00424528     ucrt:api-ms-win-crt-runtime-l1-1-0.dll
 0002:0000052c       __imp___get_narrow_winmain_command_line 0042452c     ucrt:api-ms-win-crt-runtime-l1-1-0.dll
 0002:00000530       __imp___initterm_e         00424530     ucrt:api-ms-win-crt-runtime-l1-1-0.dll
 0002:00000534       __imp__exit                00424534     ucrt:api-ms-win-crt-runtime-l1-1-0.dll
 0002:00000538       __imp___exit               00424538     ucrt:api-ms-win-crt-runtime-l1-1-0.dll
 0002:0000053c       __imp___register_onexit_function 0042453c     ucrt:api-ms-win-crt-runtime-l1-1-0.dll
 0002:00000540       __imp___c_exit             00424540     ucrt:api-ms-win-crt-runtime-l1-1-0.dll
 0002:00000544       __imp___register_thread_local_exe_atexit_callback 00424544     ucrt:api-ms-win-crt-runtime-l1-1-0.dll
 0002:00000548       __imp___initialize_onexit_table 00424548     ucrt:api-ms-win-crt-runtime-l1-1-0.dll
 0002:0000054c       __imp___initialize_narrow_environment 0042454c     ucrt:api-ms-win-crt-runtime-l1-1-0.dll
 0002:00000550       __imp___configure_narrow_argv 00424550     ucrt:api-ms-win-crt-runtime-l1-1-0.dll
 0002:00000554       __imp__terminate           00424554     ucrt:api-ms-win-crt-runtime-l1-1-0.dll
 0002:00000558       __imp___controlfp_s        00424558     ucrt:api-ms-win-crt-runtime-l1-1-0.dll
 0002:0000055c       __imp___initterm           0042455c     ucrt:api-ms-win-crt-runtime-l1-1-0.dll
 0002:00000560       __imp__abort               00424560     ucrt:api-ms-win-crt-runtime-l1-1-0.dll
 0002:00000564       \177api-ms-win-crt-runtime-l1-1-0_NULL_THUNK_DATA 00424564     ucrt:api-ms-win-crt-runtime-l1-1-0.dll
 0002:00000568       __imp____p__commode        00424568     ucrt:api-ms-win-crt-stdio-l1-1-0.dll
 0002:0000056c       __imp___set_fmode          0042456c     ucrt:api-ms-win-crt-stdio-l1-1-0.dll
 0002:00000570       \177api-ms-win-crt-stdio-l1-1-0_NULL_THUNK_DATA 00424570     ucrt:api-ms-win-crt-stdio-l1-1-0.dll
 0002:00000574       __imp__MiniDumpWriteDump@28 00424574     DbgHelp:dbghelp.dll
 0002:00000578       \177dbghelp_NULL_THUNK_DATA 00424578     DbgHelp:dbghelp.dll
 0002:0000057c       ___guard_check_icall_fptr  0042457c     MSVCRT:guard_support.obj
 0002:00000580       ___xc_a                    00424580     MSVCRT:initializers.obj
 0002:000005cc       ___xc_z                    004245cc     MSVCRT:initializers.obj
 0002:000005d0       ___xi_a                    004245d0     MSVCRT:initializers.obj
 0002:000005e0       ___xi_z                    004245e0     MSVCRT:initializers.obj
 0002:000005e4       ___xl_a                    004245e4     MSVCRT:tlssup.obj
 0002:000005e8       ___xl_z                    004245e8     MSVCRT:tlssup.obj
 0002:000005ec       ___xp_a                    004245ec     MSVCRT:initializers.obj
 0002:000005f0       ___xp_z                    004245f0     MSVCRT:initializers.obj
 0002:000005f4       ___xt_a                    004245f4     MSVCRT:initializers.obj
 0002:000005f8       ___xt_z                    004245f8     MSVCRT:initializers.obj
 0002:00000600       ??_C@_0BE@OBLKMDCI@socket?5write?5error?$CB?$AA@ 00424600     communication.obj
 0002:00000614       ??_C@_0BD@BGMNJBEK@socket?5read?5error?$CB?$AA@ 00424614     communication.obj
 0002:00000627       ??_C@_00CNPNBAHC@?$AA@     00424627     workflowprotocol.obj
 0002:0000062c       ??_7SubThreadWorker@@6B@   0042462c     workflowprotocol.obj
 0002:0000065c       ??_7WorkflowController@@6B@ 0042465c     workflowprotocol.obj
 0002:0000068c       ??_7StatusChangeEvent@@6B@ 0042468c     workflowprotocol.obj
 0002:00000694       ??_7RunningStateChangeEvent@@6B@ 00424694     workflowprotocol.obj
 0002:00000698       ??_C@_0BL@HDECHFNK@Couldn?8t?5open?5config?5file?4?$AA@ 00424698     workflowprotocol.obj
 0002:000006b4       ??_C@_08NAKOFPNG@Protocol?$AA@ 004246b4     workflowprotocol.obj
 0002:000006c0       ??_C@_0M@NNEGCPOA@send?5buffer?$AA@ 004246c0     workflowprotocol.obj
 0002:000006cc       ??_C@_09BOOHIMDB@operation?$AA@ 004246cc     workflowprotocol.obj
 0002:000006d8       ??_C@_04PJOLNDGD@data?$AA@ 004246d8     workflowprotocol.obj
 0002:000006e0       ??_C@_06JMGHNNK@params?$AA@ 004246e0     workflowprotocol.obj
 0002:000006e8       ??_C@_09NKOPJPKG@byte?5size?$AA@ 004246e8     workflowprotocol.obj
 0002:000006f4       ??_C@_08IBBDGPOF@sequence?$AA@ 004246f4     workflowprotocol.obj
 0002:00000700       ??_C@_09MOEBNLDL@ackResult?$AA@ 00424700     workflowprotocol.obj
 0002:0000070c       ??_C@_0BI@LHNHBKK@recv?5head?5code?5error?5?$CFd?$AA@ 0042470c     workflowprotocol.obj
 0002:00000724       ??_C@_0BK@JEOIEKEG@recv?5length?5code?5error?5?$CFd?$AA@ 00424724     workflowprotocol.obj
 0002:00000740       ??_C@_0P@HBMDFJEL@maxReceiveTime?$AA@ 00424740     workflowprotocol.obj
 0002:00000750       ??_C@_0L@FFNCMNID@operations?$AA@ 00424750     workflowprotocol.obj
 0002:0000075c       ??_C@_0L@KCLLKANI@startIndex?$AA@ 0042475c     workflowprotocol.obj
 0002:00000768       ??_C@_05FAGFPHJG@start?$AA@ 00424768     workflowprotocol.obj
 0002:00000770       ??_C@_05PDJBBECF@pause?$AA@ 00424770     workflowprotocol.obj
 0002:00000778       ??_C@_09OKOOLBCO@WaitArray?$AA@ 00424778     workflowprotocol.obj
 0002:00000784       ??_C@_04KLCPKPBE@Loop?$AA@ 00424784     workflowprotocol.obj
 0002:0000078c       ??_C@_07CBLODBBN@EndLoop?$AA@ 0042478c     workflowprotocol.obj
 0002:00000794       ??_C@_08OAGMDKAF@position?$AA@ 00424794     workflowprotocol.obj
 0002:000007a0       ??_C@_04MIIPNNEF@send?$AA@ 004247a0     workflowprotocol.obj
 0002:000007a8       ??_C@_03JBLJHHJA@ack?$AA@  004247a8     workflowprotocol.obj
 0002:000007ac       ??_C@_0BB@FNMNOOKH@newOperationItem?$AA@ 004247ac     workflowprotocol.obj
 0002:000007c0       ??_C@_0P@LBPHMCAN@logicalCommand?$AA@ 004247c0     workflowprotocol.obj
 0002:000007d0       ??_C@_09KFLDLCPO@waitArray?$AA@ 004247d0     workflowprotocol.obj
 0002:000007dc       ??_C@_08DNGBEGEF@waitting?$AA@ 004247dc     workflowprotocol.obj
 0002:000007e8       ??_C@_0O@MCDPFKNP@waitPermanent?$AA@ 004247e8     workflowprotocol.obj
 0002:000007f8       ??_C@_09HGICMNBG@loopCount?$AA@ 004247f8     workflowprotocol.obj
 0002:00000804       ??_C@_0BA@EAIKJHPJ@remainLoopCount?$AA@ 00424804     workflowprotocol.obj
 0002:00000814       ??_C@_08MMNALFJK@waitTime?$AA@ 00424814     workflowprotocol.obj
 0002:00000820       ??_C@_09BIJECFAI@permanent?$AA@ 00424820     workflowprotocol.obj
 0002:0000082c       ??_C@_0L@KLGDOJIH@cycleCount?$AA@ 0042482c     workflowprotocol.obj
 0002:00000838       ??_C@_07PANPENDC@running?$AA@ 00424838     workflowprotocol.obj
 0002:00000840       ??_C@_0O@IBBMKKDB@client?5write?5?$AA@ 00424840     workflowprotocol.obj
 0002:00000850       ??_C@_06LCIDCBMH@?5bytes?$AA@ 00424850     workflowprotocol.obj
 0002:00000858       ??_C@_08LGEOGOAO@recv?5ack?$AA@ 00424858     workflowprotocol.obj
 0002:00000864       ??_C@_0BH@JPFKMKFK@worker?5thread?5is?5dead?4?$AA@ 00424864     workflowprotocol.obj
 0002:0000087c       ??_C@_04DDKJGDCM@bool?$AA@ 0042487c     configfilehandler.obj
 0002:00000884       ??_C@_05KNFBNCOH@float?$AA@ 00424884     configfilehandler.obj
 0002:0000088c       ??_C@_07DLHCIBDH@default?$AA@ 0042488c     configfilehandler.obj
 0002:00000898       ??_7configFileHandler@@6B@ 00424898     configfilehandler.obj
 0002:000008c4       ??_C@_09GNDDCBKJ@workPlace?$AA@ 004248c4     configfilehandler.obj
 0002:000008d0       ??_C@_07GCCODDFC@display?$AA@ 004248d0     configfilehandler.obj
 0002:000008d8       ??_C@_06LNLHEAAG@height?$AA@ 004248d8     configfilehandler.obj
 0002:000008e0       ??_C@_04GPMDFGEJ@type?$AA@ 004248e0     configfilehandler.obj
 0002:000008e8       ??_C@_04DBJPMPLO@enum?$AA@ 004248e8     configfilehandler.obj
 0002:000008f0       ??_C@_09EJEMLHI@valueEnum?$AA@ 004248f0     configfilehandler.obj
 0002:000008fc       ??_C@_06DOPOGBGP@switch?$AA@ 004248fc     configfilehandler.obj
 0002:00000904       ??_C@_04NPEDKLDA@unit?$AA@ 00424904     configfilehandler.obj
 0002:0000090c       ??_C@_0M@HHONEJAF@bottomValue?$AA@ 0042490c     configfilehandler.obj
 0002:00000918       ??_C@_08BENPNDEB@topValue?$AA@ 00424918     configfilehandler.obj
 0002:00000924       ??_C@_0N@NOBEDAGF@revertSwitch?$AA@ 00424924     configfilehandler.obj
 0002:00000934       ??_C@_09CJLBFAHF@boardType?$AA@ 00424934     configfilehandler.obj
 0002:00000940       ??_C@_06JJLAMBGK@target?$AA@ 00424940     configfilehandler.obj
 0002:00000948       ??_C@_02MFEOMNPG@IP?$AA@   00424948     configfilehandler.obj
 0002:0000094c       ??_C@_04LPGMAPLE@port?$AA@ 0042494c     configfilehandler.obj
 0002:00000954       ??_C@_04DJEEHKI@plan?$AA@  00424954     configfilehandler.obj
 0002:0000095c       ??_C@_04MEMAJGDJ@name?$AA@ 0042495c     configfilehandler.obj
 0002:00000964       ??_C@_09EOLHCJIE@workSpace?$AA@ 00424964     configfilehandler.obj
 0002:00000970       ??_C@_07LKHFMGFB@integer?$AA@ 00424970     configfilehandler.obj
 0002:00000978       ??_C@_06ICGJLFIM@string?$AA@ 00424978     configfilehandler.obj
 0002:00000980       ??_C@_0BB@BFELOPJA@configFile?5error?$AA@ 00424980     configfilehandler.obj
 0002:00000994       ??_C@_0P@BDPDOPPG@sequenceNumber?$AA@ 00424994     configfilehandler.obj
 0002:000009a4       ??_C@_07EJMBNAEG@license?$AA@ 004249a4     configfilehandler.obj
 0002:000009ac       ??_C@_0BC@HKDHNPHM@import?5file?5error?$AA@ 004249ac     configfilehandler.obj
 0002:000009c0       ??_C@_0BE@IINACLHP@import?5config?5error?$AA@ 004249c0     configfilehandler.obj
 0002:000009d4       ??_C@_0BC@IFDBNDIH@export?5file?5error?$AA@ 004249d4     configfilehandler.obj
 0002:000009e8       ??_C@_0L@MIIIJLIA@plan?5name?0?$AA@ 004249e8     configfilehandler.obj
 0002:000009f4       ??_C@_02PCIJFNDE@?$AN?6?$AA@ 004249f4     configfilehandler.obj
 0002:000009f8       ??_C@_07FPDOJGBJ@params?0?$AA@ 004249f8     configfilehandler.obj
 0002:00000a00       ??_C@_0L@NIANKKKE@plan?5end?$AN?6?$AA@ 00424a00     configfilehandler.obj
 0002:00000a0c       ??_C@_06HEJKKHEK@config?$AA@ 00424a0c     configfilehandler.obj
 0002:00000a14       ??_C@_0BB@JCJKPLDM@work?5space?5name?0?$AA@ 00424a14     configfilehandler.obj
 0002:00000a28       ??_C@_0BD@LJNEKDB@work?5space?5end?$AN?6?$AN?6?$AA@ 00424a28     configfilehandler.obj
 0002:00000a3c       ??_C@_0BA@HKKNMLCP@work?5space?5name?$AA@ 00424a3c     configfilehandler.obj
 0002:00000a4c       ??_C@_0P@PHNGGJCJ@work?5space?5end?$AA@ 00424a4c     configfilehandler.obj
 0002:00000a5c       ??_C@_05IOMEMJEC@count?$AA@ 00424a5c     configfilehandler.obj
 0002:00000a64       ??_C@_01LIIJDEN@?$AN?$AA@  00424a64     configfilehandler.obj
 0002:00000a68       ??_C@_07LKPDDKMO@current?$AA@ 00424a68     configfilehandler.obj
 0002:00000a70       ??_C@_09GNBCGMNB@plan?5name?$AA@ 00424a70     configfilehandler.obj
 0002:00000a7c       ??_C@_08PPMPNELH@plan?5end?$AA@ 00424a7c     configfilehandler.obj
 0002:00000a8c       ??_7TargetMachineObject@@6B@ 00424a8c     environmentvariant.obj
 0002:00000abc       ??_7ConfigFileConverter@@6B@ 00424abc     environmentvariant.obj
 0002:00000aec       ??_7AdministratorChecker@@6B@ 00424aec     environmentvariant.obj
 0002:00000b1c       ??_7EnvironmentVariant@@6B@ 00424b1c     environmentvariant.obj
 0002:00000b48       ??_C@_0O@EPGPLFOI@OperationEnum?$AA@ 00424b48     environmentvariant.obj
 0002:00000b58       ??_C@_0BD@DLJJAAOH@LogicalControlEnum?$AA@ 00424b58     environmentvariant.obj
 0002:00000b6c       ??_C@_0BA@ONCGMDLN@NormalOperation?$AA@ 00424b6c     environmentvariant.obj
 0002:00000b7c       ??_C@_0P@NBCEFNBO@logicalControl?$AA@ 00424b7c     environmentvariant.obj
 0002:00000b8c       ??_C@_0BH@PKBKIKLO@Operation?5Display?5Name?$AA@ 00424b8c     environmentvariant.obj
 0002:00000ba4       ??_C@_0BE@IJFDOJFA@machineConfigObject?$AA@ 00424ba4     environmentvariant.obj
 0002:00000bb8       ??_C@_0BF@KNFIPKEB@administratorChecker?$AA@ 00424bb8     environmentvariant.obj
 0002:00000bd0       ??_C@_0BB@JCFKEAJN@currentDirectory?$AA@ 00424bd0     environmentvariant.obj
 0002:00000be4       ??_C@_0BE@KDINPMFG@configFileConverter?$AA@ 00424be4     environmentvariant.obj
 0002:00000bf8       ??_C@_05MBDCODDP@Group?$AA@ 00424bf8     environmentvariant.obj
 0002:00000c00       ??_C@_09DOCDJBIG@GroupName?$AA@ 00424c00     environmentvariant.obj
 0002:00000c0c       ??_C@_01LBDDMOBJ@?$FN?$AA@ 00424c0c     environmentvariant.obj
 0002:00000c10       ??_C@_01OHGJGJJP@?$FL?$AA@ 00424c10     environmentvariant.obj
 0002:00000c14       ??_C@_02KHOJGJKF@?4?5?$AA@ 00424c14     environmentvariant.obj
 0002:00000c18       ??_C@_0M@OOAKDNPC@boardConfig?$AA@ 00424c18     environmentvariant.obj
 0002:00000c24       ??_C@_0BE@DGFEDFOF@Import?5config?5file?5?$AA@ 00424c24     environmentvariant.obj
 0002:00000c38       ??_C@_0BE@MIKKLOLO@Export?5config?5file?5?$AA@ 00424c38     environmentvariant.obj
 0002:00000c50       __real@3fe0000000000000    00424c50     environmentvariant.obj
 0002:00000c58       __real@3ff0000000000000    00424c58     environmentvariant.obj
 0002:00000c60       __real@4024000000000000    00424c60     environmentvariant.obj
 0002:00000c6c       ??_7OperationParamObject@@6B@ 00424c6c     main.obj
 0002:00000c98       ??_C@_01JOAMLHOP@?9?$AA@   00424c98     main.obj
 0002:00000c9c       ??_C@_1CE@ELGCFHOO@?$AAM?$AAi?$AAn?$AAd?$AAG?$AAo?$AAP?$AAr?$AAo?$AAj?$AAe?$AAc?$AAt?$AA?4?$AAd?$AAm?$AAp?$AA?$AA@ 00424c9c     main.obj
 0002:00000cc0       ??_C@_09BHMHBPLA@Debug?3?5?$CF1?$AA@ 00424cc0     main.obj
 0002:00000ccc       ??_C@_0M@IJCKPDBC@Warning?3?5?$CF1?$AA@ 00424ccc     main.obj
 0002:00000cd8       ??_C@_0N@KDKNECFL@Critical?3?5?$CF1?$AA@ 00424cd8     main.obj
 0002:00000ce8       ??_C@_09NFMOODD@Fatal?3?5?$CF1?$AA@ 00424ce8     main.obj
 0002:00000cf4       ??_C@_0BH@BFFDAMFM@?4?1customMessageLog?4txt?$AA@ 00424cf4     main.obj
 0002:00000d0c       ??_C@_0BN@CBPGFKKM@?4?1UserInterfaceLayer?1config?1?$AA@ 00424d0c     main.obj
 0002:00000d2c       ??_C@_06FFAPGJBP@Mindgo?$AA@ 00424d2c     main.obj
 0002:00000d34       ??_C@_05CDNCCFAE@cn?4qm?$AA@ 00424d34     main.obj
 0002:00000d3c       ??_C@_0BJ@PPJBDKBL@TextFieldDoubleValidator?$AA@ 00424d3c     main.obj
 0002:00000d58       ??_C@_06POMJKEPM@Common?$AA@ 00424d58     main.obj
 0002:00000d60       ??_C@_0BF@MDNPPLPL@OperationParamObject?$AA@ 00424d60     main.obj
 0002:00000d78       ??_C@_0BH@KAEEMKBC@OperationParamSelector?$AA@ 00424d78     main.obj
 0002:00000d90       ??_C@_0N@CJJLBEJF@PlanSelector?$AA@ 00424d90     main.obj
 0002:00000da0       ??_C@_0BC@EJFMECEB@StatusViewWatcher?$AA@ 00424da0     main.obj
 0002:00000db4       ??_C@_0P@DNBEODGJ@PlanController?$AA@ 00424db4     main.obj
 0002:00000dc4       ??_C@_0BE@BOCKBJNI@WorkLocationManager?$AA@ 00424dc4     main.obj
 0002:00000dd8       ??_C@_0L@LGGNKCBK@FZHTJW?4TTF?$AA@ 00424dd8     main.obj
 0002:00000de4       ??_C@_1O@HOPADHDO@e?$LJkc?$JO?QOS?$HL?$IAOS?$AA?$AA@ 00424de4     main.obj
 0002:00000df4       ??_C@_0BF@BIMDPFDG@OperationParams?4json?$AA@ 00424df4     main.obj
 0002:00000e0c       ??_C@_0BA@KONLPFIC@UserConfig?4json?$AA@ 00424e0c     main.obj
 0002:00000e1c       ??_C@_0O@OIFOOOJE@Protocol?4json?$AA@ 00424e1c     main.obj
 0002:00000e2c       ??_C@_0BI@PMHOFPKJ@qrc?3?1MainNoKeyboard?4qml?$AA@ 00424e2c     main.obj
 0002:00000e44       ??_C@_0BC@HDKLEFKN@QQmlListProperty?$DM?$AA@ 00424e44     main.obj
 0002:00000e5c       ??_7?$QQmlElement@VTextFieldDoubleValidator@@@QQmlPrivate@@6B@ 00424e5c     main.obj
 0002:00000e98       ??_7?$QQmlElement@VOperationParamObject@@@QQmlPrivate@@6B@ 00424e98     main.obj
 0002:00000ec8       ??_7?$QQmlElement@VOperationParamSelector@@@QQmlPrivate@@6B@ 00424ec8     main.obj
 0002:00000ef8       ??_7?$QQmlElement@VPlanSelector@@@QQmlPrivate@@6B@ 00424ef8     main.obj
 0002:00000f28       ??_7?$QQmlElement@VStatusViewWatcher@@@QQmlPrivate@@6B@ 00424f28     main.obj
 0002:00000f58       ??_7?$QQmlElement@VPlanController@@@QQmlPrivate@@6B@ 00424f58     main.obj
 0002:00000f88       ??_7?$QQmlElement@VWorkLocationManager@@@QQmlPrivate@@6B@ 00424f88     main.obj
 0002:00000fc0       __xmm@ffffffffffffffffffffffff00000000 00424fc0     main.obj
 0002:00000fd0       ??_C@_0P@FAFDOLML@OperationModel?$AA@ 00424fd0     workmodels.obj
 0002:00000fe0       ??_C@_0L@GBCCCODA@ParamModel?$AA@ 00424fe0     workmodels.obj
 0002:00000ff0       ??_7OperationParamSelector@@6B@ 00424ff0     workmodels.obj
 0002:00001020       ??_7PlanSelector@@6B@      00425020     workmodels.obj
 0002:00001050       ??_7PlanController@@6B@    00425050     workmodels.obj
 0002:00001080       ??_7StatusViewWatcher@@6B@ 00425080     workmodels.obj
 0002:000010b0       ??_7WorkLocationManager@@6B@ 004250b0     workmodels.obj
 0002:000010dc       ??_C@_0P@FJOBGDIA@LogicalControl?$AA@ 004250dc     workmodels.obj
 0002:000010f0       ??_7SubThreadCheckWorker@@6B@ 004250f0     workflowChecker.obj
 0002:00001120       ??_7WorkflowCheckerController@@6B@ 00425120     workflowChecker.obj
 0002:00001150       ??_7CheckStateChangeEvent@@6B@ 00425150     workflowChecker.obj
 0002:00001154       ??_C@_08LCGAPFCF@progress?$AA@ 00425154     workflowChecker.obj
 0002:00001160       ??_C@_05IDFCDDHI@allow?$AA@ 00425160     workflowChecker.obj
 0002:00001168       ??_C@_03JBJLGPFL@end?$AA@  00425168     workflowChecker.obj
 0002:0000116c       ??_C@_09NKECEHCI@errorStep?$AA@ 0042516c     workflowChecker.obj
 0002:00001178       ??_C@_0BA@GOLOGDMK@Relative?5Motion?$AA@ 00425178     workflowChecker.obj
 0002:00001188       ??_C@_0P@GMEODIAO@Syringe?5Motion?$AA@ 00425188     workflowChecker.obj
 0002:00001198       ??_C@_05CCGMLFNG@Reset?$AA@ 00425198     workflowChecker.obj
 0002:000011a0       ??_C@_09LPMGFJMK@XY?5Motion?$AA@ 004251a0     workflowChecker.obj
 0002:000011ac       ??_C@_0O@DMANMCIJ@Machine?5Reset?$AA@ 004251ac     workflowChecker.obj
 0002:000011bc       ??_C@_0N@EFMGIJMM@startTrigger?$AA@ 004251bc     workflowChecker.obj
 0002:000011cc       ??_C@_05MFEJDJP@value?$AA@ 004251cc     workflowChecker.obj
 0002:000011d4       ??_C@_0L@CAMMIEPG@endTrigger?$AA@ 004251d4     workflowChecker.obj
 0002:000011e0       ??_C@_0L@EBBJHIEI@comboJudge?$AA@ 004251e0     workflowChecker.obj
 0002:000011ec       ??_C@_0L@HOHHMJMM@constraint?$AA@ 004251ec     workflowChecker.obj
 0002:0004f8c0       ??_C@_0CL@GGBGAILI@QtMetaTypePrivate?3?3QSequentialIt@ 004738c0     moc_workmodels.obj
 0002:0004f8ec       ??_C@_0BA@CGOONFIM@QList?$DMQObject?$CK?$DO?$AA@ 004738ec     moc_workmodels.obj
 0002:0004f8fc       ??_C@_0BD@GAKEODHA@OperationParamData?$AA@ 004738fc     moc_workmodels.obj
 0002:0004f910       ??_C@_0BC@DJJLAPLC@MachineConfigData?$AA@ 00473910     moc_workmodels.obj
 0002:0004f924       ??_C@_05EPCGOCDE@QList?$AA@ 00473924     moc_workmodels.obj
 0002:0004f930       __real@3f1a36e2eb1c432d    00473930     moc_workmodels.obj
 0002:0004f940       __xmm@7fffffffffffffff7fffffffffffffff 00473940     moc_workmodels.obj
 0002:0004f950       ??_C@_1BK@MGMFAEKH@?$AAk?$AAe?$AAr?$AAn?$AAe?$AAl?$AA3?$AA2?$AA?4?$AAd?$AAl?$AAl?$AA?$AA@ 00473950     MSVCRT:thread_safe_statics.obj
 0002:0004f96c       ??_C@_0BM@HLJJNPAH@InitializeConditionVariable?$AA@ 0047396c     MSVCRT:thread_safe_statics.obj
 0002:0004f988       ??_C@_0BJ@JEBJOJFJ@SleepConditionVariableCS?$AA@ 00473988     MSVCRT:thread_safe_statics.obj
 0002:0004f9a4       ??_C@_0BJ@PGPPEPCC@WakeAllConditionVariable?$AA@ 004739a4     MSVCRT:thread_safe_statics.obj
 0002:0004f9c4       ??_7type_info@@6B@         004739c4     MSVCRT:std_type_info_static.obj
 0002:0004f9d4       ??_7exception@std@@6B@     004739d4     MSVCRT:throw_bad_alloc.obj
 0002:0004f9dc       ??_C@_0BC@EOODALEL@Unknown?5exception?$AA@ 004739dc     MSVCRT:throw_bad_alloc.obj
 0002:0004f9f4       ??_7bad_alloc@std@@6B@     004739f4     MSVCRT:throw_bad_alloc.obj
 0002:0004f9fc       ??_C@_0P@GHFPNOJB@bad?5allocation?$AA@ 004739fc     MSVCRT:throw_bad_alloc.obj
 0002:0004fa10       ??_7bad_array_new_length@std@@6B@ 00473a10     MSVCRT:throw_bad_alloc.obj
 0002:0004fa18       ??_C@_0BF@KINCDENJ@bad?5array?5new?5length?$AA@ 00473a18     MSVCRT:throw_bad_alloc.obj
 0002:0004fa88       __load_config_used         00473a88     MSVCRT:loadcfg.obj
 0002:0004fae4       __tls_used                 00473ae4     MSVCRT:tlssup.obj
 0002:0004fafc       ??_R4SubThreadWorker@@6B@  00473afc     workflowprotocol.obj
 0002:0004fb10       ??_R3SubThreadWorker@@8    00473b10     workflowprotocol.obj
 0002:0004fb20       ??_R2SubThreadWorker@@8    00473b20     workflowprotocol.obj
 0002:0004fb2c       ??_R1A@?0A@EA@SubThreadWorker@@8 00473b2c     workflowprotocol.obj
 0002:0004fb48       ??_R1A@?0A@EA@QObject@@8   00473b48     workflowprotocol.obj
 0002:0004fb64       ??_R3QObject@@8            00473b64     workflowprotocol.obj
 0002:0004fb74       ??_R2QObject@@8            00473b74     workflowprotocol.obj
 0002:0004fb7c       ??_R4WorkflowController@@6B@ 00473b7c     workflowprotocol.obj
 0002:0004fb90       ??_R3WorkflowController@@8 00473b90     workflowprotocol.obj
 0002:0004fba0       ??_R2WorkflowController@@8 00473ba0     workflowprotocol.obj
 0002:0004fbac       ??_R1A@?0A@EA@WorkflowController@@8 00473bac     workflowprotocol.obj
 0002:0004fbc8       ??_R4StatusChangeEvent@@6B@ 00473bc8     workflowprotocol.obj
 0002:0004fbdc       ??_R3StatusChangeEvent@@8  00473bdc     workflowprotocol.obj
 0002:0004fbec       ??_R2StatusChangeEvent@@8  00473bec     workflowprotocol.obj
 0002:0004fbf8       ??_R1A@?0A@EA@StatusChangeEvent@@8 00473bf8     workflowprotocol.obj
 0002:0004fc14       ??_R1A@?0A@EA@QEvent@@8    00473c14     workflowprotocol.obj
 0002:0004fc30       ??_R3QEvent@@8             00473c30     workflowprotocol.obj
 0002:0004fc40       ??_R2QEvent@@8             00473c40     workflowprotocol.obj
 0002:0004fc48       ??_R4RunningStateChangeEvent@@6B@ 00473c48     workflowprotocol.obj
 0002:0004fc5c       ??_R3RunningStateChangeEvent@@8 00473c5c     workflowprotocol.obj
 0002:0004fc6c       ??_R2RunningStateChangeEvent@@8 00473c6c     workflowprotocol.obj
 0002:0004fc78       ??_R1A@?0A@EA@RunningStateChangeEvent@@8 00473c78     workflowprotocol.obj
 0002:0004fc94       ??_R4configFileHandler@@6B@ 00473c94     configfilehandler.obj
 0002:0004fca8       ??_R3configFileHandler@@8  00473ca8     configfilehandler.obj
 0002:0004fcb8       ??_R2configFileHandler@@8  00473cb8     configfilehandler.obj
 0002:0004fcc4       ??_R1A@?0A@EA@configFileHandler@@8 00473cc4     configfilehandler.obj
 0002:0004fce0       ??_R4TargetMachineObject@@6B@ 00473ce0     environmentvariant.obj
 0002:0004fcf4       ??_R3TargetMachineObject@@8 00473cf4     environmentvariant.obj
 0002:0004fd04       ??_R2TargetMachineObject@@8 00473d04     environmentvariant.obj
 0002:0004fd14       ??_R1A@?0A@EA@TargetMachineObject@@8 00473d14     environmentvariant.obj
 0002:0004fd30       ??_R17?0A@EA@MachineConfigData@@8 00473d30     environmentvariant.obj
 0002:0004fd4c       ??_R3MachineConfigData@@8  00473d4c     environmentvariant.obj
 0002:0004fd5c       ??_R2MachineConfigData@@8  00473d5c     environmentvariant.obj
 0002:0004fd64       ??_R1A@?0A@EA@MachineConfigData@@8 00473d64     environmentvariant.obj
 0002:0004fd80       ??_R4ConfigFileConverter@@6B@ 00473d80     environmentvariant.obj
 0002:0004fd94       ??_R3ConfigFileConverter@@8 00473d94     environmentvariant.obj
 0002:0004fda4       ??_R2ConfigFileConverter@@8 00473da4     environmentvariant.obj
 0002:0004fdb0       ??_R1A@?0A@EA@ConfigFileConverter@@8 00473db0     environmentvariant.obj
 0002:0004fdcc       ??_R4AdministratorChecker@@6B@ 00473dcc     environmentvariant.obj
 0002:0004fde0       ??_R3AdministratorChecker@@8 00473de0     environmentvariant.obj
 0002:0004fdf0       ??_R2AdministratorChecker@@8 00473df0     environmentvariant.obj
 0002:0004fdfc       ??_R1A@?0A@EA@AdministratorChecker@@8 00473dfc     environmentvariant.obj
 0002:0004fe18       ??_R4EnvironmentVariant@@6B@ 00473e18     environmentvariant.obj
 0002:0004fe2c       ??_R3EnvironmentVariant@@8 00473e2c     environmentvariant.obj
 0002:0004fe3c       ??_R2EnvironmentVariant@@8 00473e3c     environmentvariant.obj
 0002:0004fe48       ??_R1A@?0A@EA@EnvironmentVariant@@8 00473e48     environmentvariant.obj
 0002:0004fe64       ??_R4OperationParamObject@@6B@ 00473e64     main.obj
 0002:0004fe78       ??_R3OperationParamObject@@8 00473e78     main.obj
 0002:0004fe88       ??_R2OperationParamObject@@8 00473e88     main.obj
 0002:0004fe98       ??_R1A@?0A@EA@OperationParamObject@@8 00473e98     main.obj
 0002:0004feb4       ??_R17?0A@EA@OperationParamData@@8 00473eb4     main.obj
 0002:0004fed0       ??_R3OperationParamData@@8 00473ed0     main.obj
 0002:0004fee0       ??_R2OperationParamData@@8 00473ee0     main.obj
 0002:0004fee8       ??_R1A@?0A@EA@OperationParamData@@8 00473ee8     main.obj
 0002:0004ff04       ??_R3TextFieldDoubleValidator@@8 00473f04     main.obj
 0002:0004ff14       ??_R2TextFieldDoubleValidator@@8 00473f14     main.obj
 0002:0004ff28       ??_R1A@?0A@EA@TextFieldDoubleValidator@@8 00473f28     main.obj
 0002:0004ff44       ??_R1A@?0A@EA@QDoubleValidator@@8 00473f44     main.obj
 0002:0004ff60       ??_R3QDoubleValidator@@8   00473f60     main.obj
 0002:0004ff70       ??_R2QDoubleValidator@@8   00473f70     main.obj
 0002:0004ff80       ??_R1A@?0A@EA@QValidator@@8 00473f80     main.obj
 0002:0004ff9c       ??_R3QValidator@@8         00473f9c     main.obj
 0002:0004ffac       ??_R2QValidator@@8         00473fac     main.obj
 0002:0004ffb8       ??_R4?$QQmlElement@VTextFieldDoubleValidator@@@QQmlPrivate@@6B@ 00473fb8     main.obj
 0002:0004ffcc       ??_R3?$QQmlElement@VTextFieldDoubleValidator@@@QQmlPrivate@@8 00473fcc     main.obj
 0002:0004ffdc       ??_R2?$QQmlElement@VTextFieldDoubleValidator@@@QQmlPrivate@@8 00473fdc     main.obj
 0002:0004fff4       ??_R1A@?0A@EA@?$QQmlElement@VTextFieldDoubleValidator@@@QQmlPrivate@@8 00473ff4     main.obj
 0002:00050010       ??_R4?$QQmlElement@VOperationParamObject@@@QQmlPrivate@@6B@ 00474010     main.obj
 0002:00050024       ??_R3?$QQmlElement@VOperationParamObject@@@QQmlPrivate@@8 00474024     main.obj
 0002:00050034       ??_R2?$QQmlElement@VOperationParamObject@@@QQmlPrivate@@8 00474034     main.obj
 0002:00050048       ??_R1A@?0A@EA@?$QQmlElement@VOperationParamObject@@@QQmlPrivate@@8 00474048     main.obj
 0002:00050064       ??_R4?$QQmlElement@VOperationParamSelector@@@QQmlPrivate@@6B@ 00474064     main.obj
 0002:00050078       ??_R3?$QQmlElement@VOperationParamSelector@@@QQmlPrivate@@8 00474078     main.obj
 0002:00050088       ??_R2?$QQmlElement@VOperationParamSelector@@@QQmlPrivate@@8 00474088     main.obj
 0002:00050098       ??_R1A@?0A@EA@?$QQmlElement@VOperationParamSelector@@@QQmlPrivate@@8 00474098     main.obj
 0002:000500b4       ??_R1A@?0A@EA@OperationParamSelector@@8 004740b4     main.obj
 0002:000500d0       ??_R3OperationParamSelector@@8 004740d0     main.obj
 0002:000500e0       ??_R2OperationParamSelector@@8 004740e0     main.obj
 0002:000500ec       ??_R4?$QQmlElement@VPlanSelector@@@QQmlPrivate@@6B@ 004740ec     main.obj
 0002:00050100       ??_R3?$QQmlElement@VPlanSelector@@@QQmlPrivate@@8 00474100     main.obj
 0002:00050110       ??_R2?$QQmlElement@VPlanSelector@@@QQmlPrivate@@8 00474110     main.obj
 0002:00050120       ??_R1A@?0A@EA@?$QQmlElement@VPlanSelector@@@QQmlPrivate@@8 00474120     main.obj
 0002:0005013c       ??_R1A@?0A@EA@PlanSelector@@8 0047413c     main.obj
 0002:00050158       ??_R3PlanSelector@@8       00474158     main.obj
 0002:00050168       ??_R2PlanSelector@@8       00474168     main.obj
 0002:00050174       ??_R4?$QQmlElement@VStatusViewWatcher@@@QQmlPrivate@@6B@ 00474174     main.obj
 0002:00050188       ??_R3?$QQmlElement@VStatusViewWatcher@@@QQmlPrivate@@8 00474188     main.obj
 0002:00050198       ??_R2?$QQmlElement@VStatusViewWatcher@@@QQmlPrivate@@8 00474198     main.obj
 0002:000501a8       ??_R1A@?0A@EA@?$QQmlElement@VStatusViewWatcher@@@QQmlPrivate@@8 004741a8     main.obj
 0002:000501c4       ??_R1A@?0A@EA@StatusViewWatcher@@8 004741c4     main.obj
 0002:000501e0       ??_R3StatusViewWatcher@@8  004741e0     main.obj
 0002:000501f0       ??_R2StatusViewWatcher@@8  004741f0     main.obj
 0002:000501fc       ??_R4?$QQmlElement@VPlanController@@@QQmlPrivate@@6B@ 004741fc     main.obj
 0002:00050210       ??_R3?$QQmlElement@VPlanController@@@QQmlPrivate@@8 00474210     main.obj
 0002:00050220       ??_R2?$QQmlElement@VPlanController@@@QQmlPrivate@@8 00474220     main.obj
 0002:00050230       ??_R1A@?0A@EA@?$QQmlElement@VPlanController@@@QQmlPrivate@@8 00474230     main.obj
 0002:0005024c       ??_R1A@?0A@EA@PlanController@@8 0047424c     main.obj
 0002:00050268       ??_R3PlanController@@8     00474268     main.obj
 0002:00050278       ??_R2PlanController@@8     00474278     main.obj
 0002:00050284       ??_R4?$QQmlElement@VWorkLocationManager@@@QQmlPrivate@@6B@ 00474284     main.obj
 0002:00050298       ??_R3?$QQmlElement@VWorkLocationManager@@@QQmlPrivate@@8 00474298     main.obj
 0002:000502a8       ??_R2?$QQmlElement@VWorkLocationManager@@@QQmlPrivate@@8 004742a8     main.obj
 0002:000502b8       ??_R1A@?0A@EA@?$QQmlElement@VWorkLocationManager@@@QQmlPrivate@@8 004742b8     main.obj
 0002:000502d4       ??_R1A@?0A@EA@WorkLocationManager@@8 004742d4     main.obj
 0002:000502f0       ??_R3WorkLocationManager@@8 004742f0     main.obj
 0002:00050300       ??_R2WorkLocationManager@@8 00474300     main.obj
 0002:0005030c       ??_R4OperationParamSelector@@6B@ 0047430c     workmodels.obj
 0002:00050320       ??_R4PlanSelector@@6B@     00474320     workmodels.obj
 0002:00050334       ??_R4PlanController@@6B@   00474334     workmodels.obj
 0002:00050348       ??_R4StatusViewWatcher@@6B@ 00474348     workmodels.obj
 0002:0005035c       ??_R4WorkLocationManager@@6B@ 0047435c     workmodels.obj
 0002:00050370       ??_R4SubThreadCheckWorker@@6B@ 00474370     workflowChecker.obj
 0002:00050384       ??_R3SubThreadCheckWorker@@8 00474384     workflowChecker.obj
 0002:00050394       ??_R2SubThreadCheckWorker@@8 00474394     workflowChecker.obj
 0002:000503a0       ??_R1A@?0A@EA@SubThreadCheckWorker@@8 004743a0     workflowChecker.obj
 0002:000503bc       ??_R4WorkflowCheckerController@@6B@ 004743bc     workflowChecker.obj
 0002:000503d0       ??_R3WorkflowCheckerController@@8 004743d0     workflowChecker.obj
 0002:000503e0       ??_R2WorkflowCheckerController@@8 004743e0     workflowChecker.obj
 0002:000503ec       ??_R1A@?0A@EA@WorkflowCheckerController@@8 004743ec     workflowChecker.obj
 0002:00050408       ??_R4CheckStateChangeEvent@@6B@ 00474408     workflowChecker.obj
 0002:0005041c       ??_R3CheckStateChangeEvent@@8 0047441c     workflowChecker.obj
 0002:0005042c       ??_R2CheckStateChangeEvent@@8 0047442c     workflowChecker.obj
 0002:00050438       ??_R1A@?0A@EA@CheckStateChangeEvent@@8 00474438     workflowChecker.obj
 0002:00050454       ??_R4type_info@@6B@        00474454     MSVCRT:std_type_info_static.obj
 0002:00050468       ??_R3type_info@@8          00474468     MSVCRT:std_type_info_static.obj
 0002:00050478       ??_R2type_info@@8          00474478     MSVCRT:std_type_info_static.obj
 0002:00050480       ??_R1A@?0A@EA@type_info@@8 00474480     MSVCRT:std_type_info_static.obj
 0002:0005049c       ??_R4exception@std@@6B@    0047449c     MSVCRT:throw_bad_alloc.obj
 0002:000504b0       ??_R3exception@std@@8      004744b0     MSVCRT:throw_bad_alloc.obj
 0002:000504c0       ??_R2exception@std@@8      004744c0     MSVCRT:throw_bad_alloc.obj
 0002:000504c8       ??_R1A@?0A@EA@exception@std@@8 004744c8     MSVCRT:throw_bad_alloc.obj
 0002:000504e4       ??_R4bad_alloc@std@@6B@    004744e4     MSVCRT:throw_bad_alloc.obj
 0002:000504f8       ??_R3bad_alloc@std@@8      004744f8     MSVCRT:throw_bad_alloc.obj
 0002:00050508       ??_R2bad_alloc@std@@8      00474508     MSVCRT:throw_bad_alloc.obj
 0002:00050514       ??_R1A@?0A@EA@bad_alloc@std@@8 00474514     MSVCRT:throw_bad_alloc.obj
 0002:00050530       ??_R4bad_array_new_length@std@@6B@ 00474530     MSVCRT:throw_bad_alloc.obj
 0002:00050544       ??_R3bad_array_new_length@std@@8 00474544     MSVCRT:throw_bad_alloc.obj
 0002:00050554       ??_R2bad_array_new_length@std@@8 00474554     MSVCRT:throw_bad_alloc.obj
 0002:00050564       ??_R1A@?0A@EA@bad_array_new_length@std@@8 00474564     MSVCRT:throw_bad_alloc.obj
 0002:00050580       ___safe_se_handler_table   00474580     <linker-defined>
 0002:00050ba4       ___rtc_iaa                 00474ba4     MSVCRT:_initsect_.obj
 0002:00050ba8       ___rtc_izz                 00474ba8     MSVCRT:_initsect_.obj
 0002:00050bac       ___rtc_taa                 00474bac     MSVCRT:_initsect_.obj
 0002:00050bb0       ___rtc_tzz                 00474bb0     MSVCRT:_initsect_.obj
 0002:0005511c       __TI2?AVbad_alloc@std@@    0047911c     MSVCRT:throw_bad_alloc.obj
 0002:0005512c       __CTA2?AVbad_alloc@std@@   0047912c     MSVCRT:throw_bad_alloc.obj
 0002:00055138       __CT??_R0?AVbad_alloc@std@@@8??0bad_alloc@std@@QAE@ABV01@@Z12 00479138     MSVCRT:throw_bad_alloc.obj
 0002:00055154       __CT??_R0?AVexception@std@@@8??0exception@std@@QAE@ABV01@@Z12 00479154     MSVCRT:throw_bad_alloc.obj
 0002:00055170       __TI3?AVbad_array_new_length@std@@ 00479170     MSVCRT:throw_bad_alloc.obj
 0002:00055180       __CTA3?AVbad_array_new_length@std@@ 00479180     MSVCRT:throw_bad_alloc.obj
 0002:00055190       __CT??_R0?AVbad_array_new_length@std@@@8??0bad_array_new_length@std@@QAE@ABV01@@Z12 00479190     MSVCRT:throw_bad_alloc.obj
 0002:000551ac       __IMPORT_DESCRIPTOR_dbghelp 004791ac     DbgHelp:dbghelp.dll
 0002:000551c0       __IMPORT_DESCRIPTOR_Qt5Quick 004791c0     Qt5Quick:Qt5Quick.dll
 0002:000551d4       __IMPORT_DESCRIPTOR_Qt5Gui 004791d4     Qt5Gui:Qt5Gui.dll
 0002:000551e8       __IMPORT_DESCRIPTOR_Qt5Qml 004791e8     Qt5Qml:Qt5Qml.dll
 0002:000551fc       __IMPORT_DESCRIPTOR_Qt5Network 004791fc     Qt5Network:Qt5Network.dll
 0002:00055210       __IMPORT_DESCRIPTOR_Qt5Core 00479210     Qt5Core:Qt5Core.dll
 0002:00055224       __IMPORT_DESCRIPTOR_KERNEL32 00479224     kernel32:KERNEL32.dll
 0002:00055238       __IMPORT_DESCRIPTOR_VCRUNTIME140 00479238     vcruntime:VCRUNTIME140.dll
 0002:0005524c       __IMPORT_DESCRIPTOR_api-ms-win-crt-heap-l1-1-0 0047924c     ucrt:api-ms-win-crt-heap-l1-1-0.dll
 0002:00055260       __IMPORT_DESCRIPTOR_api-ms-win-crt-runtime-l1-1-0 00479260     ucrt:api-ms-win-crt-runtime-l1-1-0.dll
 0002:00055274       __IMPORT_DESCRIPTOR_api-ms-win-crt-math-l1-1-0 00479274     ucrt:api-ms-win-crt-math-l1-1-0.dll
 0002:00055288       __IMPORT_DESCRIPTOR_api-ms-win-crt-stdio-l1-1-0 00479288     ucrt:api-ms-win-crt-stdio-l1-1-0.dll
 0002:0005529c       __IMPORT_DESCRIPTOR_api-ms-win-crt-locale-l1-1-0 0047929c     ucrt:api-ms-win-crt-locale-l1-1-0.dll
 0002:000552b0       __IMPORT_DESCRIPTOR_SHELL32 004792b0     shell32:SHELL32.dll
 0002:000552c4       __NULL_IMPORT_DESCRIPTOR   004792c4     DbgHelp:dbghelp.dll
 0003:00000000       ?operationModelName@@3PBDB 0047d000     workmodels.obj
 0003:00000004       ?paramModelName@@3PBDB     0047d004     workmodels.obj
 0003:00000008       ?staticMetaObject@SubThreadWorker@@2UQMetaObject@@B 0047d008     moc_workflowprotocol.obj
 0003:00000020       ?staticMetaObject@WorkflowController@@2UQMetaObject@@B 0047d020     moc_workflowprotocol.obj
 0003:00000038       ?staticMetaObject@SubThreadCheckWorker@@2UQMetaObject@@B 0047d038     moc_workflowChecker.obj
 0003:00000050       ?staticMetaObject@WorkflowCheckerController@@2UQMetaObject@@B 0047d050     moc_workflowChecker.obj
 0003:00000068       ?staticMetaObject@configFileHandler@@2UQMetaObject@@B 0047d068     moc_configfilehandler.obj
 0003:00000080       ?staticMetaObject@EnvironmentVariant@@2UQMetaObject@@B 0047d080     moc_environmentvariant.obj
 0003:00000098       ?staticMetaObject@OperationParamObject@@2UQMetaObject@@B 0047d098     moc_workmodels.obj
 0003:000000b0       ?staticMetaObject@OperationParamSelector@@2UQMetaObject@@B 0047d0b0     moc_workmodels.obj
 0003:000000c8       ?staticMetaObject@SingleOperationObject@@2UQMetaObject@@B 0047d0c8     moc_workmodels.obj
 0003:000000e0       ?staticMetaObject@PlanSelector@@2UQMetaObject@@B 0047d0e0     moc_workmodels.obj
 0003:000000f8       ?staticMetaObject@PlanController@@2UQMetaObject@@B 0047d0f8     moc_workmodels.obj
 0003:00000110       ?staticMetaObject@StatusViewWatcher@@2UQMetaObject@@B 0047d110     moc_workmodels.obj
 0003:00000128       ?staticMetaObject@WorkLocationManager@@2UQMetaObject@@B 0047d128     moc_workmodels.obj
 0003:00000140       ?staticMetaObject@TargetMachineObject@@2UQMetaObject@@B 0047d140     moc_workmodels.obj
 0003:00000158       ?staticMetaObject@ConfigFileConverter@@2UQMetaObject@@B 0047d158     moc_workmodels.obj
 0003:00000170       ?staticMetaObject@AdministratorChecker@@2UQMetaObject@@B 0047d170     moc_workmodels.obj
 0003:00000188       ___security_cookie_complement 0047d188     MSVCRT:gs_cookie.obj
 0003:0000018c       ___security_cookie         0047d18c     MSVCRT:gs_cookie.obj
 0003:00000190       __Init_global_epoch        0047d190     MSVCRT:thread_safe_statics.obj
 0003:00000194       __fltused                  0047d194     MSVCRT:fltused.obj
 0003:00000198       ___scrt_native_dllmain_reason 0047d198     MSVCRT:utility.obj
 0003:0000019c       ___isa_enabled             0047d19c     MSVCRT:_cpu_disp_.obj
 0003:000001a0       ___scrt_default_matherr    0047d1a0     MSVCRT:matherr.obj
 0003:000001a4       ___scrt_ucrt_dll_is_in_use 0047d1a4     MSVCRT:ucrt_stubs.obj
 0003:000001a8       ??_R0?AVSubThreadWorker@@@8 0047d1a8     workflowprotocol.obj
 0003:000001c8       ??_R0?AVQObject@@@8        0047d1c8     workflowprotocol.obj
 0003:000001e0       ??_R0?AVWorkflowController@@@8 0047d1e0     workflowprotocol.obj
 0003:00000204       ??_R0?AVStatusChangeEvent@@@8 0047d204     workflowprotocol.obj
 0003:00000224       ??_R0?AVQEvent@@@8         0047d224     workflowprotocol.obj
 0003:0000023c       ??_R0?AVRunningStateChangeEvent@@@8 0047d23c     workflowprotocol.obj
 0003:00000264       ??_R0?AVconfigFileHandler@@@8 0047d264     configfilehandler.obj
 0003:00000284       ??_R0?AVTargetMachineObject@@@8 0047d284     environmentvariant.obj
 0003:000002a8       ??_R0?AVMachineConfigData@@@8 0047d2a8     environmentvariant.obj
 0003:000002c8       ??_R0?AVConfigFileConverter@@@8 0047d2c8     environmentvariant.obj
 0003:000002ec       ??_R0?AVAdministratorChecker@@@8 0047d2ec     environmentvariant.obj
 0003:00000310       ??_R0?AVEnvironmentVariant@@@8 0047d310     environmentvariant.obj
 0003:00000334       ??_R0?AVOperationParamObject@@@8 0047d334     main.obj
 0003:00000358       ??_R0?AVOperationParamData@@@8 0047d358     main.obj
 0003:0000037c       ??_R0?AVTextFieldDoubleValidator@@@8 0047d37c     main.obj
 0003:000003a4       ??_R0?AVQDoubleValidator@@@8 0047d3a4     main.obj
 0003:000003c4       ??_R0?AVQValidator@@@8     0047d3c4     main.obj
 0003:000003e0       ??_R0?AV?$QQmlElement@VTextFieldDoubleValidator@@@QQmlPrivate@@@8 0047d3e0     main.obj
 0003:00000428       ??_R0?AV?$QQmlElement@VOperationParamObject@@@QQmlPrivate@@@8 0047d428     main.obj
 0003:00000468       ??_R0?AV?$QQmlElement@VOperationParamSelector@@@QQmlPrivate@@@8 0047d468     main.obj
 0003:000004ac       ??_R0?AVOperationParamSelector@@@8 0047d4ac     main.obj
 0003:000004d4       ??_R0?AV?$QQmlElement@VPlanSelector@@@QQmlPrivate@@@8 0047d4d4     main.obj
 0003:0000050c       ??_R0?AVPlanSelector@@@8   0047d50c     main.obj
 0003:00000528       ??_R0?AV?$QQmlElement@VStatusViewWatcher@@@QQmlPrivate@@@8 0047d528     main.obj
 0003:00000568       ??_R0?AVStatusViewWatcher@@@8 0047d568     main.obj
 0003:00000588       ??_R0?AV?$QQmlElement@VPlanController@@@QQmlPrivate@@@8 0047d588     main.obj
 0003:000005c4       ??_R0?AVPlanController@@@8 0047d5c4     main.obj
 0003:000005e4       ??_R0?AV?$QQmlElement@VWorkLocationManager@@@QQmlPrivate@@@8 0047d5e4     main.obj
 0003:00000624       ??_R0?AVWorkLocationManager@@@8 0047d624     main.obj
 0003:00000648       ??_R0?AVCheckStateChangeEvent@@@8 0047d648     workmodels.obj
 0003:0000066c       ??_R0?AVSubThreadCheckWorker@@@8 0047d66c     workflowChecker.obj
 0003:00000690       ??_R0?AVWorkflowCheckerController@@@8 0047d690     workflowChecker.obj
 0003:000006b8       ??_R0?AVtype_info@@@8      0047d6b8     MSVCRT:std_type_info_static.obj
 0003:000006d0       ??_R0?AVbad_alloc@std@@@8  0047d6d0     MSVCRT:throw_bad_alloc.obj
 0003:000006ec       ??_R0?AVexception@std@@@8  0047d6ec     MSVCRT:throw_bad_alloc.obj
 0003:00000708       ??_R0?AVbad_array_new_length@std@@@8 0047d708     MSVCRT:throw_bad_alloc.obj
 0003:00000730       ?t@?1??types@?$ConnectionTypes@U?$List@ABVQString@@H@QtPrivate@@$00@QtPrivate@@SAPBHXZ@4QBHB 0047d730     workflowprotocol.obj
 0003:0000073c       ?$TSS0@?1??types@?$ConnectionTypes@U?$List@ABVQString@@H@QtPrivate@@$00@QtPrivate@@SAPBHXZ@4HA 0047d73c     workflowprotocol.obj
 0003:00000740       ?t@?1??types@?$ConnectionTypes@U?$List@ABVQString@@@QtPrivate@@$00@QtPrivate@@SAPBHXZ@4QBHB 0047d740     workflowprotocol.obj
 0003:00000748       ?$TSS0@?1??types@?$ConnectionTypes@U?$List@ABVQString@@@QtPrivate@@$00@QtPrivate@@SAPBHXZ@4HA 0047d748     workflowprotocol.obj
 0003:0000074c       ?t@?1??types@?$ConnectionTypes@U?$List@ABVQString@@G@QtPrivate@@$00@QtPrivate@@SAPBHXZ@4QBHB 0047d74c     workflowprotocol.obj
 0003:00000758       ?$TSS0@?1??types@?$ConnectionTypes@U?$List@ABVQString@@G@QtPrivate@@$00@QtPrivate@@SAPBHXZ@4HA 0047d758     workflowprotocol.obj
 0003:0000075c       ?t@?1??types@?$ConnectionTypes@U?$List@ABVQJsonObject@@@QtPrivate@@$00@QtPrivate@@SAPBHXZ@4QBHB 0047d75c     workflowprotocol.obj
 0003:00000764       ?$TSS0@?1??types@?$ConnectionTypes@U?$List@ABVQJsonObject@@@QtPrivate@@$00@QtPrivate@@SAPBHXZ@4HA 0047d764     workflowprotocol.obj
 0003:00000768       ?m_instance@EnvironmentVariant@@0PAV1@A 0047d768     environmentvariant.obj
 0003:0000076c       ?metatype_id@?1??qt_metatype_id@?$QMetaTypeIdQObject@PAVWorkLocationManager@@$07@@SAHXZ@4V?$QBasicAtomicInteger@H@@A 0047d76c     main.obj
 0003:00000770       ?metatype_id@?1??qt_metatype_id@?$QMetaTypeIdQObject@PAVPlanController@@$07@@SAHXZ@4V?$QBasicAtomicInteger@H@@A 0047d770     main.obj
 0003:00000774       ?metatype_id@?1??qt_metatype_id@?$QMetaTypeIdQObject@PAVStatusViewWatcher@@$07@@SAHXZ@4V?$QBasicAtomicInteger@H@@A 0047d774     main.obj
 0003:00000778       ?metatype_id@?1??qt_metatype_id@?$QMetaTypeIdQObject@PAVPlanSelector@@$07@@SAHXZ@4V?$QBasicAtomicInteger@H@@A 0047d778     main.obj
 0003:0000077c       ?metatype_id@?1??qt_metatype_id@?$QMetaTypeIdQObject@PAVOperationParamSelector@@$07@@SAHXZ@4V?$QBasicAtomicInteger@H@@A 0047d77c     main.obj
 0003:00000780       ?metatype_id@?1??qt_metatype_id@?$QMetaTypeIdQObject@PAVOperationParamObject@@$07@@SAHXZ@4V?$QBasicAtomicInteger@H@@A 0047d780     main.obj
 0003:00000784       ?metatype_id@?1??qt_metatype_id@?$QMetaTypeIdQObject@PAVTextFieldDoubleValidator@@$07@@SAHXZ@4V?$QBasicAtomicInteger@H@@A 0047d784     main.obj
 0003:00000788       ?t@?1??types@?$ConnectionTypes@U?$List@ABVQJsonArray@@@QtPrivate@@$00@QtPrivate@@SAPBHXZ@4QBHB 0047d788     workflowChecker.obj
 0003:00000790       ?$TSS0@?1??types@?$ConnectionTypes@U?$List@ABVQJsonArray@@@QtPrivate@@$00@QtPrivate@@SAPBHXZ@4HA 0047d790     workflowChecker.obj
 0003:00000794       ?dummy@?A0x60b45615@@3Uinitializer@1@A 0047d794     qrc_qml.obj
 0003:00000798       ?metatype_id@?1??qt_metatype_id@?$QMetaTypeId@VQSequentialIterableImpl@QtMetaTypePrivate@@@@SAHXZ@4V?$QBasicAtomicInteger@H@@A 0047d798     moc_workmodels.obj
 0003:0000079c       ?metatype_id@?1??qt_metatype_id@?$QMetaTypeId@V?$QList@PAVQObject@@@@@@SAHXZ@4V?$QBasicAtomicInteger@H@@A 0047d79c     moc_workmodels.obj
 0003:000007a0       ?f@?4??registerConverter@?$ValueTypeIsMetaType@V?$QList@PAVQObject@@@@$00@QtPrivate@@SA_NH@Z@4U?$ConverterFunctor@V?$QList@PAVQObject@@@@VQSequentialIterableImpl@QtMetaTypePrivate@@U?$QSequentialIterableConvertFunctor@V?$QList@PAVQObject@@@@@3@@3@B 0047d7a0     moc_workmodels.obj
 0003:000007a8       ?$TSS0@?4??registerConverter@?$ValueTypeIsMetaType@V?$QList@PAVQObject@@@@$00@QtPrivate@@SA_NH@Z@4HA 0047d7a8     moc_workmodels.obj
 0003:000007ac       ?metatype_id@?1??qt_metatype_id@?$QMetaTypeId@V?$QList@H@@@@SAHXZ@4V?$QBasicAtomicInteger@H@@A 0047d7ac     moc_workmodels.obj
 0003:000007b0       ?f@?4??registerConverter@?$ValueTypeIsMetaType@V?$QList@H@@$00@QtPrivate@@SA_NH@Z@4U?$ConverterFunctor@V?$QList@H@@VQSequentialIterableImpl@QtMetaTypePrivate@@U?$QSequentialIterableConvertFunctor@V?$QList@H@@@3@@3@B 0047d7b0     moc_workmodels.obj
 0003:000007b8       ?$TSS0@?4??registerConverter@?$ValueTypeIsMetaType@V?$QList@H@@$00@QtPrivate@@SA_NH@Z@4HA 0047d7b8     moc_workmodels.obj
 0003:000007e4       __tls_index                0047d7e4     MSVCRT:tlssup.obj
 0003:000007e8       ___scrt_current_native_startup_state 0047d7e8     MSVCRT:utility.obj
 0003:000007ec       ___scrt_native_startup_lock 0047d7ec     MSVCRT:utility.obj
 0003:00000b2c       ___scrt_debugger_hook_flag 0047db2c     MSVCRT:utility_desktop.obj
 0003:00000b30       ___isa_available           0047db30     MSVCRT:_cpu_disp_.obj
 0003:00000b34       ___favor                   0047db34     MSVCRT:_cpu_disp_.obj
 0003:00000b38       ?__type_info_root_node@@3U__type_info_node@@A 0047db38     MSVCRT:tncleanup.obj
 0003:00000b40       ?_OptionsStorage@?1??__local_stdio_printf_options@@9@4_KA 0047db40     MSVCRT:default_local_stdio_options.obj
 0003:00000b48       ?_OptionsStorage@?1??__local_stdio_scanf_options@@9@4_KA 0047db48     MSVCRT:default_local_stdio_options.obj
 0003:00000b50       ___dyn_tls_dtor_callback   0047db50     <common>
 0003:00000b54       ___dyn_tls_init_callback   0047db54     <common>
 0004:00000000       __tls_start                0047e000     MSVCRT:tlssup.obj
 0004:00000004       __Init_thread_epoch        0047e004     MSVCRT:thread_safe_statics.obj
 0004:00000008       __tls_end                  0047e008     MSVCRT:tlssup.obj

 entry point at        0001:0001de6d

 Static symbols

 0000:fff7a000       .debug$S                   00400000     ucrt:api-ms-win-crt-stdio-l1-1-0.dll
 0000:fff7a000       .debug$S                   00400000     vcruntime:VCRUNTIME140.dll
 0000:fff7a000       .debug$S                   00400000     vcruntime:VCRUNTIME140.dll
 0000:fff7a000       .debug$S                   00400000     vcruntime:VCRUNTIME140.dll
 0000:fff7a000       .debug$S                   00400000     vcruntime:VCRUNTIME140.dll
 0000:fff7a000       .debug$S                   00400000     vcruntime:VCRUNTIME140.dll
 0000:fff7a000       .debug$S                   00400000     vcruntime:VCRUNTIME140.dll
 0000:fff7a000       .debug$S                   00400000     vcruntime:VCRUNTIME140.dll
 0000:fff7a000       .debug$S                   00400000     vcruntime:VCRUNTIME140.dll
 0000:fff7a000       .debug$S                   00400000     vcruntime:VCRUNTIME140.dll
 0000:fff7a000       .debug$S                   00400000     vcruntime:VCRUNTIME140.dll
 0000:fff7a000       .debug$S                   00400000     vcruntime:VCRUNTIME140.dll
 0000:fff7a000       .debug$S                   00400000     kernel32:KERNEL32.dll
 0000:fff7a000       .debug$S                   00400000     kernel32:KERNEL32.dll
 0000:fff7a000       .debug$S                   00400000     kernel32:KERNEL32.dll
 0000:fff7a000       .debug$S                   00400000     kernel32:KERNEL32.dll
 0000:fff7a000       .debug$S                   00400000     kernel32:KERNEL32.dll
 0000:fff7a000       .debug$S                   00400000     kernel32:KERNEL32.dll
 0000:fff7a000       .debug$S                   00400000     kernel32:KERNEL32.dll
 0000:fff7a000       .debug$S                   00400000     kernel32:KERNEL32.dll
 0000:fff7a000       .debug$S                   00400000     kernel32:KERNEL32.dll
 0000:fff7a000       .debug$S                   00400000     shell32:SHELL32.dll
 0000:fff7a000       .debug$S                   00400000     ucrt:api-ms-win-crt-heap-l1-1-0.dll
 0000:fff7a000       .debug$S                   00400000     DbgHelp:dbghelp.dll
 0000:fff7a000       .debug$S                   00400000     Qt5Quick:Qt5Quick.dll
 0000:fff7a000       .debug$S                   00400000     Qt5Quick:Qt5Quick.dll
 0000:fff7a000       .debug$S                   00400000     Qt5Quick:Qt5Quick.dll
 0000:fff7a000       .debug$S                   00400000     Qt5Quick:Qt5Quick.dll
 0000:fff7a000       .debug$S                   00400000     Qt5Quick:Qt5Quick.dll
 0000:fff7a000       .debug$S                   00400000     Qt5Quick:Qt5Quick.dll
 0000:fff7a000       .debug$S                   00400000     Qt5Gui:Qt5Gui.dll
 0000:fff7a000       .debug$S                   00400000     kernel32:KERNEL32.dll
 0000:fff7a000       .debug$S                   00400000     kernel32:KERNEL32.dll
 0000:fff7a000       .debug$S                   00400000     kernel32:KERNEL32.dll
 0000:fff7a000       .debug$S                   00400000     kernel32:KERNEL32.dll
 0000:fff7a000       .debug$S                   00400000     Qt5Gui:Qt5Gui.dll
 0000:fff7a000       .debug$S                   00400000     Qt5Gui:Qt5Gui.dll
 0000:fff7a000       .debug$S                   00400000     Qt5Gui:Qt5Gui.dll
 0000:fff7a000       .debug$S                   00400000     kernel32:KERNEL32.dll
 0000:fff7a000       .debug$S                   00400000     kernel32:KERNEL32.dll
 0000:fff7a000       .debug$S                   00400000     kernel32:KERNEL32.dll
 0000:fff7a000       .debug$S                   00400000     Qt5Gui:Qt5Gui.dll
 0000:fff7a000       .debug$S                   00400000     kernel32:KERNEL32.dll
 0000:fff7a000       .debug$S                   00400000     kernel32:KERNEL32.dll
 0000:fff7a000       .debug$S                   00400000     kernel32:KERNEL32.dll
 0000:fff7a000       .debug$S                   00400000     kernel32:KERNEL32.dll
 0000:fff7a000       .debug$S                   00400000     Qt5Gui:Qt5Gui.dll
 0000:fff7a000       .debug$S                   00400000     kernel32:KERNEL32.dll
 0000:fff7a000       .debug$S                   00400000     kernel32:KERNEL32.dll
 0000:fff7a000       .debug$S                   00400000     kernel32:KERNEL32.dll
 0000:fff7a000       .debug$S                   00400000     kernel32:KERNEL32.dll
 0000:fff7a000       .debug$S                   00400000     kernel32:KERNEL32.dll
 0000:fff7a000       .debug$S                   00400000     kernel32:KERNEL32.dll
 0000:fff7a000       .debug$S                   00400000     Qt5Gui:Qt5Gui.dll
 0000:fff7a000       .debug$S                   00400000     ucrt:api-ms-win-crt-stdio-l1-1-0.dll
 0000:fff7a000       .debug$S                   00400000     Qt5Gui:Qt5Gui.dll
 0000:fff7a000       .debug$S                   00400000     ucrt:api-ms-win-crt-runtime-l1-1-0.dll
 0000:fff7a000       .debug$S                   00400000     Qt5Gui:Qt5Gui.dll
 0000:fff7a000       .debug$S                   00400000     Qt5Gui:Qt5Gui.dll
 0000:fff7a000       .debug$S                   00400000     Qt5Gui:Qt5Gui.dll
 0000:fff7a000       .debug$S                   00400000     ucrt:api-ms-win-crt-runtime-l1-1-0.dll
 0000:fff7a000       .debug$S                   00400000     ucrt:api-ms-win-crt-runtime-l1-1-0.dll
 0000:fff7a000       .debug$S                   00400000     ucrt:api-ms-win-crt-runtime-l1-1-0.dll
 0000:fff7a000       .debug$S                   00400000     Qt5Gui:Qt5Gui.dll
 0000:fff7a000       .debug$S                   00400000     ucrt:api-ms-win-crt-runtime-l1-1-0.dll
 0000:fff7a000       .debug$S                   00400000     ucrt:api-ms-win-crt-runtime-l1-1-0.dll
 0000:fff7a000       .debug$S                   00400000     ucrt:api-ms-win-crt-runtime-l1-1-0.dll
 0000:fff7a000       .debug$S                   00400000     Qt5Gui:Qt5Gui.dll
 0000:fff7a000       .debug$S                   00400000     Qt5Gui:Qt5Gui.dll
 0000:fff7a000       .debug$S                   00400000     Qt5Gui:Qt5Gui.dll
 0000:fff7a000       .debug$S                   00400000     ucrt:api-ms-win-crt-runtime-l1-1-0.dll
 0000:fff7a000       .debug$S                   00400000     ucrt:api-ms-win-crt-runtime-l1-1-0.dll
 0000:fff7a000       .debug$S                   00400000     ucrt:api-ms-win-crt-runtime-l1-1-0.dll
 0000:fff7a000       .debug$S                   00400000     ucrt:api-ms-win-crt-runtime-l1-1-0.dll
 0000:fff7a000       .debug$S                   00400000     ucrt:api-ms-win-crt-runtime-l1-1-0.dll
 0000:fff7a000       .debug$S                   00400000     ucrt:api-ms-win-crt-runtime-l1-1-0.dll
 0000:fff7a000       .debug$S                   00400000     Qt5Gui:Qt5Gui.dll
 0000:fff7a000       .debug$S                   00400000     ucrt:api-ms-win-crt-runtime-l1-1-0.dll
 0000:fff7a000       .debug$S                   00400000     Qt5Gui:Qt5Gui.dll
 0000:fff7a000       .debug$S                   00400000     ucrt:api-ms-win-crt-runtime-l1-1-0.dll
 0000:fff7a000       .debug$S                   00400000     ucrt:api-ms-win-crt-runtime-l1-1-0.dll
 0000:fff7a000       .debug$S                   00400000     ucrt:api-ms-win-crt-runtime-l1-1-0.dll
 0000:fff7a000       .debug$S                   00400000     ucrt:api-ms-win-crt-runtime-l1-1-0.dll
 0000:fff7a000       .debug$S                   00400000     ucrt:api-ms-win-crt-runtime-l1-1-0.dll
 0000:fff7a000       .debug$S                   00400000     ucrt:api-ms-win-crt-runtime-l1-1-0.dll
 0000:fff7a000       .debug$S                   00400000     ucrt:api-ms-win-crt-runtime-l1-1-0.dll
 0000:fff7a000       .debug$S                   00400000     ucrt:api-ms-win-crt-runtime-l1-1-0.dll
 0000:fff7a000       .debug$S                   00400000     ucrt:api-ms-win-crt-math-l1-1-0.dll
 0000:fff7a000       .debug$S                   00400000     ucrt:api-ms-win-crt-locale-l1-1-0.dll
 0000:fff7a000       .debug$S                   00400000     ucrt:api-ms-win-crt-heap-l1-1-0.dll
 0000:fff7a000       .debug$S                   00400000     ucrt:api-ms-win-crt-heap-l1-1-0.dll
 0000:fff7a000       .debug$S                   00400000     ucrt:api-ms-win-crt-heap-l1-1-0.dll
 0000:fff7a000       .debug$S                   00400000     Qt5Gui:Qt5Gui.dll
 0000:fff7a000       .debug$S                   00400000     Qt5Core:Qt5Core.dll
 0000:fff7a000       .debug$S                   00400000     Qt5Core:Qt5Core.dll
 0000:fff7a000       .debug$S                   00400000     Qt5Core:Qt5Core.dll
 0000:fff7a000       .debug$S                   00400000     Qt5Core:Qt5Core.dll
 0000:fff7a000       .debug$S                   00400000     Qt5Core:Qt5Core.dll
 0000:fff7a000       .debug$S                   00400000     Qt5Core:Qt5Core.dll
 0000:fff7a000       .debug$S                   00400000     Qt5Core:Qt5Core.dll
 0000:fff7a000       .debug$S                   00400000     Qt5Core:Qt5Core.dll
 0000:fff7a000       .debug$S                   00400000     Qt5Core:Qt5Core.dll
 0000:fff7a000       .debug$S                   00400000     Qt5Core:Qt5Core.dll
 0000:fff7a000       .debug$S                   00400000     Qt5Core:Qt5Core.dll
 0000:fff7a000       .debug$S                   00400000     Qt5Core:Qt5Core.dll
 0000:fff7a000       .debug$S                   00400000     Qt5Core:Qt5Core.dll
 0000:fff7a000       .debug$S                   00400000     Qt5Core:Qt5Core.dll
 0000:fff7a000       .debug$S                   00400000     Qt5Core:Qt5Core.dll
 0000:fff7a000       .debug$S                   00400000     Qt5Core:Qt5Core.dll
 0000:fff7a000       .debug$S                   00400000     Qt5Core:Qt5Core.dll
 0000:fff7a000       .debug$S                   00400000     Qt5Core:Qt5Core.dll
 0000:fff7a000       .debug$S                   00400000     Qt5Core:Qt5Core.dll
 0000:fff7a000       .debug$S                   00400000     Qt5Core:Qt5Core.dll
 0000:fff7a000       .debug$S                   00400000     Qt5Core:Qt5Core.dll
 0000:fff7a000       .debug$S                   00400000     Qt5Core:Qt5Core.dll
 0000:fff7a000       .debug$S                   00400000     Qt5Core:Qt5Core.dll
 0000:fff7a000       .debug$S                   00400000     Qt5Gui:Qt5Gui.dll
 0000:fff7a000       .debug$S                   00400000     Qt5Core:Qt5Core.dll
 0000:fff7a000       .debug$S                   00400000     Qt5Core:Qt5Core.dll
 0000:fff7a000       .debug$S                   00400000     Qt5Core:Qt5Core.dll
 0000:fff7a000       .debug$S                   00400000     Qt5Gui:Qt5Gui.dll
 0000:fff7a000       .debug$S                   00400000     Qt5Core:Qt5Core.dll
 0000:fff7a000       .debug$S                   00400000     Qt5Core:Qt5Core.dll
 0000:fff7a000       .debug$S                   00400000     Qt5Core:Qt5Core.dll
 0000:fff7a000       .debug$S                   00400000     Qt5Core:Qt5Core.dll
 0000:fff7a000       .debug$S                   00400000     Qt5Core:Qt5Core.dll
 0000:fff7a000       .debug$S                   00400000     Qt5Gui:Qt5Gui.dll
 0000:fff7a000       .debug$S                   00400000     Qt5Qml:Qt5Qml.dll
 0000:fff7a000       .debug$S                   00400000     Qt5Qml:Qt5Qml.dll
 0000:fff7a000       .debug$S                   00400000     Qt5Qml:Qt5Qml.dll
 0000:fff7a000       .debug$S                   00400000     Qt5Core:Qt5Core.dll
 0000:fff7a000       .debug$S                   00400000     Qt5Core:Qt5Core.dll
 0000:fff7a000       .debug$S                   00400000     Qt5Core:Qt5Core.dll
 0000:fff7a000       .debug$S                   00400000     Qt5Core:Qt5Core.dll
 0000:fff7a000       .debug$S                   00400000     Qt5Core:Qt5Core.dll
 0000:fff7a000       .debug$S                   00400000     Qt5Core:Qt5Core.dll
 0000:fff7a000       .debug$S                   00400000     Qt5Qml:Qt5Qml.dll
 0000:fff7a000       .debug$S                   00400000     Qt5Qml:Qt5Qml.dll
 0000:fff7a000       .debug$S                   00400000     Qt5Qml:Qt5Qml.dll
 0000:fff7a000       .debug$S                   00400000     Qt5Network:Qt5Network.dll
 0000:fff7a000       .debug$S                   00400000     Qt5Core:Qt5Core.dll
 0000:fff7a000       .debug$S                   00400000     Qt5Core:Qt5Core.dll
 0000:fff7a000       .debug$S                   00400000     Qt5Core:Qt5Core.dll
 0000:fff7a000       .debug$S                   00400000     Qt5Core:Qt5Core.dll
 0000:fff7a000       .debug$S                   00400000     Qt5Core:Qt5Core.dll
 0000:fff7a000       .debug$S                   00400000     Qt5Network:Qt5Network.dll
 0000:fff7a000       .debug$S                   00400000     Qt5Core:Qt5Core.dll
 0000:fff7a000       .debug$S                   00400000     Qt5Core:Qt5Core.dll
 0000:fff7a000       .debug$S                   00400000     Qt5Core:Qt5Core.dll
 0000:fff7a000       .debug$S                   00400000     Qt5Core:Qt5Core.dll
 0000:fff7a000       .debug$S                   00400000     Qt5Core:Qt5Core.dll
 0000:fff7a000       .debug$S                   00400000     Qt5Core:Qt5Core.dll
 0000:fff7a000       .debug$S                   00400000     Qt5Core:Qt5Core.dll
 0000:fff7a000       .debug$S                   00400000     Qt5Core:Qt5Core.dll
 0000:fff7a000       .debug$S                   00400000     Qt5Core:Qt5Core.dll
 0000:fff7a000       .debug$S                   00400000     Qt5Core:Qt5Core.dll
 0000:fff7a000       .debug$S                   00400000     Qt5Core:Qt5Core.dll
 0000:fff7a000       .debug$S                   00400000     Qt5Core:Qt5Core.dll
 0000:fff7a000       .debug$S                   00400000     Qt5Core:Qt5Core.dll
 0000:fff7a000       .debug$S                   00400000     Qt5Core:Qt5Core.dll
 0000:fff7a000       .debug$S                   00400000     Qt5Core:Qt5Core.dll
 0000:fff7a000       .debug$S                   00400000     Qt5Core:Qt5Core.dll
 0000:fff7a000       .debug$S                   00400000     Qt5Core:Qt5Core.dll
 0000:fff7a000       .debug$S                   00400000     Qt5Core:Qt5Core.dll
 0000:fff7a000       .debug$S                   00400000     Qt5Core:Qt5Core.dll
 0000:fff7a000       .debug$S                   00400000     Qt5Core:Qt5Core.dll
 0000:fff7a000       .debug$S                   00400000     Qt5Core:Qt5Core.dll
 0000:fff7a000       .debug$S                   00400000     Qt5Core:Qt5Core.dll
 0000:fff7a000       .debug$S                   00400000     Qt5Core:Qt5Core.dll
 0000:fff7a000       .debug$S                   00400000     Qt5Core:Qt5Core.dll
 0000:fff7a000       .debug$S                   00400000     Qt5Core:Qt5Core.dll
 0000:fff7a000       .debug$S                   00400000     Qt5Core:Qt5Core.dll
 0000:fff7a000       .debug$S                   00400000     Qt5Core:Qt5Core.dll
 0000:fff7a000       .debug$S                   00400000     Qt5Core:Qt5Core.dll
 0000:fff7a000       .debug$S                   00400000     Qt5Core:Qt5Core.dll
 0000:fff7a000       .debug$S                   00400000     Qt5Core:Qt5Core.dll
 0000:fff7a000       .debug$S                   00400000     Qt5Core:Qt5Core.dll
 0000:fff7a000       .debug$S                   00400000     Qt5Core:Qt5Core.dll
 0000:fff7a000       .debug$S                   00400000     Qt5Core:Qt5Core.dll
 0000:fff7a000       .debug$S                   00400000     Qt5Core:Qt5Core.dll
 0000:fff7a000       .debug$S                   00400000     Qt5Core:Qt5Core.dll
 0000:fff7a000       .debug$S                   00400000     Qt5Core:Qt5Core.dll
 0000:fff7a000       .debug$S                   00400000     Qt5Core:Qt5Core.dll
 0000:fff7a000       .debug$S                   00400000     Qt5Core:Qt5Core.dll
 0000:fff7a000       .debug$S                   00400000     Qt5Core:Qt5Core.dll
 0000:fff7a000       .debug$S                   00400000     Qt5Core:Qt5Core.dll
 0000:fff7a000       .debug$S                   00400000     Qt5Core:Qt5Core.dll
 0000:fff7a000       .debug$S                   00400000     Qt5Core:Qt5Core.dll
 0000:fff7a000       .debug$S                   00400000     Qt5Core:Qt5Core.dll
 0000:fff7a000       .debug$S                   00400000     Qt5Core:Qt5Core.dll
 0000:fff7a000       .debug$S                   00400000     Qt5Core:Qt5Core.dll
 0000:fff7a000       .debug$S                   00400000     Qt5Core:Qt5Core.dll
 0000:fff7a000       .debug$S                   00400000     Qt5Core:Qt5Core.dll
 0000:fff7a000       .debug$S                   00400000     Qt5Core:Qt5Core.dll
 0000:fff7a000       .debug$S                   00400000     Qt5Core:Qt5Core.dll
 0000:fff7a000       .debug$S                   00400000     Qt5Core:Qt5Core.dll
 0000:fff7a000       .debug$S                   00400000     Qt5Core:Qt5Core.dll
 0000:fff7a000       .debug$S                   00400000     Qt5Core:Qt5Core.dll
 0000:fff7a000       .debug$S                   00400000     Qt5Core:Qt5Core.dll
 0000:fff7a000       .debug$S                   00400000     Qt5Core:Qt5Core.dll
 0000:fff7a000       .debug$S                   00400000     Qt5Core:Qt5Core.dll
 0000:fff7a000       .debug$S                   00400000     Qt5Core:Qt5Core.dll
 0000:fff7a000       .debug$S                   00400000     Qt5Core:Qt5Core.dll
 0000:fff7a000       .debug$S                   00400000     Qt5Core:Qt5Core.dll
 0000:fff7a000       .debug$S                   00400000     Qt5Core:Qt5Core.dll
 0000:fff7a000       .debug$S                   00400000     Qt5Core:Qt5Core.dll
 0000:fff7a000       .debug$S                   00400000     Qt5Core:Qt5Core.dll
 0000:fff7a000       .debug$S                   00400000     Qt5Core:Qt5Core.dll
 0000:fff7a000       .debug$S                   00400000     Qt5Core:Qt5Core.dll
 0000:fff7a000       .debug$S                   00400000     Qt5Core:Qt5Core.dll
 0000:fff7a000       .debug$S                   00400000     Qt5Core:Qt5Core.dll
 0000:fff7a000       .debug$S                   00400000     Qt5Core:Qt5Core.dll
 0000:fff7a000       .debug$S                   00400000     Qt5Core:Qt5Core.dll
 0000:fff7a000       .debug$S                   00400000     Qt5Core:Qt5Core.dll
 0000:fff7a000       .debug$S                   00400000     Qt5Core:Qt5Core.dll
 0000:fff7a000       .debug$S                   00400000     Qt5Core:Qt5Core.dll
 0000:fff7a000       .debug$S                   00400000     Qt5Core:Qt5Core.dll
 0000:fff7a000       .debug$S                   00400000     Qt5Core:Qt5Core.dll
 0000:fff7a000       .debug$S                   00400000     Qt5Core:Qt5Core.dll
 0000:fff7a000       .debug$S                   00400000     Qt5Core:Qt5Core.dll
 0000:fff7a000       .debug$S                   00400000     Qt5Core:Qt5Core.dll
 0000:fff7a000       .debug$S                   00400000     Qt5Core:Qt5Core.dll
 0000:fff7a000       .debug$S                   00400000     Qt5Core:Qt5Core.dll
 0000:fff7a000       .debug$S                   00400000     Qt5Core:Qt5Core.dll
 0000:fff7a000       .debug$S                   00400000     Qt5Core:Qt5Core.dll
 0000:fff7a000       .debug$S                   00400000     Qt5Core:Qt5Core.dll
 0000:fff7a000       .debug$S                   00400000     Qt5Core:Qt5Core.dll
 0000:fff7a000       .debug$S                   00400000     Qt5Core:Qt5Core.dll
 0000:fff7a000       .debug$S                   00400000     Qt5Core:Qt5Core.dll
 0000:fff7a000       .debug$S                   00400000     Qt5Core:Qt5Core.dll
 0000:fff7a000       .debug$S                   00400000     Qt5Core:Qt5Core.dll
 0000:fff7a000       .debug$S                   00400000     Qt5Core:Qt5Core.dll
 0000:fff7a000       .debug$S                   00400000     Qt5Core:Qt5Core.dll
 0000:fff7a000       .debug$S                   00400000     Qt5Core:Qt5Core.dll
 0000:fff7a000       .debug$S                   00400000     Qt5Core:Qt5Core.dll
 0000:fff7a000       .debug$S                   00400000     Qt5Core:Qt5Core.dll
 0000:fff7a000       .debug$S                   00400000     Qt5Core:Qt5Core.dll
 0000:fff7a000       .debug$S                   00400000     Qt5Core:Qt5Core.dll
 0000:fff7a000       .debug$S                   00400000     Qt5Core:Qt5Core.dll
 0000:fff7a000       .debug$S                   00400000     Qt5Core:Qt5Core.dll
 0000:fff7a000       .debug$S                   00400000     Qt5Core:Qt5Core.dll
 0000:fff7a000       .debug$S                   00400000     Qt5Core:Qt5Core.dll
 0000:fff7a000       .debug$S                   00400000     Qt5Core:Qt5Core.dll
 0000:fff7a000       .debug$S                   00400000     Qt5Core:Qt5Core.dll
 0000:fff7a000       .debug$S                   00400000     Qt5Core:Qt5Core.dll
 0000:fff7a000       .debug$S                   00400000     Qt5Core:Qt5Core.dll
 0000:fff7a000       .debug$S                   00400000     Qt5Core:Qt5Core.dll
 0000:fff7a000       .debug$S                   00400000     Qt5Core:Qt5Core.dll
 0000:fff7a000       .debug$S                   00400000     Qt5Core:Qt5Core.dll
 0000:fff7a000       .debug$S                   00400000     Qt5Core:Qt5Core.dll
 0000:fff7a000       .debug$S                   00400000     Qt5Core:Qt5Core.dll
 0000:fff7a000       .debug$S                   00400000     Qt5Core:Qt5Core.dll
 0000:fff7a000       .debug$S                   00400000     Qt5Core:Qt5Core.dll
 0000:fff7a000       .debug$S                   00400000     Qt5Core:Qt5Core.dll
 0000:fff7a000       .debug$S                   00400000     Qt5Core:Qt5Core.dll
 0000:fff7a000       .debug$S                   00400000     Qt5Core:Qt5Core.dll
 0000:fff7a000       .debug$S                   00400000     Qt5Core:Qt5Core.dll
 0000:fff7a000       .debug$S                   00400000     Qt5Core:Qt5Core.dll
 0000:fff7a000       .debug$S                   00400000     Qt5Core:Qt5Core.dll
 0000:fff7a000       .debug$S                   00400000     Qt5Core:Qt5Core.dll
 0000:fff7a000       .debug$S                   00400000     Qt5Core:Qt5Core.dll
 0000:fff7a000       .debug$S                   00400000     Qt5Core:Qt5Core.dll
 0000:fff7a000       .debug$S                   00400000     Qt5Core:Qt5Core.dll
 0000:fff7a000       .debug$S                   00400000     Qt5Core:Qt5Core.dll
 0000:fff7a000       .debug$S                   00400000     Qt5Core:Qt5Core.dll
 0000:fff7a000       .debug$S                   00400000     Qt5Core:Qt5Core.dll
 0000:fff7a000       .debug$S                   00400000     Qt5Core:Qt5Core.dll
 0000:fff7a000       .debug$S                   00400000     Qt5Core:Qt5Core.dll
 0000:fff7a000       .debug$S                   00400000     Qt5Core:Qt5Core.dll
 0000:fff7a000       .debug$S                   00400000     Qt5Core:Qt5Core.dll
 0000:fff7a000       .debug$S                   00400000     Qt5Core:Qt5Core.dll
 0000:fff7a000       .debug$S                   00400000     Qt5Core:Qt5Core.dll
 0000:fff7a000       .debug$S                   00400000     Qt5Core:Qt5Core.dll
 0000:fff7a000       .debug$S                   00400000     Qt5Core:Qt5Core.dll
 0000:fff7a000       .debug$S                   00400000     Qt5Network:Qt5Network.dll
 0000:fff7a000       .debug$S                   00400000     Qt5Network:Qt5Network.dll
 0000:fff7a000       .debug$S                   00400000     Qt5Core:Qt5Core.dll
 0000:fff7a000       .debug$S                   00400000     Qt5Core:Qt5Core.dll
 0000:fff7a000       .debug$S                   00400000     Qt5Core:Qt5Core.dll
 0000:fff7a000       .debug$S                   00400000     Qt5Core:Qt5Core.dll
 0000:fff7a000       .debug$S                   00400000     Qt5Core:Qt5Core.dll
 0000:fff7a000       .debug$S                   00400000     Qt5Core:Qt5Core.dll
 0000:fff7a000       .debug$S                   00400000     Qt5Core:Qt5Core.dll
 0000:fff7a000       .debug$S                   00400000     Qt5Core:Qt5Core.dll
 0000:fff7a000       .debug$S                   00400000     Qt5Core:Qt5Core.dll
 0000:fff7a000       .debug$S                   00400000     Qt5Core:Qt5Core.dll
 0000:fff7a000       .debug$S                   00400000     Qt5Core:Qt5Core.dll
 0000:fff7a000       .debug$S                   00400000     Qt5Core:Qt5Core.dll
 0000:fff7a000       .debug$S                   00400000     Qt5Core:Qt5Core.dll
 0000:fff7a000       .debug$S                   00400000     Qt5Core:Qt5Core.dll
 0000:fff7a000       .debug$S                   00400000     Qt5Core:Qt5Core.dll
 0000:fff7a000       .debug$S                   00400000     Qt5Core:Qt5Core.dll
 0000:fff7a000       .debug$S                   00400000     Qt5Core:Qt5Core.dll
 0000:fff7a000       .debug$S                   00400000     Qt5Core:Qt5Core.dll
 0000:fff7a000       .debug$S                   00400000     Qt5Network:Qt5Network.dll
 0000:fff7a000       .debug$S                   00400000     Qt5Network:Qt5Network.dll
 0000:fff7a000       .debug$S                   00400000     Qt5Network:Qt5Network.dll
 0000:fff7a000       .debug$S                   00400000     Qt5Core:Qt5Core.dll
 0000:fff7a000       .debug$S                   00400000     Qt5Core:Qt5Core.dll
 0000:fff7a000       .debug$S                   00400000     Qt5Core:Qt5Core.dll
 0000:fff7a000       .debug$S                   00400000     Qt5Core:Qt5Core.dll
 0000:fff7a000       .debug$S                   00400000     Qt5Core:Qt5Core.dll
 0000:fff7a000       .debug$S                   00400000     Qt5Core:Qt5Core.dll
 0000:fff7a000       .debug$S                   00400000     Qt5Core:Qt5Core.dll
 0000:fff7a000       .debug$S                   00400000     Qt5Core:Qt5Core.dll
 0000:fff7a000       .debug$S                   00400000     Qt5Core:Qt5Core.dll
 0000:fff7a000       .debug$S                   00400000     Qt5Core:Qt5Core.dll
 0000:fff7a000       .debug$S                   00400000     Qt5Core:Qt5Core.dll
 0000:fff7a000       .debug$S                   00400000     Qt5Core:Qt5Core.dll
 0000:fff7a000       .debug$S                   00400000     Qt5Core:Qt5Core.dll
 0000:fff7a000       .debug$S                   00400000     Qt5Core:Qt5Core.dll
 0000:fff7a000       .debug$S                   00400000     Qt5Core:Qt5Core.dll
 0000:fff7a000       .debug$S                   00400000     Qt5Core:Qt5Core.dll
 0000:fff7a000       .debug$S                   00400000     Qt5Core:Qt5Core.dll
 0000:fff7a000       .debug$S                   00400000     Qt5Core:Qt5Core.dll
 0000:fff7a000       .debug$S                   00400000     Qt5Core:Qt5Core.dll
 0000:fff7a000       .debug$S                   00400000     Qt5Core:Qt5Core.dll
 0000:fff7a000       .debug$S                   00400000     Qt5Core:Qt5Core.dll
 0000:fff7a000       .debug$S                   00400000     Qt5Core:Qt5Core.dll
 0000:fff7a000       .debug$S                   00400000     Qt5Core:Qt5Core.dll
 0000:fff7a000       .debug$S                   00400000     Qt5Core:Qt5Core.dll
 0000:fff7a000       .debug$S                   00400000     Qt5Core:Qt5Core.dll
 0000:fff7a000       .debug$S                   00400000     Qt5Core:Qt5Core.dll
 0000:fff7a000       .debug$S                   00400000     Qt5Core:Qt5Core.dll
 0000:fff7a000       .debug$S                   00400000     Qt5Core:Qt5Core.dll
 0000:fff7a000       .debug$S                   00400000     Qt5Core:Qt5Core.dll
 0000:fff7a000       .debug$S                   00400000     Qt5Core:Qt5Core.dll
 0000:fff7a000       .debug$S                   00400000     Qt5Core:Qt5Core.dll
 0000:fff7a000       .debug$S                   00400000     Qt5Core:Qt5Core.dll
 0000:fff7a000       .debug$S                   00400000     Qt5Core:Qt5Core.dll
 0000:fff7a000       .debug$S                   00400000     Qt5Core:Qt5Core.dll
 0000:fff7a000       .debug$S                   00400000     Qt5Core:Qt5Core.dll
 0000:fff7a000       .debug$S                   00400000     Qt5Core:Qt5Core.dll
 0000:fff7a000       .debug$S                   00400000     Qt5Core:Qt5Core.dll
 0000:fff7a000       .debug$S                   00400000     Qt5Core:Qt5Core.dll
 0000:fff7a000       .debug$S                   00400000     Qt5Core:Qt5Core.dll
 0000:fff7a000       .debug$S                   00400000     Qt5Core:Qt5Core.dll
 0000:fff7a000       .debug$S                   00400000     Qt5Core:Qt5Core.dll
 0000:fff7a000       .debug$S                   00400000     Qt5Core:Qt5Core.dll
 0000:fff7a000       .debug$S                   00400000     Qt5Core:Qt5Core.dll
 0000:fff7a000       .debug$S                   00400000     Qt5Core:Qt5Core.dll
 0000:fff7a000       .debug$S                   00400000     Qt5Core:Qt5Core.dll
 0000:fff7a000       .debug$S                   00400000     Qt5Core:Qt5Core.dll
 0000:fff7a000       .debug$S                   00400000     Qt5Core:Qt5Core.dll
 0001:00000000       ??__Edummy@?A0x60b45615@@YAXXZ 00401000 f   qrc_qml.obj
 0001:00000030       ??__E?staticMetaObject@SubThreadWorker@@2UQMetaObject@@B@@YAXXZ 00401030 f   moc_workflowprotocol.obj
 0001:00000040       ??__E?staticMetaObject@WorkflowController@@2UQMetaObject@@B@@YAXXZ 00401040 f   moc_workflowprotocol.obj
 0001:00000050       ??__E?staticMetaObject@SubThreadCheckWorker@@2UQMetaObject@@B@@YAXXZ 00401050 f   moc_workflowChecker.obj
 0001:00000060       ??__E?staticMetaObject@WorkflowCheckerController@@2UQMetaObject@@B@@YAXXZ 00401060 f   moc_workflowChecker.obj
 0001:00000070       ??__E?staticMetaObject@configFileHandler@@2UQMetaObject@@B@@YAXXZ 00401070 f   moc_configfilehandler.obj
 0001:00000080       ??__E?staticMetaObject@EnvironmentVariant@@2UQMetaObject@@B@@YAXXZ 00401080 f   moc_environmentvariant.obj
 0001:00000090       ??__E?staticMetaObject@AdministratorChecker@@2UQMetaObject@@B@@YAXXZ 00401090 f   moc_workmodels.obj
 0001:000000a0       ??__E?staticMetaObject@ConfigFileConverter@@2UQMetaObject@@B@@YAXXZ 004010a0 f   moc_workmodels.obj
 0001:000000b0       ??__E?staticMetaObject@OperationParamObject@@2UQMetaObject@@B@@YAXXZ 004010b0 f   moc_workmodels.obj
 0001:000000c0       ??__E?staticMetaObject@OperationParamSelector@@2UQMetaObject@@B@@YAXXZ 004010c0 f   moc_workmodels.obj
 0001:000000d0       ??__E?staticMetaObject@PlanController@@2UQMetaObject@@B@@YAXXZ 004010d0 f   moc_workmodels.obj
 0001:000000e0       ??__E?staticMetaObject@PlanSelector@@2UQMetaObject@@B@@YAXXZ 004010e0 f   moc_workmodels.obj
 0001:000000f0       ??__E?staticMetaObject@SingleOperationObject@@2UQMetaObject@@B@@YAXXZ 004010f0 f   moc_workmodels.obj
 0001:00000100       ??__E?staticMetaObject@StatusViewWatcher@@2UQMetaObject@@B@@YAXXZ 00401100 f   moc_workmodels.obj
 0001:00000110       ??__E?staticMetaObject@TargetMachineObject@@2UQMetaObject@@B@@YAXXZ 00401110 f   moc_workmodels.obj
 0001:00000120       ??__E?staticMetaObject@WorkLocationManager@@2UQMetaObject@@B@@YAXXZ 00401120 f   moc_workmodels.obj
 0001:00000741       __catch$??0?$QList@VQString@@@@QAE@ABV0@@Z$0 00401741 f i workflowprotocol.obj
 0001:00000d80       __catch$?append@?$QList@UloopControl@SubThreadWorker@@@@QAEXABUloopControl@SubThreadWorker@@@Z$2 00401d80 f i workflowprotocol.obj
 0001:00000d80       __catch$?append@?$QList@UloopControl@SubThreadWorker@@@@QAEXABUloopControl@SubThreadWorker@@@Z$0 00401d80 f i workflowprotocol.obj
 0001:00000e7b       __catch$?append@?$QList@VQString@@@@QAEXABVQString@@@Z$4 00401e7b f i workflowprotocol.obj
 0001:00001055       __catch$?detach_helper@?$QList@UloopControl@SubThreadWorker@@@@AAEXH@Z$0 00402055 f i workflowprotocol.obj
 0001:0000116d       __catch$?detach_helper_grow@?$QList@UloopControl@SubThreadWorker@@@@AAEPAUNode@1@HH@Z$2 0040216d f i workflowprotocol.obj
 0001:000011a8       __catch$?detach_helper_grow@?$QList@UloopControl@SubThreadWorker@@@@AAEPAUNode@1@HH@Z$0 004021a8 f i workflowprotocol.obj
 0001:000012ee       __catch$?detach_helper_grow@?$QList@VQString@@@@AAEPAUNode@1@HH@Z$2 004022ee f i workflowprotocol.obj
 0001:00001329       __catch$?detach_helper_grow@?$QList@VQString@@@@AAEPAUNode@1@HH@Z$0 00402329 f i workflowprotocol.obj
 0001:00003c36       __catch$?node_copy@?$QList@UloopControl@SubThreadWorker@@@@AAEXPAUNode@1@00@Z$0 00404c36 f i workflowprotocol.obj
 0001:00004c81       __catch$??0?$QList@H@@QAE@ABV0@@Z$0 00405c81 f i configfilehandler.obj
 0001:00004c81       __catch$??0?$QList@PAVQObject@@@@QAE@ABV0@@Z$0 00405c81 f i workmodels.obj
 0001:00004d31       __catch$??0?$QList@VOperationParamData@@@@QAE@ABV0@@Z$0 00405d31 f i configfilehandler.obj
 0001:00004de1       __catch$??0?$QList@VSingleOperationData@@@@QAE@ABV0@@Z$0 00405de1 f i configfilehandler.obj
 0001:0000ba95       __catch$?append@?$QList@H@@QAEXABH@Z$4 0040ca95 f i configfilehandler.obj
 0001:0000ba95       __catch$?append@?$QList@PAVQObject@@@@QAEXABQAVQObject@@@Z$4 0040ca95 f i workmodels.obj
 0001:0000bb03       __catch$?append@?$QList@VOperationParamData@@@@QAEXABVOperationParamData@@@Z$2 0040cb03 f i configfilehandler.obj
 0001:0000bb03       __catch$?append@?$QList@VOperationParamData@@@@QAEXABVOperationParamData@@@Z$0 0040cb03 f i configfilehandler.obj
 0001:0000bbd1       __catch$?append@?$QList@VSingleOperationData@@@@QAEXABVSingleOperationData@@@Z$0 0040cbd1 f i configfilehandler.obj
 0001:0000bbd1       __catch$?append@?$QList@VSingleOperationData@@@@QAEXABVSingleOperationData@@@Z$2 0040cbd1 f i configfilehandler.obj
 0001:0000bcb1       __catch$?append@?$QList@VSinglePlanData@@@@QAEXABVSinglePlanData@@@Z$2 0040ccb1 f i configfilehandler.obj
 0001:0000bcb1       __catch$?append@?$QList@VSinglePlanData@@@@QAEXABVSinglePlanData@@@Z$0 0040ccb1 f i configfilehandler.obj
 0001:0000c006       __catch$?createNode@?$QMapData@VQString@@VOperationParamData@@@@QAEPAU?$QMapNode@VQString@@VOperationParamData@@@@ABVQString@@ABVOperationParamData@@PAU2@_N@Z$0 0040d006 f i configfilehandler.obj
 0001:0000c01b       __catch$?createNode@?$QMapData@VQString@@VOperationParamData@@@@QAEPAU?$QMapNode@VQString@@VOperationParamData@@@@ABVQString@@ABVOperationParamData@@PAU2@_N@Z$2 0040d01b f i configfilehandler.obj
 0001:0000c0c6       __catch$?createNode@?$QMapData@VQString@@VQStringList@@@@QAEPAU?$QMapNode@VQString@@VQStringList@@@@ABVQString@@ABVQStringList@@PAU2@_N@Z$0 0040d0c6 f i configfilehandler.obj
 0001:0000c0db       __catch$?createNode@?$QMapData@VQString@@VQStringList@@@@QAEPAU?$QMapNode@VQString@@VQStringList@@@@ABVQString@@ABVQStringList@@PAU2@_N@Z$2 0040d0db f i configfilehandler.obj
 0001:0000c2bd       __catch$?detach_helper@?$QList@VQByteArray@@@@AAEXH@Z$0 0040d2bd f i configfilehandler.obj
 0001:0000c3ad       __catch$?detach_helper@?$QList@VQString@@@@AAEXH@Z$0 0040d3ad f i configfilehandler.obj
 0001:0000c67d       __catch$?detach_helper_grow@?$QList@VOperationParamData@@@@AAEPAUNode@1@HH@Z$2 0040d67d f i configfilehandler.obj
 0001:0000c6b8       __catch$?detach_helper_grow@?$QList@VOperationParamData@@@@AAEPAUNode@1@HH@Z$0 0040d6b8 f i configfilehandler.obj
 0001:0000c7ea       __catch$?detach_helper_grow@?$QList@VSingleOperationData@@@@AAEPAUNode@1@HH@Z$2 0040d7ea f i configfilehandler.obj
 0001:0000c825       __catch$?detach_helper_grow@?$QList@VSingleOperationData@@@@AAEPAUNode@1@HH@Z$0 0040d825 f i configfilehandler.obj
 0001:0000c95a       __catch$?detach_helper_grow@?$QList@VSinglePlanData@@@@AAEPAUNode@1@HH@Z$2 0040d95a f i configfilehandler.obj
 0001:0000c995       __catch$?detach_helper_grow@?$QList@VSinglePlanData@@@@AAEPAUNode@1@HH@Z$0 0040d995 f i configfilehandler.obj
 0001:0000ce4f       __catch$?node_copy@?$QList@VOperationParamData@@@@AAEXPAUNode@1@00@Z$0 0040de4f f i configfilehandler.obj
 0001:0000cf72       __catch$?node_copy@?$QList@VSingleOperationData@@@@AAEXPAUNode@1@00@Z$0 0040df72 f i configfilehandler.obj
 0001:0000d042       __catch$?node_copy@?$QList@VSinglePlanData@@@@AAEXPAUNode@1@00@Z$0 0040e042 f i configfilehandler.obj
 0001:0000db76       __catch$??Y?$QList@VQString@@@@QAEAAV0@ABV0@@Z$0 0040eb76 f i environmentvariant.obj
 0001:0000fc17       __catch$?detach_helper@?$QList@H@@AAEXH@Z$0 00410c17 f i environmentvariant.obj
 0001:0000fce5       __catch$?detach_helper@?$QList@VOperationParamData@@@@AAEXH@Z$0 00410ce5 f i environmentvariant.obj
 0001:0000fdd2       __catch$?detach_helper@?$QList@VSingleOperationData@@@@AAEXH@Z$0 00410dd2 f i environmentvariant.obj
 0001:0000feb2       __catch$?detach_helper@?$QList@VSinglePlanData@@@@AAEXH@Z$0 00410eb2 f i environmentvariant.obj
 0001:00010fef       __catch$?insert@?$QList@VSingleOperationData@@@@QAEXHABVSingleOperationData@@@Z$0 00411fef f i environmentvariant.obj
 0001:00010fef       __catch$?insert@?$QList@VSingleOperationData@@@@QAEXHABVSingleOperationData@@@Z$2 00411fef f i environmentvariant.obj
 0001:00014d4c       $LN98                      00415d4c     main.obj
 0001:0001604f       __catch$?detach_helper_grow@?$QList@PAVQObject@@@@AAEPAUNode@1@HH@Z$2 0041704f f i workmodels.obj
 0001:0001604f       __catch$?detach_helper_grow@?$QList@H@@AAEPAUNode@1@HH@Z$2 0041704f f i configfilehandler.obj
 0001:0001607b       __catch$?detach_helper_grow@?$QList@H@@AAEPAUNode@1@HH@Z$0 0041707b f i configfilehandler.obj
 0001:0001607b       __catch$?detach_helper_grow@?$QList@PAVQObject@@@@AAEPAUNode@1@HH@Z$0 0041707b f i workmodels.obj
 0001:00019eac       $LN22                      0041aeac     moc_workflowprotocol.obj
 0001:00019ff0       $LN27                      0041aff0     moc_workflowprotocol.obj
 0001:0001a3a4       $LN16                      0041b3a4     moc_workflowChecker.obj
 0001:0001a468       $LN19                      0041b468     moc_workflowChecker.obj
 0001:0001c0d8       $LN172                     0041d0d8     moc_workmodels.obj
 0001:0001c110       $LN173                     0041d110     moc_workmodels.obj
 0001:0001c148       $LN174                     0041d148     moc_workmodels.obj
 0001:0001c404       $LN56                      0041d404     moc_workmodels.obj
 0001:0001c4ac       $LN17                      0041d4ac     moc_workmodels.obj
 0001:0001c988       $LN94                      0041d988     moc_workmodels.obj
 0001:0001cc80       $LN47                      0041dc80     moc_workmodels.obj
 0001:0001cc90       $LN48                      0041dc90     moc_workmodels.obj
 0001:0001cdb8       $LN18                      0041ddb8     moc_workmodels.obj
 0001:0001d780       ?__scrt_initialize_thread_safe_statics@@YAHXZ 0041e780 f   MSVCRT:thread_safe_statics.obj
 0001:0001d85d       ?__scrt_uninitialize_thread_safe_statics@@YAXXZ 0041e85d f   MSVCRT:thread_safe_statics.obj
 0001:0001d9df       ?find_pe_section@@YAPAU_IMAGE_SECTION_HEADER@@QAEI@Z 0041e9df f   MSVCRT:utility.obj
 0001:0001dc47       ?pre_c_initialization@@YAHXZ 0041ec47 f   MSVCRT:exe_winmain.obj
 0001:0001dceb       ?post_pgo_initialization@@YAHXZ 0041eceb f   MSVCRT:exe_winmain.obj
 0001:0001dcf3       ?pre_cpp_initialization@@YAXXZ 0041ecf3 f   MSVCRT:exe_winmain.obj
 0001:0001dd05       ?__scrt_common_main_seh@@YAHXZ 0041ed05 f   MSVCRT:exe_winmain.obj
 0001:0001e450       $$000000                   0041f450     MSVCRT:_sehprolg4_.obj
 0001:0001e850       __unwindfunclet$?connectToServer@Communication@@QAE_NABVQString@@G@Z$0 0041f850 f   communication.obj
 0001:0001e859       __unwindfunclet$?connectToServer@Communication@@QAE_NABVQString@@G@Z$1 0041f859 f   communication.obj
 0001:0001e862       __unwindfunclet$?connectToServer@Communication@@QAE_NABVQString@@G@Z$2 0041f862 f   communication.obj
 0001:0001e86b       __unwindfunclet$?connectToServer@Communication@@QAE_NABVQString@@G@Z$3 0041f86b f   communication.obj
 0001:0001e874       __unwindfunclet$?connectToServer@Communication@@QAE_NABVQString@@G@Z$4 0041f874 f   communication.obj
 0001:0001e87d       __ehhandler$?connectToServer@Communication@@QAE_NABVQString@@G@Z 0041f87d f   communication.obj
 0001:0001e8a0       __ehhandler$??0?$QList@VQString@@@@QAE@ABV0@@Z 0041f8a0 f   workflowprotocol.obj
 0001:0001e8c0       __unwindfunclet$??0WorkflowController@@QAE@PAVQObject@@@Z$0 0041f8c0 f   workflowprotocol.obj
 0001:0001e8c9       __unwindfunclet$??0WorkflowController@@QAE@PAVQObject@@@Z$1 0041f8c9 f   workflowprotocol.obj
 0001:0001e8d5       __unwindfunclet$??0WorkflowController@@QAE@PAVQObject@@@Z$2 0041f8d5 f   workflowprotocol.obj
 0001:0001e8e4       __unwindfunclet$??0WorkflowController@@QAE@PAVQObject@@@Z$3 0041f8e4 f   workflowprotocol.obj
 0001:0001e8f3       __ehhandler$??0WorkflowController@@QAE@PAVQObject@@@Z 0041f8f3 f   workflowprotocol.obj
 0001:0001e910       __unwindfunclet$??4?$QList@UloopControl@SubThreadWorker@@@@QAEAAV0@$$QAV0@@Z$8 0041f910 f   workflowprotocol.obj
 0001:0001e916       __ehhandler$??4?$QList@UloopControl@SubThreadWorker@@@@QAEAAV0@$$QAV0@@Z 0041f916 f   workflowprotocol.obj
 0001:0001e940       __unwindfunclet$??4?$QList@PAVQObject@@@@QAEAAV0@$$QAV0@@Z$8 0041f940 f   workmodels.obj
 0001:0001e940       __unwindfunclet$??4SingleOperationData@@QAEAAV0@$$QAV0@@Z$9 0041f940 f   environmentvariant.obj
 0001:0001e940       __unwindfunclet$??_GSinglePlanData@@QAEPAXI@Z$1 0041f940 f   configfilehandler.obj
 0001:0001e940       __unwindfunclet$??_GWorkflowController@@UAEPAXI@Z$0 0041f940 f   workflowprotocol.obj
 0001:0001e940       __unwindfunclet$??1SinglePlanData@@QAE@XZ$0 0041f940 f   configfilehandler.obj
 0001:0001e940       __unwindfunclet$??1SubThreadWorker@@UAE@XZ$2 0041f940 f   workflowprotocol.obj
 0001:0001e940       __unwindfunclet$??4?$QList@VSinglePlanData@@@@QAEAAV0@$$QAV0@@Z$8 0041f940 f   configfilehandler.obj
 0001:0001e940       __unwindfunclet$??4?$QList@H@@QAEAAV0@$$QAV0@@Z$8 0041f940 f   configfilehandler.obj
 0001:0001e940       __unwindfunclet$??_GWorkflowCheckerController@@UAEPAXI@Z$0 0041f940 f   workflowChecker.obj
 0001:0001e946       __ehhandler$??1SinglePlanData@@QAE@XZ 0041f946 f   configfilehandler.obj
 0001:0001e946       __ehhandler$??_GSinglePlanData@@QAEPAXI@Z 0041f946 f   configfilehandler.obj
 0001:0001e946       __ehhandler$??4?$QList@VSinglePlanData@@@@QAEAAV0@$$QAV0@@Z 0041f946 f   configfilehandler.obj
 0001:0001e946       __ehhandler$??4?$QList@H@@QAEAAV0@$$QAV0@@Z 0041f946 f   configfilehandler.obj
 0001:0001e946       __ehhandler$??_GWorkflowCheckerController@@UAEPAXI@Z 0041f946 f   workflowChecker.obj
 0001:0001e946       __ehhandler$??4?$QList@PAVQObject@@@@QAEAAV0@$$QAV0@@Z 0041f946 f   workmodels.obj
 0001:0001e946       __ehhandler$??4SingleOperationData@@QAEAAV0@$$QAV0@@Z 0041f946 f   environmentvariant.obj
 0001:0001e946       __ehhandler$??_GWorkflowController@@UAEPAXI@Z 0041f946 f   workflowprotocol.obj
 0001:0001e946       __ehhandler$??1SubThreadWorker@@UAE@XZ 0041f946 f   workflowprotocol.obj
 0001:0001e970       __ehhandler$?append@?$QList@UloopControl@SubThreadWorker@@@@QAEXABUloopControl@SubThreadWorker@@@Z 0041f970 f   workflowprotocol.obj
 0001:0001e990       __ehhandler$?append@?$QList@VQString@@@@QAEXABVQString@@@Z 0041f990 f   workflowprotocol.obj
 0001:0001e9b0       __ehhandler$?detach_helper@?$QList@UloopControl@SubThreadWorker@@@@AAEXH@Z 0041f9b0 f   workflowprotocol.obj
 0001:0001e9d0       __ehhandler$?detach_helper_grow@?$QList@UloopControl@SubThreadWorker@@@@AAEPAUNode@1@HH@Z 0041f9d0 f   workflowprotocol.obj
 0001:0001e9f0       __ehhandler$?detach_helper_grow@?$QList@VQString@@@@AAEPAUNode@1@HH@Z 0041f9f0 f   workflowprotocol.obj
 0001:0001ea10       __unwindfunclet$?doTunning@SubThreadWorker@@QAEXABVQJsonObject@@@Z$0 0041fa10 f   workflowprotocol.obj
 0001:0001ea18       __unwindfunclet$?doTunning@SubThreadWorker@@QAEXABVQJsonObject@@@Z$1 0041fa18 f   workflowprotocol.obj
 0001:0001ea21       __unwindfunclet$?doTunning@SubThreadWorker@@QAEXABVQJsonObject@@@Z$2 0041fa21 f   workflowprotocol.obj
 0001:0001ea2a       __unwindfunclet$?doTunning@SubThreadWorker@@QAEXABVQJsonObject@@@Z$3 0041fa2a f   workflowprotocol.obj
 0001:0001ea33       __unwindfunclet$?doTunning@SubThreadWorker@@QAEXABVQJsonObject@@@Z$4 0041fa33 f   workflowprotocol.obj
 0001:0001ea3c       __unwindfunclet$?doTunning@SubThreadWorker@@QAEXABVQJsonObject@@@Z$5 0041fa3c f   workflowprotocol.obj
 0001:0001ea45       __ehhandler$?doTunning@SubThreadWorker@@QAEXABVQJsonObject@@@Z 0041fa45 f   workflowprotocol.obj
 0001:0001ea60       __unwindfunclet$?doWork@SubThreadWorker@@QAEXABVQJsonObject@@@Z$0 0041fa60 f   workflowprotocol.obj
 0001:0001ea68       __unwindfunclet$?doWork@SubThreadWorker@@QAEXABVQJsonObject@@@Z$1 0041fa68 f   workflowprotocol.obj
 0001:0001ea71       __unwindfunclet$?doWork@SubThreadWorker@@QAEXABVQJsonObject@@@Z$2 0041fa71 f   workflowprotocol.obj
 0001:0001ea7a       __unwindfunclet$?doWork@SubThreadWorker@@QAEXABVQJsonObject@@@Z$3 0041fa7a f   workflowprotocol.obj
 0001:0001ea83       __unwindfunclet$?doWork@SubThreadWorker@@QAEXABVQJsonObject@@@Z$4 0041fa83 f   workflowprotocol.obj
 0001:0001ea8c       __unwindfunclet$?doWork@SubThreadWorker@@QAEXABVQJsonObject@@@Z$5 0041fa8c f   workflowprotocol.obj
 0001:0001ea95       __unwindfunclet$?doWork@SubThreadWorker@@QAEXABVQJsonObject@@@Z$6 0041fa95 f   workflowprotocol.obj
 0001:0001ea9e       __unwindfunclet$?doWork@SubThreadWorker@@QAEXABVQJsonObject@@@Z$7 0041fa9e f   workflowprotocol.obj
 0001:0001eaa7       __unwindfunclet$?doWork@SubThreadWorker@@QAEXABVQJsonObject@@@Z$8 0041faa7 f   workflowprotocol.obj
 0001:0001eab0       __unwindfunclet$?doWork@SubThreadWorker@@QAEXABVQJsonObject@@@Z$9 0041fab0 f   workflowprotocol.obj
 0001:0001eab9       __unwindfunclet$?doWork@SubThreadWorker@@QAEXABVQJsonObject@@@Z$10 0041fab9 f   workflowprotocol.obj
 0001:0001eac2       __ehhandler$?doWork@SubThreadWorker@@QAEXABVQJsonObject@@@Z 0041fac2 f   workflowprotocol.obj
 0001:0001eae0       __unwindfunclet$?formatRecvFrameToJsonObject@WorkflowProtocol@@QAE_NAAVQJsonObject@@@Z$0 0041fae0 f   workflowprotocol.obj
 0001:0001eae9       __unwindfunclet$?formatRecvFrameToJsonObject@WorkflowProtocol@@QAE_NAAVQJsonObject@@@Z$1 0041fae9 f   workflowprotocol.obj
 0001:0001eaf2       __ehhandler$?formatRecvFrameToJsonObject@WorkflowProtocol@@QAE_NAAVQJsonObject@@@Z 0041faf2 f   workflowprotocol.obj
 0001:0001eb10       __unwindfunclet$?handleControlCommand@SubThreadWorker@@IAE_NAAVCommunication@@AAVQJsonObject@@@Z$0 0041fb10 f   workflowprotocol.obj
 0001:0001eb19       __unwindfunclet$?handleControlCommand@SubThreadWorker@@IAE_NAAVCommunication@@AAVQJsonObject@@@Z$1 0041fb19 f   workflowprotocol.obj
 0001:0001eb22       __unwindfunclet$?handleControlCommand@SubThreadWorker@@IAE_NAAVCommunication@@AAVQJsonObject@@@Z$2 0041fb22 f   workflowprotocol.obj
 0001:0001eb2b       __unwindfunclet$?handleControlCommand@SubThreadWorker@@IAE_NAAVCommunication@@AAVQJsonObject@@@Z$3 0041fb2b f   workflowprotocol.obj
 0001:0001eb34       __unwindfunclet$?handleControlCommand@SubThreadWorker@@IAE_NAAVCommunication@@AAVQJsonObject@@@Z$4 0041fb34 f   workflowprotocol.obj
 0001:0001eb3d       __unwindfunclet$?handleControlCommand@SubThreadWorker@@IAE_NAAVCommunication@@AAVQJsonObject@@@Z$5 0041fb3d f   workflowprotocol.obj
 0001:0001eb46       __unwindfunclet$?handleControlCommand@SubThreadWorker@@IAE_NAAVCommunication@@AAVQJsonObject@@@Z$53 0041fb46 f   workflowprotocol.obj
 0001:0001eb52       __unwindfunclet$?handleControlCommand@SubThreadWorker@@IAE_NAAVCommunication@@AAVQJsonObject@@@Z$6 0041fb52 f   workflowprotocol.obj
 0001:0001eb5b       __unwindfunclet$?handleControlCommand@SubThreadWorker@@IAE_NAAVCommunication@@AAVQJsonObject@@@Z$7 0041fb5b f   workflowprotocol.obj
 0001:0001eb64       __unwindfunclet$?handleControlCommand@SubThreadWorker@@IAE_NAAVCommunication@@AAVQJsonObject@@@Z$8 0041fb64 f   workflowprotocol.obj
 0001:0001eb6d       __unwindfunclet$?handleControlCommand@SubThreadWorker@@IAE_NAAVCommunication@@AAVQJsonObject@@@Z$9 0041fb6d f   workflowprotocol.obj
 0001:0001eb76       __unwindfunclet$?handleControlCommand@SubThreadWorker@@IAE_NAAVCommunication@@AAVQJsonObject@@@Z$10 0041fb76 f   workflowprotocol.obj
 0001:0001eb7f       __unwindfunclet$?handleControlCommand@SubThreadWorker@@IAE_NAAVCommunication@@AAVQJsonObject@@@Z$11 0041fb7f f   workflowprotocol.obj
 0001:0001eb88       __unwindfunclet$?handleControlCommand@SubThreadWorker@@IAE_NAAVCommunication@@AAVQJsonObject@@@Z$12 0041fb88 f   workflowprotocol.obj
 0001:0001eb91       __unwindfunclet$?handleControlCommand@SubThreadWorker@@IAE_NAAVCommunication@@AAVQJsonObject@@@Z$13 0041fb91 f   workflowprotocol.obj
 0001:0001eb9a       __unwindfunclet$?handleControlCommand@SubThreadWorker@@IAE_NAAVCommunication@@AAVQJsonObject@@@Z$14 0041fb9a f   workflowprotocol.obj
 0001:0001eba3       __unwindfunclet$?handleControlCommand@SubThreadWorker@@IAE_NAAVCommunication@@AAVQJsonObject@@@Z$15 0041fba3 f   workflowprotocol.obj
 0001:0001ebac       __unwindfunclet$?handleControlCommand@SubThreadWorker@@IAE_NAAVCommunication@@AAVQJsonObject@@@Z$16 0041fbac f   workflowprotocol.obj
 0001:0001ebb5       __unwindfunclet$?handleControlCommand@SubThreadWorker@@IAE_NAAVCommunication@@AAVQJsonObject@@@Z$17 0041fbb5 f   workflowprotocol.obj
 0001:0001ebbe       __unwindfunclet$?handleControlCommand@SubThreadWorker@@IAE_NAAVCommunication@@AAVQJsonObject@@@Z$18 0041fbbe f   workflowprotocol.obj
 0001:0001ebc7       __unwindfunclet$?handleControlCommand@SubThreadWorker@@IAE_NAAVCommunication@@AAVQJsonObject@@@Z$19 0041fbc7 f   workflowprotocol.obj
 0001:0001ebd0       __unwindfunclet$?handleControlCommand@SubThreadWorker@@IAE_NAAVCommunication@@AAVQJsonObject@@@Z$20 0041fbd0 f   workflowprotocol.obj
 0001:0001ebd9       __unwindfunclet$?handleControlCommand@SubThreadWorker@@IAE_NAAVCommunication@@AAVQJsonObject@@@Z$21 0041fbd9 f   workflowprotocol.obj
 0001:0001ebe2       __unwindfunclet$?handleControlCommand@SubThreadWorker@@IAE_NAAVCommunication@@AAVQJsonObject@@@Z$22 0041fbe2 f   workflowprotocol.obj
 0001:0001ebeb       __unwindfunclet$?handleControlCommand@SubThreadWorker@@IAE_NAAVCommunication@@AAVQJsonObject@@@Z$23 0041fbeb f   workflowprotocol.obj
 0001:0001ebf4       __unwindfunclet$?handleControlCommand@SubThreadWorker@@IAE_NAAVCommunication@@AAVQJsonObject@@@Z$24 0041fbf4 f   workflowprotocol.obj
 0001:0001ebfd       __unwindfunclet$?handleControlCommand@SubThreadWorker@@IAE_NAAVCommunication@@AAVQJsonObject@@@Z$25 0041fbfd f   workflowprotocol.obj
 0001:0001ec06       __unwindfunclet$?handleControlCommand@SubThreadWorker@@IAE_NAAVCommunication@@AAVQJsonObject@@@Z$26 0041fc06 f   workflowprotocol.obj
 0001:0001ec0f       __unwindfunclet$?handleControlCommand@SubThreadWorker@@IAE_NAAVCommunication@@AAVQJsonObject@@@Z$27 0041fc0f f   workflowprotocol.obj
 0001:0001ec18       __unwindfunclet$?handleControlCommand@SubThreadWorker@@IAE_NAAVCommunication@@AAVQJsonObject@@@Z$28 0041fc18 f   workflowprotocol.obj
 0001:0001ec21       __unwindfunclet$?handleControlCommand@SubThreadWorker@@IAE_NAAVCommunication@@AAVQJsonObject@@@Z$29 0041fc21 f   workflowprotocol.obj
 0001:0001ec2a       __unwindfunclet$?handleControlCommand@SubThreadWorker@@IAE_NAAVCommunication@@AAVQJsonObject@@@Z$30 0041fc2a f   workflowprotocol.obj
 0001:0001ec33       __unwindfunclet$?handleControlCommand@SubThreadWorker@@IAE_NAAVCommunication@@AAVQJsonObject@@@Z$31 0041fc33 f   workflowprotocol.obj
 0001:0001ec3c       __unwindfunclet$?handleControlCommand@SubThreadWorker@@IAE_NAAVCommunication@@AAVQJsonObject@@@Z$32 0041fc3c f   workflowprotocol.obj
 0001:0001ec45       __unwindfunclet$?handleControlCommand@SubThreadWorker@@IAE_NAAVCommunication@@AAVQJsonObject@@@Z$33 0041fc45 f   workflowprotocol.obj
 0001:0001ec4e       __unwindfunclet$?handleControlCommand@SubThreadWorker@@IAE_NAAVCommunication@@AAVQJsonObject@@@Z$34 0041fc4e f   workflowprotocol.obj
 0001:0001ec57       __unwindfunclet$?handleControlCommand@SubThreadWorker@@IAE_NAAVCommunication@@AAVQJsonObject@@@Z$36 0041fc57 f   workflowprotocol.obj
 0001:0001ec60       __unwindfunclet$?handleControlCommand@SubThreadWorker@@IAE_NAAVCommunication@@AAVQJsonObject@@@Z$37 0041fc60 f   workflowprotocol.obj
 0001:0001ec69       __unwindfunclet$?handleControlCommand@SubThreadWorker@@IAE_NAAVCommunication@@AAVQJsonObject@@@Z$38 0041fc69 f   workflowprotocol.obj
 0001:0001ec72       __unwindfunclet$?handleControlCommand@SubThreadWorker@@IAE_NAAVCommunication@@AAVQJsonObject@@@Z$39 0041fc72 f   workflowprotocol.obj
 0001:0001ec7b       __unwindfunclet$?handleControlCommand@SubThreadWorker@@IAE_NAAVCommunication@@AAVQJsonObject@@@Z$40 0041fc7b f   workflowprotocol.obj
 0001:0001ec84       __unwindfunclet$?handleControlCommand@SubThreadWorker@@IAE_NAAVCommunication@@AAVQJsonObject@@@Z$41 0041fc84 f   workflowprotocol.obj
 0001:0001ec8d       __unwindfunclet$?handleControlCommand@SubThreadWorker@@IAE_NAAVCommunication@@AAVQJsonObject@@@Z$42 0041fc8d f   workflowprotocol.obj
 0001:0001ec96       __unwindfunclet$?handleControlCommand@SubThreadWorker@@IAE_NAAVCommunication@@AAVQJsonObject@@@Z$43 0041fc96 f   workflowprotocol.obj
 0001:0001ec9f       __unwindfunclet$?handleControlCommand@SubThreadWorker@@IAE_NAAVCommunication@@AAVQJsonObject@@@Z$44 0041fc9f f   workflowprotocol.obj
 0001:0001eca8       __unwindfunclet$?handleControlCommand@SubThreadWorker@@IAE_NAAVCommunication@@AAVQJsonObject@@@Z$45 0041fca8 f   workflowprotocol.obj
 0001:0001ecb1       __unwindfunclet$?handleControlCommand@SubThreadWorker@@IAE_NAAVCommunication@@AAVQJsonObject@@@Z$46 0041fcb1 f   workflowprotocol.obj
 0001:0001ecba       __unwindfunclet$?handleControlCommand@SubThreadWorker@@IAE_NAAVCommunication@@AAVQJsonObject@@@Z$47 0041fcba f   workflowprotocol.obj
 0001:0001ecc3       __unwindfunclet$?handleControlCommand@SubThreadWorker@@IAE_NAAVCommunication@@AAVQJsonObject@@@Z$48 0041fcc3 f   workflowprotocol.obj
 0001:0001eccc       __unwindfunclet$?handleControlCommand@SubThreadWorker@@IAE_NAAVCommunication@@AAVQJsonObject@@@Z$49 0041fccc f   workflowprotocol.obj
 0001:0001ecd5       __unwindfunclet$?handleControlCommand@SubThreadWorker@@IAE_NAAVCommunication@@AAVQJsonObject@@@Z$50 0041fcd5 f   workflowprotocol.obj
 0001:0001ecde       __unwindfunclet$?handleControlCommand@SubThreadWorker@@IAE_NAAVCommunication@@AAVQJsonObject@@@Z$51 0041fcde f   workflowprotocol.obj
 0001:0001ecf8       __unwindfunclet$?handleControlCommand@SubThreadWorker@@IAE_NAAVCommunication@@AAVQJsonObject@@@Z$52 0041fcf8 f   workflowprotocol.obj
 0001:0001ed12       __unwindfunclet$?handleControlCommand@SubThreadWorker@@IAE_NAAVCommunication@@AAVQJsonObject@@@Z$54 0041fd12 f   workflowprotocol.obj
 0001:0001ed1e       __ehhandler$?handleControlCommand@SubThreadWorker@@IAE_NAAVCommunication@@AAVQJsonObject@@@Z 0041fd1e f   workflowprotocol.obj
 0001:0001ed40       __unwindfunclet$?handleLogicalCommand@SubThreadWorker@@IAE_NAAVQJsonObject@@AAH@Z$0 0041fd40 f   workflowprotocol.obj
 0001:0001ed49       __unwindfunclet$?handleLogicalCommand@SubThreadWorker@@IAE_NAAVQJsonObject@@AAH@Z$1 0041fd49 f   workflowprotocol.obj
 0001:0001ed52       __unwindfunclet$?handleLogicalCommand@SubThreadWorker@@IAE_NAAVQJsonObject@@AAH@Z$2 0041fd52 f   workflowprotocol.obj
 0001:0001ed5b       __unwindfunclet$?handleLogicalCommand@SubThreadWorker@@IAE_NAAVQJsonObject@@AAH@Z$3 0041fd5b f   workflowprotocol.obj
 0001:0001ed67       __unwindfunclet$?handleLogicalCommand@SubThreadWorker@@IAE_NAAVQJsonObject@@AAH@Z$4 0041fd67 f   workflowprotocol.obj
 0001:0001ed70       __unwindfunclet$?handleLogicalCommand@SubThreadWorker@@IAE_NAAVQJsonObject@@AAH@Z$5 0041fd70 f   workflowprotocol.obj
 0001:0001ed79       __unwindfunclet$?handleLogicalCommand@SubThreadWorker@@IAE_NAAVQJsonObject@@AAH@Z$6 0041fd79 f   workflowprotocol.obj
 0001:0001ed82       __unwindfunclet$?handleLogicalCommand@SubThreadWorker@@IAE_NAAVQJsonObject@@AAH@Z$7 0041fd82 f   workflowprotocol.obj
 0001:0001ed8e       __unwindfunclet$?handleLogicalCommand@SubThreadWorker@@IAE_NAAVQJsonObject@@AAH@Z$8 0041fd8e f   workflowprotocol.obj
 0001:0001ed97       __unwindfunclet$?handleLogicalCommand@SubThreadWorker@@IAE_NAAVQJsonObject@@AAH@Z$9 0041fd97 f   workflowprotocol.obj
 0001:0001eda3       __unwindfunclet$?handleLogicalCommand@SubThreadWorker@@IAE_NAAVQJsonObject@@AAH@Z$10 0041fda3 f   workflowprotocol.obj
 0001:0001edac       __unwindfunclet$?handleLogicalCommand@SubThreadWorker@@IAE_NAAVQJsonObject@@AAH@Z$11 0041fdac f   workflowprotocol.obj
 0001:0001edb8       __unwindfunclet$?handleLogicalCommand@SubThreadWorker@@IAE_NAAVQJsonObject@@AAH@Z$12 0041fdb8 f   workflowprotocol.obj
 0001:0001edc1       __unwindfunclet$?handleLogicalCommand@SubThreadWorker@@IAE_NAAVQJsonObject@@AAH@Z$13 0041fdc1 f   workflowprotocol.obj
 0001:0001edcd       __unwindfunclet$?handleLogicalCommand@SubThreadWorker@@IAE_NAAVQJsonObject@@AAH@Z$14 0041fdcd f   workflowprotocol.obj
 0001:0001edd6       __unwindfunclet$?handleLogicalCommand@SubThreadWorker@@IAE_NAAVQJsonObject@@AAH@Z$15 0041fdd6 f   workflowprotocol.obj
 0001:0001ede2       __unwindfunclet$?handleLogicalCommand@SubThreadWorker@@IAE_NAAVQJsonObject@@AAH@Z$16 0041fde2 f   workflowprotocol.obj
 0001:0001edeb       __unwindfunclet$?handleLogicalCommand@SubThreadWorker@@IAE_NAAVQJsonObject@@AAH@Z$17 0041fdeb f   workflowprotocol.obj
 0001:0001edf7       __unwindfunclet$?handleLogicalCommand@SubThreadWorker@@IAE_NAAVQJsonObject@@AAH@Z$18 0041fdf7 f   workflowprotocol.obj
 0001:0001ee00       __unwindfunclet$?handleLogicalCommand@SubThreadWorker@@IAE_NAAVQJsonObject@@AAH@Z$19 0041fe00 f   workflowprotocol.obj
 0001:0001ee0c       __unwindfunclet$?handleLogicalCommand@SubThreadWorker@@IAE_NAAVQJsonObject@@AAH@Z$20 0041fe0c f   workflowprotocol.obj
 0001:0001ee15       __unwindfunclet$?handleLogicalCommand@SubThreadWorker@@IAE_NAAVQJsonObject@@AAH@Z$21 0041fe15 f   workflowprotocol.obj
 0001:0001ee1e       __unwindfunclet$?handleLogicalCommand@SubThreadWorker@@IAE_NAAVQJsonObject@@AAH@Z$22 0041fe1e f   workflowprotocol.obj
 0001:0001ee27       __unwindfunclet$?handleLogicalCommand@SubThreadWorker@@IAE_NAAVQJsonObject@@AAH@Z$23 0041fe27 f   workflowprotocol.obj
 0001:0001ee33       __unwindfunclet$?handleLogicalCommand@SubThreadWorker@@IAE_NAAVQJsonObject@@AAH@Z$24 0041fe33 f   workflowprotocol.obj
 0001:0001ee3c       __unwindfunclet$?handleLogicalCommand@SubThreadWorker@@IAE_NAAVQJsonObject@@AAH@Z$25 0041fe3c f   workflowprotocol.obj
 0001:0001ee45       __unwindfunclet$?handleLogicalCommand@SubThreadWorker@@IAE_NAAVQJsonObject@@AAH@Z$26 0041fe45 f   workflowprotocol.obj
 0001:0001ee4e       __unwindfunclet$?handleLogicalCommand@SubThreadWorker@@IAE_NAAVQJsonObject@@AAH@Z$27 0041fe4e f   workflowprotocol.obj
 0001:0001ee57       __unwindfunclet$?handleLogicalCommand@SubThreadWorker@@IAE_NAAVQJsonObject@@AAH@Z$28 0041fe57 f   workflowprotocol.obj
 0001:0001ee60       __unwindfunclet$?handleLogicalCommand@SubThreadWorker@@IAE_NAAVQJsonObject@@AAH@Z$29 0041fe60 f   workflowprotocol.obj
 0001:0001ee69       __unwindfunclet$?handleLogicalCommand@SubThreadWorker@@IAE_NAAVQJsonObject@@AAH@Z$30 0041fe69 f   workflowprotocol.obj
 0001:0001ee72       __unwindfunclet$?handleLogicalCommand@SubThreadWorker@@IAE_NAAVQJsonObject@@AAH@Z$31 0041fe72 f   workflowprotocol.obj
 0001:0001ee7b       __unwindfunclet$?handleLogicalCommand@SubThreadWorker@@IAE_NAAVQJsonObject@@AAH@Z$43 0041fe7b f   workflowprotocol.obj
 0001:0001ee87       __unwindfunclet$?handleLogicalCommand@SubThreadWorker@@IAE_NAAVQJsonObject@@AAH@Z$32 0041fe87 f   workflowprotocol.obj
 0001:0001ee90       __unwindfunclet$?handleLogicalCommand@SubThreadWorker@@IAE_NAAVQJsonObject@@AAH@Z$44 0041fe90 f   workflowprotocol.obj
 0001:0001ee9c       __unwindfunclet$?handleLogicalCommand@SubThreadWorker@@IAE_NAAVQJsonObject@@AAH@Z$33 0041fe9c f   workflowprotocol.obj
 0001:0001eea5       __unwindfunclet$?handleLogicalCommand@SubThreadWorker@@IAE_NAAVQJsonObject@@AAH@Z$34 0041fea5 f   workflowprotocol.obj
 0001:0001eeae       __unwindfunclet$?handleLogicalCommand@SubThreadWorker@@IAE_NAAVQJsonObject@@AAH@Z$35 0041feae f   workflowprotocol.obj
 0001:0001eeb7       __unwindfunclet$?handleLogicalCommand@SubThreadWorker@@IAE_NAAVQJsonObject@@AAH@Z$36 0041feb7 f   workflowprotocol.obj
 0001:0001eec0       __unwindfunclet$?handleLogicalCommand@SubThreadWorker@@IAE_NAAVQJsonObject@@AAH@Z$37 0041fec0 f   workflowprotocol.obj
 0001:0001eec9       __unwindfunclet$?handleLogicalCommand@SubThreadWorker@@IAE_NAAVQJsonObject@@AAH@Z$38 0041fec9 f   workflowprotocol.obj
 0001:0001eed2       __unwindfunclet$?handleLogicalCommand@SubThreadWorker@@IAE_NAAVQJsonObject@@AAH@Z$39 0041fed2 f   workflowprotocol.obj
 0001:0001eedb       __unwindfunclet$?handleLogicalCommand@SubThreadWorker@@IAE_NAAVQJsonObject@@AAH@Z$40 0041fedb f   workflowprotocol.obj
 0001:0001eee4       __unwindfunclet$?handleLogicalCommand@SubThreadWorker@@IAE_NAAVQJsonObject@@AAH@Z$41 0041fee4 f   workflowprotocol.obj
 0001:0001eef0       __unwindfunclet$?handleLogicalCommand@SubThreadWorker@@IAE_NAAVQJsonObject@@AAH@Z$42 0041fef0 f   workflowprotocol.obj
 0001:0001eef9       __ehhandler$?handleLogicalCommand@SubThreadWorker@@IAE_NAAVQJsonObject@@AAH@Z 0041fef9 f   workflowprotocol.obj
 0001:0001ef30       __unwindfunclet$?handleLoopCommand@SubThreadWorker@@IAE_NAAVQJsonObject@@AAH@Z$0 0041ff30 f   workflowprotocol.obj
 0001:0001ef39       __unwindfunclet$?handleLoopCommand@SubThreadWorker@@IAE_NAAVQJsonObject@@AAH@Z$1 0041ff39 f   workflowprotocol.obj
 0001:0001ef42       __unwindfunclet$?handleLoopCommand@SubThreadWorker@@IAE_NAAVQJsonObject@@AAH@Z$2 0041ff42 f   workflowprotocol.obj
 0001:0001ef4b       __unwindfunclet$?handleLoopCommand@SubThreadWorker@@IAE_NAAVQJsonObject@@AAH@Z$3 0041ff4b f   workflowprotocol.obj
 0001:0001ef54       __unwindfunclet$?handleLoopCommand@SubThreadWorker@@IAE_NAAVQJsonObject@@AAH@Z$4 0041ff54 f   workflowprotocol.obj
 0001:0001ef5d       __unwindfunclet$?handleLoopCommand@SubThreadWorker@@IAE_NAAVQJsonObject@@AAH@Z$5 0041ff5d f   workflowprotocol.obj
 0001:0001ef66       __unwindfunclet$?handleLoopCommand@SubThreadWorker@@IAE_NAAVQJsonObject@@AAH@Z$6 0041ff66 f   workflowprotocol.obj
 0001:0001ef6f       __unwindfunclet$?handleLoopCommand@SubThreadWorker@@IAE_NAAVQJsonObject@@AAH@Z$7 0041ff6f f   workflowprotocol.obj
 0001:0001ef78       __unwindfunclet$?handleLoopCommand@SubThreadWorker@@IAE_NAAVQJsonObject@@AAH@Z$8 0041ff78 f   workflowprotocol.obj
 0001:0001ef81       __unwindfunclet$?handleLoopCommand@SubThreadWorker@@IAE_NAAVQJsonObject@@AAH@Z$9 0041ff81 f   workflowprotocol.obj
 0001:0001ef8a       __unwindfunclet$?handleLoopCommand@SubThreadWorker@@IAE_NAAVQJsonObject@@AAH@Z$10 0041ff8a f   workflowprotocol.obj
 0001:0001ef93       __unwindfunclet$?handleLoopCommand@SubThreadWorker@@IAE_NAAVQJsonObject@@AAH@Z$11 0041ff93 f   workflowprotocol.obj
 0001:0001ef9c       __unwindfunclet$?handleLoopCommand@SubThreadWorker@@IAE_NAAVQJsonObject@@AAH@Z$12 0041ff9c f   workflowprotocol.obj
 0001:0001efa5       __unwindfunclet$?handleLoopCommand@SubThreadWorker@@IAE_NAAVQJsonObject@@AAH@Z$13 0041ffa5 f   workflowprotocol.obj
 0001:0001efae       __unwindfunclet$?handleLoopCommand@SubThreadWorker@@IAE_NAAVQJsonObject@@AAH@Z$14 0041ffae f   workflowprotocol.obj
 0001:0001efb7       __unwindfunclet$?handleLoopCommand@SubThreadWorker@@IAE_NAAVQJsonObject@@AAH@Z$15 0041ffb7 f   workflowprotocol.obj
 0001:0001efc0       __unwindfunclet$?handleLoopCommand@SubThreadWorker@@IAE_NAAVQJsonObject@@AAH@Z$16 0041ffc0 f   workflowprotocol.obj
 0001:0001efc9       __unwindfunclet$?handleLoopCommand@SubThreadWorker@@IAE_NAAVQJsonObject@@AAH@Z$17 0041ffc9 f   workflowprotocol.obj
 0001:0001efd2       __unwindfunclet$?handleLoopCommand@SubThreadWorker@@IAE_NAAVQJsonObject@@AAH@Z$18 0041ffd2 f   workflowprotocol.obj
 0001:0001efdb       __unwindfunclet$?handleLoopCommand@SubThreadWorker@@IAE_NAAVQJsonObject@@AAH@Z$19 0041ffdb f   workflowprotocol.obj
 0001:0001efe4       __unwindfunclet$?handleLoopCommand@SubThreadWorker@@IAE_NAAVQJsonObject@@AAH@Z$20 0041ffe4 f   workflowprotocol.obj
 0001:0001efed       __unwindfunclet$?handleLoopCommand@SubThreadWorker@@IAE_NAAVQJsonObject@@AAH@Z$21 0041ffed f   workflowprotocol.obj
 0001:0001eff6       __unwindfunclet$?handleLoopCommand@SubThreadWorker@@IAE_NAAVQJsonObject@@AAH@Z$22 0041fff6 f   workflowprotocol.obj
 0001:0001efff       __unwindfunclet$?handleLoopCommand@SubThreadWorker@@IAE_NAAVQJsonObject@@AAH@Z$23 0041ffff f   workflowprotocol.obj
 0001:0001f008       __unwindfunclet$?handleLoopCommand@SubThreadWorker@@IAE_NAAVQJsonObject@@AAH@Z$24 00420008 f   workflowprotocol.obj
 0001:0001f011       __unwindfunclet$?handleLoopCommand@SubThreadWorker@@IAE_NAAVQJsonObject@@AAH@Z$25 00420011 f   workflowprotocol.obj
 0001:0001f01a       __unwindfunclet$?handleLoopCommand@SubThreadWorker@@IAE_NAAVQJsonObject@@AAH@Z$26 0042001a f   workflowprotocol.obj
 0001:0001f023       __unwindfunclet$?handleLoopCommand@SubThreadWorker@@IAE_NAAVQJsonObject@@AAH@Z$27 00420023 f   workflowprotocol.obj
 0001:0001f02c       __unwindfunclet$?handleLoopCommand@SubThreadWorker@@IAE_NAAVQJsonObject@@AAH@Z$28 0042002c f   workflowprotocol.obj
 0001:0001f035       __unwindfunclet$?handleLoopCommand@SubThreadWorker@@IAE_NAAVQJsonObject@@AAH@Z$29 00420035 f   workflowprotocol.obj
 0001:0001f03e       __unwindfunclet$?handleLoopCommand@SubThreadWorker@@IAE_NAAVQJsonObject@@AAH@Z$30 0042003e f   workflowprotocol.obj
 0001:0001f047       __unwindfunclet$?handleLoopCommand@SubThreadWorker@@IAE_NAAVQJsonObject@@AAH@Z$31 00420047 f   workflowprotocol.obj
 0001:0001f050       __unwindfunclet$?handleLoopCommand@SubThreadWorker@@IAE_NAAVQJsonObject@@AAH@Z$38 00420050 f   workflowprotocol.obj
 0001:0001f059       __unwindfunclet$?handleLoopCommand@SubThreadWorker@@IAE_NAAVQJsonObject@@AAH@Z$32 00420059 f   workflowprotocol.obj
 0001:0001f062       __unwindfunclet$?handleLoopCommand@SubThreadWorker@@IAE_NAAVQJsonObject@@AAH@Z$33 00420062 f   workflowprotocol.obj
 0001:0001f06b       __unwindfunclet$?handleLoopCommand@SubThreadWorker@@IAE_NAAVQJsonObject@@AAH@Z$34 0042006b f   workflowprotocol.obj
 0001:0001f074       __unwindfunclet$?handleLoopCommand@SubThreadWorker@@IAE_NAAVQJsonObject@@AAH@Z$35 00420074 f   workflowprotocol.obj
 0001:0001f07d       __unwindfunclet$?handleLoopCommand@SubThreadWorker@@IAE_NAAVQJsonObject@@AAH@Z$36 0042007d f   workflowprotocol.obj
 0001:0001f086       __unwindfunclet$?handleLoopCommand@SubThreadWorker@@IAE_NAAVQJsonObject@@AAH@Z$37 00420086 f   workflowprotocol.obj
 0001:0001f08f       __ehhandler$?handleLoopCommand@SubThreadWorker@@IAE_NAAVQJsonObject@@AAH@Z 0042008f f   workflowprotocol.obj
 0001:0001f0b0       __unwindfunclet$?initProtocol@WorkflowProtocol@@QAE_NABVQString@@@Z$0 004200b0 f   workflowprotocol.obj
 0001:0001f0b9       __unwindfunclet$?initProtocol@WorkflowProtocol@@QAE_NABVQString@@@Z$1 004200b9 f   workflowprotocol.obj
 0001:0001f0c2       __unwindfunclet$?initProtocol@WorkflowProtocol@@QAE_NABVQString@@@Z$2 004200c2 f   workflowprotocol.obj
 0001:0001f0cb       __unwindfunclet$?initProtocol@WorkflowProtocol@@QAE_NABVQString@@@Z$3 004200cb f   workflowprotocol.obj
 0001:0001f0d4       __unwindfunclet$?initProtocol@WorkflowProtocol@@QAE_NABVQString@@@Z$4 004200d4 f   workflowprotocol.obj
 0001:0001f0dd       __unwindfunclet$?initProtocol@WorkflowProtocol@@QAE_NABVQString@@@Z$5 004200dd f   workflowprotocol.obj
 0001:0001f0e6       __ehhandler$?initProtocol@WorkflowProtocol@@QAE_NABVQString@@@Z 004200e6 f   workflowprotocol.obj
 0001:0001f110       __unwindfunclet$?isLogicalCommand@SubThreadWorker@@IAE_NABVQString@@@Z$0 00420110 f   workflowprotocol.obj
 0001:0001f118       __unwindfunclet$?isLogicalCommand@SubThreadWorker@@IAE_NABVQString@@@Z$1 00420118 f   workflowprotocol.obj
 0001:0001f121       __unwindfunclet$?isLogicalCommand@SubThreadWorker@@IAE_NABVQString@@@Z$21 00420121 f   workflowprotocol.obj
 0001:0001f127       __unwindfunclet$?isLogicalCommand@SubThreadWorker@@IAE_NABVQString@@@Z$30 00420127 f   workflowprotocol.obj
 0001:0001f12d       __unwindfunclet$?isLogicalCommand@SubThreadWorker@@IAE_NABVQString@@@Z$11 0042012d f   workflowprotocol.obj
 0001:0001f133       __ehhandler$?isLogicalCommand@SubThreadWorker@@IAE_NABVQString@@@Z 00420133 f   workflowprotocol.obj
 0001:0001f150       __unwindfunclet$?isLoopCommand@SubThreadWorker@@IAE_NABVQString@@@Z$0 00420150 f   workflowprotocol.obj
 0001:0001f158       __unwindfunclet$?isLoopCommand@SubThreadWorker@@IAE_NABVQString@@@Z$1 00420158 f   workflowprotocol.obj
 0001:0001f161       __unwindfunclet$?isLoopCommand@SubThreadWorker@@IAE_NABVQString@@@Z$2 00420161 f   workflowprotocol.obj
 0001:0001f16a       __unwindfunclet$?isLoopCommand@SubThreadWorker@@IAE_NABVQString@@@Z$22 0042016a f   workflowprotocol.obj
 0001:0001f170       __unwindfunclet$?isLoopCommand@SubThreadWorker@@IAE_NABVQString@@@Z$31 00420170 f   workflowprotocol.obj
 0001:0001f176       __unwindfunclet$?isLoopCommand@SubThreadWorker@@IAE_NABVQString@@@Z$12 00420176 f   workflowprotocol.obj
 0001:0001f17c       __ehhandler$?isLoopCommand@SubThreadWorker@@IAE_NABVQString@@@Z 0042017c f   workflowprotocol.obj
 0001:0001f1a0       __ehhandler$?node_copy@?$QList@UloopControl@SubThreadWorker@@@@AAEXPAUNode@1@00@Z 004201a0 f   workflowprotocol.obj
 0001:0001f1c0       __unwindfunclet$?parseAckFrame@WorkflowProtocol@@QAE_NABVQByteArray@@AAVQJsonObject@@@Z$0 004201c0 f   workflowprotocol.obj
 0001:0001f1c9       __ehhandler$?parseAckFrame@WorkflowProtocol@@QAE_NABVQByteArray@@AAVQJsonObject@@@Z 004201c9 f   workflowprotocol.obj
 0001:0001f1f0       __unwindfunclet$?parseJsonObjectToSendFrame@WorkflowProtocol@@QAE_NABVQJsonObject@@AAV2@@Z$0 004201f0 f   workflowprotocol.obj
 0001:0001f1f9       __unwindfunclet$?parseJsonObjectToSendFrame@WorkflowProtocol@@QAE_NABVQJsonObject@@AAV2@@Z$1 004201f9 f   workflowprotocol.obj
 0001:0001f202       __unwindfunclet$?parseJsonObjectToSendFrame@WorkflowProtocol@@QAE_NABVQJsonObject@@AAV2@@Z$2 00420202 f   workflowprotocol.obj
 0001:0001f20b       __unwindfunclet$?parseJsonObjectToSendFrame@WorkflowProtocol@@QAE_NABVQJsonObject@@AAV2@@Z$3 0042020b f   workflowprotocol.obj
 0001:0001f214       __unwindfunclet$?parseJsonObjectToSendFrame@WorkflowProtocol@@QAE_NABVQJsonObject@@AAV2@@Z$4 00420214 f   workflowprotocol.obj
 0001:0001f21d       __unwindfunclet$?parseJsonObjectToSendFrame@WorkflowProtocol@@QAE_NABVQJsonObject@@AAV2@@Z$5 0042021d f   workflowprotocol.obj
 0001:0001f226       __unwindfunclet$?parseJsonObjectToSendFrame@WorkflowProtocol@@QAE_NABVQJsonObject@@AAV2@@Z$6 00420226 f   workflowprotocol.obj
 0001:0001f22f       __unwindfunclet$?parseJsonObjectToSendFrame@WorkflowProtocol@@QAE_NABVQJsonObject@@AAV2@@Z$7 0042022f f   workflowprotocol.obj
 0001:0001f23b       __unwindfunclet$?parseJsonObjectToSendFrame@WorkflowProtocol@@QAE_NABVQJsonObject@@AAV2@@Z$8 0042023b f   workflowprotocol.obj
 0001:0001f247       __unwindfunclet$?parseJsonObjectToSendFrame@WorkflowProtocol@@QAE_NABVQJsonObject@@AAV2@@Z$9 00420247 f   workflowprotocol.obj
 0001:0001f250       __unwindfunclet$?parseJsonObjectToSendFrame@WorkflowProtocol@@QAE_NABVQJsonObject@@AAV2@@Z$10 00420250 f   workflowprotocol.obj
 0001:0001f259       __unwindfunclet$?parseJsonObjectToSendFrame@WorkflowProtocol@@QAE_NABVQJsonObject@@AAV2@@Z$11 00420259 f   workflowprotocol.obj
 0001:0001f262       __unwindfunclet$?parseJsonObjectToSendFrame@WorkflowProtocol@@QAE_NABVQJsonObject@@AAV2@@Z$12 00420262 f   workflowprotocol.obj
 0001:0001f26e       __unwindfunclet$?parseJsonObjectToSendFrame@WorkflowProtocol@@QAE_NABVQJsonObject@@AAV2@@Z$13 0042026e f   workflowprotocol.obj
 0001:0001f277       __unwindfunclet$?parseJsonObjectToSendFrame@WorkflowProtocol@@QAE_NABVQJsonObject@@AAV2@@Z$14 00420277 f   workflowprotocol.obj
 0001:0001f280       __unwindfunclet$?parseJsonObjectToSendFrame@WorkflowProtocol@@QAE_NABVQJsonObject@@AAV2@@Z$33 00420280 f   workflowprotocol.obj
 0001:0001f28c       __unwindfunclet$?parseJsonObjectToSendFrame@WorkflowProtocol@@QAE_NABVQJsonObject@@AAV2@@Z$15 0042028c f   workflowprotocol.obj
 0001:0001f295       __unwindfunclet$?parseJsonObjectToSendFrame@WorkflowProtocol@@QAE_NABVQJsonObject@@AAV2@@Z$16 00420295 f   workflowprotocol.obj
 0001:0001f29e       __unwindfunclet$?parseJsonObjectToSendFrame@WorkflowProtocol@@QAE_NABVQJsonObject@@AAV2@@Z$17 0042029e f   workflowprotocol.obj
 0001:0001f2a6       __unwindfunclet$?parseJsonObjectToSendFrame@WorkflowProtocol@@QAE_NABVQJsonObject@@AAV2@@Z$18 004202a6 f   workflowprotocol.obj
 0001:0001f2af       __unwindfunclet$?parseJsonObjectToSendFrame@WorkflowProtocol@@QAE_NABVQJsonObject@@AAV2@@Z$19 004202af f   workflowprotocol.obj
 0001:0001f2b8       __unwindfunclet$?parseJsonObjectToSendFrame@WorkflowProtocol@@QAE_NABVQJsonObject@@AAV2@@Z$20 004202b8 f   workflowprotocol.obj
 0001:0001f2c1       __unwindfunclet$?parseJsonObjectToSendFrame@WorkflowProtocol@@QAE_NABVQJsonObject@@AAV2@@Z$21 004202c1 f   workflowprotocol.obj
 0001:0001f2ca       __unwindfunclet$?parseJsonObjectToSendFrame@WorkflowProtocol@@QAE_NABVQJsonObject@@AAV2@@Z$22 004202ca f   workflowprotocol.obj
 0001:0001f2d6       __unwindfunclet$?parseJsonObjectToSendFrame@WorkflowProtocol@@QAE_NABVQJsonObject@@AAV2@@Z$23 004202d6 f   workflowprotocol.obj
 0001:0001f2df       __unwindfunclet$?parseJsonObjectToSendFrame@WorkflowProtocol@@QAE_NABVQJsonObject@@AAV2@@Z$26 004202df f   workflowprotocol.obj
 0001:0001f2e8       __unwindfunclet$?parseJsonObjectToSendFrame@WorkflowProtocol@@QAE_NABVQJsonObject@@AAV2@@Z$27 004202e8 f   workflowprotocol.obj
 0001:0001f2f1       __unwindfunclet$?parseJsonObjectToSendFrame@WorkflowProtocol@@QAE_NABVQJsonObject@@AAV2@@Z$28 004202f1 f   workflowprotocol.obj
 0001:0001f2fa       __unwindfunclet$?parseJsonObjectToSendFrame@WorkflowProtocol@@QAE_NABVQJsonObject@@AAV2@@Z$29 004202fa f   workflowprotocol.obj
 0001:0001f303       __unwindfunclet$?parseJsonObjectToSendFrame@WorkflowProtocol@@QAE_NABVQJsonObject@@AAV2@@Z$30 00420303 f   workflowprotocol.obj
 0001:0001f30b       __unwindfunclet$?parseJsonObjectToSendFrame@WorkflowProtocol@@QAE_NABVQJsonObject@@AAV2@@Z$43 0042030b f   workflowprotocol.obj
 0001:0001f317       __unwindfunclet$?parseJsonObjectToSendFrame@WorkflowProtocol@@QAE_NABVQJsonObject@@AAV2@@Z$46 00420317 f   workflowprotocol.obj
 0001:0001f31d       __unwindfunclet$?parseJsonObjectToSendFrame@WorkflowProtocol@@QAE_NABVQJsonObject@@AAV2@@Z$56 0042031d f   workflowprotocol.obj
 0001:0001f323       __ehhandler$?parseJsonObjectToSendFrame@WorkflowProtocol@@QAE_NABVQJsonObject@@AAV2@@Z 00420323 f   workflowprotocol.obj
 0001:0001f350       __unwindfunclet$?serializeSendFrame@WorkflowProtocol@@QAE?AVQByteArray@@XZ$0 00420350 f   workflowprotocol.obj
 0001:0001f36a       __unwindfunclet$?serializeSendFrame@WorkflowProtocol@@QAE?AVQByteArray@@XZ$1 0042036a f   workflowprotocol.obj
 0001:0001f373       __unwindfunclet$?serializeSendFrame@WorkflowProtocol@@QAE?AVQByteArray@@XZ$2 00420373 f   workflowprotocol.obj
 0001:0001f37c       __unwindfunclet$?serializeSendFrame@WorkflowProtocol@@QAE?AVQByteArray@@XZ$3 0042037c f   workflowprotocol.obj
 0001:0001f385       __unwindfunclet$?serializeSendFrame@WorkflowProtocol@@QAE?AVQByteArray@@XZ$4 00420385 f   workflowprotocol.obj
 0001:0001f38e       __unwindfunclet$?serializeSendFrame@WorkflowProtocol@@QAE?AVQByteArray@@XZ$5 0042038e f   workflowprotocol.obj
 0001:0001f397       __ehhandler$?serializeSendFrame@WorkflowProtocol@@QAE?AVQByteArray@@XZ 00420397 f   workflowprotocol.obj
 0001:0001f3c0       __unwindfunclet$?taskStateChanged@WorkflowController@@QAEXABVQString@@H@Z$0 004203c0 f   workflowprotocol.obj
 0001:0001f3cf       __unwindfunclet$?taskStateChanged@WorkflowController@@QAEXABVQString@@H@Z$2 004203cf f   workflowprotocol.obj
 0001:0001f3d8       __ehhandler$?taskStateChanged@WorkflowController@@QAEXABVQString@@H@Z 004203d8 f   workflowprotocol.obj
 0001:0001f400       __unwindfunclet$?unserializeRecvFrame@WorkflowProtocol@@QAEXABVQByteArray@@@Z$0 00420400 f   workflowprotocol.obj
 0001:0001f409       __ehhandler$?unserializeRecvFrame@WorkflowProtocol@@QAEXABVQByteArray@@@Z 00420409 f   workflowprotocol.obj
 0001:0001f430       __ehhandler$??0?$QList@H@@QAE@ABV0@@Z 00420430 f   configfilehandler.obj
 0001:0001f430       __ehhandler$??0?$QList@PAVQObject@@@@QAE@ABV0@@Z 00420430 f   workmodels.obj
 0001:0001f450       __ehhandler$??0?$QList@VOperationParamData@@@@QAE@ABV0@@Z 00420450 f   configfilehandler.obj
 0001:0001f470       __ehhandler$??0?$QList@VSingleOperationData@@@@QAE@ABV0@@Z 00420470 f   configfilehandler.obj
 0001:0001f490       __unwindfunclet$??0OperationParamData@@QAE@ABV0@@Z$0 00420490 f   configfilehandler.obj
 0001:0001f499       __unwindfunclet$??0OperationParamData@@QAE@ABV0@@Z$1 00420499 f   configfilehandler.obj
 0001:0001f4a5       __unwindfunclet$??0OperationParamData@@QAE@ABV0@@Z$2 004204a5 f   configfilehandler.obj
 0001:0001f4b1       __unwindfunclet$??0OperationParamData@@QAE@ABV0@@Z$3 004204b1 f   configfilehandler.obj
 0001:0001f4bc       __unwindfunclet$??0OperationParamData@@QAE@ABV0@@Z$4 004204bc f   configfilehandler.obj
 0001:0001f4c8       __unwindfunclet$??0OperationParamData@@QAE@ABV0@@Z$5 004204c8 f   configfilehandler.obj
 0001:0001f4d3       __unwindfunclet$??0OperationParamData@@QAE@ABV0@@Z$6 004204d3 f   configfilehandler.obj
 0001:0001f4df       __unwindfunclet$??0OperationParamData@@QAE@ABV0@@Z$7 004204df f   configfilehandler.obj
 0001:0001f4eb       __unwindfunclet$??0OperationParamData@@QAE@ABV0@@Z$25 004204eb f   configfilehandler.obj
 0001:0001f4f1       __ehhandler$??0OperationParamData@@QAE@ABV0@@Z 004204f1 f   configfilehandler.obj
 0001:0001f510       __unwindfunclet$??0OperationParamData@@QAE@ABVQString@@00ABVQStringList@@_NHH0V?$QList@H@@00HH2@Z$0 00420510 f   configfilehandler.obj
 0001:0001f518       __unwindfunclet$??0OperationParamData@@QAE@ABVQString@@00ABVQStringList@@_NHH0V?$QList@H@@00HH2@Z$1 00420518 f   configfilehandler.obj
 0001:0001f521       __unwindfunclet$??0OperationParamData@@QAE@ABVQString@@00ABVQStringList@@_NHH0V?$QList@H@@00HH2@Z$2 00420521 f   configfilehandler.obj
 0001:0001f52d       __unwindfunclet$??0OperationParamData@@QAE@ABVQString@@00ABVQStringList@@_NHH0V?$QList@H@@00HH2@Z$3 0042052d f   configfilehandler.obj
 0001:0001f539       __unwindfunclet$??0OperationParamData@@QAE@ABVQString@@00ABVQStringList@@_NHH0V?$QList@H@@00HH2@Z$4 00420539 f   configfilehandler.obj
 0001:0001f544       __unwindfunclet$??0OperationParamData@@QAE@ABVQString@@00ABVQStringList@@_NHH0V?$QList@H@@00HH2@Z$5 00420544 f   configfilehandler.obj
 0001:0001f550       __unwindfunclet$??0OperationParamData@@QAE@ABVQString@@00ABVQStringList@@_NHH0V?$QList@H@@00HH2@Z$6 00420550 f   configfilehandler.obj
 0001:0001f55b       __unwindfunclet$??0OperationParamData@@QAE@ABVQString@@00ABVQStringList@@_NHH0V?$QList@H@@00HH2@Z$7 0042055b f   configfilehandler.obj
 0001:0001f567       __unwindfunclet$??0OperationParamData@@QAE@ABVQString@@00ABVQStringList@@_NHH0V?$QList@H@@00HH2@Z$8 00420567 f   configfilehandler.obj
 0001:0001f573       __unwindfunclet$??0OperationParamData@@QAE@ABVQString@@00ABVQStringList@@_NHH0V?$QList@H@@00HH2@Z$26 00420573 f   configfilehandler.obj
 0001:0001f579       __unwindfunclet$??0OperationParamData@@QAE@ABVQString@@00ABVQStringList@@_NHH0V?$QList@H@@00HH2@Z$33 00420579 f   configfilehandler.obj
 0001:0001f57f       __ehhandler$??0OperationParamData@@QAE@ABVQString@@00ABVQStringList@@_NHH0V?$QList@H@@00HH2@Z 0042057f f   configfilehandler.obj
 0001:0001f5a0       __unwindfunclet$??0SingleOperationData@@QAE@ABV0@@Z$0 004205a0 f   configfilehandler.obj
 0001:0001f5a9       __ehhandler$??0SingleOperationData@@QAE@ABV0@@Z 004205a9 f   configfilehandler.obj
 0001:0001f5d0       __ehhandler$??1?$QList@PAVQObject@@@@QAE@XZ 004205d0 f   main.obj
 0001:0001f5d0       __ehhandler$??1?$QList@H@@QAE@XZ 004205d0 f   configfilehandler.obj
 0001:0001f5d0       __ehhandler$??1?$QList@VOperationParamData@@@@QAE@XZ 004205d0 f   configfilehandler.obj
 0001:0001f5f0       __ehhandler$??1?$QList@VQByteArray@@@@QAE@XZ 004205f0 f   configfilehandler.obj
 0001:0001f5f0       __ehhandler$??1?$QList@VQString@@@@QAE@XZ 004205f0 f   workflowprotocol.obj
 0001:0001f5f0       __ehhandler$??1StatusViewWatcher@@UAE@XZ 004205f0 f   workmodels.obj
 0001:0001f610       __unwindfunclet$??_G?$QQmlElement@VOperationParamSelector@@@QQmlPrivate@@UAEPAXI@Z$0 00420610 f   main.obj
 0001:0001f610       __unwindfunclet$??1?$QForeachContainer@$$CBV?$QList@VSingleOperationData@@@@@@QAE@XZ$0 00420610 f   environmentvariant.obj
 0001:0001f610       __unwindfunclet$??_GSingleOperationData@@QAEPAXI@Z$1 00420610 f   configfilehandler.obj
 0001:0001f610       __unwindfunclet$??1OperationParamData@@QAE@XZ$0 00420610 f   configfilehandler.obj
 0001:0001f610       __unwindfunclet$??_G?$QQmlElement@VWorkLocationManager@@@QQmlPrivate@@UAEPAXI@Z$0 00420610 f   main.obj
 0001:0001f610       __unwindfunclet$??_GPlanController@@UAEPAXI@Z$0 00420610 f   workmodels.obj
 0001:0001f610       __unwindfunclet$??_G?$QQmlElement@VStatusViewWatcher@@@QQmlPrivate@@UAEPAXI@Z$0 00420610 f   main.obj
 0001:0001f610       __unwindfunclet$??1SingleOperationData@@QAE@XZ$0 00420610 f   configfilehandler.obj
 0001:0001f610       __unwindfunclet$??_G?$QQmlElement@VPlanSelector@@@QQmlPrivate@@UAEPAXI@Z$0 00420610 f   main.obj
 0001:0001f610       __unwindfunclet$??_G?$QQmlElement@VPlanController@@@QQmlPrivate@@UAEPAXI@Z$0 00420610 f   main.obj
 0001:0001f610       __unwindfunclet$??_G?$QQmlElement@VOperationParamObject@@@QQmlPrivate@@UAEPAXI@Z$0 00420610 f   main.obj
 0001:0001f610       __unwindfunclet$??_G?$QQmlElement@VTextFieldDoubleValidator@@@QQmlPrivate@@UAEPAXI@Z$0 00420610 f   main.obj
 0001:0001f616       __ehhandler$??_G?$QQmlElement@VOperationParamObject@@@QQmlPrivate@@UAEPAXI@Z 00420616 f   main.obj
 0001:0001f616       __ehhandler$??_G?$QQmlElement@VPlanController@@@QQmlPrivate@@UAEPAXI@Z 00420616 f   main.obj
 0001:0001f616       __ehhandler$??_G?$QQmlElement@VOperationParamSelector@@@QQmlPrivate@@UAEPAXI@Z 00420616 f   main.obj
 0001:0001f616       __ehhandler$??1OperationParamData@@QAE@XZ 00420616 f   configfilehandler.obj
 0001:0001f616       __ehhandler$??1?$QForeachContainer@$$CBV?$QList@VSingleOperationData@@@@@@QAE@XZ 00420616 f   environmentvariant.obj
 0001:0001f616       __ehhandler$??_G?$QQmlElement@VTextFieldDoubleValidator@@@QQmlPrivate@@UAEPAXI@Z 00420616 f   main.obj
 0001:0001f616       __ehhandler$??_G?$QQmlElement@VWorkLocationManager@@@QQmlPrivate@@UAEPAXI@Z 00420616 f   main.obj
 0001:0001f616       __ehhandler$??_GSingleOperationData@@QAEPAXI@Z 00420616 f   configfilehandler.obj
 0001:0001f616       __ehhandler$??_G?$QQmlElement@VPlanSelector@@@QQmlPrivate@@UAEPAXI@Z 00420616 f   main.obj
 0001:0001f616       __ehhandler$??1SingleOperationData@@QAE@XZ 00420616 f   configfilehandler.obj
 0001:0001f616       __ehhandler$??_G?$QQmlElement@VStatusViewWatcher@@@QQmlPrivate@@UAEPAXI@Z 00420616 f   main.obj
 0001:0001f616       __ehhandler$??_GPlanController@@UAEPAXI@Z 00420616 f   workmodels.obj
 0001:0001f640       __unwindfunclet$??A?$QMap@VQString@@V1@@@QAEAAVQString@@ABV1@@Z$0 00420640 f   configfilehandler.obj
 0001:0001f649       __ehhandler$??A?$QMap@VQString@@V1@@@QAEAAVQString@@ABV1@@Z 00420649 f   configfilehandler.obj
 0001:0001f670       __unwindfunclet$??A?$QMap@VQString@@VOperationParamData@@@@QAEAAVOperationParamData@@ABVQString@@@Z$0 00420670 f   configfilehandler.obj
 0001:0001f678       __ehhandler$??A?$QMap@VQString@@VOperationParamData@@@@QAEAAVOperationParamData@@ABVQString@@@Z 00420678 f   configfilehandler.obj
 0001:0001f6a0       __unwindfunclet$??A?$QMap@VQString@@VOperationParamData@@@@QBE?BVOperationParamData@@ABVQString@@@Z$0 004206a0 f   configfilehandler.obj
 0001:0001f6a8       __ehhandler$??A?$QMap@VQString@@VOperationParamData@@@@QBE?BVOperationParamData@@ABVQString@@@Z 004206a8 f   configfilehandler.obj
 0001:0001f6d0       __unwindfunclet$??A?$QMap@VQString@@VQStringList@@@@QAEAAVQStringList@@ABVQString@@@Z$0 004206d0 f   configfilehandler.obj
 0001:0001f6d8       __ehhandler$??A?$QMap@VQString@@VQStringList@@@@QAEAAVQStringList@@ABVQString@@@Z 004206d8 f   configfilehandler.obj
 0001:0001f700       __unwindfunclet$??Cconst_iterator@QJsonArray@@QBE?AVQJsonValuePtr@@XZ$0 00420700 f   configfilehandler.obj
 0001:0001f709       __ehhandler$??Cconst_iterator@QJsonArray@@QBE?AVQJsonValuePtr@@XZ 00420709 f   configfilehandler.obj
 0001:0001f730       __unwindfunclet$??H@YA?BVQString@@ABV0@D@Z$0 00420730 f   configfilehandler.obj
 0001:0001f74a       __ehhandler$??H@YA?BVQString@@ABV0@D@Z 0042074a f   configfilehandler.obj
 0001:0001f770       __unwindfunclet$??H@YA?BVQString@@ABV0@PBD@Z$0 00420770 f   configfilehandler.obj
 0001:0001f78a       __unwindfunclet$??H@YA?BVQString@@ABV0@PBD@Z$1 0042078a f   configfilehandler.obj
 0001:0001f793       __ehhandler$??H@YA?BVQString@@ABV0@PBD@Z 00420793 f   configfilehandler.obj
 0001:0001f7b0       __unwindfunclet$??H@YA?BVQString@@PBDABV0@@Z$0 004207b0 f   configfilehandler.obj
 0001:0001f7b0       __unwindfunclet$??H@YA?BVQString@@ABV0@0@Z$0 004207b0 f   environmentvariant.obj
 0001:0001f7ca       __ehhandler$??H@YA?BVQString@@ABV0@0@Z 004207ca f   environmentvariant.obj
 0001:0001f7ca       __ehhandler$??H@YA?BVQString@@PBDABV0@@Z 004207ca f   configfilehandler.obj
 0001:0001f7f0       __unwindfunclet$?ConvertCSVtoJSON@configFileHandler@@QAE_NABVQString@@0@Z$0 004207f0 f   configfilehandler.obj
 0001:0001f7f9       __unwindfunclet$?ConvertCSVtoJSON@configFileHandler@@QAE_NABVQString@@0@Z$1 004207f9 f   configfilehandler.obj
 0001:0001f802       __unwindfunclet$?ConvertCSVtoJSON@configFileHandler@@QAE_NABVQString@@0@Z$2 00420802 f   configfilehandler.obj
 0001:0001f80b       __unwindfunclet$?ConvertCSVtoJSON@configFileHandler@@QAE_NABVQString@@0@Z$3 0042080b f   configfilehandler.obj
 0001:0001f814       __unwindfunclet$?ConvertCSVtoJSON@configFileHandler@@QAE_NABVQString@@0@Z$4 00420814 f   configfilehandler.obj
 0001:0001f81d       __unwindfunclet$?ConvertCSVtoJSON@configFileHandler@@QAE_NABVQString@@0@Z$5 0042081d f   configfilehandler.obj
 0001:0001f826       __unwindfunclet$?ConvertCSVtoJSON@configFileHandler@@QAE_NABVQString@@0@Z$6 00420826 f   configfilehandler.obj
 0001:0001f82f       __unwindfunclet$?ConvertCSVtoJSON@configFileHandler@@QAE_NABVQString@@0@Z$7 0042082f f   configfilehandler.obj
 0001:0001f838       __ehhandler$?ConvertCSVtoJSON@configFileHandler@@QAE_NABVQString@@0@Z 00420838 f   configfilehandler.obj
 0001:0001f860       __unwindfunclet$?ConvertJSONtoCSV@configFileHandler@@QAE_NABVQString@@0@Z$0 00420860 f   configfilehandler.obj
 0001:0001f869       __unwindfunclet$?ConvertJSONtoCSV@configFileHandler@@QAE_NABVQString@@0@Z$1 00420869 f   configfilehandler.obj
 0001:0001f872       __unwindfunclet$?ConvertJSONtoCSV@configFileHandler@@QAE_NABVQString@@0@Z$2 00420872 f   configfilehandler.obj
 0001:0001f87b       __unwindfunclet$?ConvertJSONtoCSV@configFileHandler@@QAE_NABVQString@@0@Z$3 0042087b f   configfilehandler.obj
 0001:0001f884       __unwindfunclet$?ConvertJSONtoCSV@configFileHandler@@QAE_NABVQString@@0@Z$4 00420884 f   configfilehandler.obj
 0001:0001f88d       __unwindfunclet$?ConvertJSONtoCSV@configFileHandler@@QAE_NABVQString@@0@Z$5 0042088d f   configfilehandler.obj
 0001:0001f896       __unwindfunclet$?ConvertJSONtoCSV@configFileHandler@@QAE_NABVQString@@0@Z$6 00420896 f   configfilehandler.obj
 0001:0001f89f       __unwindfunclet$?ConvertJSONtoCSV@configFileHandler@@QAE_NABVQString@@0@Z$7 0042089f f   configfilehandler.obj
 0001:0001f8a8       __unwindfunclet$?ConvertJSONtoCSV@configFileHandler@@QAE_NABVQString@@0@Z$8 004208a8 f   configfilehandler.obj
 0001:0001f8b1       __unwindfunclet$?ConvertJSONtoCSV@configFileHandler@@QAE_NABVQString@@0@Z$9 004208b1 f   configfilehandler.obj
 0001:0001f8ba       __unwindfunclet$?ConvertJSONtoCSV@configFileHandler@@QAE_NABVQString@@0@Z$10 004208ba f   configfilehandler.obj
 0001:0001f8c3       __unwindfunclet$?ConvertJSONtoCSV@configFileHandler@@QAE_NABVQString@@0@Z$11 004208c3 f   configfilehandler.obj
 0001:0001f8cc       __unwindfunclet$?ConvertJSONtoCSV@configFileHandler@@QAE_NABVQString@@0@Z$12 004208cc f   configfilehandler.obj
 0001:0001f8d5       __unwindfunclet$?ConvertJSONtoCSV@configFileHandler@@QAE_NABVQString@@0@Z$13 004208d5 f   configfilehandler.obj
 0001:0001f8de       __unwindfunclet$?ConvertJSONtoCSV@configFileHandler@@QAE_NABVQString@@0@Z$14 004208de f   configfilehandler.obj
 0001:0001f8e7       __ehhandler$?ConvertJSONtoCSV@configFileHandler@@QAE_NABVQString@@0@Z 004208e7 f   configfilehandler.obj
 0001:0001f910       __unwindfunclet$?ImportConfig@configFileHandler@@QAE_NAAVQJsonObject@@ABVQByteArray@@@Z$0 00420910 f   configfilehandler.obj
 0001:0001f918       __unwindfunclet$?ImportConfig@configFileHandler@@QAE_NAAVQJsonObject@@ABVQByteArray@@@Z$11 00420918 f   configfilehandler.obj
 0001:0001f91e       __ehhandler$?ImportConfig@configFileHandler@@QAE_NAAVQJsonObject@@ABVQByteArray@@@Z 0042091e f   configfilehandler.obj
 0001:0001f940       __unwindfunclet$?ImportPlan@configFileHandler@@QAE_NABV?$QList@VQByteArray@@@@AAVQJsonObject@@@Z$0 00420940 f   configfilehandler.obj
 0001:0001f949       __unwindfunclet$?ImportPlan@configFileHandler@@QAE_NABV?$QList@VQByteArray@@@@AAVQJsonObject@@@Z$1 00420949 f   configfilehandler.obj
 0001:0001f952       __unwindfunclet$?ImportPlan@configFileHandler@@QAE_NABV?$QList@VQByteArray@@@@AAVQJsonObject@@@Z$2 00420952 f   configfilehandler.obj
 0001:0001f95a       __unwindfunclet$?ImportPlan@configFileHandler@@QAE_NABV?$QList@VQByteArray@@@@AAVQJsonObject@@@Z$3 0042095a f   configfilehandler.obj
 0001:0001f963       __unwindfunclet$?ImportPlan@configFileHandler@@QAE_NABV?$QList@VQByteArray@@@@AAVQJsonObject@@@Z$4 00420963 f   configfilehandler.obj
 0001:0001f96c       __unwindfunclet$?ImportPlan@configFileHandler@@QAE_NABV?$QList@VQByteArray@@@@AAVQJsonObject@@@Z$5 0042096c f   configfilehandler.obj
 0001:0001f975       __unwindfunclet$?ImportPlan@configFileHandler@@QAE_NABV?$QList@VQByteArray@@@@AAVQJsonObject@@@Z$6 00420975 f   configfilehandler.obj
 0001:0001f97e       __unwindfunclet$?ImportPlan@configFileHandler@@QAE_NABV?$QList@VQByteArray@@@@AAVQJsonObject@@@Z$7 0042097e f   configfilehandler.obj
 0001:0001f986       __unwindfunclet$?ImportPlan@configFileHandler@@QAE_NABV?$QList@VQByteArray@@@@AAVQJsonObject@@@Z$9 00420986 f   configfilehandler.obj
 0001:0001f98e       __unwindfunclet$?ImportPlan@configFileHandler@@QAE_NABV?$QList@VQByteArray@@@@AAVQJsonObject@@@Z$10 0042098e f   configfilehandler.obj
 0001:0001f9a8       __unwindfunclet$?ImportPlan@configFileHandler@@QAE_NABV?$QList@VQByteArray@@@@AAVQJsonObject@@@Z$57 004209a8 f   configfilehandler.obj
 0001:0001f9ae       __unwindfunclet$?ImportPlan@configFileHandler@@QAE_NABV?$QList@VQByteArray@@@@AAVQJsonObject@@@Z$11 004209ae f   configfilehandler.obj
 0001:0001f9b7       __unwindfunclet$?ImportPlan@configFileHandler@@QAE_NABV?$QList@VQByteArray@@@@AAVQJsonObject@@@Z$58 004209b7 f   configfilehandler.obj
 0001:0001f9bd       __unwindfunclet$?ImportPlan@configFileHandler@@QAE_NABV?$QList@VQByteArray@@@@AAVQJsonObject@@@Z$12 004209bd f   configfilehandler.obj
 0001:0001f9c5       __unwindfunclet$?ImportPlan@configFileHandler@@QAE_NABV?$QList@VQByteArray@@@@AAVQJsonObject@@@Z$71 004209c5 f   configfilehandler.obj
 0001:0001f9cb       __unwindfunclet$?ImportPlan@configFileHandler@@QAE_NABV?$QList@VQByteArray@@@@AAVQJsonObject@@@Z$75 004209cb f   configfilehandler.obj
 0001:0001f9d1       __unwindfunclet$?ImportPlan@configFileHandler@@QAE_NABV?$QList@VQByteArray@@@@AAVQJsonObject@@@Z$13 004209d1 f   configfilehandler.obj
 0001:0001f9da       __unwindfunclet$?ImportPlan@configFileHandler@@QAE_NABV?$QList@VQByteArray@@@@AAVQJsonObject@@@Z$14 004209da f   configfilehandler.obj
 0001:0001f9e3       __unwindfunclet$?ImportPlan@configFileHandler@@QAE_NABV?$QList@VQByteArray@@@@AAVQJsonObject@@@Z$15 004209e3 f   configfilehandler.obj
 0001:0001f9ec       __unwindfunclet$?ImportPlan@configFileHandler@@QAE_NABV?$QList@VQByteArray@@@@AAVQJsonObject@@@Z$16 004209ec f   configfilehandler.obj
 0001:0001f9f5       __unwindfunclet$?ImportPlan@configFileHandler@@QAE_NABV?$QList@VQByteArray@@@@AAVQJsonObject@@@Z$17 004209f5 f   configfilehandler.obj
 0001:0001f9fe       __unwindfunclet$?ImportPlan@configFileHandler@@QAE_NABV?$QList@VQByteArray@@@@AAVQJsonObject@@@Z$18 004209fe f   configfilehandler.obj
 0001:0001fa07       __unwindfunclet$?ImportPlan@configFileHandler@@QAE_NABV?$QList@VQByteArray@@@@AAVQJsonObject@@@Z$19 00420a07 f   configfilehandler.obj
 0001:0001fa10       __unwindfunclet$?ImportPlan@configFileHandler@@QAE_NABV?$QList@VQByteArray@@@@AAVQJsonObject@@@Z$20 00420a10 f   configfilehandler.obj
 0001:0001fa19       __unwindfunclet$?ImportPlan@configFileHandler@@QAE_NABV?$QList@VQByteArray@@@@AAVQJsonObject@@@Z$21 00420a19 f   configfilehandler.obj
 0001:0001fa22       __unwindfunclet$?ImportPlan@configFileHandler@@QAE_NABV?$QList@VQByteArray@@@@AAVQJsonObject@@@Z$22 00420a22 f   configfilehandler.obj
 0001:0001fa2b       __unwindfunclet$?ImportPlan@configFileHandler@@QAE_NABV?$QList@VQByteArray@@@@AAVQJsonObject@@@Z$23 00420a2b f   configfilehandler.obj
 0001:0001fa34       __unwindfunclet$?ImportPlan@configFileHandler@@QAE_NABV?$QList@VQByteArray@@@@AAVQJsonObject@@@Z$24 00420a34 f   configfilehandler.obj
 0001:0001fa3d       __unwindfunclet$?ImportPlan@configFileHandler@@QAE_NABV?$QList@VQByteArray@@@@AAVQJsonObject@@@Z$90 00420a3d f   configfilehandler.obj
 0001:0001fa43       __unwindfunclet$?ImportPlan@configFileHandler@@QAE_NABV?$QList@VQByteArray@@@@AAVQJsonObject@@@Z$25 00420a43 f   configfilehandler.obj
 0001:0001fa4c       __unwindfunclet$?ImportPlan@configFileHandler@@QAE_NABV?$QList@VQByteArray@@@@AAVQJsonObject@@@Z$26 00420a4c f   configfilehandler.obj
 0001:0001fa58       __unwindfunclet$?ImportPlan@configFileHandler@@QAE_NABV?$QList@VQByteArray@@@@AAVQJsonObject@@@Z$27 00420a58 f   configfilehandler.obj
 0001:0001fa64       __unwindfunclet$?ImportPlan@configFileHandler@@QAE_NABV?$QList@VQByteArray@@@@AAVQJsonObject@@@Z$28 00420a64 f   configfilehandler.obj
 0001:0001fa6d       __unwindfunclet$?ImportPlan@configFileHandler@@QAE_NABV?$QList@VQByteArray@@@@AAVQJsonObject@@@Z$29 00420a6d f   configfilehandler.obj
 0001:0001fa79       __unwindfunclet$?ImportPlan@configFileHandler@@QAE_NABV?$QList@VQByteArray@@@@AAVQJsonObject@@@Z$30 00420a79 f   configfilehandler.obj
 0001:0001fa82       __unwindfunclet$?ImportPlan@configFileHandler@@QAE_NABV?$QList@VQByteArray@@@@AAVQJsonObject@@@Z$31 00420a82 f   configfilehandler.obj
 0001:0001fa8b       __unwindfunclet$?ImportPlan@configFileHandler@@QAE_NABV?$QList@VQByteArray@@@@AAVQJsonObject@@@Z$32 00420a8b f   configfilehandler.obj
 0001:0001fa94       __unwindfunclet$?ImportPlan@configFileHandler@@QAE_NABV?$QList@VQByteArray@@@@AAVQJsonObject@@@Z$33 00420a94 f   configfilehandler.obj
 0001:0001fa9d       __unwindfunclet$?ImportPlan@configFileHandler@@QAE_NABV?$QList@VQByteArray@@@@AAVQJsonObject@@@Z$34 00420a9d f   configfilehandler.obj
 0001:0001faa6       __unwindfunclet$?ImportPlan@configFileHandler@@QAE_NABV?$QList@VQByteArray@@@@AAVQJsonObject@@@Z$93 00420aa6 f   configfilehandler.obj
 0001:0001faac       __ehhandler$?ImportPlan@configFileHandler@@QAE_NABV?$QList@VQByteArray@@@@AAVQJsonObject@@@Z 00420aac f   configfilehandler.obj
 0001:0001fad0       __unwindfunclet$?ImportWorkSpace@configFileHandler@@QAE_NABV?$QList@VQByteArray@@@@AAVQJsonObject@@@Z$0 00420ad0 f   configfilehandler.obj
 0001:0001fad9       __unwindfunclet$?ImportWorkSpace@configFileHandler@@QAE_NABV?$QList@VQByteArray@@@@AAVQJsonObject@@@Z$1 00420ad9 f   configfilehandler.obj
 0001:0001fae2       __unwindfunclet$?ImportWorkSpace@configFileHandler@@QAE_NABV?$QList@VQByteArray@@@@AAVQJsonObject@@@Z$2 00420ae2 f   configfilehandler.obj
 0001:0001faeb       __unwindfunclet$?ImportWorkSpace@configFileHandler@@QAE_NABV?$QList@VQByteArray@@@@AAVQJsonObject@@@Z$3 00420aeb f   configfilehandler.obj
 0001:0001faf4       __unwindfunclet$?ImportWorkSpace@configFileHandler@@QAE_NABV?$QList@VQByteArray@@@@AAVQJsonObject@@@Z$4 00420af4 f   configfilehandler.obj
 0001:0001fafd       __unwindfunclet$?ImportWorkSpace@configFileHandler@@QAE_NABV?$QList@VQByteArray@@@@AAVQJsonObject@@@Z$5 00420afd f   configfilehandler.obj
 0001:0001fb05       __unwindfunclet$?ImportWorkSpace@configFileHandler@@QAE_NABV?$QList@VQByteArray@@@@AAVQJsonObject@@@Z$6 00420b05 f   configfilehandler.obj
 0001:0001fb0e       __unwindfunclet$?ImportWorkSpace@configFileHandler@@QAE_NABV?$QList@VQByteArray@@@@AAVQJsonObject@@@Z$7 00420b0e f   configfilehandler.obj
 0001:0001fb17       __unwindfunclet$?ImportWorkSpace@configFileHandler@@QAE_NABV?$QList@VQByteArray@@@@AAVQJsonObject@@@Z$8 00420b17 f   configfilehandler.obj
 0001:0001fb20       __unwindfunclet$?ImportWorkSpace@configFileHandler@@QAE_NABV?$QList@VQByteArray@@@@AAVQJsonObject@@@Z$9 00420b20 f   configfilehandler.obj
 0001:0001fb28       __unwindfunclet$?ImportWorkSpace@configFileHandler@@QAE_NABV?$QList@VQByteArray@@@@AAVQJsonObject@@@Z$10 00420b28 f   configfilehandler.obj
 0001:0001fb31       __unwindfunclet$?ImportWorkSpace@configFileHandler@@QAE_NABV?$QList@VQByteArray@@@@AAVQJsonObject@@@Z$11 00420b31 f   configfilehandler.obj
 0001:0001fb3a       __unwindfunclet$?ImportWorkSpace@configFileHandler@@QAE_NABV?$QList@VQByteArray@@@@AAVQJsonObject@@@Z$12 00420b3a f   configfilehandler.obj
 0001:0001fb43       __unwindfunclet$?ImportWorkSpace@configFileHandler@@QAE_NABV?$QList@VQByteArray@@@@AAVQJsonObject@@@Z$13 00420b43 f   configfilehandler.obj
 0001:0001fb4b       __unwindfunclet$?ImportWorkSpace@configFileHandler@@QAE_NABV?$QList@VQByteArray@@@@AAVQJsonObject@@@Z$14 00420b4b f   configfilehandler.obj
 0001:0001fb65       __unwindfunclet$?ImportWorkSpace@configFileHandler@@QAE_NABV?$QList@VQByteArray@@@@AAVQJsonObject@@@Z$59 00420b65 f   configfilehandler.obj
 0001:0001fb6b       __unwindfunclet$?ImportWorkSpace@configFileHandler@@QAE_NABV?$QList@VQByteArray@@@@AAVQJsonObject@@@Z$15 00420b6b f   configfilehandler.obj
 0001:0001fb74       __unwindfunclet$?ImportWorkSpace@configFileHandler@@QAE_NABV?$QList@VQByteArray@@@@AAVQJsonObject@@@Z$60 00420b74 f   configfilehandler.obj
 0001:0001fb7a       __unwindfunclet$?ImportWorkSpace@configFileHandler@@QAE_NABV?$QList@VQByteArray@@@@AAVQJsonObject@@@Z$16 00420b7a f   configfilehandler.obj
 0001:0001fb82       __unwindfunclet$?ImportWorkSpace@configFileHandler@@QAE_NABV?$QList@VQByteArray@@@@AAVQJsonObject@@@Z$73 00420b82 f   configfilehandler.obj
 0001:0001fb88       __unwindfunclet$?ImportWorkSpace@configFileHandler@@QAE_NABV?$QList@VQByteArray@@@@AAVQJsonObject@@@Z$77 00420b88 f   configfilehandler.obj
 0001:0001fb8e       __unwindfunclet$?ImportWorkSpace@configFileHandler@@QAE_NABV?$QList@VQByteArray@@@@AAVQJsonObject@@@Z$17 00420b8e f   configfilehandler.obj
 0001:0001fb97       __unwindfunclet$?ImportWorkSpace@configFileHandler@@QAE_NABV?$QList@VQByteArray@@@@AAVQJsonObject@@@Z$18 00420b97 f   configfilehandler.obj
 0001:0001fba0       __unwindfunclet$?ImportWorkSpace@configFileHandler@@QAE_NABV?$QList@VQByteArray@@@@AAVQJsonObject@@@Z$19 00420ba0 f   configfilehandler.obj
 0001:0001fba9       __unwindfunclet$?ImportWorkSpace@configFileHandler@@QAE_NABV?$QList@VQByteArray@@@@AAVQJsonObject@@@Z$20 00420ba9 f   configfilehandler.obj
 0001:0001fbb2       __unwindfunclet$?ImportWorkSpace@configFileHandler@@QAE_NABV?$QList@VQByteArray@@@@AAVQJsonObject@@@Z$21 00420bb2 f   configfilehandler.obj
 0001:0001fbbb       __unwindfunclet$?ImportWorkSpace@configFileHandler@@QAE_NABV?$QList@VQByteArray@@@@AAVQJsonObject@@@Z$22 00420bbb f   configfilehandler.obj
 0001:0001fbc4       __unwindfunclet$?ImportWorkSpace@configFileHandler@@QAE_NABV?$QList@VQByteArray@@@@AAVQJsonObject@@@Z$23 00420bc4 f   configfilehandler.obj
 0001:0001fbcd       __unwindfunclet$?ImportWorkSpace@configFileHandler@@QAE_NABV?$QList@VQByteArray@@@@AAVQJsonObject@@@Z$24 00420bcd f   configfilehandler.obj
 0001:0001fbd6       __unwindfunclet$?ImportWorkSpace@configFileHandler@@QAE_NABV?$QList@VQByteArray@@@@AAVQJsonObject@@@Z$25 00420bd6 f   configfilehandler.obj
 0001:0001fbe2       __unwindfunclet$?ImportWorkSpace@configFileHandler@@QAE_NABV?$QList@VQByteArray@@@@AAVQJsonObject@@@Z$26 00420be2 f   configfilehandler.obj
 0001:0001fbeb       __unwindfunclet$?ImportWorkSpace@configFileHandler@@QAE_NABV?$QList@VQByteArray@@@@AAVQJsonObject@@@Z$92 00420beb f   configfilehandler.obj
 0001:0001fbf1       __unwindfunclet$?ImportWorkSpace@configFileHandler@@QAE_NABV?$QList@VQByteArray@@@@AAVQJsonObject@@@Z$27 00420bf1 f   configfilehandler.obj
 0001:0001fbfa       __unwindfunclet$?ImportWorkSpace@configFileHandler@@QAE_NABV?$QList@VQByteArray@@@@AAVQJsonObject@@@Z$28 00420bfa f   configfilehandler.obj
 0001:0001fc06       __unwindfunclet$?ImportWorkSpace@configFileHandler@@QAE_NABV?$QList@VQByteArray@@@@AAVQJsonObject@@@Z$29 00420c06 f   configfilehandler.obj
 0001:0001fc0f       __unwindfunclet$?ImportWorkSpace@configFileHandler@@QAE_NABV?$QList@VQByteArray@@@@AAVQJsonObject@@@Z$30 00420c0f f   configfilehandler.obj
 0001:0001fc18       __unwindfunclet$?ImportWorkSpace@configFileHandler@@QAE_NABV?$QList@VQByteArray@@@@AAVQJsonObject@@@Z$31 00420c18 f   configfilehandler.obj
 0001:0001fc21       __unwindfunclet$?ImportWorkSpace@configFileHandler@@QAE_NABV?$QList@VQByteArray@@@@AAVQJsonObject@@@Z$32 00420c21 f   configfilehandler.obj
 0001:0001fc2a       __unwindfunclet$?ImportWorkSpace@configFileHandler@@QAE_NABV?$QList@VQByteArray@@@@AAVQJsonObject@@@Z$33 00420c2a f   configfilehandler.obj
 0001:0001fc33       __unwindfunclet$?ImportWorkSpace@configFileHandler@@QAE_NABV?$QList@VQByteArray@@@@AAVQJsonObject@@@Z$34 00420c33 f   configfilehandler.obj
 0001:0001fc3c       __unwindfunclet$?ImportWorkSpace@configFileHandler@@QAE_NABV?$QList@VQByteArray@@@@AAVQJsonObject@@@Z$35 00420c3c f   configfilehandler.obj
 0001:0001fc45       __unwindfunclet$?ImportWorkSpace@configFileHandler@@QAE_NABV?$QList@VQByteArray@@@@AAVQJsonObject@@@Z$36 00420c45 f   configfilehandler.obj
 0001:0001fc4e       __unwindfunclet$?ImportWorkSpace@configFileHandler@@QAE_NABV?$QList@VQByteArray@@@@AAVQJsonObject@@@Z$95 00420c4e f   configfilehandler.obj
 0001:0001fc54       __ehhandler$?ImportWorkSpace@configFileHandler@@QAE_NABV?$QList@VQByteArray@@@@AAVQJsonObject@@@Z 00420c54 f   configfilehandler.obj
 0001:0001fc80       __unwindfunclet$?ParseHostIP@configFileHandler@@QAE?AVQString@@XZ$0 00420c80 f   configfilehandler.obj
 0001:0001fc89       __unwindfunclet$?ParseHostIP@configFileHandler@@QAE?AVQString@@XZ$1 00420c89 f   configfilehandler.obj
 0001:0001fc92       __unwindfunclet$?ParseHostIP@configFileHandler@@QAE?AVQString@@XZ$2 00420c92 f   configfilehandler.obj
 0001:0001fc9b       __ehhandler$?ParseHostIP@configFileHandler@@QAE?AVQString@@XZ 00420c9b f   configfilehandler.obj
 0001:0001fcc0       __unwindfunclet$?ParseHostSingleOperationThreshold@configFileHandler@@QAEHXZ$0 00420cc0 f   configfilehandler.obj
 0001:0001fcc0       __unwindfunclet$?ParseHostPort@configFileHandler@@QAEFXZ$0 00420cc0 f   configfilehandler.obj
 0001:0001fcc9       __unwindfunclet$?ParseHostPort@configFileHandler@@QAEFXZ$1 00420cc9 f   configfilehandler.obj
 0001:0001fcc9       __unwindfunclet$?ParseHostSingleOperationThreshold@configFileHandler@@QAEHXZ$1 00420cc9 f   configfilehandler.obj
 0001:0001fcd2       __unwindfunclet$?ParseHostPort@configFileHandler@@QAEFXZ$2 00420cd2 f   configfilehandler.obj
 0001:0001fcd2       __unwindfunclet$?ParseHostSingleOperationThreshold@configFileHandler@@QAEHXZ$2 00420cd2 f   configfilehandler.obj
 0001:0001fcdb       __unwindfunclet$?ParseHostPort@configFileHandler@@QAEFXZ$3 00420cdb f   configfilehandler.obj
 0001:0001fcdb       __unwindfunclet$?ParseHostSingleOperationThreshold@configFileHandler@@QAEHXZ$3 00420cdb f   configfilehandler.obj
 0001:0001fce4       __ehhandler$?ParseHostPort@configFileHandler@@QAEFXZ 00420ce4 f   configfilehandler.obj
 0001:0001fce4       __ehhandler$?ParseHostSingleOperationThreshold@configFileHandler@@QAEHXZ 00420ce4 f   configfilehandler.obj
 0001:0001fd00       __unwindfunclet$?ParseListMap@configFileHandler@@QAE?AV?$QMap@VQString@@VQStringList@@@@ABVQString@@@Z$0 00420d00 f   configfilehandler.obj
 0001:0001fd19       __unwindfunclet$?ParseListMap@configFileHandler@@QAE?AV?$QMap@VQString@@VQStringList@@@@ABVQString@@@Z$1 00420d19 f   configfilehandler.obj
 0001:0001fd22       __unwindfunclet$?ParseListMap@configFileHandler@@QAE?AV?$QMap@VQString@@VQStringList@@@@ABVQString@@@Z$2 00420d22 f   configfilehandler.obj
 0001:0001fd2b       __unwindfunclet$?ParseListMap@configFileHandler@@QAE?AV?$QMap@VQString@@VQStringList@@@@ABVQString@@@Z$3 00420d2b f   configfilehandler.obj
 0001:0001fd34       __unwindfunclet$?ParseListMap@configFileHandler@@QAE?AV?$QMap@VQString@@VQStringList@@@@ABVQString@@@Z$4 00420d34 f   configfilehandler.obj
 0001:0001fd3c       __unwindfunclet$?ParseListMap@configFileHandler@@QAE?AV?$QMap@VQString@@VQStringList@@@@ABVQString@@@Z$5 00420d3c f   configfilehandler.obj
 0001:0001fd45       __unwindfunclet$?ParseListMap@configFileHandler@@QAE?AV?$QMap@VQString@@VQStringList@@@@ABVQString@@@Z$6 00420d45 f   configfilehandler.obj
 0001:0001fd4e       __unwindfunclet$?ParseListMap@configFileHandler@@QAE?AV?$QMap@VQString@@VQStringList@@@@ABVQString@@@Z$7 00420d4e f   configfilehandler.obj
 0001:0001fd57       __unwindfunclet$?ParseListMap@configFileHandler@@QAE?AV?$QMap@VQString@@VQStringList@@@@ABVQString@@@Z$18 00420d57 f   configfilehandler.obj
 0001:0001fd5d       __unwindfunclet$?ParseListMap@configFileHandler@@QAE?AV?$QMap@VQString@@VQStringList@@@@ABVQString@@@Z$28 00420d5d f   configfilehandler.obj
 0001:0001fd63       __ehhandler$?ParseListMap@configFileHandler@@QAE?AV?$QMap@VQString@@VQStringList@@@@ABVQString@@@Z 00420d63 f   configfilehandler.obj
 0001:0001fd80       __unwindfunclet$?ParseMap@configFileHandler@@QAE?AV?$QMap@VQString@@V1@@@ABVQString@@@Z$0 00420d80 f   configfilehandler.obj
 0001:0001fd80       __unwindfunclet$?ParseMapRevertKeyValue@configFileHandler@@QAE?AV?$QMap@VQString@@V1@@@ABVQString@@@Z$0 00420d80 f   configfilehandler.obj
 0001:0001fd99       __unwindfunclet$?ParseMapRevertKeyValue@configFileHandler@@QAE?AV?$QMap@VQString@@V1@@@ABVQString@@@Z$1 00420d99 f   configfilehandler.obj
 0001:0001fd99       __unwindfunclet$?ParseMap@configFileHandler@@QAE?AV?$QMap@VQString@@V1@@@ABVQString@@@Z$1 00420d99 f   configfilehandler.obj
 0001:0001fda2       __unwindfunclet$?ParseMap@configFileHandler@@QAE?AV?$QMap@VQString@@V1@@@ABVQString@@@Z$2 00420da2 f   configfilehandler.obj
 0001:0001fda2       __unwindfunclet$?ParseMapRevertKeyValue@configFileHandler@@QAE?AV?$QMap@VQString@@V1@@@ABVQString@@@Z$2 00420da2 f   configfilehandler.obj
 0001:0001fdab       __unwindfunclet$?ParseMap@configFileHandler@@QAE?AV?$QMap@VQString@@V1@@@ABVQString@@@Z$3 00420dab f   configfilehandler.obj
 0001:0001fdab       __unwindfunclet$?ParseMapRevertKeyValue@configFileHandler@@QAE?AV?$QMap@VQString@@V1@@@ABVQString@@@Z$3 00420dab f   configfilehandler.obj
 0001:0001fdb4       __unwindfunclet$?ParseMap@configFileHandler@@QAE?AV?$QMap@VQString@@V1@@@ABVQString@@@Z$4 00420db4 f   configfilehandler.obj
 0001:0001fdb4       __unwindfunclet$?ParseMapRevertKeyValue@configFileHandler@@QAE?AV?$QMap@VQString@@V1@@@ABVQString@@@Z$4 00420db4 f   configfilehandler.obj
 0001:0001fdbd       __unwindfunclet$?ParseMap@configFileHandler@@QAE?AV?$QMap@VQString@@V1@@@ABVQString@@@Z$5 00420dbd f   configfilehandler.obj
 0001:0001fdbd       __unwindfunclet$?ParseMapRevertKeyValue@configFileHandler@@QAE?AV?$QMap@VQString@@V1@@@ABVQString@@@Z$5 00420dbd f   configfilehandler.obj
 0001:0001fdc6       __ehhandler$?ParseMap@configFileHandler@@QAE?AV?$QMap@VQString@@V1@@@ABVQString@@@Z 00420dc6 f   configfilehandler.obj
 0001:0001fdc6       __ehhandler$?ParseMapRevertKeyValue@configFileHandler@@QAE?AV?$QMap@VQString@@V1@@@ABVQString@@@Z 00420dc6 f   configfilehandler.obj
 0001:0001fdf0       __unwindfunclet$?ParseParamValue@configFileHandler@@QAE?AV?$QMap@VQString@@VOperationParamData@@@@ABVQString@@@Z$0 00420df0 f   configfilehandler.obj
 0001:0001fdf8       __unwindfunclet$?ParseParamValue@configFileHandler@@QAE?AV?$QMap@VQString@@VOperationParamData@@@@ABVQString@@@Z$1 00420df8 f   configfilehandler.obj
 0001:0001fe00       __unwindfunclet$?ParseParamValue@configFileHandler@@QAE?AV?$QMap@VQString@@VOperationParamData@@@@ABVQString@@@Z$2 00420e00 f   configfilehandler.obj
 0001:0001fe09       __unwindfunclet$?ParseParamValue@configFileHandler@@QAE?AV?$QMap@VQString@@VOperationParamData@@@@ABVQString@@@Z$3 00420e09 f   configfilehandler.obj
 0001:0001fe12       __unwindfunclet$?ParseParamValue@configFileHandler@@QAE?AV?$QMap@VQString@@VOperationParamData@@@@ABVQString@@@Z$4 00420e12 f   configfilehandler.obj
 0001:0001fe1b       __unwindfunclet$?ParseParamValue@configFileHandler@@QAE?AV?$QMap@VQString@@VOperationParamData@@@@ABVQString@@@Z$5 00420e1b f   configfilehandler.obj
 0001:0001fe24       __unwindfunclet$?ParseParamValue@configFileHandler@@QAE?AV?$QMap@VQString@@VOperationParamData@@@@ABVQString@@@Z$6 00420e24 f   configfilehandler.obj
 0001:0001fe2d       __unwindfunclet$?ParseParamValue@configFileHandler@@QAE?AV?$QMap@VQString@@VOperationParamData@@@@ABVQString@@@Z$7 00420e2d f   configfilehandler.obj
 0001:0001fe36       __unwindfunclet$?ParseParamValue@configFileHandler@@QAE?AV?$QMap@VQString@@VOperationParamData@@@@ABVQString@@@Z$8 00420e36 f   configfilehandler.obj
 0001:0001fe3f       __unwindfunclet$?ParseParamValue@configFileHandler@@QAE?AV?$QMap@VQString@@VOperationParamData@@@@ABVQString@@@Z$9 00420e3f f   configfilehandler.obj
 0001:0001fe48       __unwindfunclet$?ParseParamValue@configFileHandler@@QAE?AV?$QMap@VQString@@VOperationParamData@@@@ABVQString@@@Z$10 00420e48 f   configfilehandler.obj
 0001:0001fe51       __unwindfunclet$?ParseParamValue@configFileHandler@@QAE?AV?$QMap@VQString@@VOperationParamData@@@@ABVQString@@@Z$11 00420e51 f   configfilehandler.obj
 0001:0001fe5a       __unwindfunclet$?ParseParamValue@configFileHandler@@QAE?AV?$QMap@VQString@@VOperationParamData@@@@ABVQString@@@Z$12 00420e5a f   configfilehandler.obj
 0001:0001fe63       __unwindfunclet$?ParseParamValue@configFileHandler@@QAE?AV?$QMap@VQString@@VOperationParamData@@@@ABVQString@@@Z$51 00420e63 f   configfilehandler.obj
 0001:0001fe6f       __unwindfunclet$?ParseParamValue@configFileHandler@@QAE?AV?$QMap@VQString@@VOperationParamData@@@@ABVQString@@@Z$13 00420e6f f   configfilehandler.obj
 0001:0001fe88       __unwindfunclet$?ParseParamValue@configFileHandler@@QAE?AV?$QMap@VQString@@VOperationParamData@@@@ABVQString@@@Z$14 00420e88 f   configfilehandler.obj
 0001:0001fe94       __unwindfunclet$?ParseParamValue@configFileHandler@@QAE?AV?$QMap@VQString@@VOperationParamData@@@@ABVQString@@@Z$15 00420e94 f   configfilehandler.obj
 0001:0001fea0       __unwindfunclet$?ParseParamValue@configFileHandler@@QAE?AV?$QMap@VQString@@VOperationParamData@@@@ABVQString@@@Z$16 00420ea0 f   configfilehandler.obj
 0001:0001fea9       __unwindfunclet$?ParseParamValue@configFileHandler@@QAE?AV?$QMap@VQString@@VOperationParamData@@@@ABVQString@@@Z$17 00420ea9 f   configfilehandler.obj
 0001:0001feb2       __unwindfunclet$?ParseParamValue@configFileHandler@@QAE?AV?$QMap@VQString@@VOperationParamData@@@@ABVQString@@@Z$18 00420eb2 f   configfilehandler.obj
 0001:0001febb       __unwindfunclet$?ParseParamValue@configFileHandler@@QAE?AV?$QMap@VQString@@VOperationParamData@@@@ABVQString@@@Z$19 00420ebb f   configfilehandler.obj
 0001:0001fec4       __unwindfunclet$?ParseParamValue@configFileHandler@@QAE?AV?$QMap@VQString@@VOperationParamData@@@@ABVQString@@@Z$20 00420ec4 f   configfilehandler.obj
 0001:0001fecc       __unwindfunclet$?ParseParamValue@configFileHandler@@QAE?AV?$QMap@VQString@@VOperationParamData@@@@ABVQString@@@Z$21 00420ecc f   configfilehandler.obj
 0001:0001fed4       __unwindfunclet$?ParseParamValue@configFileHandler@@QAE?AV?$QMap@VQString@@VOperationParamData@@@@ABVQString@@@Z$22 00420ed4 f   configfilehandler.obj
 0001:0001fedd       __unwindfunclet$?ParseParamValue@configFileHandler@@QAE?AV?$QMap@VQString@@VOperationParamData@@@@ABVQString@@@Z$23 00420edd f   configfilehandler.obj
 0001:0001fee6       __unwindfunclet$?ParseParamValue@configFileHandler@@QAE?AV?$QMap@VQString@@VOperationParamData@@@@ABVQString@@@Z$24 00420ee6 f   configfilehandler.obj
 0001:0001feef       __unwindfunclet$?ParseParamValue@configFileHandler@@QAE?AV?$QMap@VQString@@VOperationParamData@@@@ABVQString@@@Z$25 00420eef f   configfilehandler.obj
 0001:0001fefb       __unwindfunclet$?ParseParamValue@configFileHandler@@QAE?AV?$QMap@VQString@@VOperationParamData@@@@ABVQString@@@Z$27 00420efb f   configfilehandler.obj
 0001:0001ff07       __unwindfunclet$?ParseParamValue@configFileHandler@@QAE?AV?$QMap@VQString@@VOperationParamData@@@@ABVQString@@@Z$56 00420f07 f   configfilehandler.obj
 0001:0001ff13       __unwindfunclet$?ParseParamValue@configFileHandler@@QAE?AV?$QMap@VQString@@VOperationParamData@@@@ABVQString@@@Z$57 00420f13 f   configfilehandler.obj
 0001:0001ff1f       __unwindfunclet$?ParseParamValue@configFileHandler@@QAE?AV?$QMap@VQString@@VOperationParamData@@@@ABVQString@@@Z$58 00420f1f f   configfilehandler.obj
 0001:0001ff2b       __unwindfunclet$?ParseParamValue@configFileHandler@@QAE?AV?$QMap@VQString@@VOperationParamData@@@@ABVQString@@@Z$29 00420f2b f   configfilehandler.obj
 0001:0001ff37       __unwindfunclet$?ParseParamValue@configFileHandler@@QAE?AV?$QMap@VQString@@VOperationParamData@@@@ABVQString@@@Z$69 00420f37 f   configfilehandler.obj
 0001:0001ff3d       __unwindfunclet$?ParseParamValue@configFileHandler@@QAE?AV?$QMap@VQString@@VOperationParamData@@@@ABVQString@@@Z$78 00420f3d f   configfilehandler.obj
 0001:0001ff43       __unwindfunclet$?ParseParamValue@configFileHandler@@QAE?AV?$QMap@VQString@@VOperationParamData@@@@ABVQString@@@Z$30 00420f43 f   configfilehandler.obj
 0001:0001ff4c       __unwindfunclet$?ParseParamValue@configFileHandler@@QAE?AV?$QMap@VQString@@VOperationParamData@@@@ABVQString@@@Z$31 00420f4c f   configfilehandler.obj
 0001:0001ff58       __unwindfunclet$?ParseParamValue@configFileHandler@@QAE?AV?$QMap@VQString@@VOperationParamData@@@@ABVQString@@@Z$32 00420f58 f   configfilehandler.obj
 0001:0001ff64       __unwindfunclet$?ParseParamValue@configFileHandler@@QAE?AV?$QMap@VQString@@VOperationParamData@@@@ABVQString@@@Z$34 00420f64 f   configfilehandler.obj
 0001:0001ff70       __unwindfunclet$?ParseParamValue@configFileHandler@@QAE?AV?$QMap@VQString@@VOperationParamData@@@@ABVQString@@@Z$98 00420f70 f   configfilehandler.obj
 0001:0001ff76       __unwindfunclet$?ParseParamValue@configFileHandler@@QAE?AV?$QMap@VQString@@VOperationParamData@@@@ABVQString@@@Z$105 00420f76 f   configfilehandler.obj
 0001:0001ff7c       __unwindfunclet$?ParseParamValue@configFileHandler@@QAE?AV?$QMap@VQString@@VOperationParamData@@@@ABVQString@@@Z$35 00420f7c f   configfilehandler.obj
 0001:0001ff85       __unwindfunclet$?ParseParamValue@configFileHandler@@QAE?AV?$QMap@VQString@@VOperationParamData@@@@ABVQString@@@Z$112 00420f85 f   configfilehandler.obj
 0001:0001ff91       __unwindfunclet$?ParseParamValue@configFileHandler@@QAE?AV?$QMap@VQString@@VOperationParamData@@@@ABVQString@@@Z$36 00420f91 f   configfilehandler.obj
 0001:0001ff9d       __unwindfunclet$?ParseParamValue@configFileHandler@@QAE?AV?$QMap@VQString@@VOperationParamData@@@@ABVQString@@@Z$38 00420f9d f   configfilehandler.obj
 0001:0001ffa6       __unwindfunclet$?ParseParamValue@configFileHandler@@QAE?AV?$QMap@VQString@@VOperationParamData@@@@ABVQString@@@Z$40 00420fa6 f   configfilehandler.obj
 0001:0001ffaf       __unwindfunclet$?ParseParamValue@configFileHandler@@QAE?AV?$QMap@VQString@@VOperationParamData@@@@ABVQString@@@Z$113 00420faf f   configfilehandler.obj
 0001:0001ffbb       __unwindfunclet$?ParseParamValue@configFileHandler@@QAE?AV?$QMap@VQString@@VOperationParamData@@@@ABVQString@@@Z$41 00420fbb f   configfilehandler.obj
 0001:0001ffc4       __unwindfunclet$?ParseParamValue@configFileHandler@@QAE?AV?$QMap@VQString@@VOperationParamData@@@@ABVQString@@@Z$114 00420fc4 f   configfilehandler.obj
 0001:0001ffd0       __unwindfunclet$?ParseParamValue@configFileHandler@@QAE?AV?$QMap@VQString@@VOperationParamData@@@@ABVQString@@@Z$42 00420fd0 f   configfilehandler.obj
 0001:0001ffd9       __unwindfunclet$?ParseParamValue@configFileHandler@@QAE?AV?$QMap@VQString@@VOperationParamData@@@@ABVQString@@@Z$115 00420fd9 f   configfilehandler.obj
 0001:0001ffe5       __unwindfunclet$?ParseParamValue@configFileHandler@@QAE?AV?$QMap@VQString@@VOperationParamData@@@@ABVQString@@@Z$43 00420fe5 f   configfilehandler.obj
 0001:0001ffee       __unwindfunclet$?ParseParamValue@configFileHandler@@QAE?AV?$QMap@VQString@@VOperationParamData@@@@ABVQString@@@Z$123 00420fee f   configfilehandler.obj
 0001:0001fff4       __unwindfunclet$?ParseParamValue@configFileHandler@@QAE?AV?$QMap@VQString@@VOperationParamData@@@@ABVQString@@@Z$139 00420ff4 f   configfilehandler.obj
 0001:0001fffa       __unwindfunclet$?ParseParamValue@configFileHandler@@QAE?AV?$QMap@VQString@@VOperationParamData@@@@ABVQString@@@Z$44 00420ffa f   configfilehandler.obj
 0001:00020002       __unwindfunclet$?ParseParamValue@configFileHandler@@QAE?AV?$QMap@VQString@@VOperationParamData@@@@ABVQString@@@Z$45 00421002 f   configfilehandler.obj
 0001:0002000b       __unwindfunclet$?ParseParamValue@configFileHandler@@QAE?AV?$QMap@VQString@@VOperationParamData@@@@ABVQString@@@Z$46 0042100b f   configfilehandler.obj
 0001:00020016       __unwindfunclet$?ParseParamValue@configFileHandler@@QAE?AV?$QMap@VQString@@VOperationParamData@@@@ABVQString@@@Z$47 00421016 f   configfilehandler.obj
 0001:0002001f       __unwindfunclet$?ParseParamValue@configFileHandler@@QAE?AV?$QMap@VQString@@VOperationParamData@@@@ABVQString@@@Z$146 0042101f f   configfilehandler.obj
 0001:0002002a       __unwindfunclet$?ParseParamValue@configFileHandler@@QAE?AV?$QMap@VQString@@VOperationParamData@@@@ABVQString@@@Z$154 0042102a f   configfilehandler.obj
 0001:00020030       __unwindfunclet$?ParseParamValue@configFileHandler@@QAE?AV?$QMap@VQString@@VOperationParamData@@@@ABVQString@@@Z$162 00421030 f   configfilehandler.obj
 0001:00020036       __unwindfunclet$?ParseParamValue@configFileHandler@@QAE?AV?$QMap@VQString@@VOperationParamData@@@@ABVQString@@@Z$172 00421036 f   configfilehandler.obj
 0001:0002003c       __unwindfunclet$?ParseParamValue@configFileHandler@@QAE?AV?$QMap@VQString@@VOperationParamData@@@@ABVQString@@@Z$180 0042103c f   configfilehandler.obj
 0001:00020042       __unwindfunclet$?ParseParamValue@configFileHandler@@QAE?AV?$QMap@VQString@@VOperationParamData@@@@ABVQString@@@Z$189 00421042 f   configfilehandler.obj
 0001:00020048       __unwindfunclet$?ParseParamValue@configFileHandler@@QAE?AV?$QMap@VQString@@VOperationParamData@@@@ABVQString@@@Z$197 00421048 f   configfilehandler.obj
 0001:0002004e       __unwindfunclet$?ParseParamValue@configFileHandler@@QAE?AV?$QMap@VQString@@VOperationParamData@@@@ABVQString@@@Z$206 0042104e f   configfilehandler.obj
 0001:00020054       __unwindfunclet$?ParseParamValue@configFileHandler@@QAE?AV?$QMap@VQString@@VOperationParamData@@@@ABVQString@@@Z$214 00421054 f   configfilehandler.obj
 0001:0002005a       __ehhandler$?ParseParamValue@configFileHandler@@QAE?AV?$QMap@VQString@@VOperationParamData@@@@ABVQString@@@Z 0042105a f   configfilehandler.obj
 0001:00020080       __unwindfunclet$?ParsePlan@configFileHandler@@QAE?AVQString@@ABVQJsonArray@@@Z$0 00421080 f   configfilehandler.obj
 0001:0002009a       __unwindfunclet$?ParsePlan@configFileHandler@@QAE?AVQString@@ABVQJsonArray@@@Z$1 0042109a f   configfilehandler.obj
 0001:000200a5       __unwindfunclet$?ParsePlan@configFileHandler@@QAE?AVQString@@ABVQJsonArray@@@Z$2 004210a5 f   configfilehandler.obj
 0001:000200ae       __unwindfunclet$?ParsePlan@configFileHandler@@QAE?AVQString@@ABVQJsonArray@@@Z$3 004210ae f   configfilehandler.obj
 0001:000200b7       __unwindfunclet$?ParsePlan@configFileHandler@@QAE?AVQString@@ABVQJsonArray@@@Z$4 004210b7 f   configfilehandler.obj
 0001:000200c0       __unwindfunclet$?ParsePlan@configFileHandler@@QAE?AVQString@@ABVQJsonArray@@@Z$5 004210c0 f   configfilehandler.obj
 0001:000200c9       __unwindfunclet$?ParsePlan@configFileHandler@@QAE?AVQString@@ABVQJsonArray@@@Z$6 004210c9 f   configfilehandler.obj
 0001:000200d1       __unwindfunclet$?ParsePlan@configFileHandler@@QAE?AVQString@@ABVQJsonArray@@@Z$7 004210d1 f   configfilehandler.obj
 0001:000200da       __unwindfunclet$?ParsePlan@configFileHandler@@QAE?AVQString@@ABVQJsonArray@@@Z$8 004210da f   configfilehandler.obj
 0001:000200e3       __unwindfunclet$?ParsePlan@configFileHandler@@QAE?AVQString@@ABVQJsonArray@@@Z$9 004210e3 f   configfilehandler.obj
 0001:000200ec       __unwindfunclet$?ParsePlan@configFileHandler@@QAE?AVQString@@ABVQJsonArray@@@Z$10 004210ec f   configfilehandler.obj
 0001:000200f5       __unwindfunclet$?ParsePlan@configFileHandler@@QAE?AVQString@@ABVQJsonArray@@@Z$11 004210f5 f   configfilehandler.obj
 0001:000200fe       __unwindfunclet$?ParsePlan@configFileHandler@@QAE?AVQString@@ABVQJsonArray@@@Z$12 004210fe f   configfilehandler.obj
 0001:00020107       __unwindfunclet$?ParsePlan@configFileHandler@@QAE?AVQString@@ABVQJsonArray@@@Z$13 00421107 f   configfilehandler.obj
 0001:00020110       __unwindfunclet$?ParsePlan@configFileHandler@@QAE?AVQString@@ABVQJsonArray@@@Z$14 00421110 f   configfilehandler.obj
 0001:00020119       __unwindfunclet$?ParsePlan@configFileHandler@@QAE?AVQString@@ABVQJsonArray@@@Z$15 00421119 f   configfilehandler.obj
 0001:00020122       __unwindfunclet$?ParsePlan@configFileHandler@@QAE?AVQString@@ABVQJsonArray@@@Z$16 00421122 f   configfilehandler.obj
 0001:0002012b       __unwindfunclet$?ParsePlan@configFileHandler@@QAE?AVQString@@ABVQJsonArray@@@Z$17 0042112b f   configfilehandler.obj
 0001:00020134       __unwindfunclet$?ParsePlan@configFileHandler@@QAE?AVQString@@ABVQJsonArray@@@Z$18 00421134 f   configfilehandler.obj
 0001:0002013d       __unwindfunclet$?ParsePlan@configFileHandler@@QAE?AVQString@@ABVQJsonArray@@@Z$19 0042113d f   configfilehandler.obj
 0001:00020146       __unwindfunclet$?ParsePlan@configFileHandler@@QAE?AVQString@@ABVQJsonArray@@@Z$20 00421146 f   configfilehandler.obj
 0001:0002014f       __unwindfunclet$?ParsePlan@configFileHandler@@QAE?AVQString@@ABVQJsonArray@@@Z$21 0042114f f   configfilehandler.obj
 0001:00020158       __unwindfunclet$?ParsePlan@configFileHandler@@QAE?AVQString@@ABVQJsonArray@@@Z$22 00421158 f   configfilehandler.obj
 0001:00020161       __unwindfunclet$?ParsePlan@configFileHandler@@QAE?AVQString@@ABVQJsonArray@@@Z$34 00421161 f   configfilehandler.obj
 0001:0002016d       __unwindfunclet$?ParsePlan@configFileHandler@@QAE?AVQString@@ABVQJsonArray@@@Z$23 0042116d f   configfilehandler.obj
 0001:00020176       __unwindfunclet$?ParsePlan@configFileHandler@@QAE?AVQString@@ABVQJsonArray@@@Z$36 00421176 f   configfilehandler.obj
 0001:0002017c       __ehhandler$?ParsePlan@configFileHandler@@QAE?AVQString@@ABVQJsonArray@@@Z 0042117c f   configfilehandler.obj
 0001:000201a0       __unwindfunclet$?ParsePlanList@configFileHandler@@QAEXAAV?$QList@VSinglePlanData@@@@ABV?$QMap@VQString@@VOperationParamData@@@@@Z$0 004211a0 f   configfilehandler.obj
 0001:000201a9       __unwindfunclet$?ParsePlanList@configFileHandler@@QAEXAAV?$QList@VSinglePlanData@@@@ABV?$QMap@VQString@@VOperationParamData@@@@@Z$1 004211a9 f   configfilehandler.obj
 0001:000201b2       __unwindfunclet$?ParsePlanList@configFileHandler@@QAEXAAV?$QList@VSinglePlanData@@@@ABV?$QMap@VQString@@VOperationParamData@@@@@Z$2 004211b2 f   configfilehandler.obj
 0001:000201bb       __unwindfunclet$?ParsePlanList@configFileHandler@@QAEXAAV?$QList@VSinglePlanData@@@@ABV?$QMap@VQString@@VOperationParamData@@@@@Z$3 004211bb f   configfilehandler.obj
 0001:000201c4       __unwindfunclet$?ParsePlanList@configFileHandler@@QAEXAAV?$QList@VSinglePlanData@@@@ABV?$QMap@VQString@@VOperationParamData@@@@@Z$4 004211c4 f   configfilehandler.obj
 0001:000201cd       __unwindfunclet$?ParsePlanList@configFileHandler@@QAEXAAV?$QList@VSinglePlanData@@@@ABV?$QMap@VQString@@VOperationParamData@@@@@Z$5 004211cd f   configfilehandler.obj
 0001:000201d6       __unwindfunclet$?ParsePlanList@configFileHandler@@QAEXAAV?$QList@VSinglePlanData@@@@ABV?$QMap@VQString@@VOperationParamData@@@@@Z$22 004211d6 f   configfilehandler.obj
 0001:000201e2       __unwindfunclet$?ParsePlanList@configFileHandler@@QAEXAAV?$QList@VSinglePlanData@@@@ABV?$QMap@VQString@@VOperationParamData@@@@@Z$6 004211e2 f   configfilehandler.obj
 0001:000201eb       __unwindfunclet$?ParsePlanList@configFileHandler@@QAEXAAV?$QList@VSinglePlanData@@@@ABV?$QMap@VQString@@VOperationParamData@@@@@Z$7 004211eb f   configfilehandler.obj
 0001:000201f4       __unwindfunclet$?ParsePlanList@configFileHandler@@QAEXAAV?$QList@VSinglePlanData@@@@ABV?$QMap@VQString@@VOperationParamData@@@@@Z$8 004211f4 f   configfilehandler.obj
 0001:000201fc       __unwindfunclet$?ParsePlanList@configFileHandler@@QAEXAAV?$QList@VSinglePlanData@@@@ABV?$QMap@VQString@@VOperationParamData@@@@@Z$9 004211fc f   configfilehandler.obj
 0001:00020208       __unwindfunclet$?ParsePlanList@configFileHandler@@QAEXAAV?$QList@VSinglePlanData@@@@ABV?$QMap@VQString@@VOperationParamData@@@@@Z$10 00421208 f   configfilehandler.obj
 0001:00020211       __unwindfunclet$?ParsePlanList@configFileHandler@@QAEXAAV?$QList@VSinglePlanData@@@@ABV?$QMap@VQString@@VOperationParamData@@@@@Z$11 00421211 f   configfilehandler.obj
 0001:0002021a       __unwindfunclet$?ParsePlanList@configFileHandler@@QAEXAAV?$QList@VSinglePlanData@@@@ABV?$QMap@VQString@@VOperationParamData@@@@@Z$12 0042121a f   configfilehandler.obj
 0001:00020222       __unwindfunclet$?ParsePlanList@configFileHandler@@QAEXAAV?$QList@VSinglePlanData@@@@ABV?$QMap@VQString@@VOperationParamData@@@@@Z$13 00421222 f   configfilehandler.obj
 0001:0002022b       __unwindfunclet$?ParsePlanList@configFileHandler@@QAEXAAV?$QList@VSinglePlanData@@@@ABV?$QMap@VQString@@VOperationParamData@@@@@Z$15 0042122b f   configfilehandler.obj
 0001:00020233       __unwindfunclet$?ParsePlanList@configFileHandler@@QAEXAAV?$QList@VSinglePlanData@@@@ABV?$QMap@VQString@@VOperationParamData@@@@@Z$17 00421233 f   configfilehandler.obj
 0001:0002023e       __unwindfunclet$?ParsePlanList@configFileHandler@@QAEXAAV?$QList@VSinglePlanData@@@@ABV?$QMap@VQString@@VOperationParamData@@@@@Z$29 0042123e f   configfilehandler.obj
 0001:0002024a       __unwindfunclet$?ParsePlanList@configFileHandler@@QAEXAAV?$QList@VSinglePlanData@@@@ABV?$QMap@VQString@@VOperationParamData@@@@@Z$30 0042124a f   configfilehandler.obj
 0001:00020256       __unwindfunclet$?ParsePlanList@configFileHandler@@QAEXAAV?$QList@VSinglePlanData@@@@ABV?$QMap@VQString@@VOperationParamData@@@@@Z$31 00421256 f   configfilehandler.obj
 0001:00020262       __unwindfunclet$?ParsePlanList@configFileHandler@@QAEXAAV?$QList@VSinglePlanData@@@@ABV?$QMap@VQString@@VOperationParamData@@@@@Z$32 00421262 f   configfilehandler.obj
 0001:0002026e       __unwindfunclet$?ParsePlanList@configFileHandler@@QAEXAAV?$QList@VSinglePlanData@@@@ABV?$QMap@VQString@@VOperationParamData@@@@@Z$34 0042126e f   configfilehandler.obj
 0001:00020274       __unwindfunclet$?ParsePlanList@configFileHandler@@QAEXAAV?$QList@VSinglePlanData@@@@ABV?$QMap@VQString@@VOperationParamData@@@@@Z$42 00421274 f   configfilehandler.obj
 0001:0002027a       __unwindfunclet$?ParsePlanList@configFileHandler@@QAEXAAV?$QList@VSinglePlanData@@@@ABV?$QMap@VQString@@VOperationParamData@@@@@Z$52 0042127a f   configfilehandler.obj
 0001:00020280       __unwindfunclet$?ParsePlanList@configFileHandler@@QAEXAAV?$QList@VSinglePlanData@@@@ABV?$QMap@VQString@@VOperationParamData@@@@@Z$60 00421280 f   configfilehandler.obj
 0001:00020286       __unwindfunclet$?ParsePlanList@configFileHandler@@QAEXAAV?$QList@VSinglePlanData@@@@ABV?$QMap@VQString@@VOperationParamData@@@@@Z$70 00421286 f   configfilehandler.obj
 0001:0002028c       __unwindfunclet$?ParsePlanList@configFileHandler@@QAEXAAV?$QList@VSinglePlanData@@@@ABV?$QMap@VQString@@VOperationParamData@@@@@Z$78 0042128c f   configfilehandler.obj
 0001:00020292       __unwindfunclet$?ParsePlanList@configFileHandler@@QAEXAAV?$QList@VSinglePlanData@@@@ABV?$QMap@VQString@@VOperationParamData@@@@@Z$86 00421292 f   configfilehandler.obj
 0001:00020298       __unwindfunclet$?ParsePlanList@configFileHandler@@QAEXAAV?$QList@VSinglePlanData@@@@ABV?$QMap@VQString@@VOperationParamData@@@@@Z$115 00421298 f   configfilehandler.obj
 0001:000202a1       __unwindfunclet$?ParsePlanList@configFileHandler@@QAEXAAV?$QList@VSinglePlanData@@@@ABV?$QMap@VQString@@VOperationParamData@@@@@Z$21 004212a1 f   configfilehandler.obj
 0001:000202a9       __unwindfunclet$?ParsePlanList@configFileHandler@@QAEXAAV?$QList@VSinglePlanData@@@@ABV?$QMap@VQString@@VOperationParamData@@@@@Z$118 004212a9 f   configfilehandler.obj
 0001:000202af       __unwindfunclet$?ParsePlanList@configFileHandler@@QAEXAAV?$QList@VSinglePlanData@@@@ABV?$QMap@VQString@@VOperationParamData@@@@@Z$125 004212af f   configfilehandler.obj
 0001:000202b5       __ehhandler$?ParsePlanList@configFileHandler@@QAEXAAV?$QList@VSinglePlanData@@@@ABV?$QMap@VQString@@VOperationParamData@@@@@Z 004212b5 f   configfilehandler.obj
 0001:000202e0       __unwindfunclet$?ParseWorkPlaceConstraint@configFileHandler@@QAE?AVQJsonArray@@XZ$0 004212e0 f   configfilehandler.obj
 0001:000202e0       __unwindfunclet$?GetLicense@configFileHandler@@QAE?AVQString@@XZ$0 004212e0 f   configfilehandler.obj
 0001:000202e9       __ehhandler$?ParseWorkPlaceConstraint@configFileHandler@@QAE?AVQJsonArray@@XZ 004212e9 f   configfilehandler.obj
 0001:000202e9       __ehhandler$?GetLicense@configFileHandler@@QAE?AVQString@@XZ 004212e9 f   configfilehandler.obj
 0001:00020310       __unwindfunclet$?ParseWorkSpace@configFileHandler@@QAE?AVQString@@ABVQJsonObject@@@Z$0 00421310 f   configfilehandler.obj
 0001:00020319       __unwindfunclet$?ParseWorkSpace@configFileHandler@@QAE?AVQString@@ABVQJsonObject@@@Z$1 00421319 f   configfilehandler.obj
 0001:00020322       __unwindfunclet$?ParseWorkSpace@configFileHandler@@QAE?AVQString@@ABVQJsonObject@@@Z$2 00421322 f   configfilehandler.obj
 0001:0002032b       __unwindfunclet$?ParseWorkSpace@configFileHandler@@QAE?AVQString@@ABVQJsonObject@@@Z$3 0042132b f   configfilehandler.obj
 0001:00020345       __unwindfunclet$?ParseWorkSpace@configFileHandler@@QAE?AVQString@@ABVQJsonObject@@@Z$4 00421345 f   configfilehandler.obj
 0001:0002034e       __unwindfunclet$?ParseWorkSpace@configFileHandler@@QAE?AVQString@@ABVQJsonObject@@@Z$5 0042134e f   configfilehandler.obj
 0001:00020357       __unwindfunclet$?ParseWorkSpace@configFileHandler@@QAE?AVQString@@ABVQJsonObject@@@Z$6 00421357 f   configfilehandler.obj
 0001:00020360       __unwindfunclet$?ParseWorkSpace@configFileHandler@@QAE?AVQString@@ABVQJsonObject@@@Z$7 00421360 f   configfilehandler.obj
 0001:00020369       __unwindfunclet$?ParseWorkSpace@configFileHandler@@QAE?AVQString@@ABVQJsonObject@@@Z$8 00421369 f   configfilehandler.obj
 0001:00020372       __unwindfunclet$?ParseWorkSpace@configFileHandler@@QAE?AVQString@@ABVQJsonObject@@@Z$9 00421372 f   configfilehandler.obj
 0001:0002037b       __unwindfunclet$?ParseWorkSpace@configFileHandler@@QAE?AVQString@@ABVQJsonObject@@@Z$10 0042137b f   configfilehandler.obj
 0001:00020384       __unwindfunclet$?ParseWorkSpace@configFileHandler@@QAE?AVQString@@ABVQJsonObject@@@Z$11 00421384 f   configfilehandler.obj
 0001:0002038c       __unwindfunclet$?ParseWorkSpace@configFileHandler@@QAE?AVQString@@ABVQJsonObject@@@Z$12 0042138c f   configfilehandler.obj
 0001:00020395       __unwindfunclet$?ParseWorkSpace@configFileHandler@@QAE?AVQString@@ABVQJsonObject@@@Z$13 00421395 f   configfilehandler.obj
 0001:0002039e       __unwindfunclet$?ParseWorkSpace@configFileHandler@@QAE?AVQString@@ABVQJsonObject@@@Z$14 0042139e f   configfilehandler.obj
 0001:000203a7       __unwindfunclet$?ParseWorkSpace@configFileHandler@@QAE?AVQString@@ABVQJsonObject@@@Z$15 004213a7 f   configfilehandler.obj
 0001:000203b0       __unwindfunclet$?ParseWorkSpace@configFileHandler@@QAE?AVQString@@ABVQJsonObject@@@Z$16 004213b0 f   configfilehandler.obj
 0001:000203b9       __unwindfunclet$?ParseWorkSpace@configFileHandler@@QAE?AVQString@@ABVQJsonObject@@@Z$17 004213b9 f   configfilehandler.obj
 0001:000203c2       __unwindfunclet$?ParseWorkSpace@configFileHandler@@QAE?AVQString@@ABVQJsonObject@@@Z$18 004213c2 f   configfilehandler.obj
 0001:000203cb       __unwindfunclet$?ParseWorkSpace@configFileHandler@@QAE?AVQString@@ABVQJsonObject@@@Z$19 004213cb f   configfilehandler.obj
 0001:000203d4       __unwindfunclet$?ParseWorkSpace@configFileHandler@@QAE?AVQString@@ABVQJsonObject@@@Z$20 004213d4 f   configfilehandler.obj
 0001:000203dd       __unwindfunclet$?ParseWorkSpace@configFileHandler@@QAE?AVQString@@ABVQJsonObject@@@Z$21 004213dd f   configfilehandler.obj
 0001:000203e6       __unwindfunclet$?ParseWorkSpace@configFileHandler@@QAE?AVQString@@ABVQJsonObject@@@Z$32 004213e6 f   configfilehandler.obj
 0001:000203f2       __unwindfunclet$?ParseWorkSpace@configFileHandler@@QAE?AVQString@@ABVQJsonObject@@@Z$22 004213f2 f   configfilehandler.obj
 0001:000203fb       __unwindfunclet$?ParseWorkSpace@configFileHandler@@QAE?AVQString@@ABVQJsonObject@@@Z$34 004213fb f   configfilehandler.obj
 0001:00020401       __ehhandler$?ParseWorkSpace@configFileHandler@@QAE?AVQString@@ABVQJsonObject@@@Z 00421401 f   configfilehandler.obj
 0001:00020420       __unwindfunclet$?ParseWorkSpaceTypeList@configFileHandler@@QAEXAAVQJsonObject@@@Z$0 00421420 f   configfilehandler.obj
 0001:00020429       __unwindfunclet$?ParseWorkSpaceTypeList@configFileHandler@@QAEXAAVQJsonObject@@@Z$1 00421429 f   configfilehandler.obj
 0001:00020432       __ehhandler$?ParseWorkSpaceTypeList@configFileHandler@@QAEXAAVQJsonObject@@@Z 00421432 f   configfilehandler.obj
 0001:00020450       __unwindfunclet$?SaveMachineConfig@configFileHandler@@QAE_NABVQString@@ABVMachineConfigData@@ABVQJsonObject@@@Z$0 00421450 f   configfilehandler.obj
 0001:00020459       __unwindfunclet$?SaveMachineConfig@configFileHandler@@QAE_NABVQString@@ABVMachineConfigData@@ABVQJsonObject@@@Z$1 00421459 f   configfilehandler.obj
 0001:00020462       __unwindfunclet$?SaveMachineConfig@configFileHandler@@QAE_NABVQString@@ABVMachineConfigData@@ABVQJsonObject@@@Z$2 00421462 f   configfilehandler.obj
 0001:0002046b       __unwindfunclet$?SaveMachineConfig@configFileHandler@@QAE_NABVQString@@ABVMachineConfigData@@ABVQJsonObject@@@Z$3 0042146b f   configfilehandler.obj
 0001:00020474       __unwindfunclet$?SaveMachineConfig@configFileHandler@@QAE_NABVQString@@ABVMachineConfigData@@ABVQJsonObject@@@Z$4 00421474 f   configfilehandler.obj
 0001:0002047d       __unwindfunclet$?SaveMachineConfig@configFileHandler@@QAE_NABVQString@@ABVMachineConfigData@@ABVQJsonObject@@@Z$5 0042147d f   configfilehandler.obj
 0001:00020486       __unwindfunclet$?SaveMachineConfig@configFileHandler@@QAE_NABVQString@@ABVMachineConfigData@@ABVQJsonObject@@@Z$6 00421486 f   configfilehandler.obj
 0001:0002048f       __unwindfunclet$?SaveMachineConfig@configFileHandler@@QAE_NABVQString@@ABVMachineConfigData@@ABVQJsonObject@@@Z$7 0042148f f   configfilehandler.obj
 0001:00020498       __unwindfunclet$?SaveMachineConfig@configFileHandler@@QAE_NABVQString@@ABVMachineConfigData@@ABVQJsonObject@@@Z$8 00421498 f   configfilehandler.obj
 0001:000204a1       __unwindfunclet$?SaveMachineConfig@configFileHandler@@QAE_NABVQString@@ABVMachineConfigData@@ABVQJsonObject@@@Z$9 004214a1 f   configfilehandler.obj
 0001:000204aa       __unwindfunclet$?SaveMachineConfig@configFileHandler@@QAE_NABVQString@@ABVMachineConfigData@@ABVQJsonObject@@@Z$10 004214aa f   configfilehandler.obj
 0001:000204b3       __unwindfunclet$?SaveMachineConfig@configFileHandler@@QAE_NABVQString@@ABVMachineConfigData@@ABVQJsonObject@@@Z$11 004214b3 f   configfilehandler.obj
 0001:000204bc       __unwindfunclet$?SaveMachineConfig@configFileHandler@@QAE_NABVQString@@ABVMachineConfigData@@ABVQJsonObject@@@Z$12 004214bc f   configfilehandler.obj
 0001:000204c5       __unwindfunclet$?SaveMachineConfig@configFileHandler@@QAE_NABVQString@@ABVMachineConfigData@@ABVQJsonObject@@@Z$13 004214c5 f   configfilehandler.obj
 0001:000204ce       __unwindfunclet$?SaveMachineConfig@configFileHandler@@QAE_NABVQString@@ABVMachineConfigData@@ABVQJsonObject@@@Z$14 004214ce f   configfilehandler.obj
 0001:000204d7       __unwindfunclet$?SaveMachineConfig@configFileHandler@@QAE_NABVQString@@ABVMachineConfigData@@ABVQJsonObject@@@Z$15 004214d7 f   configfilehandler.obj
 0001:000204e0       __unwindfunclet$?SaveMachineConfig@configFileHandler@@QAE_NABVQString@@ABVMachineConfigData@@ABVQJsonObject@@@Z$16 004214e0 f   configfilehandler.obj
 0001:000204e9       __unwindfunclet$?SaveMachineConfig@configFileHandler@@QAE_NABVQString@@ABVMachineConfigData@@ABVQJsonObject@@@Z$17 004214e9 f   configfilehandler.obj
 0001:000204f2       __unwindfunclet$?SaveMachineConfig@configFileHandler@@QAE_NABVQString@@ABVMachineConfigData@@ABVQJsonObject@@@Z$18 004214f2 f   configfilehandler.obj
 0001:000204fb       __unwindfunclet$?SaveMachineConfig@configFileHandler@@QAE_NABVQString@@ABVMachineConfigData@@ABVQJsonObject@@@Z$19 004214fb f   configfilehandler.obj
 0001:00020504       __unwindfunclet$?SaveMachineConfig@configFileHandler@@QAE_NABVQString@@ABVMachineConfigData@@ABVQJsonObject@@@Z$20 00421504 f   configfilehandler.obj
 0001:0002050d       __ehhandler$?SaveMachineConfig@configFileHandler@@QAE_NABVQString@@ABVMachineConfigData@@ABVQJsonObject@@@Z 0042150d f   configfilehandler.obj
 0001:00020530       __unwindfunclet$?SavePlanList@configFileHandler@@QAE_NABVQString@@ABV?$QList@VSinglePlanData@@@@ABV?$QMap@VQString@@VQStringList@@@@@Z$0 00421530 f   configfilehandler.obj
 0001:00020539       __unwindfunclet$?SavePlanList@configFileHandler@@QAE_NABVQString@@ABV?$QList@VSinglePlanData@@@@ABV?$QMap@VQString@@VQStringList@@@@@Z$1 00421539 f   configfilehandler.obj
 0001:00020542       __unwindfunclet$?SavePlanList@configFileHandler@@QAE_NABVQString@@ABV?$QList@VSinglePlanData@@@@ABV?$QMap@VQString@@VQStringList@@@@@Z$2 00421542 f   configfilehandler.obj
 0001:0002054b       __unwindfunclet$?SavePlanList@configFileHandler@@QAE_NABVQString@@ABV?$QList@VSinglePlanData@@@@ABV?$QMap@VQString@@VQStringList@@@@@Z$3 0042154b f   configfilehandler.obj
 0001:00020554       __unwindfunclet$?SavePlanList@configFileHandler@@QAE_NABVQString@@ABV?$QList@VSinglePlanData@@@@ABV?$QMap@VQString@@VQStringList@@@@@Z$4 00421554 f   configfilehandler.obj
 0001:0002055d       __unwindfunclet$?SavePlanList@configFileHandler@@QAE_NABVQString@@ABV?$QList@VSinglePlanData@@@@ABV?$QMap@VQString@@VQStringList@@@@@Z$5 0042155d f   configfilehandler.obj
 0001:00020566       __unwindfunclet$?SavePlanList@configFileHandler@@QAE_NABVQString@@ABV?$QList@VSinglePlanData@@@@ABV?$QMap@VQString@@VQStringList@@@@@Z$6 00421566 f   configfilehandler.obj
 0001:0002056f       __unwindfunclet$?SavePlanList@configFileHandler@@QAE_NABVQString@@ABV?$QList@VSinglePlanData@@@@ABV?$QMap@VQString@@VQStringList@@@@@Z$7 0042156f f   configfilehandler.obj
 0001:00020578       __unwindfunclet$?SavePlanList@configFileHandler@@QAE_NABVQString@@ABV?$QList@VSinglePlanData@@@@ABV?$QMap@VQString@@VQStringList@@@@@Z$8 00421578 f   configfilehandler.obj
 0001:00020581       __unwindfunclet$?SavePlanList@configFileHandler@@QAE_NABVQString@@ABV?$QList@VSinglePlanData@@@@ABV?$QMap@VQString@@VQStringList@@@@@Z$9 00421581 f   configfilehandler.obj
 0001:0002058a       __unwindfunclet$?SavePlanList@configFileHandler@@QAE_NABVQString@@ABV?$QList@VSinglePlanData@@@@ABV?$QMap@VQString@@VQStringList@@@@@Z$10 0042158a f   configfilehandler.obj
 0001:00020593       __unwindfunclet$?SavePlanList@configFileHandler@@QAE_NABVQString@@ABV?$QList@VSinglePlanData@@@@ABV?$QMap@VQString@@VQStringList@@@@@Z$11 00421593 f   configfilehandler.obj
 0001:0002059c       __unwindfunclet$?SavePlanList@configFileHandler@@QAE_NABVQString@@ABV?$QList@VSinglePlanData@@@@ABV?$QMap@VQString@@VQStringList@@@@@Z$12 0042159c f   configfilehandler.obj
 0001:000205a5       __unwindfunclet$?SavePlanList@configFileHandler@@QAE_NABVQString@@ABV?$QList@VSinglePlanData@@@@ABV?$QMap@VQString@@VQStringList@@@@@Z$13 004215a5 f   configfilehandler.obj
 0001:000205ae       __unwindfunclet$?SavePlanList@configFileHandler@@QAE_NABVQString@@ABV?$QList@VSinglePlanData@@@@ABV?$QMap@VQString@@VQStringList@@@@@Z$14 004215ae f   configfilehandler.obj
 0001:000205b7       __unwindfunclet$?SavePlanList@configFileHandler@@QAE_NABVQString@@ABV?$QList@VSinglePlanData@@@@ABV?$QMap@VQString@@VQStringList@@@@@Z$15 004215b7 f   configfilehandler.obj
 0001:000205bf       __unwindfunclet$?SavePlanList@configFileHandler@@QAE_NABVQString@@ABV?$QList@VSinglePlanData@@@@ABV?$QMap@VQString@@VQStringList@@@@@Z$17 004215bf f   configfilehandler.obj
 0001:000205cb       __unwindfunclet$?SavePlanList@configFileHandler@@QAE_NABVQString@@ABV?$QList@VSinglePlanData@@@@ABV?$QMap@VQString@@VQStringList@@@@@Z$18 004215cb f   configfilehandler.obj
 0001:000205d7       __unwindfunclet$?SavePlanList@configFileHandler@@QAE_NABVQString@@ABV?$QList@VSinglePlanData@@@@ABV?$QMap@VQString@@VQStringList@@@@@Z$19 004215d7 f   configfilehandler.obj
 0001:000205e3       __unwindfunclet$?SavePlanList@configFileHandler@@QAE_NABVQString@@ABV?$QList@VSinglePlanData@@@@ABV?$QMap@VQString@@VQStringList@@@@@Z$16 004215e3 f   configfilehandler.obj
 0001:000205ef       __unwindfunclet$?SavePlanList@configFileHandler@@QAE_NABVQString@@ABV?$QList@VSinglePlanData@@@@ABV?$QMap@VQString@@VQStringList@@@@@Z$54 004215ef f   configfilehandler.obj
 0001:000205f5       __unwindfunclet$?SavePlanList@configFileHandler@@QAE_NABVQString@@ABV?$QList@VSinglePlanData@@@@ABV?$QMap@VQString@@VQStringList@@@@@Z$62 004215f5 f   configfilehandler.obj
 0001:000205fb       __unwindfunclet$?SavePlanList@configFileHandler@@QAE_NABVQString@@ABV?$QList@VSinglePlanData@@@@ABV?$QMap@VQString@@VQStringList@@@@@Z$70 004215fb f   configfilehandler.obj
 0001:00020601       __unwindfunclet$?SavePlanList@configFileHandler@@QAE_NABVQString@@ABV?$QList@VSinglePlanData@@@@ABV?$QMap@VQString@@VQStringList@@@@@Z$20 00421601 f   configfilehandler.obj
 0001:0002060d       __unwindfunclet$?SavePlanList@configFileHandler@@QAE_NABVQString@@ABV?$QList@VSinglePlanData@@@@ABV?$QMap@VQString@@VQStringList@@@@@Z$21 0042160d f   configfilehandler.obj
 0001:00020616       __unwindfunclet$?SavePlanList@configFileHandler@@QAE_NABVQString@@ABV?$QList@VSinglePlanData@@@@ABV?$QMap@VQString@@VQStringList@@@@@Z$22 00421616 f   configfilehandler.obj
 0001:00020622       __unwindfunclet$?SavePlanList@configFileHandler@@QAE_NABVQString@@ABV?$QList@VSinglePlanData@@@@ABV?$QMap@VQString@@VQStringList@@@@@Z$23 00421622 f   configfilehandler.obj
 0001:0002062e       __unwindfunclet$?SavePlanList@configFileHandler@@QAE_NABVQString@@ABV?$QList@VSinglePlanData@@@@ABV?$QMap@VQString@@VQStringList@@@@@Z$24 0042162e f   configfilehandler.obj
 0001:00020637       __unwindfunclet$?SavePlanList@configFileHandler@@QAE_NABVQString@@ABV?$QList@VSinglePlanData@@@@ABV?$QMap@VQString@@VQStringList@@@@@Z$25 00421637 f   configfilehandler.obj
 0001:00020643       __unwindfunclet$?SavePlanList@configFileHandler@@QAE_NABVQString@@ABV?$QList@VSinglePlanData@@@@ABV?$QMap@VQString@@VQStringList@@@@@Z$26 00421643 f   configfilehandler.obj
 0001:0002064c       __unwindfunclet$?SavePlanList@configFileHandler@@QAE_NABVQString@@ABV?$QList@VSinglePlanData@@@@ABV?$QMap@VQString@@VQStringList@@@@@Z$27 0042164c f   configfilehandler.obj
 0001:00020658       __unwindfunclet$?SavePlanList@configFileHandler@@QAE_NABVQString@@ABV?$QList@VSinglePlanData@@@@ABV?$QMap@VQString@@VQStringList@@@@@Z$28 00421658 f   configfilehandler.obj
 0001:00020661       __unwindfunclet$?SavePlanList@configFileHandler@@QAE_NABVQString@@ABV?$QList@VSinglePlanData@@@@ABV?$QMap@VQString@@VQStringList@@@@@Z$29 00421661 f   configfilehandler.obj
 0001:0002066a       __unwindfunclet$?SavePlanList@configFileHandler@@QAE_NABVQString@@ABV?$QList@VSinglePlanData@@@@ABV?$QMap@VQString@@VQStringList@@@@@Z$30 0042166a f   configfilehandler.obj
 0001:00020673       __unwindfunclet$?SavePlanList@configFileHandler@@QAE_NABVQString@@ABV?$QList@VSinglePlanData@@@@ABV?$QMap@VQString@@VQStringList@@@@@Z$31 00421673 f   configfilehandler.obj
 0001:0002067c       __unwindfunclet$?SavePlanList@configFileHandler@@QAE_NABVQString@@ABV?$QList@VSinglePlanData@@@@ABV?$QMap@VQString@@VQStringList@@@@@Z$32 0042167c f   configfilehandler.obj
 0001:00020685       __unwindfunclet$?SavePlanList@configFileHandler@@QAE_NABVQString@@ABV?$QList@VSinglePlanData@@@@ABV?$QMap@VQString@@VQStringList@@@@@Z$33 00421685 f   configfilehandler.obj
 0001:0002068e       __ehhandler$?SavePlanList@configFileHandler@@QAE_NABVQString@@ABV?$QList@VSinglePlanData@@@@ABV?$QMap@VQString@@VQStringList@@@@@Z 0042168e f   configfilehandler.obj
 0001:000206b0       __ehhandler$?append@?$QList@PAVQObject@@@@QAEXABQAVQObject@@@Z 004216b0 f   workmodels.obj
 0001:000206b0       __ehhandler$?append@?$QList@H@@QAEXABH@Z 004216b0 f   configfilehandler.obj
 0001:000206d0       __unwindfunclet$?append@?$QList@VOperationParamData@@@@QAEXABVOperationParamData@@@Z$9 004216d0 f   configfilehandler.obj
 0001:000206df       __unwindfunclet$?append@?$QList@VOperationParamData@@@@QAEXABVOperationParamData@@@Z$11 004216df f   configfilehandler.obj
 0001:000206ee       __ehhandler$?append@?$QList@VOperationParamData@@@@QAEXABVOperationParamData@@@Z 004216ee f   configfilehandler.obj
 0001:00020710       __unwindfunclet$?append@?$QList@VSingleOperationData@@@@QAEXABVSingleOperationData@@@Z$9 00421710 f   configfilehandler.obj
 0001:0002071f       __unwindfunclet$?append@?$QList@VSingleOperationData@@@@QAEXABVSingleOperationData@@@Z$11 0042171f f   configfilehandler.obj
 0001:00020728       __unwindfunclet$?append@?$QList@VSingleOperationData@@@@QAEXABVSingleOperationData@@@Z$15 00421728 f   configfilehandler.obj
 0001:00020737       __unwindfunclet$?append@?$QList@VSingleOperationData@@@@QAEXABVSingleOperationData@@@Z$17 00421737 f   configfilehandler.obj
 0001:00020740       __ehhandler$?append@?$QList@VSingleOperationData@@@@QAEXABVSingleOperationData@@@Z 00421740 f   configfilehandler.obj
 0001:00020760       __unwindfunclet$?append@?$QList@VSinglePlanData@@@@QAEXABVSinglePlanData@@@Z$9 00421760 f   configfilehandler.obj
 0001:0002076f       __unwindfunclet$?append@?$QList@VSinglePlanData@@@@QAEXABVSinglePlanData@@@Z$11 0042176f f   configfilehandler.obj
 0001:00020778       __unwindfunclet$?append@?$QList@VSinglePlanData@@@@QAEXABVSinglePlanData@@@Z$15 00421778 f   configfilehandler.obj
 0001:00020787       __unwindfunclet$?append@?$QList@VSinglePlanData@@@@QAEXABVSinglePlanData@@@Z$17 00421787 f   configfilehandler.obj
 0001:00020790       __ehhandler$?append@?$QList@VSinglePlanData@@@@QAEXABVSinglePlanData@@@Z 00421790 f   configfilehandler.obj
 0001:000207b0       __unwindfunclet$?createNode@?$QMapData@VQString@@VOperationParamData@@@@QAEPAU?$QMapNode@VQString@@VOperationParamData@@@@ABVQString@@ABVOperationParamData@@PAU2@_N@Z$4 004217b0 f   configfilehandler.obj
 0001:000207c4       __ehhandler$?createNode@?$QMapData@VQString@@VOperationParamData@@@@QAEPAU?$QMapNode@VQString@@VOperationParamData@@@@ABVQString@@ABVOperationParamData@@PAU2@_N@Z 004217c4 f   configfilehandler.obj
 0001:000207e0       __unwindfunclet$?createNode@?$QMapData@VQString@@VQStringList@@@@QAEPAU?$QMapNode@VQString@@VQStringList@@@@ABVQString@@ABVQStringList@@PAU2@_N@Z$4 004217e0 f   configfilehandler.obj
 0001:000207f4       __ehhandler$?createNode@?$QMapData@VQString@@VQStringList@@@@QAEPAU?$QMapNode@VQString@@VQStringList@@@@ABVQString@@ABVQStringList@@PAU2@_N@Z 004217f4 f   configfilehandler.obj
 0001:00020810       __ehhandler$?detach_helper@?$QList@VQByteArray@@@@AAEXH@Z 00421810 f   configfilehandler.obj
 0001:00020830       __ehhandler$?detach_helper@?$QList@VQString@@@@AAEXH@Z 00421830 f   configfilehandler.obj
 0001:00020850       __ehhandler$?detach_helper_grow@?$QList@VOperationParamData@@@@AAEPAUNode@1@HH@Z 00421850 f   configfilehandler.obj
 0001:00020870       __ehhandler$?detach_helper_grow@?$QList@VSingleOperationData@@@@AAEPAUNode@1@HH@Z 00421870 f   configfilehandler.obj
 0001:00020890       __ehhandler$?detach_helper_grow@?$QList@VSinglePlanData@@@@AAEPAUNode@1@HH@Z 00421890 f   configfilehandler.obj
 0001:000208b0       __unwindfunclet$?loadConfigFile@configFileHandler@@QAE_NABVQString@@@Z$0 004218b0 f   configfilehandler.obj
 0001:000208b9       __unwindfunclet$?loadConfigFile@configFileHandler@@QAE_NABVQString@@@Z$1 004218b9 f   configfilehandler.obj
 0001:000208c2       __unwindfunclet$?loadConfigFile@configFileHandler@@QAE_NABVQString@@@Z$2 004218c2 f   configfilehandler.obj
 0001:000208cb       __unwindfunclet$?loadConfigFile@configFileHandler@@QAE_NABVQString@@@Z$3 004218cb f   configfilehandler.obj
 0001:000208d4       __ehhandler$?loadConfigFile@configFileHandler@@QAE_NABVQString@@@Z 004218d4 f   configfilehandler.obj
 0001:000208f0       __unwindfunclet$?node_copy@?$QList@VOperationParamData@@@@AAEXPAUNode@1@00@Z$4 004218f0 f   configfilehandler.obj
 0001:000208ff       __ehhandler$?node_copy@?$QList@VOperationParamData@@@@AAEXPAUNode@1@00@Z 004218ff f   configfilehandler.obj
 0001:00020920       __unwindfunclet$?node_copy@?$QList@VSingleOperationData@@@@AAEXPAUNode@1@00@Z$4 00421920 f   configfilehandler.obj
 0001:0002092f       __unwindfunclet$?node_copy@?$QList@VSingleOperationData@@@@AAEXPAUNode@1@00@Z$6 0042192f f   configfilehandler.obj
 0001:00020938       __ehhandler$?node_copy@?$QList@VSingleOperationData@@@@AAEXPAUNode@1@00@Z 00421938 f   configfilehandler.obj
 0001:00020960       __unwindfunclet$?node_copy@?$QList@VSinglePlanData@@@@AAEXPAUNode@1@00@Z$4 00421960 f   configfilehandler.obj
 0001:0002096f       __unwindfunclet$?node_copy@?$QList@VSinglePlanData@@@@AAEXPAUNode@1@00@Z$6 0042196f f   configfilehandler.obj
 0001:00020978       __ehhandler$?node_copy@?$QList@VSinglePlanData@@@@AAEXPAUNode@1@00@Z 00421978 f   configfilehandler.obj
 0001:000209a0       __unwindfunclet$?node_destruct@?$QList@VSingleOperationData@@@@AAEXPAUNode@1@@Z$2 004219a0 f   configfilehandler.obj
 0001:000209a6       __ehhandler$?node_destruct@?$QList@VSingleOperationData@@@@AAEXPAUNode@1@@Z 004219a6 f   configfilehandler.obj
 0001:000209d0       __unwindfunclet$?node_destruct@?$QList@VSingleOperationData@@@@AAEXPAUNode@1@0@Z$2 004219d0 f   configfilehandler.obj
 0001:000209d0       __unwindfunclet$?node_destruct@?$QList@VSinglePlanData@@@@AAEXPAUNode@1@0@Z$2 004219d0 f   configfilehandler.obj
 0001:000209d6       __ehhandler$?node_destruct@?$QList@VSingleOperationData@@@@AAEXPAUNode@1@0@Z 004219d6 f   configfilehandler.obj
 0001:000209d6       __ehhandler$?node_destruct@?$QList@VSinglePlanData@@@@AAEXPAUNode@1@0@Z 004219d6 f   configfilehandler.obj
 0001:00020a00       __unwindfunclet$?toList@configFileHandler@@QAE?AVQStringList@@ABVQString@@@Z$0 00421a00 f   configfilehandler.obj
 0001:00020a19       __unwindfunclet$?toList@configFileHandler@@QAE?AVQStringList@@ABVQString@@@Z$1 00421a19 f   configfilehandler.obj
 0001:00020a22       __unwindfunclet$?toList@configFileHandler@@QAE?AVQStringList@@ABVQString@@@Z$2 00421a22 f   configfilehandler.obj
 0001:00020a2b       __ehhandler$?toList@configFileHandler@@QAE?AVQStringList@@ABVQString@@@Z 00421a2b f   configfilehandler.obj
 0001:00020a50       __unwindfunclet$??0EnvironmentVariant@@AAE@XZ$0 00421a50 f   environmentvariant.obj
 0001:00020a59       __unwindfunclet$??0EnvironmentVariant@@AAE@XZ$1 00421a59 f   environmentvariant.obj
 0001:00020a64       __unwindfunclet$??0EnvironmentVariant@@AAE@XZ$2 00421a64 f   environmentvariant.obj
 0001:00020a6f       __unwindfunclet$??0EnvironmentVariant@@AAE@XZ$3 00421a6f f   environmentvariant.obj
 0001:00020a7a       __unwindfunclet$??0EnvironmentVariant@@AAE@XZ$4 00421a7a f   environmentvariant.obj
 0001:00020a85       __unwindfunclet$??0EnvironmentVariant@@AAE@XZ$5 00421a85 f   environmentvariant.obj
 0001:00020a90       __unwindfunclet$??0EnvironmentVariant@@AAE@XZ$6 00421a90 f   environmentvariant.obj
 0001:00020a9b       __unwindfunclet$??0EnvironmentVariant@@AAE@XZ$7 00421a9b f   environmentvariant.obj
 0001:00020aa6       __unwindfunclet$??0EnvironmentVariant@@AAE@XZ$8 00421aa6 f   environmentvariant.obj
 0001:00020ab2       __unwindfunclet$??0EnvironmentVariant@@AAE@XZ$9 00421ab2 f   environmentvariant.obj
 0001:00020abd       __unwindfunclet$??0EnvironmentVariant@@AAE@XZ$10 00421abd f   environmentvariant.obj
 0001:00020ac8       __unwindfunclet$??0EnvironmentVariant@@AAE@XZ$11 00421ac8 f   environmentvariant.obj
 0001:00020ad4       __unwindfunclet$??0EnvironmentVariant@@AAE@XZ$12 00421ad4 f   environmentvariant.obj
 0001:00020adf       __unwindfunclet$??0EnvironmentVariant@@AAE@XZ$13 00421adf f   environmentvariant.obj
 0001:00020aea       __unwindfunclet$??0EnvironmentVariant@@AAE@XZ$14 00421aea f   environmentvariant.obj
 0001:00020af6       __unwindfunclet$??0EnvironmentVariant@@AAE@XZ$15 00421af6 f   environmentvariant.obj
 0001:00020b01       __ehhandler$??0EnvironmentVariant@@AAE@XZ 00421b01 f   environmentvariant.obj
 0001:00020b20       __unwindfunclet$??1EnvironmentVariant@@EAE@XZ$4 00421b20 f   environmentvariant.obj
 0001:00020b26       __unwindfunclet$??1EnvironmentVariant@@EAE@XZ$11 00421b26 f   environmentvariant.obj
 0001:00020b2c       __unwindfunclet$??1EnvironmentVariant@@EAE@XZ$17 00421b2c f   environmentvariant.obj
 0001:00020b32       __ehhandler$??1EnvironmentVariant@@EAE@XZ 00421b32 f   environmentvariant.obj
 0001:00020b50       __unwindfunclet$??4?$QList@VSingleOperationData@@@@QAEAAV0@ABV0@@Z$7 00421b50 f   environmentvariant.obj
 0001:00020b50       __unwindfunclet$??4SingleOperationData@@QAEAAV0@ABV0@@Z$7 00421b50 f   environmentvariant.obj
 0001:00020b50       __unwindfunclet$?clear@?$QList@VSinglePlanData@@@@QAEXXZ$2 00421b50 f   configfilehandler.obj
 0001:00020b56       __ehhandler$??4SingleOperationData@@QAEAAV0@ABV0@@Z 00421b56 f   environmentvariant.obj
 0001:00020b56       __ehhandler$?clear@?$QList@VSinglePlanData@@@@QAEXXZ 00421b56 f   configfilehandler.obj
 0001:00020b56       __ehhandler$??4?$QList@VSingleOperationData@@@@QAEAAV0@ABV0@@Z 00421b56 f   environmentvariant.obj
 0001:00020b80       __ehhandler$??Y?$QList@VQString@@@@QAEAAV0@ABV0@@Z 00421b80 f   environmentvariant.obj
 0001:00020ba0       __unwindfunclet$?AddPlan@EnvironmentVariant@@QAEXABVQString@@@Z$0 00421ba0 f   environmentvariant.obj
 0001:00020ba8       __unwindfunclet$?AddPlan@EnvironmentVariant@@QAEXABVQString@@@Z$3 00421ba8 f   environmentvariant.obj
 0001:00020bb1       __unwindfunclet$?AddPlan@EnvironmentVariant@@QAEXABVQString@@@Z$1 00421bb1 f   environmentvariant.obj
 0001:00020bb9       __unwindfunclet$?AddPlan@EnvironmentVariant@@QAEXABVQString@@@Z$6 00421bb9 f   environmentvariant.obj
 0001:00020bbf       __unwindfunclet$?AddPlan@EnvironmentVariant@@QAEXABVQString@@@Z$13 00421bbf f   environmentvariant.obj
 0001:00020bc5       __ehhandler$?AddPlan@EnvironmentVariant@@QAEXABVQString@@@Z 00421bc5 f   environmentvariant.obj
 0001:00020be0       __unwindfunclet$?AddPlanStep@EnvironmentVariant@@QAEXHHH@Z$6 00421be0 f   environmentvariant.obj
 0001:00020be9       __unwindfunclet$?AddPlanStep@EnvironmentVariant@@QAEXHHH@Z$0 00421be9 f   environmentvariant.obj
 0001:00020bf1       __unwindfunclet$?AddPlanStep@EnvironmentVariant@@QAEXHHH@Z$1 00421bf1 f   environmentvariant.obj
 0001:00020bf9       __unwindfunclet$?AddPlanStep@EnvironmentVariant@@QAEXHHH@Z$16 00421bf9 f   environmentvariant.obj
 0001:00020bff       __ehhandler$?AddPlanStep@EnvironmentVariant@@QAEXHHH@Z 00421bff f   environmentvariant.obj
 0001:00020c20       __unwindfunclet$?ImportConfig@EnvironmentVariant@@QAE_NABVQString@@@Z$0 00421c20 f   environmentvariant.obj
 0001:00020c20       __unwindfunclet$?ExportConfig@EnvironmentVariant@@QAE_NABVQString@@@Z$0 00421c20 f   environmentvariant.obj
 0001:00020c29       __unwindfunclet$?ImportConfig@EnvironmentVariant@@QAE_NABVQString@@@Z$1 00421c29 f   environmentvariant.obj
 0001:00020c29       __unwindfunclet$?ExportConfig@EnvironmentVariant@@QAE_NABVQString@@@Z$1 00421c29 f   environmentvariant.obj
 0001:00020c31       __ehhandler$?ExportConfig@EnvironmentVariant@@QAE_NABVQString@@@Z 00421c31 f   environmentvariant.obj
 0001:00020c31       __ehhandler$?ImportConfig@EnvironmentVariant@@QAE_NABVQString@@@Z 00421c31 f   environmentvariant.obj
 0001:00020c50       __unwindfunclet$?LogicalControlList@EnvironmentVariant@@QAE?AVQStringList@@XZ$0 00421c50 f   environmentvariant.obj
 0001:00020c50       __unwindfunclet$?OperationNameList@EnvironmentVariant@@QAE?AVQStringList@@XZ$0 00421c50 f   environmentvariant.obj
 0001:00020c69       __unwindfunclet$?OperationNameList@EnvironmentVariant@@QAE?AVQStringList@@XZ$1 00421c69 f   environmentvariant.obj
 0001:00020c69       __unwindfunclet$?LogicalControlList@EnvironmentVariant@@QAE?AVQStringList@@XZ$1 00421c69 f   environmentvariant.obj
 0001:00020c71       __unwindfunclet$?OperationNameList@EnvironmentVariant@@QAE?AVQStringList@@XZ$13 00421c71 f   environmentvariant.obj
 0001:00020c71       __unwindfunclet$?LogicalControlList@EnvironmentVariant@@QAE?AVQStringList@@XZ$13 00421c71 f   environmentvariant.obj
 0001:00020c77       __ehhandler$?OperationNameList@EnvironmentVariant@@QAE?AVQStringList@@XZ 00421c77 f   environmentvariant.obj
 0001:00020c77       __ehhandler$?LogicalControlList@EnvironmentVariant@@QAE?AVQStringList@@XZ 00421c77 f   environmentvariant.obj
 0001:00020ca0       __unwindfunclet$?PlanList@EnvironmentVariant@@QAE?AVQStringList@@XZ$0 00421ca0 f   environmentvariant.obj
 0001:00020cb9       __ehhandler$?PlanList@EnvironmentVariant@@QAE?AVQStringList@@XZ 00421cb9 f   environmentvariant.obj
 0001:00020ce0       __unwindfunclet$?SaveMachineConfig@EnvironmentVariant@@QAE_NABVMachineConfigData@@@Z$0 00421ce0 f   environmentvariant.obj
 0001:00020ce8       __ehhandler$?SaveMachineConfig@EnvironmentVariant@@QAE_NABVMachineConfigData@@@Z 00421ce8 f   environmentvariant.obj
 0001:00020d10       __unwindfunclet$?SavePlan@EnvironmentVariant@@QAE_NXZ$0 00421d10 f   environmentvariant.obj
 0001:00020d18       __ehhandler$?SavePlan@EnvironmentVariant@@QAE_NXZ 00421d18 f   environmentvariant.obj
 0001:00020d40       __unwindfunclet$?MovePlanStep@EnvironmentVariant@@QAEXHHH@Z$0 00421d40 f   environmentvariant.obj
 0001:00020d40       __unwindfunclet$?SetPlanStepToDefault@EnvironmentVariant@@QAEXHHH@Z$0 00421d40 f   environmentvariant.obj
 0001:00020d48       __ehhandler$?SetPlanStepToDefault@EnvironmentVariant@@QAEXHHH@Z 00421d48 f   environmentvariant.obj
 0001:00020d48       __ehhandler$?MovePlanStep@EnvironmentVariant@@QAEXHHH@Z 00421d48 f   environmentvariant.obj
 0001:00020d70       __unwindfunclet$?StartPlan@EnvironmentVariant@@QAEXHH@Z$0 00421d70 f   environmentvariant.obj
 0001:00020d79       __unwindfunclet$?StartPlan@EnvironmentVariant@@QAEXHH@Z$1 00421d79 f   environmentvariant.obj
 0001:00020d82       __unwindfunclet$?StartPlan@EnvironmentVariant@@QAEXHH@Z$2 00421d82 f   environmentvariant.obj
 0001:00020d8a       __unwindfunclet$?StartPlan@EnvironmentVariant@@QAEXHH@Z$3 00421d8a f   environmentvariant.obj
 0001:00020d93       __unwindfunclet$?StartPlan@EnvironmentVariant@@QAEXHH@Z$4 00421d93 f   environmentvariant.obj
 0001:00020d9c       __unwindfunclet$?StartPlan@EnvironmentVariant@@QAEXHH@Z$5 00421d9c f   environmentvariant.obj
 0001:00020da5       __unwindfunclet$?StartPlan@EnvironmentVariant@@QAEXHH@Z$6 00421da5 f   environmentvariant.obj
 0001:00020dae       __unwindfunclet$?StartPlan@EnvironmentVariant@@QAEXHH@Z$7 00421dae f   environmentvariant.obj
 0001:00020db7       __unwindfunclet$?StartPlan@EnvironmentVariant@@QAEXHH@Z$8 00421db7 f   environmentvariant.obj
 0001:00020dc0       __unwindfunclet$?StartPlan@EnvironmentVariant@@QAEXHH@Z$9 00421dc0 f   environmentvariant.obj
 0001:00020dc8       __unwindfunclet$?StartPlan@EnvironmentVariant@@QAEXHH@Z$10 00421dc8 f   environmentvariant.obj
 0001:00020dd1       __unwindfunclet$?StartPlan@EnvironmentVariant@@QAEXHH@Z$11 00421dd1 f   environmentvariant.obj
 0001:00020dda       __unwindfunclet$?StartPlan@EnvironmentVariant@@QAEXHH@Z$12 00421dda f   environmentvariant.obj
 0001:00020de3       __unwindfunclet$?StartPlan@EnvironmentVariant@@QAEXHH@Z$13 00421de3 f   environmentvariant.obj
 0001:00020dec       __unwindfunclet$?StartPlan@EnvironmentVariant@@QAEXHH@Z$14 00421dec f   environmentvariant.obj
 0001:00020df8       __unwindfunclet$?StartPlan@EnvironmentVariant@@QAEXHH@Z$41 00421df8 f   environmentvariant.obj
 0001:00020dfe       __unwindfunclet$?StartPlan@EnvironmentVariant@@QAEXHH@Z$49 00421dfe f   environmentvariant.obj
 0001:00020e04       __unwindfunclet$?StartPlan@EnvironmentVariant@@QAEXHH@Z$57 00421e04 f   environmentvariant.obj
 0001:00020e0a       __unwindfunclet$?StartPlan@EnvironmentVariant@@QAEXHH@Z$15 00421e0a f   environmentvariant.obj
 0001:00020e16       __unwindfunclet$?StartPlan@EnvironmentVariant@@QAEXHH@Z$16 00421e16 f   environmentvariant.obj
 0001:00020e1f       __unwindfunclet$?StartPlan@EnvironmentVariant@@QAEXHH@Z$17 00421e1f f   environmentvariant.obj
 0001:00020e28       __unwindfunclet$?StartPlan@EnvironmentVariant@@QAEXHH@Z$87 00421e28 f   environmentvariant.obj
 0001:00020e2e       __unwindfunclet$?StartPlan@EnvironmentVariant@@QAEXHH@Z$18 00421e2e f   environmentvariant.obj
 0001:00020e37       __unwindfunclet$?StartPlan@EnvironmentVariant@@QAEXHH@Z$19 00421e37 f   environmentvariant.obj
 0001:00020e40       __unwindfunclet$?StartPlan@EnvironmentVariant@@QAEXHH@Z$20 00421e40 f   environmentvariant.obj
 0001:00020e49       __unwindfunclet$?StartPlan@EnvironmentVariant@@QAEXHH@Z$21 00421e49 f   environmentvariant.obj
 0001:00020e52       __unwindfunclet$?StartPlan@EnvironmentVariant@@QAEXHH@Z$22 00421e52 f   environmentvariant.obj
 0001:00020e5b       __unwindfunclet$?StartPlan@EnvironmentVariant@@QAEXHH@Z$23 00421e5b f   environmentvariant.obj
 0001:00020e64       __unwindfunclet$?StartPlan@EnvironmentVariant@@QAEXHH@Z$94 00421e64 f   environmentvariant.obj
 0001:00020e6d       __ehhandler$?StartPlan@EnvironmentVariant@@QAEXHH@Z 00421e6d f   environmentvariant.obj
 0001:00020e90       __unwindfunclet$?StartTunning@EnvironmentVariant@@QAEXABVSingleOperationData@@@Z$1 00421e90 f   environmentvariant.obj
 0001:00020ea2       __unwindfunclet$?StartTunning@EnvironmentVariant@@QAEXABVSingleOperationData@@@Z$0 00421ea2 f   environmentvariant.obj
 0001:00020eab       __unwindfunclet$?StartTunning@EnvironmentVariant@@QAEXABVSingleOperationData@@@Z$2 00421eab f   environmentvariant.obj
 0001:00020ebd       __unwindfunclet$?StartTunning@EnvironmentVariant@@QAEXABVSingleOperationData@@@Z$3 00421ebd f   environmentvariant.obj
 0001:00020ec6       __ehhandler$?StartTunning@EnvironmentVariant@@QAEXABVSingleOperationData@@@Z 00421ec6 f   environmentvariant.obj
 0001:00020ef0       __unwindfunclet$?StepList@EnvironmentVariant@@QAE?AVQStringList@@H@Z$0 00421ef0 f   environmentvariant.obj
 0001:00020f09       __unwindfunclet$?StepList@EnvironmentVariant@@QAE?AVQStringList@@H@Z$1 00421f09 f   environmentvariant.obj
 0001:00020f11       __unwindfunclet$?StepList@EnvironmentVariant@@QAE?AVQStringList@@H@Z$2 00421f11 f   environmentvariant.obj
 0001:00020f1a       __unwindfunclet$?StepList@EnvironmentVariant@@QAE?AVQStringList@@H@Z$3 00421f1a f   environmentvariant.obj
 0001:00020f22       __unwindfunclet$?StepList@EnvironmentVariant@@QAE?AVQStringList@@H@Z$26 00421f22 f   environmentvariant.obj
 0001:00020f28       __unwindfunclet$?StepList@EnvironmentVariant@@QAE?AVQStringList@@H@Z$34 00421f28 f   environmentvariant.obj
 0001:00020f2e       __unwindfunclet$?StepList@EnvironmentVariant@@QAE?AVQStringList@@H@Z$42 00421f2e f   environmentvariant.obj
 0001:00020f34       __unwindfunclet$?StepList@EnvironmentVariant@@QAE?AVQStringList@@H@Z$4 00421f34 f   environmentvariant.obj
 0001:00020f3d       __unwindfunclet$?StepList@EnvironmentVariant@@QAE?AVQStringList@@H@Z$5 00421f3d f   environmentvariant.obj
 0001:00020f46       __unwindfunclet$?StepList@EnvironmentVariant@@QAE?AVQStringList@@H@Z$6 00421f46 f   environmentvariant.obj
 0001:00020f4f       __unwindfunclet$?StepList@EnvironmentVariant@@QAE?AVQStringList@@H@Z$72 00421f4f f   environmentvariant.obj
 0001:00020f55       __ehhandler$?StepList@EnvironmentVariant@@QAE?AVQStringList@@H@Z 00421f55 f   environmentvariant.obj
 0001:00020f70       __unwindfunclet$?calculateLicense@EnvironmentVariant@@QAEXABVQString@@@Z$0 00421f70 f   environmentvariant.obj
 0001:00020f79       __unwindfunclet$?calculateLicense@EnvironmentVariant@@QAEXABVQString@@@Z$1 00421f79 f   environmentvariant.obj
 0001:00020f82       __unwindfunclet$?calculateLicense@EnvironmentVariant@@QAEXABVQString@@@Z$2 00421f82 f   environmentvariant.obj
 0001:00020f8b       __ehhandler$?calculateLicense@EnvironmentVariant@@QAEXABVQString@@@Z 00421f8b f   environmentvariant.obj
 0001:00020fb0       __unwindfunclet$?defaultValue@EnvironmentVariant@@QAE?AVSingleOperationData@@ABVQString@@@Z$0 00421fb0 f   environmentvariant.obj
 0001:00020fb8       __unwindfunclet$?defaultValue@EnvironmentVariant@@QAE?AVSingleOperationData@@ABVQString@@@Z$1 00421fb8 f   environmentvariant.obj
 0001:00020fc0       __unwindfunclet$?defaultValue@EnvironmentVariant@@QAE?AVSingleOperationData@@ABVQString@@@Z$14 00421fc0 f   environmentvariant.obj
 0001:00020fc6       __unwindfunclet$?defaultValue@EnvironmentVariant@@QAE?AVSingleOperationData@@ABVQString@@@Z$26 00421fc6 f   environmentvariant.obj
 0001:00020fcc       __ehhandler$?defaultValue@EnvironmentVariant@@QAE?AVSingleOperationData@@ABVQString@@@Z 00421fcc f   environmentvariant.obj
 0001:00020ff0       __ehhandler$?detach_helper@?$QList@H@@AAEXH@Z 00421ff0 f   environmentvariant.obj
 0001:00021010       __ehhandler$?detach_helper@?$QList@VOperationParamData@@@@AAEXH@Z 00422010 f   environmentvariant.obj
 0001:00021030       __ehhandler$?detach_helper@?$QList@VSingleOperationData@@@@AAEXH@Z 00422030 f   environmentvariant.obj
 0001:00021050       __ehhandler$?detach_helper@?$QList@VSinglePlanData@@@@AAEXH@Z 00422050 f   environmentvariant.obj
 0001:00021070       __unwindfunclet$?formatSingleOperationParam@EnvironmentVariant@@QAE?AVQJsonObject@@ABVSingleOperationData@@@Z$0 00422070 f   environmentvariant.obj
 0001:0002108a       __unwindfunclet$?formatSingleOperationParam@EnvironmentVariant@@QAE?AVQJsonObject@@ABVSingleOperationData@@@Z$1 0042208a f   environmentvariant.obj
 0001:00021093       __unwindfunclet$?formatSingleOperationParam@EnvironmentVariant@@QAE?AVQJsonObject@@ABVSingleOperationData@@@Z$2 00422093 f   environmentvariant.obj
 0001:0002109c       __unwindfunclet$?formatSingleOperationParam@EnvironmentVariant@@QAE?AVQJsonObject@@ABVSingleOperationData@@@Z$3 0042209c f   environmentvariant.obj
 0001:000210a5       __unwindfunclet$?formatSingleOperationParam@EnvironmentVariant@@QAE?AVQJsonObject@@ABVSingleOperationData@@@Z$4 004220a5 f   environmentvariant.obj
 0001:000210ae       __unwindfunclet$?formatSingleOperationParam@EnvironmentVariant@@QAE?AVQJsonObject@@ABVSingleOperationData@@@Z$5 004220ae f   environmentvariant.obj
 0001:000210b7       __unwindfunclet$?formatSingleOperationParam@EnvironmentVariant@@QAE?AVQJsonObject@@ABVSingleOperationData@@@Z$6 004220b7 f   environmentvariant.obj
 0001:000210c0       __unwindfunclet$?formatSingleOperationParam@EnvironmentVariant@@QAE?AVQJsonObject@@ABVSingleOperationData@@@Z$7 004220c0 f   environmentvariant.obj
 0001:000210c8       __unwindfunclet$?formatSingleOperationParam@EnvironmentVariant@@QAE?AVQJsonObject@@ABVSingleOperationData@@@Z$8 004220c8 f   environmentvariant.obj
 0001:000210d1       __unwindfunclet$?formatSingleOperationParam@EnvironmentVariant@@QAE?AVQJsonObject@@ABVSingleOperationData@@@Z$9 004220d1 f   environmentvariant.obj
 0001:000210da       __unwindfunclet$?formatSingleOperationParam@EnvironmentVariant@@QAE?AVQJsonObject@@ABVSingleOperationData@@@Z$10 004220da f   environmentvariant.obj
 0001:000210e3       __unwindfunclet$?formatSingleOperationParam@EnvironmentVariant@@QAE?AVQJsonObject@@ABVSingleOperationData@@@Z$11 004220e3 f   environmentvariant.obj
 0001:000210ec       __unwindfunclet$?formatSingleOperationParam@EnvironmentVariant@@QAE?AVQJsonObject@@ABVSingleOperationData@@@Z$12 004220ec f   environmentvariant.obj
 0001:000210f5       __unwindfunclet$?formatSingleOperationParam@EnvironmentVariant@@QAE?AVQJsonObject@@ABVSingleOperationData@@@Z$26 004220f5 f   environmentvariant.obj
 0001:000210fb       __unwindfunclet$?formatSingleOperationParam@EnvironmentVariant@@QAE?AVQJsonObject@@ABVSingleOperationData@@@Z$34 004220fb f   environmentvariant.obj
 0001:00021101       __unwindfunclet$?formatSingleOperationParam@EnvironmentVariant@@QAE?AVQJsonObject@@ABVSingleOperationData@@@Z$42 00422101 f   environmentvariant.obj
 0001:00021107       __unwindfunclet$?formatSingleOperationParam@EnvironmentVariant@@QAE?AVQJsonObject@@ABVSingleOperationData@@@Z$13 00422107 f   environmentvariant.obj
 0001:00021110       __unwindfunclet$?formatSingleOperationParam@EnvironmentVariant@@QAE?AVQJsonObject@@ABVSingleOperationData@@@Z$14 00422110 f   environmentvariant.obj
 0001:00021119       __unwindfunclet$?formatSingleOperationParam@EnvironmentVariant@@QAE?AVQJsonObject@@ABVSingleOperationData@@@Z$15 00422119 f   environmentvariant.obj
 0001:00021122       __unwindfunclet$?formatSingleOperationParam@EnvironmentVariant@@QAE?AVQJsonObject@@ABVSingleOperationData@@@Z$16 00422122 f   environmentvariant.obj
 0001:0002112b       __unwindfunclet$?formatSingleOperationParam@EnvironmentVariant@@QAE?AVQJsonObject@@ABVSingleOperationData@@@Z$17 0042212b f   environmentvariant.obj
 0001:00021134       __unwindfunclet$?formatSingleOperationParam@EnvironmentVariant@@QAE?AVQJsonObject@@ABVSingleOperationData@@@Z$18 00422134 f   environmentvariant.obj
 0001:0002113d       __ehhandler$?formatSingleOperationParam@EnvironmentVariant@@QAE?AVQJsonObject@@ABVSingleOperationData@@@Z 0042213d f   environmentvariant.obj
 0001:00021160       __unwindfunclet$?getBoardTypeIndexByPosition@EnvironmentVariant@@QAEHH@Z$0 00422160 f   environmentvariant.obj
 0001:00021169       __unwindfunclet$?getBoardTypeIndexByPosition@EnvironmentVariant@@QAEHH@Z$1 00422169 f   environmentvariant.obj
 0001:00021172       __unwindfunclet$?getBoardTypeIndexByPosition@EnvironmentVariant@@QAEHH@Z$2 00422172 f   environmentvariant.obj
 0001:0002117b       __unwindfunclet$?getBoardTypeIndexByPosition@EnvironmentVariant@@QAEHH@Z$3 0042217b f   environmentvariant.obj
 0001:00021184       __unwindfunclet$?getBoardTypeIndexByPosition@EnvironmentVariant@@QAEHH@Z$4 00422184 f   environmentvariant.obj
 0001:0002118d       __unwindfunclet$?getBoardTypeIndexByPosition@EnvironmentVariant@@QAEHH@Z$5 0042218d f   environmentvariant.obj
 0001:00021196       __unwindfunclet$?getBoardTypeIndexByPosition@EnvironmentVariant@@QAEHH@Z$6 00422196 f   environmentvariant.obj
 0001:0002119f       __unwindfunclet$?getBoardTypeIndexByPosition@EnvironmentVariant@@QAEHH@Z$7 0042219f f   environmentvariant.obj
 0001:000211a8       __unwindfunclet$?getBoardTypeIndexByPosition@EnvironmentVariant@@QAEHH@Z$8 004221a8 f   environmentvariant.obj
 0001:000211b1       __unwindfunclet$?getBoardTypeIndexByPosition@EnvironmentVariant@@QAEHH@Z$9 004221b1 f   environmentvariant.obj
 0001:000211ba       __unwindfunclet$?getBoardTypeIndexByPosition@EnvironmentVariant@@QAEHH@Z$10 004221ba f   environmentvariant.obj
 0001:000211c3       __unwindfunclet$?getBoardTypeIndexByPosition@EnvironmentVariant@@QAEHH@Z$11 004221c3 f   environmentvariant.obj
 0001:000211cc       __unwindfunclet$?getBoardTypeIndexByPosition@EnvironmentVariant@@QAEHH@Z$12 004221cc f   environmentvariant.obj
 0001:000211d5       __unwindfunclet$?getBoardTypeIndexByPosition@EnvironmentVariant@@QAEHH@Z$13 004221d5 f   environmentvariant.obj
 0001:000211de       __ehhandler$?getBoardTypeIndexByPosition@EnvironmentVariant@@QAEHH@Z 004221de f   environmentvariant.obj
 0001:00021200       __unwindfunclet$?getOperationParams@EnvironmentVariant@@QAE?AV?$QList@VOperationParamData@@@@H@Z$0 00422200 f   environmentvariant.obj
 0001:00021219       __unwindfunclet$?getOperationParams@EnvironmentVariant@@QAE?AV?$QList@VOperationParamData@@@@H@Z$1 00422219 f   environmentvariant.obj
 0001:00021221       __unwindfunclet$?getOperationParams@EnvironmentVariant@@QAE?AV?$QList@VOperationParamData@@@@H@Z$16 00422221 f   environmentvariant.obj
 0001:00021227       __ehhandler$?getOperationParams@EnvironmentVariant@@QAE?AV?$QList@VOperationParamData@@@@H@Z 00422227 f   environmentvariant.obj
 0001:00021250       __unwindfunclet$?getPlanBoardTypeIndexByPosition@EnvironmentVariant@@QAEHHH@Z$0 00422250 f   environmentvariant.obj
 0001:00021259       __unwindfunclet$?getPlanBoardTypeIndexByPosition@EnvironmentVariant@@QAEHHH@Z$1 00422259 f   environmentvariant.obj
 0001:00021262       __unwindfunclet$?getPlanBoardTypeIndexByPosition@EnvironmentVariant@@QAEHHH@Z$2 00422262 f   environmentvariant.obj
 0001:0002126b       __unwindfunclet$?getPlanBoardTypeIndexByPosition@EnvironmentVariant@@QAEHHH@Z$3 0042226b f   environmentvariant.obj
 0001:00021274       __unwindfunclet$?getPlanBoardTypeIndexByPosition@EnvironmentVariant@@QAEHHH@Z$4 00422274 f   environmentvariant.obj
 0001:0002127d       __unwindfunclet$?getPlanBoardTypeIndexByPosition@EnvironmentVariant@@QAEHHH@Z$5 0042227d f   environmentvariant.obj
 0001:00021286       __unwindfunclet$?getPlanBoardTypeIndexByPosition@EnvironmentVariant@@QAEHHH@Z$6 00422286 f   environmentvariant.obj
 0001:0002128f       __unwindfunclet$?getPlanBoardTypeIndexByPosition@EnvironmentVariant@@QAEHHH@Z$7 0042228f f   environmentvariant.obj
 0001:00021298       __unwindfunclet$?getPlanBoardTypeIndexByPosition@EnvironmentVariant@@QAEHHH@Z$8 00422298 f   environmentvariant.obj
 0001:000212a1       __unwindfunclet$?getPlanBoardTypeIndexByPosition@EnvironmentVariant@@QAEHHH@Z$9 004222a1 f   environmentvariant.obj
 0001:000212aa       __unwindfunclet$?getPlanBoardTypeIndexByPosition@EnvironmentVariant@@QAEHHH@Z$10 004222aa f   environmentvariant.obj
 0001:000212b3       __unwindfunclet$?getPlanBoardTypeIndexByPosition@EnvironmentVariant@@QAEHHH@Z$11 004222b3 f   environmentvariant.obj
 0001:000212bc       __unwindfunclet$?getPlanBoardTypeIndexByPosition@EnvironmentVariant@@QAEHHH@Z$12 004222bc f   environmentvariant.obj
 0001:000212c5       __unwindfunclet$?getPlanBoardTypeIndexByPosition@EnvironmentVariant@@QAEHHH@Z$13 004222c5 f   environmentvariant.obj
 0001:000212ce       __ehhandler$?getPlanBoardTypeIndexByPosition@EnvironmentVariant@@QAEHHH@Z 004222ce f   environmentvariant.obj
 0001:000212f0       __unwindfunclet$?initModels@EnvironmentVariant@@QAEXPAVQQmlContext@@@Z$1 004222f0 f   environmentvariant.obj
 0001:000212f9       __unwindfunclet$?initModels@EnvironmentVariant@@QAEXPAVQQmlContext@@@Z$2 004222f9 f   environmentvariant.obj
 0001:00021302       __unwindfunclet$?initModels@EnvironmentVariant@@QAEXPAVQQmlContext@@@Z$3 00422302 f   environmentvariant.obj
 0001:0002130b       __unwindfunclet$?initModels@EnvironmentVariant@@QAEXPAVQQmlContext@@@Z$4 0042230b f   environmentvariant.obj
 0001:00021314       __unwindfunclet$?initModels@EnvironmentVariant@@QAEXPAVQQmlContext@@@Z$5 00422314 f   environmentvariant.obj
 0001:0002131d       __ehhandler$?initModels@EnvironmentVariant@@QAEXPAVQQmlContext@@@Z 0042231d f   environmentvariant.obj
 0001:00021340       __unwindfunclet$?initProtocol@EnvironmentVariant@@QAEXABVQString@@@Z$0 00422340 f   environmentvariant.obj
 0001:00021349       __ehhandler$?initProtocol@EnvironmentVariant@@QAEXABVQString@@@Z 00422349 f   environmentvariant.obj
 0001:00021370       __unwindfunclet$?initUserConfig@EnvironmentVariant@@QAEXABVQString@@@Z$0 00422370 f   environmentvariant.obj
 0001:00021378       __unwindfunclet$?initUserConfig@EnvironmentVariant@@QAEXABVQString@@@Z$1 00422378 f   environmentvariant.obj
 0001:00021381       __unwindfunclet$?initUserConfig@EnvironmentVariant@@QAEXABVQString@@@Z$2 00422381 f   environmentvariant.obj
 0001:0002138a       __ehhandler$?initUserConfig@EnvironmentVariant@@QAEXABVQString@@@Z 0042238a f   environmentvariant.obj
 0001:000213b0       __unwindfunclet$?insert@?$QList@VSingleOperationData@@@@QAEXHABVSingleOperationData@@@Z$9 004223b0 f   environmentvariant.obj
 0001:000213bf       __unwindfunclet$?insert@?$QList@VSingleOperationData@@@@QAEXHABVSingleOperationData@@@Z$11 004223bf f   environmentvariant.obj
 0001:000213c8       __unwindfunclet$?insert@?$QList@VSingleOperationData@@@@QAEXHABVSingleOperationData@@@Z$15 004223c8 f   environmentvariant.obj
 0001:000213d7       __unwindfunclet$?insert@?$QList@VSingleOperationData@@@@QAEXHABVSingleOperationData@@@Z$17 004223d7 f   environmentvariant.obj
 0001:000213e0       __ehhandler$?insert@?$QList@VSingleOperationData@@@@QAEXHABVSingleOperationData@@@Z 004223e0 f   environmentvariant.obj
 0001:00021400       __unwindfunclet$?instance@EnvironmentVariant@@SAPAV1@XZ$0 00422400 f   environmentvariant.obj
 0001:00021412       __ehhandler$?instance@EnvironmentVariant@@SAPAV1@XZ 00422412 f   environmentvariant.obj
 0001:00021430       __unwindfunclet$?parseConfigFile@EnvironmentVariant@@QAEXABVQString@@@Z$0 00422430 f   environmentvariant.obj
 0001:00021438       __unwindfunclet$?parseConfigFile@EnvironmentVariant@@QAEXABVQString@@@Z$1 00422438 f   environmentvariant.obj
 0001:00021441       __unwindfunclet$?parseConfigFile@EnvironmentVariant@@QAEXABVQString@@@Z$3 00422441 f   environmentvariant.obj
 0001:0002144a       __unwindfunclet$?parseConfigFile@EnvironmentVariant@@QAEXABVQString@@@Z$4 0042244a f   environmentvariant.obj
 0001:00021452       __unwindfunclet$?parseConfigFile@EnvironmentVariant@@QAEXABVQString@@@Z$5 00422452 f   environmentvariant.obj
 0001:0002145b       __unwindfunclet$?parseConfigFile@EnvironmentVariant@@QAEXABVQString@@@Z$7 0042245b f   environmentvariant.obj
 0001:00021464       __unwindfunclet$?parseConfigFile@EnvironmentVariant@@QAEXABVQString@@@Z$8 00422464 f   environmentvariant.obj
 0001:0002146c       __unwindfunclet$?parseConfigFile@EnvironmentVariant@@QAEXABVQString@@@Z$57 0042246c f   environmentvariant.obj
 0001:00021472       __unwindfunclet$?parseConfigFile@EnvironmentVariant@@QAEXABVQString@@@Z$9 00422472 f   environmentvariant.obj
 0001:0002147b       __unwindfunclet$?parseConfigFile@EnvironmentVariant@@QAEXABVQString@@@Z$75 0042247b f   environmentvariant.obj
 0001:00021481       __unwindfunclet$?parseConfigFile@EnvironmentVariant@@QAEXABVQString@@@Z$85 00422481 f   environmentvariant.obj
 0001:00021487       __unwindfunclet$?parseConfigFile@EnvironmentVariant@@QAEXABVQString@@@Z$11 00422487 f   environmentvariant.obj
 0001:00021490       __unwindfunclet$?parseConfigFile@EnvironmentVariant@@QAEXABVQString@@@Z$104 00422490 f   environmentvariant.obj
 0001:00021496       __unwindfunclet$?parseConfigFile@EnvironmentVariant@@QAEXABVQString@@@Z$114 00422496 f   environmentvariant.obj
 0001:0002149c       __unwindfunclet$?parseConfigFile@EnvironmentVariant@@QAEXABVQString@@@Z$13 0042249c f   environmentvariant.obj
 0001:000214a5       __unwindfunclet$?parseConfigFile@EnvironmentVariant@@QAEXABVQString@@@Z$133 004224a5 f   environmentvariant.obj
 0001:000214ab       __unwindfunclet$?parseConfigFile@EnvironmentVariant@@QAEXABVQString@@@Z$143 004224ab f   environmentvariant.obj
 0001:000214b1       __unwindfunclet$?parseConfigFile@EnvironmentVariant@@QAEXABVQString@@@Z$15 004224b1 f   environmentvariant.obj
 0001:000214ba       __unwindfunclet$?parseConfigFile@EnvironmentVariant@@QAEXABVQString@@@Z$153 004224ba f   environmentvariant.obj
 0001:000214c0       __ehhandler$?parseConfigFile@EnvironmentVariant@@QAEXABVQString@@@Z 004224c0 f   environmentvariant.obj
 0001:000214e0       __unwindfunclet$?planSelectStepListModel@EnvironmentVariant@@QAE?AVQStringList@@H@Z$0 004224e0 f   environmentvariant.obj
 0001:000214f9       __unwindfunclet$?planSelectStepListModel@EnvironmentVariant@@QAE?AVQStringList@@H@Z$1 004224f9 f   environmentvariant.obj
 0001:00021501       __unwindfunclet$?planSelectStepListModel@EnvironmentVariant@@QAE?AVQStringList@@H@Z$2 00422501 f   environmentvariant.obj
 0001:0002150a       __unwindfunclet$?planSelectStepListModel@EnvironmentVariant@@QAE?AVQStringList@@H@Z$3 0042250a f   environmentvariant.obj
 0001:00021513       __unwindfunclet$?planSelectStepListModel@EnvironmentVariant@@QAE?AVQStringList@@H@Z$4 00422513 f   environmentvariant.obj
 0001:0002151c       __unwindfunclet$?planSelectStepListModel@EnvironmentVariant@@QAE?AVQStringList@@H@Z$18 0042251c f   environmentvariant.obj
 0001:00021522       __ehhandler$?planSelectStepListModel@EnvironmentVariant@@QAE?AVQStringList@@H@Z 00422522 f   environmentvariant.obj
 0001:00021540       __unwindfunclet$?planStepParam@EnvironmentVariant@@QAE?AVSingleOperationData@@HH@Z$0 00422540 f   environmentvariant.obj
 0001:00021548       __unwindfunclet$?planStepParam@EnvironmentVariant@@QAE?AVSingleOperationData@@HH@Z$3 00422548 f   environmentvariant.obj
 0001:00021550       __unwindfunclet$?planStepParam@EnvironmentVariant@@QAE?AVSingleOperationData@@HH@Z$4 00422550 f   environmentvariant.obj
 0001:00021558       __unwindfunclet$?planStepParam@EnvironmentVariant@@QAE?AVSingleOperationData@@HH@Z$43 00422558 f   environmentvariant.obj
 0001:0002155e       __unwindfunclet$?planStepParam@EnvironmentVariant@@QAE?AVSingleOperationData@@HH@Z$53 0042255e f   environmentvariant.obj
 0001:00021564       __unwindfunclet$?planStepParam@EnvironmentVariant@@QAE?AVSingleOperationData@@HH@Z$25 00422564 f   environmentvariant.obj
 0001:0002156a       __unwindfunclet$?planStepParam@EnvironmentVariant@@QAE?AVSingleOperationData@@HH@Z$11 0042256a f   environmentvariant.obj
 0001:00021570       __ehhandler$?planStepParam@EnvironmentVariant@@QAE?AVSingleOperationData@@HH@Z 00422570 f   environmentvariant.obj
 0001:00021590       __unwindfunclet$?setWorkLocationType@EnvironmentVariant@@QAE_NHHABVQString@@@Z$0 00422590 f   environmentvariant.obj
 0001:00021599       __unwindfunclet$?setWorkLocationType@EnvironmentVariant@@QAE_NHHABVQString@@@Z$1 00422599 f   environmentvariant.obj
 0001:000215a2       __unwindfunclet$?setWorkLocationType@EnvironmentVariant@@QAE_NHHABVQString@@@Z$2 004225a2 f   environmentvariant.obj
 0001:000215bc       __unwindfunclet$?setWorkLocationType@EnvironmentVariant@@QAE_NHHABVQString@@@Z$3 004225bc f   environmentvariant.obj
 0001:000215d6       __unwindfunclet$?setWorkLocationType@EnvironmentVariant@@QAE_NHHABVQString@@@Z$4 004225d6 f   environmentvariant.obj
 0001:000215f0       __unwindfunclet$?setWorkLocationType@EnvironmentVariant@@QAE_NHHABVQString@@@Z$5 004225f0 f   environmentvariant.obj
 0001:0002160a       __unwindfunclet$?setWorkLocationType@EnvironmentVariant@@QAE_NHHABVQString@@@Z$6 0042260a f   environmentvariant.obj
 0001:00021613       __unwindfunclet$?setWorkLocationType@EnvironmentVariant@@QAE_NHHABVQString@@@Z$7 00422613 f   environmentvariant.obj
 0001:0002161c       __unwindfunclet$?setWorkLocationType@EnvironmentVariant@@QAE_NHHABVQString@@@Z$8 0042261c f   environmentvariant.obj
 0001:00021625       __unwindfunclet$?setWorkLocationType@EnvironmentVariant@@QAE_NHHABVQString@@@Z$9 00422625 f   environmentvariant.obj
 0001:0002162e       __unwindfunclet$?setWorkLocationType@EnvironmentVariant@@QAE_NHHABVQString@@@Z$10 0042262e f   environmentvariant.obj
 0001:00021637       __unwindfunclet$?setWorkLocationType@EnvironmentVariant@@QAE_NHHABVQString@@@Z$22 00422637 f   environmentvariant.obj
 0001:00021640       __unwindfunclet$?setWorkLocationType@EnvironmentVariant@@QAE_NHHABVQString@@@Z$11 00422640 f   environmentvariant.obj
 0001:00021649       __unwindfunclet$?setWorkLocationType@EnvironmentVariant@@QAE_NHHABVQString@@@Z$12 00422649 f   environmentvariant.obj
 0001:00021652       __unwindfunclet$?setWorkLocationType@EnvironmentVariant@@QAE_NHHABVQString@@@Z$13 00422652 f   environmentvariant.obj
 0001:0002165b       __unwindfunclet$?setWorkLocationType@EnvironmentVariant@@QAE_NHHABVQString@@@Z$14 0042265b f   environmentvariant.obj
 0001:00021664       __unwindfunclet$?setWorkLocationType@EnvironmentVariant@@QAE_NHHABVQString@@@Z$15 00422664 f   environmentvariant.obj
 0001:0002166d       __unwindfunclet$?setWorkLocationType@EnvironmentVariant@@QAE_NHHABVQString@@@Z$16 0042266d f   environmentvariant.obj
 0001:00021676       __unwindfunclet$?setWorkLocationType@EnvironmentVariant@@QAE_NHHABVQString@@@Z$17 00422676 f   environmentvariant.obj
 0001:0002167f       __unwindfunclet$?setWorkLocationType@EnvironmentVariant@@QAE_NHHABVQString@@@Z$18 0042267f f   environmentvariant.obj
 0001:00021688       __unwindfunclet$?setWorkLocationType@EnvironmentVariant@@QAE_NHHABVQString@@@Z$19 00422688 f   environmentvariant.obj
 0001:00021691       __unwindfunclet$?setWorkLocationType@EnvironmentVariant@@QAE_NHHABVQString@@@Z$20 00422691 f   environmentvariant.obj
 0001:0002169a       __unwindfunclet$?setWorkLocationType@EnvironmentVariant@@QAE_NHHABVQString@@@Z$21 0042269a f   environmentvariant.obj
 0001:000216a3       __ehhandler$?setWorkLocationType@EnvironmentVariant@@QAE_NHHABVQString@@@Z 004226a3 f   environmentvariant.obj
 0001:000216d0       __unwindfunclet$?startCheckPlan@EnvironmentVariant@@QAEXH@Z$0 004226d0 f   environmentvariant.obj
 0001:000216d9       __unwindfunclet$?startCheckPlan@EnvironmentVariant@@QAEXH@Z$1 004226d9 f   environmentvariant.obj
 0001:000216e2       __unwindfunclet$?startCheckPlan@EnvironmentVariant@@QAEXH@Z$2 004226e2 f   environmentvariant.obj
 0001:000216ea       __unwindfunclet$?startCheckPlan@EnvironmentVariant@@QAEXH@Z$3 004226ea f   environmentvariant.obj
 0001:000216f3       __unwindfunclet$?startCheckPlan@EnvironmentVariant@@QAEXH@Z$4 004226f3 f   environmentvariant.obj
 0001:000216fc       __unwindfunclet$?startCheckPlan@EnvironmentVariant@@QAEXH@Z$5 004226fc f   environmentvariant.obj
 0001:00021705       __unwindfunclet$?startCheckPlan@EnvironmentVariant@@QAEXH@Z$6 00422705 f   environmentvariant.obj
 0001:0002170e       __unwindfunclet$?startCheckPlan@EnvironmentVariant@@QAEXH@Z$7 0042270e f   environmentvariant.obj
 0001:00021717       __unwindfunclet$?startCheckPlan@EnvironmentVariant@@QAEXH@Z$8 00422717 f   environmentvariant.obj
 0001:00021720       __unwindfunclet$?startCheckPlan@EnvironmentVariant@@QAEXH@Z$9 00422720 f   environmentvariant.obj
 0001:00021728       __unwindfunclet$?startCheckPlan@EnvironmentVariant@@QAEXH@Z$10 00422728 f   environmentvariant.obj
 0001:00021731       __unwindfunclet$?startCheckPlan@EnvironmentVariant@@QAEXH@Z$11 00422731 f   environmentvariant.obj
 0001:0002173a       __unwindfunclet$?startCheckPlan@EnvironmentVariant@@QAEXH@Z$12 0042273a f   environmentvariant.obj
 0001:00021746       __unwindfunclet$?startCheckPlan@EnvironmentVariant@@QAEXH@Z$13 00422746 f   environmentvariant.obj
 0001:00021752       __unwindfunclet$?startCheckPlan@EnvironmentVariant@@QAEXH@Z$14 00422752 f   environmentvariant.obj
 0001:0002175e       __unwindfunclet$?startCheckPlan@EnvironmentVariant@@QAEXH@Z$42 0042275e f   environmentvariant.obj
 0001:00021764       __unwindfunclet$?startCheckPlan@EnvironmentVariant@@QAEXH@Z$50 00422764 f   environmentvariant.obj
 0001:0002176a       __unwindfunclet$?startCheckPlan@EnvironmentVariant@@QAEXH@Z$58 0042276a f   environmentvariant.obj
 0001:00021770       __unwindfunclet$?startCheckPlan@EnvironmentVariant@@QAEXH@Z$15 00422770 f   environmentvariant.obj
 0001:0002177c       __unwindfunclet$?startCheckPlan@EnvironmentVariant@@QAEXH@Z$16 0042277c f   environmentvariant.obj
 0001:00021785       __unwindfunclet$?startCheckPlan@EnvironmentVariant@@QAEXH@Z$17 00422785 f   environmentvariant.obj
 0001:0002178e       __unwindfunclet$?startCheckPlan@EnvironmentVariant@@QAEXH@Z$88 0042278e f   environmentvariant.obj
 0001:00021794       __unwindfunclet$?startCheckPlan@EnvironmentVariant@@QAEXH@Z$18 00422794 f   environmentvariant.obj
 0001:0002179d       __unwindfunclet$?startCheckPlan@EnvironmentVariant@@QAEXH@Z$19 0042279d f   environmentvariant.obj
 0001:000217a6       __unwindfunclet$?startCheckPlan@EnvironmentVariant@@QAEXH@Z$20 004227a6 f   environmentvariant.obj
 0001:000217af       __unwindfunclet$?startCheckPlan@EnvironmentVariant@@QAEXH@Z$21 004227af f   environmentvariant.obj
 0001:000217b8       __unwindfunclet$?startCheckPlan@EnvironmentVariant@@QAEXH@Z$22 004227b8 f   environmentvariant.obj
 0001:000217c1       __unwindfunclet$?startCheckPlan@EnvironmentVariant@@QAEXH@Z$23 004227c1 f   environmentvariant.obj
 0001:000217ca       __unwindfunclet$?startCheckPlan@EnvironmentVariant@@QAEXH@Z$24 004227ca f   environmentvariant.obj
 0001:000217d3       __ehhandler$?startCheckPlan@EnvironmentVariant@@QAEXH@Z 004227d3 f   environmentvariant.obj
 0001:00021800       __unwindfunclet$??$createInto@VPlanSelector@@@QQmlPrivate@@YAXPAX@Z$0 00422800 f   main.obj
 0001:00021800       __unwindfunclet$??$createInto@VWorkLocationManager@@@QQmlPrivate@@YAXPAX@Z$0 00422800 f   main.obj
 0001:00021800       __unwindfunclet$??$createInto@VTextFieldDoubleValidator@@@QQmlPrivate@@YAXPAX@Z$0 00422800 f   main.obj
 0001:00021800       __unwindfunclet$??$createInto@VPlanController@@@QQmlPrivate@@YAXPAX@Z$0 00422800 f   main.obj
 0001:00021800       __unwindfunclet$??$createInto@VOperationParamObject@@@QQmlPrivate@@YAXPAX@Z$0 00422800 f   main.obj
 0001:00021800       __unwindfunclet$??$createInto@VStatusViewWatcher@@@QQmlPrivate@@YAXPAX@Z$0 00422800 f   main.obj
 0001:00021800       __unwindfunclet$??$createInto@VOperationParamSelector@@@QQmlPrivate@@YAXPAX@Z$0 00422800 f   main.obj
 0001:00021811       __ehhandler$??$createInto@VStatusViewWatcher@@@QQmlPrivate@@YAXPAX@Z 00422811 f   main.obj
 0001:00021811       __ehhandler$??$createInto@VOperationParamObject@@@QQmlPrivate@@YAXPAX@Z 00422811 f   main.obj
 0001:00021811       __ehhandler$??$createInto@VPlanController@@@QQmlPrivate@@YAXPAX@Z 00422811 f   main.obj
 0001:00021811       __ehhandler$??$createInto@VTextFieldDoubleValidator@@@QQmlPrivate@@YAXPAX@Z 00422811 f   main.obj
 0001:00021811       __ehhandler$??$createInto@VPlanSelector@@@QQmlPrivate@@YAXPAX@Z 00422811 f   main.obj
 0001:00021811       __ehhandler$??$createInto@VWorkLocationManager@@@QQmlPrivate@@YAXPAX@Z 00422811 f   main.obj
 0001:00021811       __ehhandler$??$createInto@VOperationParamSelector@@@QQmlPrivate@@YAXPAX@Z 00422811 f   main.obj
 0001:00021830       __unwindfunclet$??$qmlRegisterType@VOperationParamSelector@@@@YAHPBDHH0@Z$0 00422830 f   main.obj
 0001:00021830       __unwindfunclet$??$qmlRegisterType@VWorkLocationManager@@@@YAHPBDHH0@Z$0 00422830 f   main.obj
 0001:00021830       __unwindfunclet$??$qmlRegisterType@VPlanController@@@@YAHPBDHH0@Z$0 00422830 f   main.obj
 0001:00021830       __unwindfunclet$??$qmlRegisterType@VPlanSelector@@@@YAHPBDHH0@Z$0 00422830 f   main.obj
 0001:00021830       __unwindfunclet$??$qmlRegisterType@VStatusViewWatcher@@@@YAHPBDHH0@Z$0 00422830 f   main.obj
 0001:00021830       __unwindfunclet$??$qmlRegisterType@VOperationParamObject@@@@YAHPBDHH0@Z$0 00422830 f   main.obj
 0001:00021830       __unwindfunclet$??$qmlRegisterType@VTextFieldDoubleValidator@@@@YAHPBDHH0@Z$0 00422830 f   main.obj
 0001:00021838       __unwindfunclet$??$qmlRegisterType@VWorkLocationManager@@@@YAHPBDHH0@Z$1 00422838 f   main.obj
 0001:00021838       __unwindfunclet$??$qmlRegisterType@VPlanController@@@@YAHPBDHH0@Z$1 00422838 f   main.obj
 0001:00021838       __unwindfunclet$??$qmlRegisterType@VTextFieldDoubleValidator@@@@YAHPBDHH0@Z$1 00422838 f   main.obj
 0001:00021838       __unwindfunclet$??$qmlRegisterType@VPlanSelector@@@@YAHPBDHH0@Z$1 00422838 f   main.obj
 0001:00021838       __unwindfunclet$??$qmlRegisterType@VOperationParamObject@@@@YAHPBDHH0@Z$1 00422838 f   main.obj
 0001:00021838       __unwindfunclet$??$qmlRegisterType@VStatusViewWatcher@@@@YAHPBDHH0@Z$1 00422838 f   main.obj
 0001:00021838       __unwindfunclet$??$qmlRegisterType@VOperationParamSelector@@@@YAHPBDHH0@Z$1 00422838 f   main.obj
 0001:00021843       __unwindfunclet$??$qmlRegisterType@VTextFieldDoubleValidator@@@@YAHPBDHH0@Z$2 00422843 f   main.obj
 0001:00021843       __unwindfunclet$??$qmlRegisterType@VPlanController@@@@YAHPBDHH0@Z$2 00422843 f   main.obj
 0001:00021843       __unwindfunclet$??$qmlRegisterType@VOperationParamSelector@@@@YAHPBDHH0@Z$2 00422843 f   main.obj
 0001:00021843       __unwindfunclet$??$qmlRegisterType@VStatusViewWatcher@@@@YAHPBDHH0@Z$2 00422843 f   main.obj
 0001:00021843       __unwindfunclet$??$qmlRegisterType@VPlanSelector@@@@YAHPBDHH0@Z$2 00422843 f   main.obj
 0001:00021843       __unwindfunclet$??$qmlRegisterType@VWorkLocationManager@@@@YAHPBDHH0@Z$2 00422843 f   main.obj
 0001:00021843       __unwindfunclet$??$qmlRegisterType@VOperationParamObject@@@@YAHPBDHH0@Z$2 00422843 f   main.obj
 0001:0002184c       __unwindfunclet$??$qmlRegisterType@VOperationParamObject@@@@YAHPBDHH0@Z$3 0042284c f   main.obj
 0001:0002184c       __unwindfunclet$??$qmlRegisterType@VPlanSelector@@@@YAHPBDHH0@Z$3 0042284c f   main.obj
 0001:0002184c       __unwindfunclet$??$qmlRegisterType@VTextFieldDoubleValidator@@@@YAHPBDHH0@Z$3 0042284c f   main.obj
 0001:0002184c       __unwindfunclet$??$qmlRegisterType@VStatusViewWatcher@@@@YAHPBDHH0@Z$3 0042284c f   main.obj
 0001:0002184c       __unwindfunclet$??$qmlRegisterType@VPlanController@@@@YAHPBDHH0@Z$3 0042284c f   main.obj
 0001:0002184c       __unwindfunclet$??$qmlRegisterType@VOperationParamSelector@@@@YAHPBDHH0@Z$3 0042284c f   main.obj
 0001:0002184c       __unwindfunclet$??$qmlRegisterType@VWorkLocationManager@@@@YAHPBDHH0@Z$3 0042284c f   main.obj
 0001:00021855       __unwindfunclet$??$qmlRegisterType@VWorkLocationManager@@@@YAHPBDHH0@Z$5 00422855 f   main.obj
 0001:00021855       __unwindfunclet$??$qmlRegisterType@VOperationParamObject@@@@YAHPBDHH0@Z$5 00422855 f   main.obj
 0001:00021855       __unwindfunclet$??$qmlRegisterType@VOperationParamSelector@@@@YAHPBDHH0@Z$5 00422855 f   main.obj
 0001:00021855       __unwindfunclet$??$qmlRegisterType@VPlanSelector@@@@YAHPBDHH0@Z$5 00422855 f   main.obj
 0001:00021855       __unwindfunclet$??$qmlRegisterType@VTextFieldDoubleValidator@@@@YAHPBDHH0@Z$5 00422855 f   main.obj
 0001:00021855       __unwindfunclet$??$qmlRegisterType@VPlanController@@@@YAHPBDHH0@Z$5 00422855 f   main.obj
 0001:00021855       __unwindfunclet$??$qmlRegisterType@VStatusViewWatcher@@@@YAHPBDHH0@Z$5 00422855 f   main.obj
 0001:0002185d       __ehhandler$??$qmlRegisterType@VPlanController@@@@YAHPBDHH0@Z 0042285d f   main.obj
 0001:0002185d       __ehhandler$??$qmlRegisterType@VTextFieldDoubleValidator@@@@YAHPBDHH0@Z 0042285d f   main.obj
 0001:0002185d       __ehhandler$??$qmlRegisterType@VPlanSelector@@@@YAHPBDHH0@Z 0042285d f   main.obj
 0001:0002185d       __ehhandler$??$qmlRegisterType@VOperationParamObject@@@@YAHPBDHH0@Z 0042285d f   main.obj
 0001:0002185d       __ehhandler$??$qmlRegisterType@VWorkLocationManager@@@@YAHPBDHH0@Z 0042285d f   main.obj
 0001:0002185d       __ehhandler$??$qmlRegisterType@VStatusViewWatcher@@@@YAHPBDHH0@Z 0042285d f   main.obj
 0001:0002185d       __ehhandler$??$qmlRegisterType@VOperationParamSelector@@@@YAHPBDHH0@Z 0042285d f   main.obj
 0001:00021880       __unwindfunclet$??1OperationParamSelector@@UAE@XZ$0 00422880 f   main.obj
 0001:00021886       __unwindfunclet$??1OperationParamSelector@@UAE@XZ$7 00422886 f   main.obj
 0001:0002188c       __ehhandler$??1OperationParamSelector@@UAE@XZ 0042288c f   main.obj
 0001:000218b0       __unwindfunclet$?customMessageHandler@@YAXW4QtMsgType@@ABVQMessageLogContext@@ABVQString@@@Z$0 004228b0 f   main.obj
 0001:000218b9       __unwindfunclet$?customMessageHandler@@YAXW4QtMsgType@@ABVQMessageLogContext@@ABVQString@@@Z$1 004228b9 f   main.obj
 0001:000218c2       __unwindfunclet$?customMessageHandler@@YAXW4QtMsgType@@ABVQMessageLogContext@@ABVQString@@@Z$2 004228c2 f   main.obj
 0001:000218cb       __unwindfunclet$?customMessageHandler@@YAXW4QtMsgType@@ABVQMessageLogContext@@ABVQString@@@Z$3 004228cb f   main.obj
 0001:000218d4       __unwindfunclet$?customMessageHandler@@YAXW4QtMsgType@@ABVQMessageLogContext@@ABVQString@@@Z$21 004228d4 f   main.obj
 0001:000218dd       __unwindfunclet$?customMessageHandler@@YAXW4QtMsgType@@ABVQMessageLogContext@@ABVQString@@@Z$22 004228dd f   main.obj
 0001:000218e6       __unwindfunclet$?customMessageHandler@@YAXW4QtMsgType@@ABVQMessageLogContext@@ABVQString@@@Z$23 004228e6 f   main.obj
 0001:000218ef       __unwindfunclet$?customMessageHandler@@YAXW4QtMsgType@@ABVQMessageLogContext@@ABVQString@@@Z$5 004228ef f   main.obj
 0001:000218f8       __unwindfunclet$?customMessageHandler@@YAXW4QtMsgType@@ABVQMessageLogContext@@ABVQString@@@Z$6 004228f8 f   main.obj
 0001:00021901       __unwindfunclet$?customMessageHandler@@YAXW4QtMsgType@@ABVQMessageLogContext@@ABVQString@@@Z$7 00422901 f   main.obj
 0001:0002190a       __unwindfunclet$?customMessageHandler@@YAXW4QtMsgType@@ABVQMessageLogContext@@ABVQString@@@Z$9 0042290a f   main.obj
 0001:00021913       __unwindfunclet$?customMessageHandler@@YAXW4QtMsgType@@ABVQMessageLogContext@@ABVQString@@@Z$10 00422913 f   main.obj
 0001:0002191c       __unwindfunclet$?customMessageHandler@@YAXW4QtMsgType@@ABVQMessageLogContext@@ABVQString@@@Z$11 0042291c f   main.obj
 0001:00021925       __unwindfunclet$?customMessageHandler@@YAXW4QtMsgType@@ABVQMessageLogContext@@ABVQString@@@Z$13 00422925 f   main.obj
 0001:0002192e       __unwindfunclet$?customMessageHandler@@YAXW4QtMsgType@@ABVQMessageLogContext@@ABVQString@@@Z$14 0042292e f   main.obj
 0001:00021937       __unwindfunclet$?customMessageHandler@@YAXW4QtMsgType@@ABVQMessageLogContext@@ABVQString@@@Z$15 00422937 f   main.obj
 0001:00021940       __unwindfunclet$?customMessageHandler@@YAXW4QtMsgType@@ABVQMessageLogContext@@ABVQString@@@Z$17 00422940 f   main.obj
 0001:00021949       __unwindfunclet$?customMessageHandler@@YAXW4QtMsgType@@ABVQMessageLogContext@@ABVQString@@@Z$18 00422949 f   main.obj
 0001:00021952       __unwindfunclet$?customMessageHandler@@YAXW4QtMsgType@@ABVQMessageLogContext@@ABVQString@@@Z$19 00422952 f   main.obj
 0001:0002195b       __ehhandler$?customMessageHandler@@YAXW4QtMsgType@@ABVQMessageLogContext@@ABVQString@@@Z 0042295b f   main.obj
 0001:00021980       __unwindfunclet$?exportConfigFile@ConfigFileConverter@@QAE_NABVQUrl@@@Z$0 00422980 f   workmodels.obj
 0001:00021980       __unwindfunclet$?importConfigFile@ConfigFileConverter@@QAE_NABVQUrl@@@Z$0 00422980 f   workmodels.obj
 0001:00021980       __unwindfunclet$?getConfigFullName@@YA?AVQString@@PBD@Z$0 00422980 f   main.obj
 0001:00021989       __ehhandler$?getConfigFullName@@YA?AVQString@@PBD@Z 00422989 f   main.obj
 0001:00021989       __ehhandler$?importConfigFile@ConfigFileConverter@@QAE_NABVQUrl@@@Z 00422989 f   workmodels.obj
 0001:00021989       __ehhandler$?exportConfigFile@ConfigFileConverter@@QAE_NABVQUrl@@@Z 00422989 f   workmodels.obj
 0001:000219b0       __unwindfunclet$?qt_metatype_id@?$QMetaTypeIdQObject@PAVOperationParamSelector@@$07@@SAHXZ$0 004229b0 f   main.obj
 0001:000219b0       __unwindfunclet$?qt_metatype_id@?$QMetaTypeIdQObject@PAVWorkLocationManager@@$07@@SAHXZ$0 004229b0 f   main.obj
 0001:000219b0       __unwindfunclet$?qt_metatype_id@?$QMetaTypeIdQObject@PAVOperationParamObject@@$07@@SAHXZ$0 004229b0 f   main.obj
 0001:000219b0       __unwindfunclet$?qt_metatype_id@?$QMetaTypeIdQObject@PAVTextFieldDoubleValidator@@$07@@SAHXZ$0 004229b0 f   main.obj
 0001:000219b0       __unwindfunclet$?qt_metatype_id@?$QMetaTypeIdQObject@PAVStatusViewWatcher@@$07@@SAHXZ$0 004229b0 f   main.obj
 0001:000219b0       __unwindfunclet$?qt_metatype_id@?$QMetaTypeIdQObject@PAVPlanController@@$07@@SAHXZ$0 004229b0 f   main.obj
 0001:000219b0       __unwindfunclet$?qt_metatype_id@?$QMetaTypeIdQObject@PAVPlanSelector@@$07@@SAHXZ$0 004229b0 f   main.obj
 0001:000219b9       __ehhandler$?qt_metatype_id@?$QMetaTypeIdQObject@PAVOperationParamSelector@@$07@@SAHXZ 004229b9 f   main.obj
 0001:000219b9       __ehhandler$?qt_metatype_id@?$QMetaTypeIdQObject@PAVPlanSelector@@$07@@SAHXZ 004229b9 f   main.obj
 0001:000219b9       __ehhandler$?qt_metatype_id@?$QMetaTypeIdQObject@PAVWorkLocationManager@@$07@@SAHXZ 004229b9 f   main.obj
 0001:000219b9       __ehhandler$?qt_metatype_id@?$QMetaTypeIdQObject@PAVTextFieldDoubleValidator@@$07@@SAHXZ 004229b9 f   main.obj
 0001:000219b9       __ehhandler$?qt_metatype_id@?$QMetaTypeIdQObject@PAVStatusViewWatcher@@$07@@SAHXZ 004229b9 f   main.obj
 0001:000219b9       __ehhandler$?qt_metatype_id@?$QMetaTypeIdQObject@PAVOperationParamObject@@$07@@SAHXZ 004229b9 f   main.obj
 0001:000219b9       __ehhandler$?qt_metatype_id@?$QMetaTypeIdQObject@PAVPlanController@@$07@@SAHXZ 004229b9 f   main.obj
 0001:000219e0       __unwindfunclet$?validate@TextFieldDoubleValidator@@UBE?AW4State@QValidator@@AAVQString@@AAH@Z$0 004229e0 f   main.obj
 0001:000219fa       __unwindfunclet$?validate@TextFieldDoubleValidator@@UBE?AW4State@QValidator@@AAVQString@@AAH@Z$1 004229fa f   main.obj
 0001:00021a03       __unwindfunclet$?validate@TextFieldDoubleValidator@@UBE?AW4State@QValidator@@AAVQString@@AAH@Z$2 00422a03 f   main.obj
 0001:00021a0c       __ehhandler$?validate@TextFieldDoubleValidator@@UBE?AW4State@QValidator@@AAVQString@@AAH@Z 00422a0c f   main.obj
 0001:00021a30       __unwindfunclet$_main$0    00422a30 f   main.obj
 0001:00021a39       __unwindfunclet$_main$1    00422a39 f   main.obj
 0001:00021a42       __unwindfunclet$_main$2    00422a42 f   main.obj
 0001:00021a4b       __unwindfunclet$_main$3    00422a4b f   main.obj
 0001:00021a54       __unwindfunclet$_main$4    00422a54 f   main.obj
 0001:00021a5d       __unwindfunclet$_main$5    00422a5d f   main.obj
 0001:00021a66       __unwindfunclet$_main$6    00422a66 f   main.obj
 0001:00021a6f       __unwindfunclet$_main$7    00422a6f f   main.obj
 0001:00021a78       __unwindfunclet$_main$8    00422a78 f   main.obj
 0001:00021a81       __unwindfunclet$_main$9    00422a81 f   main.obj
 0001:00021a8a       __unwindfunclet$_main$10   00422a8a f   main.obj
 0001:00021a93       __unwindfunclet$_main$11   00422a93 f   main.obj
 0001:00021a9c       __unwindfunclet$_main$12   00422a9c f   main.obj
 0001:00021aa5       __unwindfunclet$_main$13   00422aa5 f   main.obj
 0001:00021aae       __unwindfunclet$_main$14   00422aae f   main.obj
 0001:00021ab7       __unwindfunclet$_main$15   00422ab7 f   main.obj
 0001:00021ac0       __unwindfunclet$_main$17   00422ac0 f   main.obj
 0001:00021ac9       __unwindfunclet$_main$18   00422ac9 f   main.obj
 0001:00021ad2       __ehhandler$_main          00422ad2 f   main.obj
 0001:00021af0       __unwindfunclet$??0PlanController@@QAE@PAVQObject@@@Z$0 00422af0 f   workmodels.obj
 0001:00021af0       __unwindfunclet$??0StatusViewWatcher@@QAE@PAVQObject@@@Z$0 00422af0 f   workmodels.obj
 0001:00021af0       __unwindfunclet$??0configFileHandler@@QAE@PAVQObject@@@Z$0 00422af0 f   configfilehandler.obj
 0001:00021af9       __ehhandler$??0StatusViewWatcher@@QAE@PAVQObject@@@Z 00422af9 f   workmodels.obj
 0001:00021af9       __ehhandler$??0PlanController@@QAE@PAVQObject@@@Z 00422af9 f   workmodels.obj
 0001:00021af9       __ehhandler$??0configFileHandler@@QAE@PAVQObject@@@Z 00422af9 f   configfilehandler.obj
 0001:00021b20       __unwindfunclet$??0PlanSelector@@QAE@PAVQObject@@@Z$0 00422b20 f   workmodels.obj
 0001:00021b29       __unwindfunclet$??0PlanSelector@@QAE@PAVQObject@@@Z$1 00422b29 f   workmodels.obj
 0001:00021b34       __unwindfunclet$??0PlanSelector@@QAE@PAVQObject@@@Z$2 00422b34 f   workmodels.obj
 0001:00021b3f       __unwindfunclet$??0PlanSelector@@QAE@PAVQObject@@@Z$3 00422b3f f   workmodels.obj
 0001:00021b4a       __ehhandler$??0PlanSelector@@QAE@PAVQObject@@@Z 00422b4a f   workmodels.obj
 0001:00021b70       __unwindfunclet$??1?$QForeachContainer@V?$QList@VOperationParamData@@@@@@QAE@XZ$0 00422b70 f   configfilehandler.obj
 0001:00021b70       __unwindfunclet$??1?$QForeachContainer@V?$QList@PAVQObject@@@@@@QAE@XZ$0 00422b70 f   workmodels.obj
 0001:00021b70       __unwindfunclet$??1?$QForeachContainer@$$CBV?$QList@VOperationParamData@@@@@@QAE@XZ$0 00422b70 f   environmentvariant.obj
 0001:00021b76       __ehhandler$??1?$QForeachContainer@$$CBV?$QList@VOperationParamData@@@@@@QAE@XZ 00422b76 f   environmentvariant.obj
 0001:00021b76       __ehhandler$??1?$QForeachContainer@V?$QList@PAVQObject@@@@@@QAE@XZ 00422b76 f   workmodels.obj
 0001:00021b76       __ehhandler$??1?$QForeachContainer@V?$QList@VOperationParamData@@@@@@QAE@XZ 00422b76 f   configfilehandler.obj
 0001:00021ba0       __ehhandler$??1PlanController@@UAE@XZ 00422ba0 f   workmodels.obj
 0001:00021ba0       __ehhandler$??1?$QList@VSingleOperationData@@@@QAE@XZ 00422ba0 f   configfilehandler.obj
 0001:00021ba0       __ehhandler$??1?$QMap@VQString@@V1@@@QAE@XZ 00422ba0 f   configfilehandler.obj
 0001:00021ba0       __ehhandler$??1?$QList@VSinglePlanData@@@@QAE@XZ 00422ba0 f   configfilehandler.obj
 0001:00021bc0       __unwindfunclet$??1PlanSelector@@UAE@XZ$1 00422bc0 f   workmodels.obj
 0001:00021bc6       __unwindfunclet$??1PlanSelector@@UAE@XZ$8 00422bc6 f   workmodels.obj
 0001:00021bcc       __ehhandler$??1PlanSelector@@UAE@XZ 00422bcc f   workmodels.obj
 0001:00021bf0       __unwindfunclet$??_GStatusViewWatcher@@UAEPAXI@Z$0 00422bf0 f   workmodels.obj
 0001:00021bf6       __ehhandler$??_GStatusViewWatcher@@UAEPAXI@Z 00422bf6 f   workmodels.obj
 0001:00021c20       __ehhandler$?detach_helper_grow@?$QList@PAVQObject@@@@AAEPAUNode@1@HH@Z 00422c20 f   workmodels.obj
 0001:00021c20       __ehhandler$?detach_helper_grow@?$QList@H@@AAEPAUNode@1@HH@Z 00422c20 f   configfilehandler.obj
 0001:00021c40       __unwindfunclet$?getSwitch@OperationParamSelector@@QAEPAVQObject@@ABVQString@@@Z$0 00422c40 f   workmodels.obj
 0001:00021c40       __unwindfunclet$?getSwitch@PlanSelector@@QAEPAVQObject@@ABVQString@@@Z$0 00422c40 f   workmodels.obj
 0001:00021c48       __unwindfunclet$?getSwitch@OperationParamSelector@@QAEPAVQObject@@ABVQString@@@Z$17 00422c48 f   workmodels.obj
 0001:00021c48       __unwindfunclet$?getSwitch@PlanSelector@@QAEPAVQObject@@ABVQString@@@Z$17 00422c48 f   workmodels.obj
 0001:00021c4e       __unwindfunclet$?getSwitch@PlanSelector@@QAEPAVQObject@@ABVQString@@@Z$9 00422c4e f   workmodels.obj
 0001:00021c4e       __unwindfunclet$?getSwitch@OperationParamSelector@@QAEPAVQObject@@ABVQString@@@Z$9 00422c4e f   workmodels.obj
 0001:00021c54       __ehhandler$?getSwitch@OperationParamSelector@@QAEPAVQObject@@ABVQString@@@Z 00422c54 f   workmodels.obj
 0001:00021c54       __ehhandler$?getSwitch@PlanSelector@@QAEPAVQObject@@ABVQString@@@Z 00422c54 f   workmodels.obj
 0001:00021c70       __unwindfunclet$?onCompleteSingleOperation@OperationParamSelector@@QAEXXZ$0 00422c70 f   workmodels.obj
 0001:00021c78       __unwindfunclet$?onCompleteSingleOperation@OperationParamSelector@@QAEXXZ$2 00422c78 f   workmodels.obj
 0001:00021c80       __unwindfunclet$?onCompleteSingleOperation@OperationParamSelector@@QAEXXZ$13 00422c80 f   workmodels.obj
 0001:00021c86       __unwindfunclet$?onCompleteSingleOperation@OperationParamSelector@@QAEXXZ$21 00422c86 f   workmodels.obj
 0001:00021c8c       __unwindfunclet$?onCompleteSingleOperation@OperationParamSelector@@QAEXXZ$29 00422c8c f   workmodels.obj
 0001:00021c92       __unwindfunclet$?onCompleteSingleOperation@OperationParamSelector@@QAEXXZ$37 00422c92 f   workmodels.obj
 0001:00021c98       __ehhandler$?onCompleteSingleOperation@OperationParamSelector@@QAEXXZ 00422c98 f   workmodels.obj
 0001:00021cc0       __unwindfunclet$?onMachineConfigChanged@TargetMachineObject@@QAE_NXZ$0 00422cc0 f   workmodels.obj
 0001:00021cc8       __ehhandler$?onMachineConfigChanged@TargetMachineObject@@QAE_NXZ 00422cc8 f   workmodels.obj
 0001:00021cf0       __unwindfunclet$?setSelectedOperation@OperationParamSelector@@QAEXH@Z$13 00422cf0 f   workmodels.obj
 0001:00021cf6       __unwindfunclet$?setSelectedOperation@OperationParamSelector@@QAEXH@Z$20 00422cf6 f   workmodels.obj
 0001:00021cfc       __unwindfunclet$?setSelectedOperation@OperationParamSelector@@QAEXH@Z$34 00422cfc f   workmodels.obj
 0001:00021d02       __unwindfunclet$?setSelectedOperation@OperationParamSelector@@QAEXH@Z$52 00422d02 f   workmodels.obj
 0001:00021d08       __unwindfunclet$?setSelectedOperation@OperationParamSelector@@QAEXH@Z$59 00422d08 f   workmodels.obj
 0001:00021d0e       __unwindfunclet$?setSelectedOperation@OperationParamSelector@@QAEXH@Z$2 00422d0e f   workmodels.obj
 0001:00021d16       __unwindfunclet$?setSelectedOperation@OperationParamSelector@@QAEXH@Z$3 00422d16 f   workmodels.obj
 0001:00021d25       __unwindfunclet$?setSelectedOperation@OperationParamSelector@@QAEXH@Z$72 00422d25 f   workmodels.obj
 0001:00021d2e       __unwindfunclet$?setSelectedOperation@OperationParamSelector@@QAEXH@Z$75 00422d2e f   workmodels.obj
 0001:00021d34       __unwindfunclet$?setSelectedOperation@OperationParamSelector@@QAEXH@Z$83 00422d34 f   workmodels.obj
 0001:00021d3a       __unwindfunclet$?setSelectedOperation@OperationParamSelector@@QAEXH@Z$91 00422d3a f   workmodels.obj
 0001:00021d40       __ehhandler$?setSelectedOperation@OperationParamSelector@@QAEXH@Z 00422d40 f   workmodels.obj
 0001:00021d60       __unwindfunclet$?setSelectedOperation@PlanSelector@@QAEXHHH@Z$0 00422d60 f   workmodels.obj
 0001:00021d68       __unwindfunclet$?setSelectedOperation@PlanSelector@@QAEXHHH@Z$12 00422d68 f   workmodels.obj
 0001:00021d6e       __unwindfunclet$?setSelectedOperation@PlanSelector@@QAEXHHH@Z$30 00422d6e f   workmodels.obj
 0001:00021d74       __unwindfunclet$?setSelectedOperation@PlanSelector@@QAEXHHH@Z$37 00422d74 f   workmodels.obj
 0001:00021d7a       __unwindfunclet$?setSelectedOperation@PlanSelector@@QAEXHHH@Z$2 00422d7a f   workmodels.obj
 0001:00021d82       __unwindfunclet$?setSelectedOperation@PlanSelector@@QAEXHHH@Z$3 00422d82 f   workmodels.obj
 0001:00021d91       __unwindfunclet$?setSelectedOperation@PlanSelector@@QAEXHHH@Z$50 00422d91 f   workmodels.obj
 0001:00021d9a       __unwindfunclet$?setSelectedOperation@PlanSelector@@QAEXHHH@Z$53 00422d9a f   workmodels.obj
 0001:00021da0       __unwindfunclet$?setSelectedOperation@PlanSelector@@QAEXHHH@Z$61 00422da0 f   workmodels.obj
 0001:00021da6       __unwindfunclet$?setSelectedOperation@PlanSelector@@QAEXHHH@Z$69 00422da6 f   workmodels.obj
 0001:00021dac       __unwindfunclet$?setSelectedOperation@PlanSelector@@QAEXHHH@Z$98 00422dac f   workmodels.obj
 0001:00021db2       __unwindfunclet$?setSelectedOperation@PlanSelector@@QAEXHHH@Z$106 00422db2 f   workmodels.obj
 0001:00021db8       __unwindfunclet$?setSelectedOperation@PlanSelector@@QAEXHHH@Z$114 00422db8 f   workmodels.obj
 0001:00021dbe       __ehhandler$?setSelectedOperation@PlanSelector@@QAEXHHH@Z 00422dbe f   workmodels.obj
 0001:00021de0       __unwindfunclet$?setSelectedStep@PlanSelector@@QAEXHH@Z$14 00422de0 f   workmodels.obj
 0001:00021de6       __unwindfunclet$?setSelectedStep@PlanSelector@@QAEXHH@Z$22 00422de6 f   workmodels.obj
 0001:00021dec       __unwindfunclet$?setSelectedStep@PlanSelector@@QAEXHH@Z$36 00422dec f   workmodels.obj
 0001:00021df2       __unwindfunclet$?setSelectedStep@PlanSelector@@QAEXHH@Z$54 00422df2 f   workmodels.obj
 0001:00021df8       __unwindfunclet$?setSelectedStep@PlanSelector@@QAEXHH@Z$61 00422df8 f   workmodels.obj
 0001:00021dfe       __unwindfunclet$?setSelectedStep@PlanSelector@@QAEXHH@Z$2 00422dfe f   workmodels.obj
 0001:00021e06       __unwindfunclet$?setSelectedStep@PlanSelector@@QAEXHH@Z$3 00422e06 f   workmodels.obj
 0001:00021e15       __unwindfunclet$?setSelectedStep@PlanSelector@@QAEXHH@Z$74 00422e15 f   workmodels.obj
 0001:00021e1e       __unwindfunclet$?setSelectedStep@PlanSelector@@QAEXHH@Z$77 00422e1e f   workmodels.obj
 0001:00021e24       __unwindfunclet$?setSelectedStep@PlanSelector@@QAEXHH@Z$85 00422e24 f   workmodels.obj
 0001:00021e2a       __unwindfunclet$?setSelectedStep@PlanSelector@@QAEXHH@Z$93 00422e2a f   workmodels.obj
 0001:00021e30       __ehhandler$?setSelectedStep@PlanSelector@@QAEXHH@Z 00422e30 f   workmodels.obj
 0001:00021e50       __unwindfunclet$??0WorkflowCheckerController@@QAE@PAVQObject@@@Z$0 00422e50 f   workflowChecker.obj
 0001:00021e59       __unwindfunclet$??0WorkflowCheckerController@@QAE@PAVQObject@@@Z$1 00422e59 f   workflowChecker.obj
 0001:00021e65       __unwindfunclet$??0WorkflowCheckerController@@QAE@PAVQObject@@@Z$2 00422e65 f   workflowChecker.obj
 0001:00021e74       __unwindfunclet$??0WorkflowCheckerController@@QAE@PAVQObject@@@Z$8 00422e74 f   workflowChecker.obj
 0001:00021e7d       __unwindfunclet$??0WorkflowCheckerController@@QAE@PAVQObject@@@Z$9 00422e7d f   workflowChecker.obj
 0001:00021e89       __unwindfunclet$??0WorkflowCheckerController@@QAE@PAVQObject@@@Z$10 00422e89 f   workflowChecker.obj
 0001:00021e95       __ehhandler$??0WorkflowCheckerController@@QAE@PAVQObject@@@Z 00422e95 f   workflowChecker.obj
 0001:00021eb0       __ehhandler$??1WorkflowCheckerController@@UAE@XZ 00422eb0 f   workflowChecker.obj
 0001:00021eb0       __ehhandler$??1?$QMap@VQString@@VQStringList@@@@QAE@XZ 00422eb0 f   configfilehandler.obj
 0001:00021eb0       __ehhandler$??1?$QMap@VQString@@VOperationParamData@@@@QAE@XZ 00422eb0 f   configfilehandler.obj
 0001:00021eb0       __ehhandler$??1WorkflowController@@UAE@XZ 00422eb0 f   workflowprotocol.obj
 0001:00021eb0       __ehhandler$??1?$QMap@VQString@@H@@QAE@XZ 00422eb0 f   workflowChecker.obj
 0001:00021ed0       __unwindfunclet$?CheckBoardConstraint@SubThreadCheckWorker@@IAE_NABVQJsonObject@@@Z$0 00422ed0 f   workflowChecker.obj
 0001:00021ed9       __unwindfunclet$?CheckBoardConstraint@SubThreadCheckWorker@@IAE_NABVQJsonObject@@@Z$1 00422ed9 f   workflowChecker.obj
 0001:00021ee2       __unwindfunclet$?CheckBoardConstraint@SubThreadCheckWorker@@IAE_NABVQJsonObject@@@Z$2 00422ee2 f   workflowChecker.obj
 0001:00021eeb       __unwindfunclet$?CheckBoardConstraint@SubThreadCheckWorker@@IAE_NABVQJsonObject@@@Z$3 00422eeb f   workflowChecker.obj
 0001:00021ef4       __unwindfunclet$?CheckBoardConstraint@SubThreadCheckWorker@@IAE_NABVQJsonObject@@@Z$17 00422ef4 f   workflowChecker.obj
 0001:00021efd       __unwindfunclet$?CheckBoardConstraint@SubThreadCheckWorker@@IAE_NABVQJsonObject@@@Z$4 00422efd f   workflowChecker.obj
 0001:00021f06       __unwindfunclet$?CheckBoardConstraint@SubThreadCheckWorker@@IAE_NABVQJsonObject@@@Z$5 00422f06 f   workflowChecker.obj
 0001:00021f0f       __unwindfunclet$?CheckBoardConstraint@SubThreadCheckWorker@@IAE_NABVQJsonObject@@@Z$6 00422f0f f   workflowChecker.obj
 0001:00021f18       __unwindfunclet$?CheckBoardConstraint@SubThreadCheckWorker@@IAE_NABVQJsonObject@@@Z$7 00422f18 f   workflowChecker.obj
 0001:00021f21       __unwindfunclet$?CheckBoardConstraint@SubThreadCheckWorker@@IAE_NABVQJsonObject@@@Z$8 00422f21 f   workflowChecker.obj
 0001:00021f2d       __unwindfunclet$?CheckBoardConstraint@SubThreadCheckWorker@@IAE_NABVQJsonObject@@@Z$9 00422f2d f   workflowChecker.obj
 0001:00021f36       __unwindfunclet$?CheckBoardConstraint@SubThreadCheckWorker@@IAE_NABVQJsonObject@@@Z$10 00422f36 f   workflowChecker.obj
 0001:00021f3f       __unwindfunclet$?CheckBoardConstraint@SubThreadCheckWorker@@IAE_NABVQJsonObject@@@Z$11 00422f3f f   workflowChecker.obj
 0001:00021f48       __unwindfunclet$?CheckBoardConstraint@SubThreadCheckWorker@@IAE_NABVQJsonObject@@@Z$12 00422f48 f   workflowChecker.obj
 0001:00021f51       __unwindfunclet$?CheckBoardConstraint@SubThreadCheckWorker@@IAE_NABVQJsonObject@@@Z$14 00422f51 f   workflowChecker.obj
 0001:00021f5a       __unwindfunclet$?CheckBoardConstraint@SubThreadCheckWorker@@IAE_NABVQJsonObject@@@Z$15 00422f5a f   workflowChecker.obj
 0001:00021f63       __ehhandler$?CheckBoardConstraint@SubThreadCheckWorker@@IAE_NABVQJsonObject@@@Z 00422f63 f   workflowChecker.obj
 0001:00021fa0       __unwindfunclet$?CheckParamConstraint@SubThreadCheckWorker@@IAE_NABVQJsonObject@@@Z$0 00422fa0 f   workflowChecker.obj
 0001:00021fa9       __unwindfunclet$?CheckParamConstraint@SubThreadCheckWorker@@IAE_NABVQJsonObject@@@Z$1 00422fa9 f   workflowChecker.obj
 0001:00021fb5       __unwindfunclet$?CheckParamConstraint@SubThreadCheckWorker@@IAE_NABVQJsonObject@@@Z$2 00422fb5 f   workflowChecker.obj
 0001:00021fbe       __unwindfunclet$?CheckParamConstraint@SubThreadCheckWorker@@IAE_NABVQJsonObject@@@Z$3 00422fbe f   workflowChecker.obj
 0001:00021fc7       __unwindfunclet$?CheckParamConstraint@SubThreadCheckWorker@@IAE_NABVQJsonObject@@@Z$32 00422fc7 f   workflowChecker.obj
 0001:00021fd3       __unwindfunclet$?CheckParamConstraint@SubThreadCheckWorker@@IAE_NABVQJsonObject@@@Z$4 00422fd3 f   workflowChecker.obj
 0001:00021fdc       __unwindfunclet$?CheckParamConstraint@SubThreadCheckWorker@@IAE_NABVQJsonObject@@@Z$5 00422fdc f   workflowChecker.obj
 0001:00021fe8       __unwindfunclet$?CheckParamConstraint@SubThreadCheckWorker@@IAE_NABVQJsonObject@@@Z$6 00422fe8 f   workflowChecker.obj
 0001:00021ff1       __unwindfunclet$?CheckParamConstraint@SubThreadCheckWorker@@IAE_NABVQJsonObject@@@Z$7 00422ff1 f   workflowChecker.obj
 0001:00021ffa       __unwindfunclet$?CheckParamConstraint@SubThreadCheckWorker@@IAE_NABVQJsonObject@@@Z$8 00422ffa f   workflowChecker.obj
 0001:00022006       __unwindfunclet$?CheckParamConstraint@SubThreadCheckWorker@@IAE_NABVQJsonObject@@@Z$9 00423006 f   workflowChecker.obj
 0001:00022012       __unwindfunclet$?CheckParamConstraint@SubThreadCheckWorker@@IAE_NABVQJsonObject@@@Z$10 00423012 f   workflowChecker.obj
 0001:0002201b       __unwindfunclet$?CheckParamConstraint@SubThreadCheckWorker@@IAE_NABVQJsonObject@@@Z$21 0042301b f   workflowChecker.obj
 0001:00022024       __unwindfunclet$?CheckParamConstraint@SubThreadCheckWorker@@IAE_NABVQJsonObject@@@Z$22 00423024 f   workflowChecker.obj
 0001:00022030       __unwindfunclet$?CheckParamConstraint@SubThreadCheckWorker@@IAE_NABVQJsonObject@@@Z$23 00423030 f   workflowChecker.obj
 0001:00022039       __unwindfunclet$?CheckParamConstraint@SubThreadCheckWorker@@IAE_NABVQJsonObject@@@Z$12 00423039 f   workflowChecker.obj
 0001:00022042       __unwindfunclet$?CheckParamConstraint@SubThreadCheckWorker@@IAE_NABVQJsonObject@@@Z$13 00423042 f   workflowChecker.obj
 0001:0002204e       __unwindfunclet$?CheckParamConstraint@SubThreadCheckWorker@@IAE_NABVQJsonObject@@@Z$14 0042304e f   workflowChecker.obj
 0001:00022057       __unwindfunclet$?CheckParamConstraint@SubThreadCheckWorker@@IAE_NABVQJsonObject@@@Z$16 00423057 f   workflowChecker.obj
 0001:00022060       __unwindfunclet$?CheckParamConstraint@SubThreadCheckWorker@@IAE_NABVQJsonObject@@@Z$17 00423060 f   workflowChecker.obj
 0001:0002206c       __unwindfunclet$?CheckParamConstraint@SubThreadCheckWorker@@IAE_NABVQJsonObject@@@Z$18 0042306c f   workflowChecker.obj
 0001:00022075       __unwindfunclet$?CheckParamConstraint@SubThreadCheckWorker@@IAE_NABVQJsonObject@@@Z$19 00423075 f   workflowChecker.obj
 0001:00022081       __unwindfunclet$?CheckParamConstraint@SubThreadCheckWorker@@IAE_NABVQJsonObject@@@Z$20 00423081 f   workflowChecker.obj
 0001:0002208d       __unwindfunclet$?CheckParamConstraint@SubThreadCheckWorker@@IAE_NABVQJsonObject@@@Z$33 0042308d f   workflowChecker.obj
 0001:00022099       __unwindfunclet$?CheckParamConstraint@SubThreadCheckWorker@@IAE_NABVQJsonObject@@@Z$26 00423099 f   workflowChecker.obj
 0001:000220a2       __unwindfunclet$?CheckParamConstraint@SubThreadCheckWorker@@IAE_NABVQJsonObject@@@Z$27 004230a2 f   workflowChecker.obj
 0001:000220ae       __unwindfunclet$?CheckParamConstraint@SubThreadCheckWorker@@IAE_NABVQJsonObject@@@Z$28 004230ae f   workflowChecker.obj
 0001:000220b7       __unwindfunclet$?CheckParamConstraint@SubThreadCheckWorker@@IAE_NABVQJsonObject@@@Z$29 004230b7 f   workflowChecker.obj
 0001:000220c0       __unwindfunclet$?CheckParamConstraint@SubThreadCheckWorker@@IAE_NABVQJsonObject@@@Z$34 004230c0 f   workflowChecker.obj
 0001:000220cc       __unwindfunclet$?CheckParamConstraint@SubThreadCheckWorker@@IAE_NABVQJsonObject@@@Z$31 004230cc f   workflowChecker.obj
 0001:000220d5       __ehhandler$?CheckParamConstraint@SubThreadCheckWorker@@IAE_NABVQJsonObject@@@Z 004230d5 f   workflowChecker.obj
 0001:00022100       __unwindfunclet$?configChecker@SubThreadCheckWorker@@QAEXABVQJsonArray@@@Z$0 00423100 f   workflowChecker.obj
 0001:00022109       __unwindfunclet$?configChecker@SubThreadCheckWorker@@QAEXABVQJsonArray@@@Z$1 00423109 f   workflowChecker.obj
 0001:00022112       __unwindfunclet$?configChecker@SubThreadCheckWorker@@QAEXABVQJsonArray@@@Z$2 00423112 f   workflowChecker.obj
 0001:0002211b       __unwindfunclet$?configChecker@SubThreadCheckWorker@@QAEXABVQJsonArray@@@Z$3 0042311b f   workflowChecker.obj
 0001:00022124       __unwindfunclet$?configChecker@SubThreadCheckWorker@@QAEXABVQJsonArray@@@Z$4 00423124 f   workflowChecker.obj
 0001:0002212d       __unwindfunclet$?configChecker@SubThreadCheckWorker@@QAEXABVQJsonArray@@@Z$5 0042312d f   workflowChecker.obj
 0001:00022136       __unwindfunclet$?configChecker@SubThreadCheckWorker@@QAEXABVQJsonArray@@@Z$6 00423136 f   workflowChecker.obj
 0001:0002213f       __unwindfunclet$?configChecker@SubThreadCheckWorker@@QAEXABVQJsonArray@@@Z$7 0042313f f   workflowChecker.obj
 0001:00022148       __unwindfunclet$?configChecker@SubThreadCheckWorker@@QAEXABVQJsonArray@@@Z$8 00423148 f   workflowChecker.obj
 0001:00022151       __unwindfunclet$?configChecker@SubThreadCheckWorker@@QAEXABVQJsonArray@@@Z$9 00423151 f   workflowChecker.obj
 0001:0002215a       __unwindfunclet$?configChecker@SubThreadCheckWorker@@QAEXABVQJsonArray@@@Z$10 0042315a f   workflowChecker.obj
 0001:00022163       __unwindfunclet$?configChecker@SubThreadCheckWorker@@QAEXABVQJsonArray@@@Z$11 00423163 f   workflowChecker.obj
 0001:0002216c       __unwindfunclet$?configChecker@SubThreadCheckWorker@@QAEXABVQJsonArray@@@Z$12 0042316c f   workflowChecker.obj
 0001:00022175       __unwindfunclet$?configChecker@SubThreadCheckWorker@@QAEXABVQJsonArray@@@Z$13 00423175 f   workflowChecker.obj
 0001:0002217e       __unwindfunclet$?configChecker@SubThreadCheckWorker@@QAEXABVQJsonArray@@@Z$14 0042317e f   workflowChecker.obj
 0001:00022187       __ehhandler$?configChecker@SubThreadCheckWorker@@QAEXABVQJsonArray@@@Z 00423187 f   workflowChecker.obj
 0001:000221b0       __unwindfunclet$?doCheck@SubThreadCheckWorker@@QAEXABVQJsonObject@@@Z$0 004231b0 f   workflowChecker.obj
 0001:000221b9       __unwindfunclet$?doCheck@SubThreadCheckWorker@@QAEXABVQJsonObject@@@Z$1 004231b9 f   workflowChecker.obj
 0001:000221c2       __unwindfunclet$?doCheck@SubThreadCheckWorker@@QAEXABVQJsonObject@@@Z$2 004231c2 f   workflowChecker.obj
 0001:000221cb       __unwindfunclet$?doCheck@SubThreadCheckWorker@@QAEXABVQJsonObject@@@Z$3 004231cb f   workflowChecker.obj
 0001:000221d4       __unwindfunclet$?doCheck@SubThreadCheckWorker@@QAEXABVQJsonObject@@@Z$4 004231d4 f   workflowChecker.obj
 0001:000221dd       __unwindfunclet$?doCheck@SubThreadCheckWorker@@QAEXABVQJsonObject@@@Z$5 004231dd f   workflowChecker.obj
 0001:000221e6       __unwindfunclet$?doCheck@SubThreadCheckWorker@@QAEXABVQJsonObject@@@Z$6 004231e6 f   workflowChecker.obj
 0001:000221ef       __unwindfunclet$?doCheck@SubThreadCheckWorker@@QAEXABVQJsonObject@@@Z$7 004231ef f   workflowChecker.obj
 0001:000221f8       __unwindfunclet$?doCheck@SubThreadCheckWorker@@QAEXABVQJsonObject@@@Z$8 004231f8 f   workflowChecker.obj
 0001:00022201       __unwindfunclet$?doCheck@SubThreadCheckWorker@@QAEXABVQJsonObject@@@Z$9 00423201 f   workflowChecker.obj
 0001:0002220a       __unwindfunclet$?doCheck@SubThreadCheckWorker@@QAEXABVQJsonObject@@@Z$10 0042320a f   workflowChecker.obj
 0001:00022213       __unwindfunclet$?doCheck@SubThreadCheckWorker@@QAEXABVQJsonObject@@@Z$11 00423213 f   workflowChecker.obj
 0001:0002221c       __unwindfunclet$?doCheck@SubThreadCheckWorker@@QAEXABVQJsonObject@@@Z$12 0042321c f   workflowChecker.obj
 0001:00022225       __unwindfunclet$?doCheck@SubThreadCheckWorker@@QAEXABVQJsonObject@@@Z$13 00423225 f   workflowChecker.obj
 0001:0002222e       __unwindfunclet$?doCheck@SubThreadCheckWorker@@QAEXABVQJsonObject@@@Z$14 0042322e f   workflowChecker.obj
 0001:00022237       __unwindfunclet$?doCheck@SubThreadCheckWorker@@QAEXABVQJsonObject@@@Z$15 00423237 f   workflowChecker.obj
 0001:00022240       __unwindfunclet$?doCheck@SubThreadCheckWorker@@QAEXABVQJsonObject@@@Z$16 00423240 f   workflowChecker.obj
 0001:00022249       __unwindfunclet$?doCheck@SubThreadCheckWorker@@QAEXABVQJsonObject@@@Z$17 00423249 f   workflowChecker.obj
 0001:00022252       __unwindfunclet$?doCheck@SubThreadCheckWorker@@QAEXABVQJsonObject@@@Z$18 00423252 f   workflowChecker.obj
 0001:0002225b       __unwindfunclet$?doCheck@SubThreadCheckWorker@@QAEXABVQJsonObject@@@Z$19 0042325b f   workflowChecker.obj
 0001:00022264       __unwindfunclet$?doCheck@SubThreadCheckWorker@@QAEXABVQJsonObject@@@Z$38 00423264 f   workflowChecker.obj
 0001:0002226d       __unwindfunclet$?doCheck@SubThreadCheckWorker@@QAEXABVQJsonObject@@@Z$20 0042326d f   workflowChecker.obj
 0001:00022276       __unwindfunclet$?doCheck@SubThreadCheckWorker@@QAEXABVQJsonObject@@@Z$21 00423276 f   workflowChecker.obj
 0001:0002227f       __unwindfunclet$?doCheck@SubThreadCheckWorker@@QAEXABVQJsonObject@@@Z$22 0042327f f   workflowChecker.obj
 0001:00022288       __unwindfunclet$?doCheck@SubThreadCheckWorker@@QAEXABVQJsonObject@@@Z$23 00423288 f   workflowChecker.obj
 0001:00022291       __unwindfunclet$?doCheck@SubThreadCheckWorker@@QAEXABVQJsonObject@@@Z$24 00423291 f   workflowChecker.obj
 0001:0002229a       __unwindfunclet$?doCheck@SubThreadCheckWorker@@QAEXABVQJsonObject@@@Z$25 0042329a f   workflowChecker.obj
 0001:000222a3       __unwindfunclet$?doCheck@SubThreadCheckWorker@@QAEXABVQJsonObject@@@Z$26 004232a3 f   workflowChecker.obj
 0001:000222ac       __unwindfunclet$?doCheck@SubThreadCheckWorker@@QAEXABVQJsonObject@@@Z$27 004232ac f   workflowChecker.obj
 0001:000222b5       __ehhandler$?doCheck@SubThreadCheckWorker@@QAEXABVQJsonObject@@@Z 004232b5 f   workflowChecker.obj
 0001:000222d0       __unwindfunclet$?isFilteredCommand@SubThreadCheckWorker@@IAE_NABVQJsonObject@@@Z$0 004232d0 f   workflowChecker.obj
 0001:000222d9       __unwindfunclet$?isFilteredCommand@SubThreadCheckWorker@@IAE_NABVQJsonObject@@@Z$1 004232d9 f   workflowChecker.obj
 0001:000222e2       __unwindfunclet$?isFilteredCommand@SubThreadCheckWorker@@IAE_NABVQJsonObject@@@Z$2 004232e2 f   workflowChecker.obj
 0001:000222eb       __unwindfunclet$?isFilteredCommand@SubThreadCheckWorker@@IAE_NABVQJsonObject@@@Z$3 004232eb f   workflowChecker.obj
 0001:000222f3       __unwindfunclet$?isFilteredCommand@SubThreadCheckWorker@@IAE_NABVQJsonObject@@@Z$4 004232f3 f   workflowChecker.obj
 0001:000222fc       __unwindfunclet$?isFilteredCommand@SubThreadCheckWorker@@IAE_NABVQJsonObject@@@Z$5 004232fc f   workflowChecker.obj
 0001:00022305       __unwindfunclet$?isFilteredCommand@SubThreadCheckWorker@@IAE_NABVQJsonObject@@@Z$6 00423305 f   workflowChecker.obj
 0001:0002230e       __unwindfunclet$?isFilteredCommand@SubThreadCheckWorker@@IAE_NABVQJsonObject@@@Z$7 0042330e f   workflowChecker.obj
 0001:00022317       __unwindfunclet$?isFilteredCommand@SubThreadCheckWorker@@IAE_NABVQJsonObject@@@Z$8 00423317 f   workflowChecker.obj
 0001:00022320       __unwindfunclet$?isFilteredCommand@SubThreadCheckWorker@@IAE_NABVQJsonObject@@@Z$9 00423320 f   workflowChecker.obj
 0001:00022329       __unwindfunclet$?isFilteredCommand@SubThreadCheckWorker@@IAE_NABVQJsonObject@@@Z$10 00423329 f   workflowChecker.obj
 0001:00022332       __unwindfunclet$?isFilteredCommand@SubThreadCheckWorker@@IAE_NABVQJsonObject@@@Z$11 00423332 f   workflowChecker.obj
 0001:0002233b       __unwindfunclet$?isFilteredCommand@SubThreadCheckWorker@@IAE_NABVQJsonObject@@@Z$31 0042333b f   workflowChecker.obj
 0001:00022341       __unwindfunclet$?isFilteredCommand@SubThreadCheckWorker@@IAE_NABVQJsonObject@@@Z$40 00423341 f   workflowChecker.obj
 0001:00022347       __unwindfunclet$?isFilteredCommand@SubThreadCheckWorker@@IAE_NABVQJsonObject@@@Z$21 00423347 f   workflowChecker.obj
 0001:0002234d       __ehhandler$?isFilteredCommand@SubThreadCheckWorker@@IAE_NABVQJsonObject@@@Z 0042334d f   workflowChecker.obj
 0001:00022370       __unwindfunclet$?statusChanged@WorkflowController@@QAEXABVQJsonObject@@@Z$0 00423370 f   workflowprotocol.obj
 0001:00022370       __unwindfunclet$?statusChanged@WorkflowCheckerController@@QAEXABVQJsonObject@@@Z$0 00423370 f   workflowChecker.obj
 0001:0002237f       __unwindfunclet$?statusChanged@WorkflowCheckerController@@QAEXABVQJsonObject@@@Z$1 0042337f f   workflowChecker.obj
 0001:0002237f       __unwindfunclet$?statusChanged@WorkflowController@@QAEXABVQJsonObject@@@Z$1 0042337f f   workflowprotocol.obj
 0001:00022388       __ehhandler$?statusChanged@WorkflowCheckerController@@QAEXABVQJsonObject@@@Z 00423388 f   workflowChecker.obj
 0001:00022388       __ehhandler$?statusChanged@WorkflowController@@QAEXABVQJsonObject@@@Z 00423388 f   workflowprotocol.obj
 0001:000223b0       __unwindfunclet$?Destruct@?$QMetaTypeFunctionHelper@V?$QList@H@@$00@QtMetaTypePrivate@@SAXPAX@Z$1 004233b0 f   moc_workmodels.obj
 0001:000223b0       __unwindfunclet$??__Fdummy@?A0x60b45615@@YAXXZ$0 004233b0 f   qrc_qml.obj
 0001:000223b0       __unwindfunclet$??__Ff@?4??registerConverter@?$ValueTypeIsMetaType@V?$QList@PAVQObject@@@@$00@QtPrivate@@SA_NH@Z@YAXXZ$0 004233b0 f   moc_workmodels.obj
 0001:000223b0       __unwindfunclet$?Destruct@?$QMetaTypeFunctionHelper@V?$QList@PAVQObject@@@@$00@QtMetaTypePrivate@@SAXPAX@Z$1 004233b0 f   moc_workmodels.obj
 0001:000223b0       __unwindfunclet$??__Ff@?4??registerConverter@?$ValueTypeIsMetaType@V?$QList@H@@$00@QtPrivate@@SA_NH@Z@YAXXZ$0 004233b0 f   moc_workmodels.obj
 0001:000223b6       __ehhandler$??__Ff@?4??registerConverter@?$ValueTypeIsMetaType@V?$QList@PAVQObject@@@@$00@QtPrivate@@SA_NH@Z@YAXXZ 004233b6 f   moc_workmodels.obj
 0001:000223b6       __ehhandler$?Destruct@?$QMetaTypeFunctionHelper@V?$QList@H@@$00@QtMetaTypePrivate@@SAXPAX@Z 004233b6 f   moc_workmodels.obj
 0001:000223b6       __ehhandler$??__Fdummy@?A0x60b45615@@YAXXZ 004233b6 f   qrc_qml.obj
 0001:000223b6       __ehhandler$??__Ff@?4??registerConverter@?$ValueTypeIsMetaType@V?$QList@H@@$00@QtPrivate@@SA_NH@Z@YAXXZ 004233b6 f   moc_workmodels.obj
 0001:000223b6       __ehhandler$?Destruct@?$QMetaTypeFunctionHelper@V?$QList@PAVQObject@@@@$00@QtMetaTypePrivate@@SAXPAX@Z 004233b6 f   moc_workmodels.obj
 0001:000223e0       __unwindfunclet$?Construct@?$QMetaTypeFunctionHelper@V?$QList@PAVQObject@@@@$00@QtMetaTypePrivate@@SAPAXPAXPBX@Z$0 004233e0 f   moc_workmodels.obj
 0001:000223e0       __unwindfunclet$?Construct@?$QMetaTypeFunctionHelper@V?$QList@H@@$00@QtMetaTypePrivate@@SAPAXPAXPBX@Z$0 004233e0 f   moc_workmodels.obj
 0001:000223f1       __ehhandler$?Construct@?$QMetaTypeFunctionHelper@V?$QList@PAVQObject@@@@$00@QtMetaTypePrivate@@SAPAXPAXPBX@Z 004233f1 f   moc_workmodels.obj
 0001:000223f1       __ehhandler$?Construct@?$QMetaTypeFunctionHelper@V?$QList@H@@$00@QtMetaTypePrivate@@SAPAXPAXPBX@Z 004233f1 f   moc_workmodels.obj
 0001:00022410       __unwindfunclet$?qt_metatype_id@?$QMetaTypeId@V?$QList@H@@@@SAHXZ$0 00423410 f   moc_workmodels.obj
 0001:00022419       __ehhandler$?qt_metatype_id@?$QMetaTypeId@V?$QList@H@@@@SAHXZ 00423419 f   moc_workmodels.obj
 0001:00022440       __unwindfunclet$?qt_metatype_id@?$QMetaTypeId@V?$QList@PAVQObject@@@@@@SAHXZ$2 00423440 f   moc_workmodels.obj
 0001:00022440       __unwindfunclet$?qt_metatype_id@?$QMetaTypeId@VQSequentialIterableImpl@QtMetaTypePrivate@@@@SAHXZ$2 00423440 f   moc_workmodels.obj
 0001:00022449       __ehhandler$?qt_metatype_id@?$QMetaTypeId@VQSequentialIterableImpl@QtMetaTypePrivate@@@@SAHXZ 00423449 f   moc_workmodels.obj
 0001:00022449       __ehhandler$?qt_metatype_id@?$QMetaTypeId@V?$QList@PAVQObject@@@@@@SAHXZ 00423449 f   moc_workmodels.obj
 0001:00022470       __unwindfunclet$?qt_static_metacall@OperationParamSelector@@CAXPAVQObject@@W4Call@QMetaObject@@HPAPAX@Z$0 00423470 f   moc_workmodels.obj
 0001:00022478       __ehhandler$?qt_static_metacall@OperationParamSelector@@CAXPAVQObject@@W4Call@QMetaObject@@HPAPAX@Z 00423478 f   moc_workmodels.obj
 0001:000224a0       __unwindfunclet$?qt_static_metacall@PlanSelector@@CAXPAVQObject@@W4Call@QMetaObject@@HPAPAX@Z$0 004234a0 f   moc_workmodels.obj
 0001:000224a8       __unwindfunclet$?qt_static_metacall@PlanSelector@@CAXPAVQObject@@W4Call@QMetaObject@@HPAPAX@Z$1 004234a8 f   moc_workmodels.obj
 0001:000224b0       __unwindfunclet$?qt_static_metacall@PlanSelector@@CAXPAVQObject@@W4Call@QMetaObject@@HPAPAX@Z$2 004234b0 f   moc_workmodels.obj
 0001:000224b8       __unwindfunclet$?qt_static_metacall@PlanSelector@@CAXPAVQObject@@W4Call@QMetaObject@@HPAPAX@Z$3 004234b8 f   moc_workmodels.obj
 0001:000224c0       __ehhandler$?qt_static_metacall@PlanSelector@@CAXPAVQObject@@W4Call@QMetaObject@@HPAPAX@Z 004234c0 f   moc_workmodels.obj
 0001:000224e0       __unwindfunclet$?qt_static_metacall@WorkLocationManager@@CAXPAVQObject@@W4Call@QMetaObject@@HPAPAX@Z$0 004234e0 f   moc_workmodels.obj
 0001:000224e9       __unwindfunclet$?qt_static_metacall@WorkLocationManager@@CAXPAVQObject@@W4Call@QMetaObject@@HPAPAX@Z$1 004234e9 f   moc_workmodels.obj
 0001:000224f2       __ehhandler$?qt_static_metacall@WorkLocationManager@@CAXPAVQObject@@W4Call@QMetaObject@@HPAPAX@Z 004234f2 f   moc_workmodels.obj
 0001:00022510       __unwindfunclet$??4OperationParamData@@QAEAAV0@ABV0@@Z$14 00423510 f   configfilehandler.obj
 0001:00022510       __unwindfunclet$?clear@?$QList@UloopControl@SubThreadWorker@@@@QAEXXZ$2 00423510 f   workflowprotocol.obj
 0001:00022510       __unwindfunclet$?setParamModel@OperationParamSelector@@QAEXABV?$QList@PAVQObject@@@@@Z$7 00423510 f   moc_workmodels.obj
 0001:00022510       __unwindfunclet$?setParamListModel@PlanSelector@@QAEXABV?$QList@PAVQObject@@@@@Z$7 00423510 f   moc_workmodels.obj
 0001:00022510       __unwindfunclet$?setIntListValue@OperationParamObject@@QAEXABV?$QList@H@@@Z$7 00423510 f   moc_workmodels.obj
 0001:00022516       __ehhandler$?setParamListModel@PlanSelector@@QAEXABV?$QList@PAVQObject@@@@@Z 00423516 f   moc_workmodels.obj
 0001:00022516       __ehhandler$??4OperationParamData@@QAEAAV0@ABV0@@Z 00423516 f   configfilehandler.obj
 0001:00022516       __ehhandler$?setParamModel@OperationParamSelector@@QAEXABV?$QList@PAVQObject@@@@@Z 00423516 f   moc_workmodels.obj
 0001:00022516       __ehhandler$?clear@?$QList@UloopControl@SubThreadWorker@@@@QAEXXZ 00423516 f   workflowprotocol.obj
 0001:00022516       __ehhandler$?setIntListValue@OperationParamObject@@QAEXABV?$QList@H@@@Z 00423516 f   moc_workmodels.obj
 0001:00022540       ??__Fdummy@?A0x60b45615@@YAXXZ 00423540 f   qrc_qml.obj
 0002:00000584       ?pre_cpp_initializer@@3P6AXXZA 00424584     MSVCRT:exe_winmain.obj
 0002:00000588       ?dummy$initializer$@?A0x60b45615@@3P6AXXZA 00424588     qrc_qml.obj
 0002:0000058c       ??staticMetaObject$initializer$@SubThreadWorker@@2P6AXXZA@@3P6AXXZA 0042458c     moc_workflowprotocol.obj
 0002:00000590       ??staticMetaObject$initializer$@WorkflowController@@2P6AXXZA@@3P6AXXZA 00424590     moc_workflowprotocol.obj
 0002:00000594       ??staticMetaObject$initializer$@SubThreadCheckWorker@@2P6AXXZA@@3P6AXXZA 00424594     moc_workflowChecker.obj
 0002:00000598       ??staticMetaObject$initializer$@WorkflowCheckerController@@2P6AXXZA@@3P6AXXZA 00424598     moc_workflowChecker.obj
 0002:0000059c       ??staticMetaObject$initializer$@configFileHandler@@2P6AXXZA@@3P6AXXZA 0042459c     moc_configfilehandler.obj
 0002:000005a0       ??staticMetaObject$initializer$@EnvironmentVariant@@2P6AXXZA@@3P6AXXZA 004245a0     moc_environmentvariant.obj
 0002:000005a4       ??staticMetaObject$initializer$@OperationParamObject@@2P6AXXZA@@3P6AXXZA 004245a4     moc_workmodels.obj
 0002:000005a8       ??staticMetaObject$initializer$@OperationParamSelector@@2P6AXXZA@@3P6AXXZA 004245a8     moc_workmodels.obj
 0002:000005ac       ??staticMetaObject$initializer$@SingleOperationObject@@2P6AXXZA@@3P6AXXZA 004245ac     moc_workmodels.obj
 0002:000005b0       ??staticMetaObject$initializer$@PlanSelector@@2P6AXXZA@@3P6AXXZA 004245b0     moc_workmodels.obj
 0002:000005b4       ??staticMetaObject$initializer$@PlanController@@2P6AXXZA@@3P6AXXZA 004245b4     moc_workmodels.obj
 0002:000005b8       ??staticMetaObject$initializer$@StatusViewWatcher@@2P6AXXZA@@3P6AXXZA 004245b8     moc_workmodels.obj
 0002:000005bc       ??staticMetaObject$initializer$@WorkLocationManager@@2P6AXXZA@@3P6AXXZA 004245bc     moc_workmodels.obj
 0002:000005c0       ??staticMetaObject$initializer$@TargetMachineObject@@2P6AXXZA@@3P6AXXZA 004245c0     moc_workmodels.obj
 0002:000005c4       ??staticMetaObject$initializer$@ConfigFileConverter@@2P6AXXZA@@3P6AXXZA 004245c4     moc_workmodels.obj
 0002:000005c8       ??staticMetaObject$initializer$@AdministratorChecker@@2P6AXXZA@@3P6AXXZA 004245c8     moc_workmodels.obj
 0002:000005d4       ?pre_c_initializer@@3P6AHXZA 004245d4     MSVCRT:exe_winmain.obj
 0002:000005d8       ?post_pgo_initializer@@3P6AHXZA 004245d8     MSVCRT:exe_winmain.obj
 0002:000005dc       ?__scrt_initialize_tss_var@@3P6AHXZA 004245dc     MSVCRT:thread_safe_statics.obj
 0002:000011f8       ?qt_resource_data@@3QBEB   004251f8     qrc_qml.obj
 0002:0004ce58       ?qt_resource_name@@3QBEB   00470e58     qrc_qml.obj
 0002:0004d1a8       ?qt_resource_struct@@3QBEB 004711a8     qrc_qml.obj
 0002:0004d440       ?qt_meta_stringdata_SubThreadWorker@@3Uqt_meta_stringdata_SubThreadWorker_t@@B 00471440     moc_workflowprotocol.obj
 0002:0004d5c8       ?qt_meta_data_SubThreadWorker@@3QBIB 004715c8     moc_workflowprotocol.obj
 0002:0004d720       ?qt_meta_stringdata_WorkflowController@@3Uqt_meta_stringdata_WorkflowController_t@@B 00471720     moc_workflowprotocol.obj
 0002:0004d8b8       ?qt_meta_data_WorkflowController@@3QBIB 004718b8     moc_workflowprotocol.obj
 0002:0004da10       ?qt_meta_stringdata_SubThreadCheckWorker@@3Uqt_meta_stringdata_SubThreadCheckWorker_t@@B 00471a10     moc_workflowChecker.obj
 0002:0004dab8       ?qt_meta_data_SubThreadCheckWorker@@3QBIB 00471ab8     moc_workflowChecker.obj
 0002:0004db70       ?qt_meta_stringdata_WorkflowCheckerController@@3Uqt_meta_stringdata_WorkflowCheckerController_t@@B 00471b70     moc_workflowChecker.obj
 0002:0004dc38       ?qt_meta_data_WorkflowCheckerController@@3QBIB 00471c38     moc_workflowChecker.obj
 0002:0004dcec       ?qt_meta_stringdata_configFileHandler@@3Uqt_meta_stringdata_configFileHandler_t@@B 00471cec     moc_configfilehandler.obj
 0002:0004dd10       ?qt_meta_data_configFileHandler@@3QBIB 00471d10     moc_configfilehandler.obj
 0002:0004dd50       ?qt_meta_stringdata_EnvironmentVariant@@3Uqt_meta_stringdata_EnvironmentVariant_t@@B 00471d50     moc_environmentvariant.obj
 0002:0004ddb0       ?qt_meta_data_EnvironmentVariant@@3QBIB 00471db0     moc_environmentvariant.obj
 0002:0004de08       ?qt_meta_data_WorkLocationManager@@3QBIB 00471e08     moc_workmodels.obj
 0002:0004dec8       ?qt_meta_stringdata_OperationParamSelector@@3Uqt_meta_stringdata_OperationParamSelector_t@@B 00471ec8     moc_workmodels.obj
 0002:0004e0b0       ?qt_meta_stringdata_TargetMachineObject@@3Uqt_meta_stringdata_TargetMachineObject_t@@B 004720b0     moc_workmodels.obj
 0002:0004e1a0       ?qt_meta_data_OperationParamSelector@@3QBIB 004721a0     moc_workmodels.obj
 0002:0004e2e8       ?qt_meta_data_TargetMachineObject@@3QBIB 004722e8     moc_workmodels.obj
 0002:0004e398       ?qt_meta_stringdata_ConfigFileConverter@@3Uqt_meta_stringdata_ConfigFileConverter_t@@B 00472398     moc_workmodels.obj
 0002:0004e428       ?qt_meta_stringdata_SingleOperationObject@@3Uqt_meta_stringdata_SingleOperationObject_t@@B 00472428     moc_workmodels.obj
 0002:0004e4a8       ?qt_meta_data_ConfigFileConverter@@3QBIB 004724a8     moc_workmodels.obj
 0002:0004e528       ?qt_meta_data_SingleOperationObject@@3QBIB 00472528     moc_workmodels.obj
 0002:0004e590       ?qt_meta_stringdata_AdministratorChecker@@3Uqt_meta_stringdata_AdministratorChecker_t@@B 00472590     moc_workmodels.obj
 0002:0004e610       ?qt_meta_data_AdministratorChecker@@3QBIB 00472610     moc_workmodels.obj
 0002:0004e678       ?qt_meta_stringdata_PlanSelector@@3Uqt_meta_stringdata_PlanSelector_t@@B 00472678     moc_workmodels.obj
 0002:0004eaf8       ?qt_meta_data_PlanSelector@@3QBIB 00472af8     moc_workmodels.obj
 0002:0004eea0       ?qt_meta_stringdata_OperationParamObject@@3Uqt_meta_stringdata_OperationParamObject_t@@B 00472ea0     moc_workmodels.obj
 0002:0004f238       ?qt_meta_data_OperationParamObject@@3QBIB 00473238     moc_workmodels.obj
 0002:0004f4a8       ?qt_meta_stringdata_PlanController@@3Uqt_meta_stringdata_PlanController_t@@B 004734a8     moc_workmodels.obj
 0002:0004f5b8       ?qt_meta_data_PlanController@@3QBIB 004735b8     moc_workmodels.obj
 0002:0004f688       ?qt_meta_stringdata_StatusViewWatcher@@3Uqt_meta_stringdata_StatusViewWatcher_t@@B 00473688     moc_workmodels.obj
 0002:0004f718       ?qt_meta_data_StatusViewWatcher@@3QBIB 00473718     moc_workmodels.obj
 0002:0004f790       ?qt_meta_stringdata_WorkLocationManager@@3Uqt_meta_stringdata_WorkLocationManager_t@@B 00473790     moc_workmodels.obj
 0002:0004f9c8       _GS_ExceptionPointers      004739c8     MSVCRT:gs_report.obj
 0002:00050bb8       __ehfuncinfo$?connectToServer@Communication@@QAE_NABVQString@@G@Z 00474bb8     communication.obj
 0002:00050bdc       __unwindtable$?connectToServer@Communication@@QAE_NABVQString@@G@Z 00474bdc     communication.obj
 0002:00050c04       __catchsym$??0?$QList@VQString@@@@QAE@ABV0@@Z$7 00474c04     workflowprotocol.obj
 0002:00050c14       __unwindtable$??0?$QList@VQString@@@@QAE@ABV0@@Z 00474c14     workflowprotocol.obj
 0002:00050c24       __tryblocktable$??0?$QList@VQString@@@@QAE@ABV0@@Z 00474c24     workflowprotocol.obj
 0002:00050c38       __ehfuncinfo$??0?$QList@VQString@@@@QAE@ABV0@@Z 00474c38     workflowprotocol.obj
 0002:00050c5c       __catchsym$?append@?$QList@VQString@@@@QAEXABVQString@@@Z$11 00474c5c     workflowprotocol.obj
 0002:00050c6c       __tryblocktable$?append@?$QList@VQString@@@@QAEXABVQString@@@Z 00474c6c     workflowprotocol.obj
 0002:00050c80       __ehfuncinfo$?append@?$QList@VQString@@@@QAEXABVQString@@@Z 00474c80     workflowprotocol.obj
 0002:00050ca4       __unwindtable$?append@?$QList@VQString@@@@QAEXABVQString@@@Z 00474ca4     workflowprotocol.obj
 0002:00050cd4       __catchsym$?detach_helper_grow@?$QList@VQString@@@@AAEPAUNode@1@HH@Z$12 00474cd4     workflowprotocol.obj
 0002:00050ce4       __catchsym$?detach_helper_grow@?$QList@VQString@@@@AAEPAUNode@1@HH@Z$11 00474ce4     workflowprotocol.obj
 0002:00050cf4       __unwindtable$?detach_helper_grow@?$QList@VQString@@@@AAEPAUNode@1@HH@Z 00474cf4     workflowprotocol.obj
 0002:00050d14       __ehfuncinfo$?detach_helper_grow@?$QList@VQString@@@@AAEPAUNode@1@HH@Z 00474d14     workflowprotocol.obj
 0002:00050d38       __tryblocktable$?detach_helper_grow@?$QList@VQString@@@@AAEPAUNode@1@HH@Z 00474d38     workflowprotocol.obj
 0002:00050d60       __ehfuncinfo$?initProtocol@WorkflowProtocol@@QAE_NABVQString@@@Z 00474d60     workflowprotocol.obj
 0002:00050d84       __unwindtable$?initProtocol@WorkflowProtocol@@QAE_NABVQString@@@Z 00474d84     workflowprotocol.obj
 0002:00050db4       __ehfuncinfo$?parseJsonObjectToSendFrame@WorkflowProtocol@@QAE_NABVQJsonObject@@AAV2@@Z 00474db4     workflowprotocol.obj
 0002:00050dd8       __unwindtable$?parseJsonObjectToSendFrame@WorkflowProtocol@@QAE_NABVQJsonObject@@AAV2@@Z 00474dd8     workflowprotocol.obj
 0002:00050f40       __unwindtable$?formatRecvFrameToJsonObject@WorkflowProtocol@@QAE_NAAVQJsonObject@@@Z 00474f40     workflowprotocol.obj
 0002:00050f50       __ehfuncinfo$?formatRecvFrameToJsonObject@WorkflowProtocol@@QAE_NAAVQJsonObject@@@Z 00474f50     workflowprotocol.obj
 0002:00050f74       __unwindtable$?parseAckFrame@WorkflowProtocol@@QAE_NABVQByteArray@@AAVQJsonObject@@@Z 00474f74     workflowprotocol.obj
 0002:00050f7c       __ehfuncinfo$?parseAckFrame@WorkflowProtocol@@QAE_NABVQByteArray@@AAVQJsonObject@@@Z 00474f7c     workflowprotocol.obj
 0002:00050fa0       __ehfuncinfo$?serializeSendFrame@WorkflowProtocol@@QAE?AVQByteArray@@XZ 00474fa0     workflowprotocol.obj
 0002:00050fc4       __unwindtable$?serializeSendFrame@WorkflowProtocol@@QAE?AVQByteArray@@XZ 00474fc4     workflowprotocol.obj
 0002:00050ff4       __unwindtable$?unserializeRecvFrame@WorkflowProtocol@@QAEXABVQByteArray@@@Z 00474ff4     workflowprotocol.obj
 0002:00050ffc       __ehfuncinfo$?unserializeRecvFrame@WorkflowProtocol@@QAEXABVQByteArray@@@Z 00474ffc     workflowprotocol.obj
 0002:00051020       __ehfuncinfo$?doTunning@SubThreadWorker@@QAEXABVQJsonObject@@@Z 00475020     workflowprotocol.obj
 0002:00051044       __unwindtable$?doTunning@SubThreadWorker@@QAEXABVQJsonObject@@@Z 00475044     workflowprotocol.obj
 0002:00051084       __ehfuncinfo$?doWork@SubThreadWorker@@QAEXABVQJsonObject@@@Z 00475084     workflowprotocol.obj
 0002:000510a8       __unwindtable$?doWork@SubThreadWorker@@QAEXABVQJsonObject@@@Z 004750a8     workflowprotocol.obj
 0002:00051118       __ehfuncinfo$?handleControlCommand@SubThreadWorker@@IAE_NAAVCommunication@@AAVQJsonObject@@@Z 00475118     workflowprotocol.obj
 0002:0005113c       __unwindtable$?handleControlCommand@SubThreadWorker@@IAE_NAAVCommunication@@AAVQJsonObject@@@Z 0047513c     workflowprotocol.obj
 0002:000512ec       __ehfuncinfo$?handleLogicalCommand@SubThreadWorker@@IAE_NAAVQJsonObject@@AAH@Z 004752ec     workflowprotocol.obj
 0002:00051310       __unwindtable$?handleLogicalCommand@SubThreadWorker@@IAE_NAAVQJsonObject@@AAH@Z 00475310     workflowprotocol.obj
 0002:00051488       __ehfuncinfo$?isLogicalCommand@SubThreadWorker@@IAE_NABVQString@@@Z 00475488     workflowprotocol.obj
 0002:000514ac       __unwindtable$?isLogicalCommand@SubThreadWorker@@IAE_NABVQString@@@Z 004754ac     workflowprotocol.obj
 0002:000514d4       __ehfuncinfo$?isLoopCommand@SubThreadWorker@@IAE_NABVQString@@@Z 004754d4     workflowprotocol.obj
 0002:000514f8       __unwindtable$?isLoopCommand@SubThreadWorker@@IAE_NABVQString@@@Z 004754f8     workflowprotocol.obj
 0002:00051528       __ehfuncinfo$?handleLoopCommand@SubThreadWorker@@IAE_NAAVQJsonObject@@AAH@Z 00475528     workflowprotocol.obj
 0002:0005154c       __unwindtable$?handleLoopCommand@SubThreadWorker@@IAE_NAAVQJsonObject@@AAH@Z 0047554c     workflowprotocol.obj
 0002:00051694       __unwindtable$??4?$QList@UloopControl@SubThreadWorker@@@@QAEAAV0@$$QAV0@@Z 00475694     workflowprotocol.obj
 0002:0005169c       __ehfuncinfo$??4?$QList@UloopControl@SubThreadWorker@@@@QAEAAV0@$$QAV0@@Z 0047569c     workflowprotocol.obj
 0002:000516c0       __catchsym$?append@?$QList@UloopControl@SubThreadWorker@@@@QAEXABUloopControl@SubThreadWorker@@@Z$10 004756c0     workflowprotocol.obj
 0002:000516d0       __catchsym$?append@?$QList@UloopControl@SubThreadWorker@@@@QAEXABUloopControl@SubThreadWorker@@@Z$9 004756d0     workflowprotocol.obj
 0002:000516e0       __ehfuncinfo$?append@?$QList@UloopControl@SubThreadWorker@@@@QAEXABUloopControl@SubThreadWorker@@@Z 004756e0     workflowprotocol.obj
 0002:00051704       __tryblocktable$?append@?$QList@UloopControl@SubThreadWorker@@@@QAEXABUloopControl@SubThreadWorker@@@Z 00475704     workflowprotocol.obj
 0002:0005172c       __unwindtable$?append@?$QList@UloopControl@SubThreadWorker@@@@QAEXABUloopControl@SubThreadWorker@@@Z 0047572c     workflowprotocol.obj
 0002:0005175c       __catchsym$?detach_helper_grow@?$QList@UloopControl@SubThreadWorker@@@@AAEPAUNode@1@HH@Z$10 0047575c     workflowprotocol.obj
 0002:0005176c       __catchsym$?detach_helper_grow@?$QList@UloopControl@SubThreadWorker@@@@AAEPAUNode@1@HH@Z$9 0047576c     workflowprotocol.obj
 0002:0005177c       __unwindtable$?detach_helper_grow@?$QList@UloopControl@SubThreadWorker@@@@AAEPAUNode@1@HH@Z 0047577c     workflowprotocol.obj
 0002:0005179c       __ehfuncinfo$?detach_helper_grow@?$QList@UloopControl@SubThreadWorker@@@@AAEPAUNode@1@HH@Z 0047579c     workflowprotocol.obj
 0002:000517c0       __tryblocktable$?detach_helper_grow@?$QList@UloopControl@SubThreadWorker@@@@AAEPAUNode@1@HH@Z 004757c0     workflowprotocol.obj
 0002:000517e8       __catchsym$?detach_helper@?$QList@UloopControl@SubThreadWorker@@@@AAEXH@Z$7 004757e8     workflowprotocol.obj
 0002:000517f8       __unwindtable$?detach_helper@?$QList@UloopControl@SubThreadWorker@@@@AAEXH@Z 004757f8     workflowprotocol.obj
 0002:00051808       __tryblocktable$?detach_helper@?$QList@UloopControl@SubThreadWorker@@@@AAEXH@Z 00475808     workflowprotocol.obj
 0002:0005181c       __ehfuncinfo$?detach_helper@?$QList@UloopControl@SubThreadWorker@@@@AAEXH@Z 0047581c     workflowprotocol.obj
 0002:00051840       __catchsym$?node_copy@?$QList@UloopControl@SubThreadWorker@@@@AAEXPAUNode@1@00@Z$4 00475840     workflowprotocol.obj
 0002:00051850       __tryblocktable$?node_copy@?$QList@UloopControl@SubThreadWorker@@@@AAEXPAUNode@1@00@Z 00475850     workflowprotocol.obj
 0002:00051864       __unwindtable$?node_copy@?$QList@UloopControl@SubThreadWorker@@@@AAEXPAUNode@1@00@Z 00475864     workflowprotocol.obj
 0002:00051884       __ehfuncinfo$?node_copy@?$QList@UloopControl@SubThreadWorker@@@@AAEXPAUNode@1@00@Z 00475884     workflowprotocol.obj
 0002:000518a8       __unwindtable$??0WorkflowController@@QAE@PAVQObject@@@Z 004758a8     workflowprotocol.obj
 0002:000518c8       __ehfuncinfo$??0WorkflowController@@QAE@PAVQObject@@@Z 004758c8     workflowprotocol.obj
 0002:000518ec       __unwindtable$?taskStateChanged@WorkflowController@@QAEXABVQString@@H@Z 004758ec     workflowprotocol.obj
 0002:000518fc       __ehfuncinfo$?taskStateChanged@WorkflowController@@QAEXABVQString@@H@Z 004758fc     workflowprotocol.obj
 0002:00051920       __unwindtable$??4?$QList@VSinglePlanData@@@@QAEAAV0@$$QAV0@@Z 00475920     configfilehandler.obj
 0002:00051920       __unwindtable$??_GWorkflowController@@UAEPAXI@Z 00475920     workflowprotocol.obj
 0002:00051920       __unwindtable$??1SinglePlanData@@QAE@XZ 00475920     configfilehandler.obj
 0002:00051920       __unwindtable$??1SubThreadWorker@@UAE@XZ 00475920     workflowprotocol.obj
 0002:00051920       __unwindtable$??4?$QList@PAVQObject@@@@QAEAAV0@$$QAV0@@Z 00475920     workmodels.obj
 0002:00051920       __unwindtable$??4?$QList@H@@QAEAAV0@$$QAV0@@Z 00475920     configfilehandler.obj
 0002:00051920       __unwindtable$??_GWorkflowCheckerController@@UAEPAXI@Z 00475920     workflowChecker.obj
 0002:00051920       __unwindtable$??_GSinglePlanData@@QAEPAXI@Z 00475920     configfilehandler.obj
 0002:00051920       __unwindtable$??4SingleOperationData@@QAEAAV0@$$QAV0@@Z 00475920     environmentvariant.obj
 0002:00051928       __ehfuncinfo$??4?$QList@H@@QAEAAV0@$$QAV0@@Z 00475928     configfilehandler.obj
 0002:00051928       __ehfuncinfo$??_GSinglePlanData@@QAEPAXI@Z 00475928     configfilehandler.obj
 0002:00051928       __ehfuncinfo$??_GWorkflowCheckerController@@UAEPAXI@Z 00475928     workflowChecker.obj
 0002:00051928       __ehfuncinfo$??1SubThreadWorker@@UAE@XZ 00475928     workflowprotocol.obj
 0002:00051928       __ehfuncinfo$??4?$QList@VSinglePlanData@@@@QAEAAV0@$$QAV0@@Z 00475928     configfilehandler.obj
 0002:00051928       __ehfuncinfo$??1SinglePlanData@@QAE@XZ 00475928     configfilehandler.obj
 0002:00051928       __ehfuncinfo$??4?$QList@PAVQObject@@@@QAEAAV0@$$QAV0@@Z 00475928     workmodels.obj
 0002:00051928       __ehfuncinfo$??4SingleOperationData@@QAEAAV0@$$QAV0@@Z 00475928     environmentvariant.obj
 0002:00051928       __ehfuncinfo$??_GWorkflowController@@UAEPAXI@Z 00475928     workflowprotocol.obj
 0002:0005194c       __unwindtable$??H@YA?BVQString@@ABV0@PBD@Z 0047594c     configfilehandler.obj
 0002:0005195c       __ehfuncinfo$??H@YA?BVQString@@ABV0@PBD@Z 0047595c     configfilehandler.obj
 0002:00051980       __unwindtable$??H@YA?BVQString@@ABV0@0@Z 00475980     environmentvariant.obj
 0002:00051980       __unwindtable$??H@YA?BVQString@@PBDABV0@@Z 00475980     configfilehandler.obj
 0002:00051988       __ehfuncinfo$??H@YA?BVQString@@PBDABV0@@Z 00475988     configfilehandler.obj
 0002:00051988       __ehfuncinfo$??H@YA?BVQString@@ABV0@0@Z 00475988     environmentvariant.obj
 0002:000519ac       __unwindtable$??H@YA?BVQString@@ABV0@D@Z 004759ac     configfilehandler.obj
 0002:000519b4       __ehfuncinfo$??H@YA?BVQString@@ABV0@D@Z 004759b4     configfilehandler.obj
 0002:000519d8       __ehfuncinfo$??1WorkflowController@@UAE@XZ 004759d8     workflowprotocol.obj
 0002:000519d8       __ehfuncinfo$??1?$QList@VOperationParamData@@@@QAE@XZ 004759d8     configfilehandler.obj
 0002:000519d8       __ehfuncinfo$??1PlanController@@UAE@XZ 004759d8     workmodels.obj
 0002:000519d8       __ehfuncinfo$??1?$QList@VSinglePlanData@@@@QAE@XZ 004759d8     configfilehandler.obj
 0002:000519d8       __ehfuncinfo$??1?$QMap@VQString@@VOperationParamData@@@@QAE@XZ 004759d8     configfilehandler.obj
 0002:000519d8       __ehfuncinfo$??1?$QList@PAVQObject@@@@QAE@XZ 004759d8     main.obj
 0002:000519d8       __ehfuncinfo$??1?$QMap@VQString@@V1@@@QAE@XZ 004759d8     configfilehandler.obj
 0002:000519d8       __ehfuncinfo$??1?$QMap@VQString@@VQStringList@@@@QAE@XZ 004759d8     configfilehandler.obj
 0002:000519d8       __ehfuncinfo$??1?$QList@VQString@@@@QAE@XZ 004759d8     workflowprotocol.obj
 0002:000519d8       __ehfuncinfo$??1?$QList@VQByteArray@@@@QAE@XZ 004759d8     configfilehandler.obj
 0002:000519d8       __ehfuncinfo$??1?$QList@VSingleOperationData@@@@QAE@XZ 004759d8     configfilehandler.obj
 0002:000519d8       __ehfuncinfo$??1StatusViewWatcher@@UAE@XZ 004759d8     workmodels.obj
 0002:000519d8       __ehfuncinfo$??1WorkflowCheckerController@@UAE@XZ 004759d8     workflowChecker.obj
 0002:000519d8       __ehfuncinfo$??1?$QMap@VQString@@H@@QAE@XZ 004759d8     workflowChecker.obj
 0002:000519d8       __ehfuncinfo$??1?$QList@H@@QAE@XZ 004759d8     configfilehandler.obj
 0002:000519fc       __catchsym$?detach_helper@?$QList@VQByteArray@@@@AAEXH@Z$9 004759fc     configfilehandler.obj
 0002:00051a0c       __unwindtable$?detach_helper@?$QList@VQByteArray@@@@AAEXH@Z 00475a0c     configfilehandler.obj
 0002:00051a1c       __tryblocktable$?detach_helper@?$QList@VQByteArray@@@@AAEXH@Z 00475a1c     configfilehandler.obj
 0002:00051a30       __ehfuncinfo$?detach_helper@?$QList@VQByteArray@@@@AAEXH@Z 00475a30     configfilehandler.obj
 0002:00051a54       __catchsym$?detach_helper@?$QList@VQString@@@@AAEXH@Z$9 00475a54     configfilehandler.obj
 0002:00051a64       __unwindtable$?detach_helper@?$QList@VQString@@@@AAEXH@Z 00475a64     configfilehandler.obj
 0002:00051a74       __tryblocktable$?detach_helper@?$QList@VQString@@@@AAEXH@Z 00475a74     configfilehandler.obj
 0002:00051a88       __ehfuncinfo$?detach_helper@?$QList@VQString@@@@AAEXH@Z 00475a88     configfilehandler.obj
 0002:00051aac       __unwindtable$??Cconst_iterator@QJsonArray@@QBE?AVQJsonValuePtr@@XZ 00475aac     configfilehandler.obj
 0002:00051ab4       __ehfuncinfo$??Cconst_iterator@QJsonArray@@QBE?AVQJsonValuePtr@@XZ 00475ab4     configfilehandler.obj
 0002:00051ad8       __ehfuncinfo$??0OperationParamData@@QAE@ABVQString@@00ABVQStringList@@_NHH0V?$QList@H@@00HH2@Z 00475ad8     configfilehandler.obj
 0002:00051afc       __unwindtable$??0OperationParamData@@QAE@ABVQString@@00ABVQStringList@@_NHH0V?$QList@H@@00HH2@Z 00475afc     configfilehandler.obj
 0002:00051b54       __ehfuncinfo$??0OperationParamData@@QAE@ABV0@@Z 00475b54     configfilehandler.obj
 0002:00051b78       __unwindtable$??0OperationParamData@@QAE@ABV0@@Z 00475b78     configfilehandler.obj
 0002:00051bc0       __catchsym$??0?$QList@PAVQObject@@@@QAE@ABV0@@Z$7 00475bc0     workmodels.obj
 0002:00051bc0       __catchsym$??0?$QList@H@@QAE@ABV0@@Z$7 00475bc0     configfilehandler.obj
 0002:00051bd0       __unwindtable$??0?$QList@PAVQObject@@@@QAE@ABV0@@Z 00475bd0     workmodels.obj
 0002:00051bd0       __unwindtable$??0?$QList@H@@QAE@ABV0@@Z 00475bd0     configfilehandler.obj
 0002:00051be0       __tryblocktable$??0?$QList@H@@QAE@ABV0@@Z 00475be0     configfilehandler.obj
 0002:00051be0       __tryblocktable$??0?$QList@PAVQObject@@@@QAE@ABV0@@Z 00475be0     workmodels.obj
 0002:00051bf4       __ehfuncinfo$??0?$QList@PAVQObject@@@@QAE@ABV0@@Z 00475bf4     workmodels.obj
 0002:00051bf4       __ehfuncinfo$??0?$QList@H@@QAE@ABV0@@Z 00475bf4     configfilehandler.obj
 0002:00051c18       __catchsym$?append@?$QList@H@@QAEXABH@Z$9 00475c18     configfilehandler.obj
 0002:00051c18       __catchsym$?append@?$QList@PAVQObject@@@@QAEXABQAVQObject@@@Z$9 00475c18     workmodels.obj
 0002:00051c28       __tryblocktable$?append@?$QList@PAVQObject@@@@QAEXABQAVQObject@@@Z 00475c28     workmodels.obj
 0002:00051c28       __tryblocktable$?append@?$QList@H@@QAEXABH@Z 00475c28     configfilehandler.obj
 0002:00051c3c       __ehfuncinfo$?append@?$QList@H@@QAEXABH@Z 00475c3c     configfilehandler.obj
 0002:00051c3c       __ehfuncinfo$?append@?$QList@PAVQObject@@@@QAEXABQAVQObject@@@Z 00475c3c     workmodels.obj
 0002:00051c60       __unwindtable$?append@?$QList@PAVQObject@@@@QAEXABQAVQObject@@@Z 00475c60     workmodels.obj
 0002:00051c60       __unwindtable$?append@?$QList@H@@QAEXABH@Z 00475c60     configfilehandler.obj
 0002:00051c90       __catchsym$??0?$QList@VOperationParamData@@@@QAE@ABV0@@Z$7 00475c90     configfilehandler.obj
 0002:00051ca0       __unwindtable$??0?$QList@VOperationParamData@@@@QAE@ABV0@@Z 00475ca0     configfilehandler.obj
 0002:00051cb0       __tryblocktable$??0?$QList@VOperationParamData@@@@QAE@ABV0@@Z 00475cb0     configfilehandler.obj
 0002:00051cc4       __ehfuncinfo$??0?$QList@VOperationParamData@@@@QAE@ABV0@@Z 00475cc4     configfilehandler.obj
 0002:00051ce8       __catchsym$?append@?$QList@VOperationParamData@@@@QAEXABVOperationParamData@@@Z$16 00475ce8     configfilehandler.obj
 0002:00051cf8       __catchsym$?append@?$QList@VOperationParamData@@@@QAEXABVOperationParamData@@@Z$15 00475cf8     configfilehandler.obj
 0002:00051d08       __ehfuncinfo$?append@?$QList@VOperationParamData@@@@QAEXABVOperationParamData@@@Z 00475d08     configfilehandler.obj
 0002:00051d2c       __tryblocktable$?append@?$QList@VOperationParamData@@@@QAEXABVOperationParamData@@@Z 00475d2c     configfilehandler.obj
 0002:00051d54       __unwindtable$?append@?$QList@VOperationParamData@@@@QAEXABVOperationParamData@@@Z 00475d54     configfilehandler.obj
 0002:00051db4       __catchsym$?detach_helper_grow@?$QList@VOperationParamData@@@@AAEPAUNode@1@HH@Z$10 00475db4     configfilehandler.obj
 0002:00051dc4       __catchsym$?detach_helper_grow@?$QList@VOperationParamData@@@@AAEPAUNode@1@HH@Z$9 00475dc4     configfilehandler.obj
 0002:00051dd4       __unwindtable$?detach_helper_grow@?$QList@VOperationParamData@@@@AAEPAUNode@1@HH@Z 00475dd4     configfilehandler.obj
 0002:00051df4       __ehfuncinfo$?detach_helper_grow@?$QList@VOperationParamData@@@@AAEPAUNode@1@HH@Z 00475df4     configfilehandler.obj
 0002:00051e18       __tryblocktable$?detach_helper_grow@?$QList@VOperationParamData@@@@AAEPAUNode@1@HH@Z 00475e18     configfilehandler.obj
 0002:00051e40       __catchsym$?node_copy@?$QList@VOperationParamData@@@@AAEXPAUNode@1@00@Z$8 00475e40     configfilehandler.obj
 0002:00051e50       __tryblocktable$?node_copy@?$QList@VOperationParamData@@@@AAEXPAUNode@1@00@Z 00475e50     configfilehandler.obj
 0002:00051e64       __ehfuncinfo$?node_copy@?$QList@VOperationParamData@@@@AAEXPAUNode@1@00@Z 00475e64     configfilehandler.obj
 0002:00051e88       __unwindtable$?node_copy@?$QList@VOperationParamData@@@@AAEXPAUNode@1@00@Z 00475e88     configfilehandler.obj
 0002:00051eb8       __unwindtable$??_GPlanController@@UAEPAXI@Z 00475eb8     workmodels.obj
 0002:00051eb8       __unwindtable$??1OperationParamData@@QAE@XZ 00475eb8     configfilehandler.obj
 0002:00051eb8       __unwindtable$??_G?$QQmlElement@VTextFieldDoubleValidator@@@QQmlPrivate@@UAEPAXI@Z 00475eb8     main.obj
 0002:00051eb8       __unwindtable$??_G?$QQmlElement@VPlanSelector@@@QQmlPrivate@@UAEPAXI@Z 00475eb8     main.obj
 0002:00051eb8       __unwindtable$??_G?$QQmlElement@VStatusViewWatcher@@@QQmlPrivate@@UAEPAXI@Z 00475eb8     main.obj
 0002:00051eb8       __unwindtable$??_GSingleOperationData@@QAEPAXI@Z 00475eb8     configfilehandler.obj
 0002:00051eb8       __unwindtable$??_G?$QQmlElement@VPlanController@@@QQmlPrivate@@UAEPAXI@Z 00475eb8     main.obj
 0002:00051eb8       __unwindtable$??_G?$QQmlElement@VOperationParamSelector@@@QQmlPrivate@@UAEPAXI@Z 00475eb8     main.obj
 0002:00051eb8       __unwindtable$??_G?$QQmlElement@VOperationParamObject@@@QQmlPrivate@@UAEPAXI@Z 00475eb8     main.obj
 0002:00051eb8       __unwindtable$??1?$QForeachContainer@$$CBV?$QList@VSingleOperationData@@@@@@QAE@XZ 00475eb8     environmentvariant.obj
 0002:00051eb8       __unwindtable$??1SingleOperationData@@QAE@XZ 00475eb8     configfilehandler.obj
 0002:00051eb8       __unwindtable$??_G?$QQmlElement@VWorkLocationManager@@@QQmlPrivate@@UAEPAXI@Z 00475eb8     main.obj
 0002:00051ec0       __ehfuncinfo$??1SingleOperationData@@QAE@XZ 00475ec0     configfilehandler.obj
 0002:00051ec0       __ehfuncinfo$??_GSingleOperationData@@QAEPAXI@Z 00475ec0     configfilehandler.obj
 0002:00051ec0       __ehfuncinfo$??1?$QForeachContainer@$$CBV?$QList@VSingleOperationData@@@@@@QAE@XZ 00475ec0     environmentvariant.obj
 0002:00051ec0       __ehfuncinfo$??_G?$QQmlElement@VPlanSelector@@@QQmlPrivate@@UAEPAXI@Z 00475ec0     main.obj
 0002:00051ec0       __ehfuncinfo$??_G?$QQmlElement@VTextFieldDoubleValidator@@@QQmlPrivate@@UAEPAXI@Z 00475ec0     main.obj
 0002:00051ec0       __ehfuncinfo$??_G?$QQmlElement@VOperationParamObject@@@QQmlPrivate@@UAEPAXI@Z 00475ec0     main.obj
 0002:00051ec0       __ehfuncinfo$??_G?$QQmlElement@VStatusViewWatcher@@@QQmlPrivate@@UAEPAXI@Z 00475ec0     main.obj
 0002:00051ec0       __ehfuncinfo$??_G?$QQmlElement@VOperationParamSelector@@@QQmlPrivate@@UAEPAXI@Z 00475ec0     main.obj
 0002:00051ec0       __ehfuncinfo$??_G?$QQmlElement@VPlanController@@@QQmlPrivate@@UAEPAXI@Z 00475ec0     main.obj
 0002:00051ec0       __ehfuncinfo$??1OperationParamData@@QAE@XZ 00475ec0     configfilehandler.obj
 0002:00051ec0       __ehfuncinfo$??_GPlanController@@UAEPAXI@Z 00475ec0     workmodels.obj
 0002:00051ec0       __ehfuncinfo$??_G?$QQmlElement@VWorkLocationManager@@@QQmlPrivate@@UAEPAXI@Z 00475ec0     main.obj
 0002:00051ee4       __unwindtable$??0SingleOperationData@@QAE@ABV0@@Z 00475ee4     configfilehandler.obj
 0002:00051eec       __ehfuncinfo$??0SingleOperationData@@QAE@ABV0@@Z 00475eec     configfilehandler.obj
 0002:00051f10       __catchsym$??0?$QList@VSingleOperationData@@@@QAE@ABV0@@Z$7 00475f10     configfilehandler.obj
 0002:00051f20       __unwindtable$??0?$QList@VSingleOperationData@@@@QAE@ABV0@@Z 00475f20     configfilehandler.obj
 0002:00051f30       __tryblocktable$??0?$QList@VSingleOperationData@@@@QAE@ABV0@@Z 00475f30     configfilehandler.obj
 0002:00051f44       __ehfuncinfo$??0?$QList@VSingleOperationData@@@@QAE@ABV0@@Z 00475f44     configfilehandler.obj
 0002:00051f68       __catchsym$?append@?$QList@VSingleOperationData@@@@QAEXABVSingleOperationData@@@Z$28 00475f68     configfilehandler.obj
 0002:00051f78       __catchsym$?append@?$QList@VSingleOperationData@@@@QAEXABVSingleOperationData@@@Z$27 00475f78     configfilehandler.obj
 0002:00051f88       __ehfuncinfo$?append@?$QList@VSingleOperationData@@@@QAEXABVSingleOperationData@@@Z 00475f88     configfilehandler.obj
 0002:00051fac       __tryblocktable$?append@?$QList@VSingleOperationData@@@@QAEXABVSingleOperationData@@@Z 00475fac     configfilehandler.obj
 0002:00051fd4       __unwindtable$?append@?$QList@VSingleOperationData@@@@QAEXABVSingleOperationData@@@Z 00475fd4     configfilehandler.obj
 0002:00052064       __catchsym$?detach_helper_grow@?$QList@VSingleOperationData@@@@AAEPAUNode@1@HH@Z$10 00476064     configfilehandler.obj
 0002:00052074       __catchsym$?detach_helper_grow@?$QList@VSingleOperationData@@@@AAEPAUNode@1@HH@Z$9 00476074     configfilehandler.obj
 0002:00052084       __unwindtable$?detach_helper_grow@?$QList@VSingleOperationData@@@@AAEPAUNode@1@HH@Z 00476084     configfilehandler.obj
 0002:000520a4       __ehfuncinfo$?detach_helper_grow@?$QList@VSingleOperationData@@@@AAEPAUNode@1@HH@Z 004760a4     configfilehandler.obj
 0002:000520c8       __tryblocktable$?detach_helper_grow@?$QList@VSingleOperationData@@@@AAEPAUNode@1@HH@Z 004760c8     configfilehandler.obj
 0002:000520f0       __unwindtable$?node_destruct@?$QList@VSingleOperationData@@@@AAEXPAUNode@1@@Z 004760f0     configfilehandler.obj
 0002:00052100       __ehfuncinfo$?node_destruct@?$QList@VSingleOperationData@@@@AAEXPAUNode@1@@Z 00476100     configfilehandler.obj
 0002:00052124       __catchsym$?node_copy@?$QList@VSingleOperationData@@@@AAEXPAUNode@1@00@Z$10 00476124     configfilehandler.obj
 0002:00052134       __tryblocktable$?node_copy@?$QList@VSingleOperationData@@@@AAEXPAUNode@1@00@Z 00476134     configfilehandler.obj
 0002:00052148       __ehfuncinfo$?node_copy@?$QList@VSingleOperationData@@@@AAEXPAUNode@1@00@Z 00476148     configfilehandler.obj
 0002:0005216c       __unwindtable$?node_copy@?$QList@VSingleOperationData@@@@AAEXPAUNode@1@00@Z 0047616c     configfilehandler.obj
 0002:000521ac       __unwindtable$?loadConfigFile@configFileHandler@@QAE_NABVQString@@@Z 004761ac     configfilehandler.obj
 0002:000521cc       __ehfuncinfo$?loadConfigFile@configFileHandler@@QAE_NABVQString@@@Z 004761cc     configfilehandler.obj
 0002:000521f0       __unwindtable$?toList@configFileHandler@@QAE?AVQStringList@@ABVQString@@@Z 004761f0     configfilehandler.obj
 0002:00052208       __ehfuncinfo$?toList@configFileHandler@@QAE?AVQStringList@@ABVQString@@@Z 00476208     configfilehandler.obj
 0002:0005222c       __ehfuncinfo$?ParseListMap@configFileHandler@@QAE?AV?$QMap@VQString@@VQStringList@@@@ABVQString@@@Z 0047622c     configfilehandler.obj
 0002:00052250       __unwindtable$?ParseListMap@configFileHandler@@QAE?AV?$QMap@VQString@@VQStringList@@@@ABVQString@@@Z 00476250     configfilehandler.obj
 0002:000522a8       __ehfuncinfo$?ParseMap@configFileHandler@@QAE?AV?$QMap@VQString@@V1@@@ABVQString@@@Z 004762a8     configfilehandler.obj
 0002:000522a8       __ehfuncinfo$?ParseMapRevertKeyValue@configFileHandler@@QAE?AV?$QMap@VQString@@V1@@@ABVQString@@@Z 004762a8     configfilehandler.obj
 0002:000522cc       __unwindtable$?ParseMap@configFileHandler@@QAE?AV?$QMap@VQString@@V1@@@ABVQString@@@Z 004762cc     configfilehandler.obj
 0002:000522cc       __unwindtable$?ParseMapRevertKeyValue@configFileHandler@@QAE?AV?$QMap@VQString@@V1@@@ABVQString@@@Z 004762cc     configfilehandler.obj
 0002:00052304       __ehfuncinfo$?ParseParamValue@configFileHandler@@QAE?AV?$QMap@VQString@@VOperationParamData@@@@ABVQString@@@Z 00476304     configfilehandler.obj
 0002:00052328       __unwindtable$?ParseParamValue@configFileHandler@@QAE?AV?$QMap@VQString@@VOperationParamData@@@@ABVQString@@@Z 00476328     configfilehandler.obj
 0002:00052550       __unwindtable$?GetLicense@configFileHandler@@QAE?AVQString@@XZ 00476550     configfilehandler.obj
 0002:00052550       __unwindtable$?ParseWorkPlaceConstraint@configFileHandler@@QAE?AVQJsonArray@@XZ 00476550     configfilehandler.obj
 0002:00052558       __ehfuncinfo$?GetLicense@configFileHandler@@QAE?AVQString@@XZ 00476558     configfilehandler.obj
 0002:00052558       __ehfuncinfo$?ParseWorkPlaceConstraint@configFileHandler@@QAE?AVQJsonArray@@XZ 00476558     configfilehandler.obj
 0002:0005257c       __unwindtable$?ParseHostIP@configFileHandler@@QAE?AVQString@@XZ 0047657c     configfilehandler.obj
 0002:0005259c       __ehfuncinfo$?ParseHostIP@configFileHandler@@QAE?AVQString@@XZ 0047659c     configfilehandler.obj
 0002:000525c0       __ehfuncinfo$?ParseHostSingleOperationThreshold@configFileHandler@@QAEHXZ 004765c0     configfilehandler.obj
 0002:000525c0       __ehfuncinfo$?ParseHostPort@configFileHandler@@QAEFXZ 004765c0     configfilehandler.obj
 0002:000525e4       __unwindtable$?ParseHostPort@configFileHandler@@QAEFXZ 004765e4     configfilehandler.obj
 0002:000525e4       __unwindtable$?ParseHostSingleOperationThreshold@configFileHandler@@QAEHXZ 004765e4     configfilehandler.obj
 0002:0005260c       __ehfuncinfo$?ParsePlanList@configFileHandler@@QAEXAAV?$QList@VSinglePlanData@@@@ABV?$QMap@VQString@@VOperationParamData@@@@@Z 0047660c     configfilehandler.obj
 0002:00052630       __unwindtable$?ParsePlanList@configFileHandler@@QAEXAAV?$QList@VSinglePlanData@@@@ABV?$QMap@VQString@@VOperationParamData@@@@@Z 00476630     configfilehandler.obj
 0002:00052760       __ehfuncinfo$?SavePlanList@configFileHandler@@QAE_NABVQString@@ABV?$QList@VSinglePlanData@@@@ABV?$QMap@VQString@@VQStringList@@@@@Z 00476760     configfilehandler.obj
 0002:00052784       __unwindtable$?SavePlanList@configFileHandler@@QAE_NABVQString@@ABV?$QList@VSinglePlanData@@@@ABV?$QMap@VQString@@VQStringList@@@@@Z 00476784     configfilehandler.obj
 0002:000528bc       __ehfuncinfo$?SaveMachineConfig@configFileHandler@@QAE_NABVQString@@ABVMachineConfigData@@ABVQJsonObject@@@Z 004768bc     configfilehandler.obj
 0002:000528e0       __unwindtable$?SaveMachineConfig@configFileHandler@@QAE_NABVQString@@ABVMachineConfigData@@ABVQJsonObject@@@Z 004768e0     configfilehandler.obj
 0002:00052988       __unwindtable$?ParseWorkSpaceTypeList@configFileHandler@@QAEXAAVQJsonObject@@@Z 00476988     configfilehandler.obj
 0002:00052998       __ehfuncinfo$?ParseWorkSpaceTypeList@configFileHandler@@QAEXAAVQJsonObject@@@Z 00476998     configfilehandler.obj
 0002:000529bc       __ehfuncinfo$?ConvertCSVtoJSON@configFileHandler@@QAE_NABVQString@@0@Z 004769bc     configfilehandler.obj
 0002:000529e0       __unwindtable$?ConvertCSVtoJSON@configFileHandler@@QAE_NABVQString@@0@Z 004769e0     configfilehandler.obj
 0002:00052a20       __ehfuncinfo$?ConvertJSONtoCSV@configFileHandler@@QAE_NABVQString@@0@Z 00476a20     configfilehandler.obj
 0002:00052a44       __unwindtable$?ConvertJSONtoCSV@configFileHandler@@QAE_NABVQString@@0@Z 00476a44     configfilehandler.obj
 0002:00052abc       __ehfuncinfo$?ParsePlan@configFileHandler@@QAE?AVQString@@ABVQJsonArray@@@Z 00476abc     configfilehandler.obj
 0002:00052ae0       __unwindtable$?ParsePlan@configFileHandler@@QAE?AVQString@@ABVQJsonArray@@@Z 00476ae0     configfilehandler.obj
 0002:00052be0       __ehfuncinfo$?ParseWorkSpace@configFileHandler@@QAE?AVQString@@ABVQJsonObject@@@Z 00476be0     configfilehandler.obj
 0002:00052c04       __unwindtable$?ParseWorkSpace@configFileHandler@@QAE?AVQString@@ABVQJsonObject@@@Z 00476c04     configfilehandler.obj
 0002:00052ce4       __unwindtable$?ImportConfig@configFileHandler@@QAE_NAAVQJsonObject@@ABVQByteArray@@@Z 00476ce4     configfilehandler.obj
 0002:00052cf4       __ehfuncinfo$?ImportConfig@configFileHandler@@QAE_NAAVQJsonObject@@ABVQByteArray@@@Z 00476cf4     configfilehandler.obj
 0002:00052d18       __ehfuncinfo$?ImportWorkSpace@configFileHandler@@QAE_NABV?$QList@VQByteArray@@@@AAVQJsonObject@@@Z 00476d18     configfilehandler.obj
 0002:00052d3c       __unwindtable$?ImportWorkSpace@configFileHandler@@QAE_NABV?$QList@VQByteArray@@@@AAVQJsonObject@@@Z 00476d3c     configfilehandler.obj
 0002:00052ea4       __ehfuncinfo$?ImportPlan@configFileHandler@@QAE_NABV?$QList@VQByteArray@@@@AAVQJsonObject@@@Z 00476ea4     configfilehandler.obj
 0002:00052ec8       __unwindtable$?ImportPlan@configFileHandler@@QAE_NABV?$QList@VQByteArray@@@@AAVQJsonObject@@@Z 00476ec8     configfilehandler.obj
 0002:00053010       __unwindtable$??A?$QMap@VQString@@VQStringList@@@@QAEAAVQStringList@@ABVQString@@@Z 00477010     configfilehandler.obj
 0002:00053018       __ehfuncinfo$??A?$QMap@VQString@@VQStringList@@@@QAEAAVQStringList@@ABVQString@@@Z 00477018     configfilehandler.obj
 0002:0005303c       __unwindtable$??A?$QMap@VQString@@V1@@@QAEAAVQString@@ABV1@@Z 0047703c     configfilehandler.obj
 0002:00053044       __ehfuncinfo$??A?$QMap@VQString@@V1@@@QAEAAVQString@@ABV1@@Z 00477044     configfilehandler.obj
 0002:00053068       __unwindtable$??A?$QMap@VQString@@VOperationParamData@@@@QAEAAVOperationParamData@@ABVQString@@@Z 00477068     configfilehandler.obj
 0002:00053070       __ehfuncinfo$??A?$QMap@VQString@@VOperationParamData@@@@QAEAAVOperationParamData@@ABVQString@@@Z 00477070     configfilehandler.obj
 0002:00053094       __unwindtable$??A?$QMap@VQString@@VOperationParamData@@@@QBE?BVOperationParamData@@ABVQString@@@Z 00477094     configfilehandler.obj
 0002:0005309c       __ehfuncinfo$??A?$QMap@VQString@@VOperationParamData@@@@QBE?BVOperationParamData@@ABVQString@@@Z 0047709c     configfilehandler.obj
 0002:000530c0       __catchsym$?append@?$QList@VSinglePlanData@@@@QAEXABVSinglePlanData@@@Z$28 004770c0     configfilehandler.obj
 0002:000530d0       __catchsym$?append@?$QList@VSinglePlanData@@@@QAEXABVSinglePlanData@@@Z$27 004770d0     configfilehandler.obj
 0002:000530e0       __ehfuncinfo$?append@?$QList@VSinglePlanData@@@@QAEXABVSinglePlanData@@@Z 004770e0     configfilehandler.obj
 0002:00053104       __tryblocktable$?append@?$QList@VSinglePlanData@@@@QAEXABVSinglePlanData@@@Z 00477104     configfilehandler.obj
 0002:0005312c       __unwindtable$?append@?$QList@VSinglePlanData@@@@QAEXABVSinglePlanData@@@Z 0047712c     configfilehandler.obj
 0002:000531bc       __catchsym$?detach_helper_grow@?$QList@VSinglePlanData@@@@AAEPAUNode@1@HH@Z$10 004771bc     configfilehandler.obj
 0002:000531cc       __catchsym$?detach_helper_grow@?$QList@VSinglePlanData@@@@AAEPAUNode@1@HH@Z$9 004771cc     configfilehandler.obj
 0002:000531dc       __unwindtable$?detach_helper_grow@?$QList@VSinglePlanData@@@@AAEPAUNode@1@HH@Z 004771dc     configfilehandler.obj
 0002:000531fc       __ehfuncinfo$?detach_helper_grow@?$QList@VSinglePlanData@@@@AAEPAUNode@1@HH@Z 004771fc     configfilehandler.obj
 0002:00053220       __tryblocktable$?detach_helper_grow@?$QList@VSinglePlanData@@@@AAEPAUNode@1@HH@Z 00477220     configfilehandler.obj
 0002:00053248       __catchsym$?node_copy@?$QList@VSinglePlanData@@@@AAEXPAUNode@1@00@Z$10 00477248     configfilehandler.obj
 0002:00053258       __tryblocktable$?node_copy@?$QList@VSinglePlanData@@@@AAEXPAUNode@1@00@Z 00477258     configfilehandler.obj
 0002:0005326c       __ehfuncinfo$?node_copy@?$QList@VSinglePlanData@@@@AAEXPAUNode@1@00@Z 0047726c     configfilehandler.obj
 0002:00053290       __unwindtable$?node_copy@?$QList@VSinglePlanData@@@@AAEXPAUNode@1@00@Z 00477290     configfilehandler.obj
 0002:000532d0       __unwindtable$?node_destruct@?$QList@VSinglePlanData@@@@AAEXPAUNode@1@0@Z 004772d0     configfilehandler.obj
 0002:000532d0       __unwindtable$?node_destruct@?$QList@VSingleOperationData@@@@AAEXPAUNode@1@0@Z 004772d0     configfilehandler.obj
 0002:000532e0       __ehfuncinfo$?node_destruct@?$QList@VSinglePlanData@@@@AAEXPAUNode@1@0@Z 004772e0     configfilehandler.obj
 0002:000532e0       __ehfuncinfo$?node_destruct@?$QList@VSingleOperationData@@@@AAEXPAUNode@1@0@Z 004772e0     configfilehandler.obj
 0002:00053304       __catchsym$?createNode@?$QMapData@VQString@@VOperationParamData@@@@QAEPAU?$QMapNode@VQString@@VOperationParamData@@@@ABVQString@@ABVOperationParamData@@PAU2@_N@Z$7 00477304     configfilehandler.obj
 0002:00053314       __catchsym$?createNode@?$QMapData@VQString@@VOperationParamData@@@@QAEPAU?$QMapNode@VQString@@VOperationParamData@@@@ABVQString@@ABVOperationParamData@@PAU2@_N@Z$6 00477314     configfilehandler.obj
 0002:00053324       __ehfuncinfo$?createNode@?$QMapData@VQString@@VOperationParamData@@@@QAEPAU?$QMapNode@VQString@@VOperationParamData@@@@ABVQString@@ABVOperationParamData@@PAU2@_N@Z 00477324     configfilehandler.obj
 0002:00053348       __tryblocktable$?createNode@?$QMapData@VQString@@VOperationParamData@@@@QAEPAU?$QMapNode@VQString@@VOperationParamData@@@@ABVQString@@ABVOperationParamData@@PAU2@_N@Z 00477348     configfilehandler.obj
 0002:00053370       __unwindtable$?createNode@?$QMapData@VQString@@VOperationParamData@@@@QAEPAU?$QMapNode@VQString@@VOperationParamData@@@@ABVQString@@ABVOperationParamData@@PAU2@_N@Z 00477370     configfilehandler.obj
 0002:00053398       __catchsym$?createNode@?$QMapData@VQString@@VQStringList@@@@QAEPAU?$QMapNode@VQString@@VQStringList@@@@ABVQString@@ABVQStringList@@PAU2@_N@Z$8 00477398     configfilehandler.obj
 0002:000533a8       __catchsym$?createNode@?$QMapData@VQString@@VQStringList@@@@QAEPAU?$QMapNode@VQString@@VQStringList@@@@ABVQString@@ABVQStringList@@PAU2@_N@Z$7 004773a8     configfilehandler.obj
 0002:000533b8       __ehfuncinfo$?createNode@?$QMapData@VQString@@VQStringList@@@@QAEPAU?$QMapNode@VQString@@VQStringList@@@@ABVQString@@ABVQStringList@@PAU2@_N@Z 004773b8     configfilehandler.obj
 0002:000533dc       __tryblocktable$?createNode@?$QMapData@VQString@@VQStringList@@@@QAEPAU?$QMapNode@VQString@@VQStringList@@@@ABVQString@@ABVQStringList@@PAU2@_N@Z 004773dc     configfilehandler.obj
 0002:00053404       __unwindtable$?createNode@?$QMapData@VQString@@VQStringList@@@@QAEPAU?$QMapNode@VQString@@VQStringList@@@@ABVQString@@ABVQStringList@@PAU2@_N@Z 00477404     configfilehandler.obj
 0002:0005342c       __catchsym$??Y?$QList@VQString@@@@QAEAAV0@ABV0@@Z$14 0047742c     environmentvariant.obj
 0002:0005343c       __unwindtable$??Y?$QList@VQString@@@@QAEAAV0@ABV0@@Z 0047743c     environmentvariant.obj
 0002:0005344c       __tryblocktable$??Y?$QList@VQString@@@@QAEAAV0@ABV0@@Z 0047744c     environmentvariant.obj
 0002:00053460       __ehfuncinfo$??Y?$QList@VQString@@@@QAEAAV0@ABV0@@Z 00477460     environmentvariant.obj
 0002:00053484       __catchsym$?detach_helper@?$QList@H@@AAEXH@Z$7 00477484     environmentvariant.obj
 0002:00053494       __unwindtable$?detach_helper@?$QList@H@@AAEXH@Z 00477494     environmentvariant.obj
 0002:000534a4       __tryblocktable$?detach_helper@?$QList@H@@AAEXH@Z 004774a4     environmentvariant.obj
 0002:000534b8       __ehfuncinfo$?detach_helper@?$QList@H@@AAEXH@Z 004774b8     environmentvariant.obj
 0002:000534dc       __catchsym$?detach_helper@?$QList@VOperationParamData@@@@AAEXH@Z$7 004774dc     environmentvariant.obj
 0002:000534ec       __unwindtable$?detach_helper@?$QList@VOperationParamData@@@@AAEXH@Z 004774ec     environmentvariant.obj
 0002:000534fc       __tryblocktable$?detach_helper@?$QList@VOperationParamData@@@@AAEXH@Z 004774fc     environmentvariant.obj
 0002:00053510       __ehfuncinfo$?detach_helper@?$QList@VOperationParamData@@@@AAEXH@Z 00477510     environmentvariant.obj
 0002:00053534       __unwindtable$??4SingleOperationData@@QAEAAV0@ABV0@@Z 00477534     environmentvariant.obj
 0002:00053534       __unwindtable$?clear@?$QList@VSinglePlanData@@@@QAEXXZ 00477534     configfilehandler.obj
 0002:00053534       __unwindtable$??4?$QList@VSingleOperationData@@@@QAEAAV0@ABV0@@Z 00477534     environmentvariant.obj
 0002:0005353c       __ehfuncinfo$?clear@?$QList@VSinglePlanData@@@@QAEXXZ 0047753c     configfilehandler.obj
 0002:0005353c       __ehfuncinfo$??4SingleOperationData@@QAEAAV0@ABV0@@Z 0047753c     environmentvariant.obj
 0002:0005353c       __ehfuncinfo$??4?$QList@VSingleOperationData@@@@QAEAAV0@ABV0@@Z 0047753c     environmentvariant.obj
 0002:00053560       __catchsym$?insert@?$QList@VSingleOperationData@@@@QAEXHABVSingleOperationData@@@Z$28 00477560     environmentvariant.obj
 0002:00053570       __catchsym$?insert@?$QList@VSingleOperationData@@@@QAEXHABVSingleOperationData@@@Z$27 00477570     environmentvariant.obj
 0002:00053580       __ehfuncinfo$?insert@?$QList@VSingleOperationData@@@@QAEXHABVSingleOperationData@@@Z 00477580     environmentvariant.obj
 0002:000535a4       __tryblocktable$?insert@?$QList@VSingleOperationData@@@@QAEXHABVSingleOperationData@@@Z 004775a4     environmentvariant.obj
 0002:000535cc       __unwindtable$?insert@?$QList@VSingleOperationData@@@@QAEXHABVSingleOperationData@@@Z 004775cc     environmentvariant.obj
 0002:0005365c       __catchsym$?detach_helper@?$QList@VSingleOperationData@@@@AAEXH@Z$7 0047765c     environmentvariant.obj
 0002:0005366c       __unwindtable$?detach_helper@?$QList@VSingleOperationData@@@@AAEXH@Z 0047766c     environmentvariant.obj
 0002:0005367c       __tryblocktable$?detach_helper@?$QList@VSingleOperationData@@@@AAEXH@Z 0047767c     environmentvariant.obj
 0002:00053690       __ehfuncinfo$?detach_helper@?$QList@VSingleOperationData@@@@AAEXH@Z 00477690     environmentvariant.obj
 0002:000536b4       __unwindtable$?instance@EnvironmentVariant@@SAPAV1@XZ 004776b4     environmentvariant.obj
 0002:000536bc       __ehfuncinfo$?instance@EnvironmentVariant@@SAPAV1@XZ 004776bc     environmentvariant.obj
 0002:000536e0       __ehfuncinfo$?parseConfigFile@EnvironmentVariant@@QAEXABVQString@@@Z 004776e0     environmentvariant.obj
 0002:00053704       __unwindtable$?parseConfigFile@EnvironmentVariant@@QAEXABVQString@@@Z 00477704     environmentvariant.obj
 0002:000537a4       __unwindtable$?initProtocol@EnvironmentVariant@@QAEXABVQString@@@Z 004777a4     environmentvariant.obj
 0002:000537ac       __ehfuncinfo$?initProtocol@EnvironmentVariant@@QAEXABVQString@@@Z 004777ac     environmentvariant.obj
 0002:000537d0       __unwindtable$?initUserConfig@EnvironmentVariant@@QAEXABVQString@@@Z 004777d0     environmentvariant.obj
 0002:000537e8       __ehfuncinfo$?initUserConfig@EnvironmentVariant@@QAEXABVQString@@@Z 004777e8     environmentvariant.obj
 0002:0005380c       __ehfuncinfo$?initModels@EnvironmentVariant@@QAEXPAVQQmlContext@@@Z 0047780c     environmentvariant.obj
 0002:00053830       __unwindtable$?initModels@EnvironmentVariant@@QAEXPAVQQmlContext@@@Z 00477830     environmentvariant.obj
 0002:00053858       __unwindtable$?getOperationParams@EnvironmentVariant@@QAE?AV?$QList@VOperationParamData@@@@H@Z 00477858     environmentvariant.obj
 0002:00053870       __ehfuncinfo$?getOperationParams@EnvironmentVariant@@QAE?AV?$QList@VOperationParamData@@@@H@Z 00477870     environmentvariant.obj
 0002:00053894       __unwindtable$?calculateLicense@EnvironmentVariant@@QAEXABVQString@@@Z 00477894     environmentvariant.obj
 0002:000538ac       __ehfuncinfo$?calculateLicense@EnvironmentVariant@@QAEXABVQString@@@Z 004778ac     environmentvariant.obj
 0002:000538d0       __unwindtable$?OperationNameList@EnvironmentVariant@@QAE?AVQStringList@@XZ 004778d0     environmentvariant.obj
 0002:000538d0       __unwindtable$?LogicalControlList@EnvironmentVariant@@QAE?AVQStringList@@XZ 004778d0     environmentvariant.obj
 0002:000538e8       __ehfuncinfo$?LogicalControlList@EnvironmentVariant@@QAE?AVQStringList@@XZ 004778e8     environmentvariant.obj
 0002:000538e8       __ehfuncinfo$?OperationNameList@EnvironmentVariant@@QAE?AVQStringList@@XZ 004778e8     environmentvariant.obj
 0002:0005390c       __unwindtable$?PlanList@EnvironmentVariant@@QAE?AVQStringList@@XZ 0047790c     environmentvariant.obj
 0002:00053914       __ehfuncinfo$?PlanList@EnvironmentVariant@@QAE?AVQStringList@@XZ 00477914     environmentvariant.obj
 0002:00053938       __ehfuncinfo$?StepList@EnvironmentVariant@@QAE?AVQStringList@@H@Z 00477938     environmentvariant.obj
 0002:0005395c       __unwindtable$?StepList@EnvironmentVariant@@QAE?AVQStringList@@H@Z 0047795c     environmentvariant.obj
 0002:000539c4       __ehfuncinfo$?planSelectStepListModel@EnvironmentVariant@@QAE?AVQStringList@@H@Z 004779c4     environmentvariant.obj
 0002:000539e8       __unwindtable$?planSelectStepListModel@EnvironmentVariant@@QAE?AVQStringList@@H@Z 004779e8     environmentvariant.obj
 0002:00053a18       __ehfuncinfo$?planStepParam@EnvironmentVariant@@QAE?AVSingleOperationData@@HH@Z 00477a18     environmentvariant.obj
 0002:00053a3c       __unwindtable$?planStepParam@EnvironmentVariant@@QAE?AVSingleOperationData@@HH@Z 00477a3c     environmentvariant.obj
 0002:00053a74       __unwindtable$?AddPlanStep@EnvironmentVariant@@QAEXHHH@Z 00477a74     environmentvariant.obj
 0002:00053a94       __ehfuncinfo$?AddPlanStep@EnvironmentVariant@@QAEXHHH@Z 00477a94     environmentvariant.obj
 0002:00053ab8       __unwindtable$?SetPlanStepToDefault@EnvironmentVariant@@QAEXHHH@Z 00477ab8     environmentvariant.obj
 0002:00053ab8       __unwindtable$?MovePlanStep@EnvironmentVariant@@QAEXHHH@Z 00477ab8     environmentvariant.obj
 0002:00053ac0       __ehfuncinfo$?MovePlanStep@EnvironmentVariant@@QAEXHHH@Z 00477ac0     environmentvariant.obj
 0002:00053ac0       __ehfuncinfo$?SetPlanStepToDefault@EnvironmentVariant@@QAEXHHH@Z 00477ac0     environmentvariant.obj
 0002:00053ae4       __ehfuncinfo$?AddPlan@EnvironmentVariant@@QAEXABVQString@@@Z 00477ae4     environmentvariant.obj
 0002:00053b08       __unwindtable$?AddPlan@EnvironmentVariant@@QAEXABVQString@@@Z 00477b08     environmentvariant.obj
 0002:00053b30       __unwindtable$?SavePlan@EnvironmentVariant@@QAE_NXZ 00477b30     environmentvariant.obj
 0002:00053b38       __ehfuncinfo$?SavePlan@EnvironmentVariant@@QAE_NXZ 00477b38     environmentvariant.obj
 0002:00053b5c       __ehfuncinfo$?StartPlan@EnvironmentVariant@@QAEXHH@Z 00477b5c     environmentvariant.obj
 0002:00053b80       __unwindtable$?StartPlan@EnvironmentVariant@@QAEXHH@Z 00477b80     environmentvariant.obj
 0002:00053c78       __unwindtable$?SaveMachineConfig@EnvironmentVariant@@QAE_NABVMachineConfigData@@@Z 00477c78     environmentvariant.obj
 0002:00053c80       __ehfuncinfo$?SaveMachineConfig@EnvironmentVariant@@QAE_NABVMachineConfigData@@@Z 00477c80     environmentvariant.obj
 0002:00053ca4       __ehfuncinfo$?formatSingleOperationParam@EnvironmentVariant@@QAE?AVQJsonObject@@ABVSingleOperationData@@@Z 00477ca4     environmentvariant.obj
 0002:00053cc8       __unwindtable$?formatSingleOperationParam@EnvironmentVariant@@QAE?AVQJsonObject@@ABVSingleOperationData@@@Z 00477cc8     environmentvariant.obj
 0002:00053d88       __unwindtable$?StartTunning@EnvironmentVariant@@QAEXABVSingleOperationData@@@Z 00477d88     environmentvariant.obj
 0002:00053da8       __ehfuncinfo$?StartTunning@EnvironmentVariant@@QAEXABVSingleOperationData@@@Z 00477da8     environmentvariant.obj
 0002:00053dcc       __unwindtable$?defaultValue@EnvironmentVariant@@QAE?AVSingleOperationData@@ABVQString@@@Z 00477dcc     environmentvariant.obj
 0002:00053dec       __ehfuncinfo$?defaultValue@EnvironmentVariant@@QAE?AVSingleOperationData@@ABVQString@@@Z 00477dec     environmentvariant.obj
 0002:00053e10       __ehfuncinfo$?setWorkLocationType@EnvironmentVariant@@QAE_NHHABVQString@@@Z 00477e10     environmentvariant.obj
 0002:00053e34       __unwindtable$?setWorkLocationType@EnvironmentVariant@@QAE_NHHABVQString@@@Z 00477e34     environmentvariant.obj
 0002:00053f04       __ehfuncinfo$?startCheckPlan@EnvironmentVariant@@QAEXH@Z 00477f04     environmentvariant.obj
 0002:00053f28       __unwindtable$?startCheckPlan@EnvironmentVariant@@QAEXH@Z 00477f28     environmentvariant.obj
 0002:00054020       __ehfuncinfo$?getBoardTypeIndexByPosition@EnvironmentVariant@@QAEHH@Z 00478020     environmentvariant.obj
 0002:00054044       __unwindtable$?getBoardTypeIndexByPosition@EnvironmentVariant@@QAEHH@Z 00478044     environmentvariant.obj
 0002:000540fc       __ehfuncinfo$?getPlanBoardTypeIndexByPosition@EnvironmentVariant@@QAEHHH@Z 004780fc     environmentvariant.obj
 0002:00054120       __unwindtable$?getPlanBoardTypeIndexByPosition@EnvironmentVariant@@QAEHHH@Z 00478120     environmentvariant.obj
 0002:000541c8       __unwindtable$?ExportConfig@EnvironmentVariant@@QAE_NABVQString@@@Z 004781c8     environmentvariant.obj
 0002:000541c8       __unwindtable$?ImportConfig@EnvironmentVariant@@QAE_NABVQString@@@Z 004781c8     environmentvariant.obj
 0002:000541d8       __ehfuncinfo$?ImportConfig@EnvironmentVariant@@QAE_NABVQString@@@Z 004781d8     environmentvariant.obj
 0002:000541d8       __ehfuncinfo$?ExportConfig@EnvironmentVariant@@QAE_NABVQString@@@Z 004781d8     environmentvariant.obj
 0002:000541fc       __ehfuncinfo$??0EnvironmentVariant@@AAE@XZ 004781fc     environmentvariant.obj
 0002:00054220       __unwindtable$??0EnvironmentVariant@@AAE@XZ 00478220     environmentvariant.obj
 0002:000542a0       __unwindtable$??1EnvironmentVariant@@EAE@XZ 004782a0     environmentvariant.obj
 0002:000542b8       __ehfuncinfo$??1EnvironmentVariant@@EAE@XZ 004782b8     environmentvariant.obj
 0002:000542dc       __catchsym$?detach_helper@?$QList@VSinglePlanData@@@@AAEXH@Z$7 004782dc     environmentvariant.obj
 0002:000542ec       __unwindtable$?detach_helper@?$QList@VSinglePlanData@@@@AAEXH@Z 004782ec     environmentvariant.obj
 0002:000542fc       __tryblocktable$?detach_helper@?$QList@VSinglePlanData@@@@AAEXH@Z 004782fc     environmentvariant.obj
 0002:00054310       __ehfuncinfo$?detach_helper@?$QList@VSinglePlanData@@@@AAEXH@Z 00478310     environmentvariant.obj
 0002:00054334       __unwindtable$??1OperationParamSelector@@UAE@XZ 00478334     main.obj
 0002:00054344       __ehfuncinfo$??1OperationParamSelector@@UAE@XZ 00478344     main.obj
 0002:00054368       __unwindtable$?validate@TextFieldDoubleValidator@@UBE?AW4State@QValidator@@AAVQString@@AAH@Z 00478368     main.obj
 0002:00054380       __ehfuncinfo$?validate@TextFieldDoubleValidator@@UBE?AW4State@QValidator@@AAVQString@@AAH@Z 00478380     main.obj
 0002:000543a4       __ehfuncinfo$?customMessageHandler@@YAXW4QtMsgType@@ABVQMessageLogContext@@ABVQString@@@Z 004783a4     main.obj
 0002:000543c8       __unwindtable$?customMessageHandler@@YAXW4QtMsgType@@ABVQMessageLogContext@@ABVQString@@@Z 004783c8     main.obj
 0002:00054468       __unwindtable$?exportConfigFile@ConfigFileConverter@@QAE_NABVQUrl@@@Z 00478468     workmodels.obj
 0002:00054468       __unwindtable$?getConfigFullName@@YA?AVQString@@PBD@Z 00478468     main.obj
 0002:00054468       __unwindtable$?importConfigFile@ConfigFileConverter@@QAE_NABVQUrl@@@Z 00478468     workmodels.obj
 0002:00054470       __ehfuncinfo$?exportConfigFile@ConfigFileConverter@@QAE_NABVQUrl@@@Z 00478470     workmodels.obj
 0002:00054470       __ehfuncinfo$?importConfigFile@ConfigFileConverter@@QAE_NABVQUrl@@@Z 00478470     workmodels.obj
 0002:00054470       __ehfuncinfo$?getConfigFullName@@YA?AVQString@@PBD@Z 00478470     main.obj
 0002:00054494       __ehfuncinfo$_main         00478494     main.obj
 0002:000544b8       __unwindtable$_main        004784b8     main.obj
 0002:00054548       __ehfuncinfo$??$qmlRegisterType@VTextFieldDoubleValidator@@@@YAHPBDHH0@Z 00478548     main.obj
 0002:00054548       __ehfuncinfo$??$qmlRegisterType@VPlanSelector@@@@YAHPBDHH0@Z 00478548     main.obj
 0002:00054548       __ehfuncinfo$??$qmlRegisterType@VOperationParamObject@@@@YAHPBDHH0@Z 00478548     main.obj
 0002:00054548       __ehfuncinfo$??$qmlRegisterType@VOperationParamSelector@@@@YAHPBDHH0@Z 00478548     main.obj
 0002:00054548       __ehfuncinfo$??$qmlRegisterType@VStatusViewWatcher@@@@YAHPBDHH0@Z 00478548     main.obj
 0002:00054548       __ehfuncinfo$??$qmlRegisterType@VWorkLocationManager@@@@YAHPBDHH0@Z 00478548     main.obj
 0002:00054548       __ehfuncinfo$??$qmlRegisterType@VPlanController@@@@YAHPBDHH0@Z 00478548     main.obj
 0002:0005456c       __unwindtable$??$qmlRegisterType@VPlanController@@@@YAHPBDHH0@Z 0047856c     main.obj
 0002:0005456c       __unwindtable$??$qmlRegisterType@VPlanSelector@@@@YAHPBDHH0@Z 0047856c     main.obj
 0002:0005456c       __unwindtable$??$qmlRegisterType@VOperationParamObject@@@@YAHPBDHH0@Z 0047856c     main.obj
 0002:0005456c       __unwindtable$??$qmlRegisterType@VStatusViewWatcher@@@@YAHPBDHH0@Z 0047856c     main.obj
 0002:0005456c       __unwindtable$??$qmlRegisterType@VOperationParamSelector@@@@YAHPBDHH0@Z 0047856c     main.obj
 0002:0005456c       __unwindtable$??$qmlRegisterType@VWorkLocationManager@@@@YAHPBDHH0@Z 0047856c     main.obj
 0002:0005456c       __unwindtable$??$qmlRegisterType@VTextFieldDoubleValidator@@@@YAHPBDHH0@Z 0047856c     main.obj
 0002:00054594       __unwindtable$?qt_metatype_id@?$QMetaTypeIdQObject@PAVTextFieldDoubleValidator@@$07@@SAHXZ 00478594     main.obj
 0002:00054594       __unwindtable$?qt_metatype_id@?$QMetaTypeIdQObject@PAVStatusViewWatcher@@$07@@SAHXZ 00478594     main.obj
 0002:00054594       __unwindtable$?qt_metatype_id@?$QMetaTypeIdQObject@PAVPlanSelector@@$07@@SAHXZ 00478594     main.obj
 0002:00054594       __unwindtable$?qt_metatype_id@?$QMetaTypeIdQObject@PAVWorkLocationManager@@$07@@SAHXZ 00478594     main.obj
 0002:00054594       __unwindtable$?qt_metatype_id@?$QMetaTypeIdQObject@PAVOperationParamSelector@@$07@@SAHXZ 00478594     main.obj
 0002:00054594       __unwindtable$?qt_metatype_id@?$QMetaTypeIdQObject@PAVOperationParamObject@@$07@@SAHXZ 00478594     main.obj
 0002:00054594       __unwindtable$?qt_metatype_id@?$QMetaTypeIdQObject@PAVPlanController@@$07@@SAHXZ 00478594     main.obj
 0002:0005459c       __ehfuncinfo$?qt_metatype_id@?$QMetaTypeIdQObject@PAVPlanController@@$07@@SAHXZ 0047859c     main.obj
 0002:0005459c       __ehfuncinfo$?qt_metatype_id@?$QMetaTypeIdQObject@PAVOperationParamSelector@@$07@@SAHXZ 0047859c     main.obj
 0002:0005459c       __ehfuncinfo$?qt_metatype_id@?$QMetaTypeIdQObject@PAVOperationParamObject@@$07@@SAHXZ 0047859c     main.obj
 0002:0005459c       __ehfuncinfo$?qt_metatype_id@?$QMetaTypeIdQObject@PAVStatusViewWatcher@@$07@@SAHXZ 0047859c     main.obj
 0002:0005459c       __ehfuncinfo$?qt_metatype_id@?$QMetaTypeIdQObject@PAVWorkLocationManager@@$07@@SAHXZ 0047859c     main.obj
 0002:0005459c       __ehfuncinfo$?qt_metatype_id@?$QMetaTypeIdQObject@PAVPlanSelector@@$07@@SAHXZ 0047859c     main.obj
 0002:0005459c       __ehfuncinfo$?qt_metatype_id@?$QMetaTypeIdQObject@PAVTextFieldDoubleValidator@@$07@@SAHXZ 0047859c     main.obj
 0002:000545c0       __unwindtable$??$createInto@VTextFieldDoubleValidator@@@QQmlPrivate@@YAXPAX@Z 004785c0     main.obj
 0002:000545c0       __unwindtable$??$createInto@VOperationParamObject@@@QQmlPrivate@@YAXPAX@Z 004785c0     main.obj
 0002:000545c0       __unwindtable$??$createInto@VOperationParamSelector@@@QQmlPrivate@@YAXPAX@Z 004785c0     main.obj
 0002:000545c0       __unwindtable$??$createInto@VStatusViewWatcher@@@QQmlPrivate@@YAXPAX@Z 004785c0     main.obj
 0002:000545c0       __unwindtable$??$createInto@VPlanController@@@QQmlPrivate@@YAXPAX@Z 004785c0     main.obj
 0002:000545c0       __unwindtable$??$createInto@VWorkLocationManager@@@QQmlPrivate@@YAXPAX@Z 004785c0     main.obj
 0002:000545c0       __unwindtable$??$createInto@VPlanSelector@@@QQmlPrivate@@YAXPAX@Z 004785c0     main.obj
 0002:000545c8       __ehfuncinfo$??$createInto@VWorkLocationManager@@@QQmlPrivate@@YAXPAX@Z 004785c8     main.obj
 0002:000545c8       __ehfuncinfo$??$createInto@VStatusViewWatcher@@@QQmlPrivate@@YAXPAX@Z 004785c8     main.obj
 0002:000545c8       __ehfuncinfo$??$createInto@VOperationParamSelector@@@QQmlPrivate@@YAXPAX@Z 004785c8     main.obj
 0002:000545c8       __ehfuncinfo$??$createInto@VOperationParamObject@@@QQmlPrivate@@YAXPAX@Z 004785c8     main.obj
 0002:000545c8       __ehfuncinfo$??$createInto@VPlanController@@@QQmlPrivate@@YAXPAX@Z 004785c8     main.obj
 0002:000545c8       __ehfuncinfo$??$createInto@VPlanSelector@@@QQmlPrivate@@YAXPAX@Z 004785c8     main.obj
 0002:000545c8       __ehfuncinfo$??$createInto@VTextFieldDoubleValidator@@@QQmlPrivate@@YAXPAX@Z 004785c8     main.obj
 0002:000545ec       __catchsym$?detach_helper_grow@?$QList@H@@AAEPAUNode@1@HH@Z$10 004785ec     configfilehandler.obj
 0002:000545ec       __catchsym$?detach_helper_grow@?$QList@PAVQObject@@@@AAEPAUNode@1@HH@Z$10 004785ec     workmodels.obj
 0002:000545fc       __catchsym$?detach_helper_grow@?$QList@PAVQObject@@@@AAEPAUNode@1@HH@Z$9 004785fc     workmodels.obj
 0002:000545fc       __catchsym$?detach_helper_grow@?$QList@H@@AAEPAUNode@1@HH@Z$9 004785fc     configfilehandler.obj
 0002:0005460c       __unwindtable$?detach_helper_grow@?$QList@H@@AAEPAUNode@1@HH@Z 0047860c     configfilehandler.obj
 0002:0005460c       __unwindtable$?detach_helper_grow@?$QList@PAVQObject@@@@AAEPAUNode@1@HH@Z 0047860c     workmodels.obj
 0002:0005462c       __ehfuncinfo$?detach_helper_grow@?$QList@PAVQObject@@@@AAEPAUNode@1@HH@Z 0047862c     workmodels.obj
 0002:0005462c       __ehfuncinfo$?detach_helper_grow@?$QList@H@@AAEPAUNode@1@HH@Z 0047862c     configfilehandler.obj
 0002:00054650       __tryblocktable$?detach_helper_grow@?$QList@PAVQObject@@@@AAEPAUNode@1@HH@Z 00478650     workmodels.obj
 0002:00054650       __tryblocktable$?detach_helper_grow@?$QList@H@@AAEPAUNode@1@HH@Z 00478650     configfilehandler.obj
 0002:00054678       __ehfuncinfo$?setSelectedOperation@OperationParamSelector@@QAEXH@Z 00478678     workmodels.obj
 0002:0005469c       __unwindtable$?setSelectedOperation@OperationParamSelector@@QAEXH@Z 0047869c     workmodels.obj
 0002:00054704       __unwindtable$?getSwitch@PlanSelector@@QAEPAVQObject@@ABVQString@@@Z 00478704     workmodels.obj
 0002:00054704       __unwindtable$?getSwitch@OperationParamSelector@@QAEPAVQObject@@ABVQString@@@Z 00478704     workmodels.obj
 0002:0005471c       __ehfuncinfo$?getSwitch@OperationParamSelector@@QAEPAVQObject@@ABVQString@@@Z 0047871c     workmodels.obj
 0002:0005471c       __ehfuncinfo$?getSwitch@PlanSelector@@QAEPAVQObject@@ABVQString@@@Z 0047871c     workmodels.obj
 0002:00054740       __ehfuncinfo$?onCompleteSingleOperation@OperationParamSelector@@QAEXXZ 00478740     workmodels.obj
 0002:00054764       __unwindtable$?onCompleteSingleOperation@OperationParamSelector@@QAEXXZ 00478764     workmodels.obj
 0002:000547a4       __unwindtable$??0PlanSelector@@QAE@PAVQObject@@@Z 004787a4     workmodels.obj
 0002:000547c4       __ehfuncinfo$??0PlanSelector@@QAE@PAVQObject@@@Z 004787c4     workmodels.obj
 0002:000547e8       __unwindtable$??1PlanSelector@@UAE@XZ 004787e8     workmodels.obj
 0002:000547f8       __ehfuncinfo$??1PlanSelector@@UAE@XZ 004787f8     workmodels.obj
 0002:0005481c       __ehfuncinfo$?setSelectedStep@PlanSelector@@QAEXHH@Z 0047881c     workmodels.obj
 0002:00054840       __unwindtable$?setSelectedStep@PlanSelector@@QAEXHH@Z 00478840     workmodels.obj
 0002:000548a8       __ehfuncinfo$?setSelectedOperation@PlanSelector@@QAEXHHH@Z 004788a8     workmodels.obj
 0002:000548cc       __unwindtable$?setSelectedOperation@PlanSelector@@QAEXHHH@Z 004788cc     workmodels.obj
 0002:00054954       __unwindtable$??0PlanController@@QAE@PAVQObject@@@Z 00478954     workmodels.obj
 0002:00054954       __unwindtable$??0configFileHandler@@QAE@PAVQObject@@@Z 00478954     configfilehandler.obj
 0002:00054954       __unwindtable$??0StatusViewWatcher@@QAE@PAVQObject@@@Z 00478954     workmodels.obj
 0002:0005495c       __ehfuncinfo$??0StatusViewWatcher@@QAE@PAVQObject@@@Z 0047895c     workmodels.obj
 0002:0005495c       __ehfuncinfo$??0configFileHandler@@QAE@PAVQObject@@@Z 0047895c     configfilehandler.obj
 0002:0005495c       __ehfuncinfo$??0PlanController@@QAE@PAVQObject@@@Z 0047895c     workmodels.obj
 0002:00054980       __unwindtable$??_GStatusViewWatcher@@UAEPAXI@Z 00478980     workmodels.obj
 0002:00054988       __ehfuncinfo$??_GStatusViewWatcher@@UAEPAXI@Z 00478988     workmodels.obj
 0002:000549ac       __unwindtable$?onMachineConfigChanged@TargetMachineObject@@QAE_NXZ 004789ac     workmodels.obj
 0002:000549b4       __ehfuncinfo$?onMachineConfigChanged@TargetMachineObject@@QAE_NXZ 004789b4     workmodels.obj
 0002:000549d8       __unwindtable$??1?$QForeachContainer@V?$QList@VOperationParamData@@@@@@QAE@XZ 004789d8     configfilehandler.obj
 0002:000549d8       __unwindtable$??1?$QForeachContainer@V?$QList@PAVQObject@@@@@@QAE@XZ 004789d8     workmodels.obj
 0002:000549d8       __unwindtable$??1?$QForeachContainer@$$CBV?$QList@VOperationParamData@@@@@@QAE@XZ 004789d8     environmentvariant.obj
 0002:000549e0       __ehfuncinfo$??1?$QForeachContainer@V?$QList@PAVQObject@@@@@@QAE@XZ 004789e0     workmodels.obj
 0002:000549e0       __ehfuncinfo$??1?$QForeachContainer@V?$QList@VOperationParamData@@@@@@QAE@XZ 004789e0     configfilehandler.obj
 0002:000549e0       __ehfuncinfo$??1?$QForeachContainer@$$CBV?$QList@VOperationParamData@@@@@@QAE@XZ 004789e0     environmentvariant.obj
 0002:00054a04       __ehfuncinfo$?doCheck@SubThreadCheckWorker@@QAEXABVQJsonObject@@@Z 00478a04     workflowChecker.obj
 0002:00054a28       __unwindtable$?doCheck@SubThreadCheckWorker@@QAEXABVQJsonObject@@@Z 00478a28     workflowChecker.obj
 0002:00054b20       __ehfuncinfo$?configChecker@SubThreadCheckWorker@@QAEXABVQJsonArray@@@Z 00478b20     workflowChecker.obj
 0002:00054b44       __unwindtable$?configChecker@SubThreadCheckWorker@@QAEXABVQJsonArray@@@Z 00478b44     workflowChecker.obj
 0002:00054bcc       __ehfuncinfo$?CheckBoardConstraint@SubThreadCheckWorker@@IAE_NABVQJsonObject@@@Z 00478bcc     workflowChecker.obj
 0002:00054bf0       __unwindtable$?CheckBoardConstraint@SubThreadCheckWorker@@IAE_NABVQJsonObject@@@Z 00478bf0     workflowChecker.obj
 0002:00054ca0       __ehfuncinfo$?CheckParamConstraint@SubThreadCheckWorker@@IAE_NABVQJsonObject@@@Z 00478ca0     workflowChecker.obj
 0002:00054cc4       __unwindtable$?CheckParamConstraint@SubThreadCheckWorker@@IAE_NABVQJsonObject@@@Z 00478cc4     workflowChecker.obj
 0002:00054e2c       __ehfuncinfo$?isFilteredCommand@SubThreadCheckWorker@@IAE_NABVQJsonObject@@@Z 00478e2c     workflowChecker.obj
 0002:00054e50       __unwindtable$?isFilteredCommand@SubThreadCheckWorker@@IAE_NABVQJsonObject@@@Z 00478e50     workflowChecker.obj
 0002:00054ed8       __ehfuncinfo$??0WorkflowCheckerController@@QAE@PAVQObject@@@Z 00478ed8     workflowChecker.obj
 0002:00054efc       __unwindtable$??0WorkflowCheckerController@@QAE@PAVQObject@@@Z 00478efc     workflowChecker.obj
 0002:00054f2c       __unwindtable$?statusChanged@WorkflowCheckerController@@QAEXABVQJsonObject@@@Z 00478f2c     workflowChecker.obj
 0002:00054f2c       __unwindtable$?statusChanged@WorkflowController@@QAEXABVQJsonObject@@@Z 00478f2c     workflowprotocol.obj
 0002:00054f3c       __ehfuncinfo$?statusChanged@WorkflowController@@QAEXABVQJsonObject@@@Z 00478f3c     workflowprotocol.obj
 0002:00054f3c       __ehfuncinfo$?statusChanged@WorkflowCheckerController@@QAEXABVQJsonObject@@@Z 00478f3c     workflowChecker.obj
 0002:00054f60       __unwindtable$?qt_metatype_id@?$QMetaTypeId@VQSequentialIterableImpl@QtMetaTypePrivate@@@@SAHXZ 00478f60     moc_workmodels.obj
 0002:00054f60       __unwindtable$?qt_metatype_id@?$QMetaTypeId@V?$QList@PAVQObject@@@@@@SAHXZ 00478f60     moc_workmodels.obj
 0002:00054f68       __ehfuncinfo$?qt_metatype_id@?$QMetaTypeId@VQSequentialIterableImpl@QtMetaTypePrivate@@@@SAHXZ 00478f68     moc_workmodels.obj
 0002:00054f68       __ehfuncinfo$?qt_metatype_id@?$QMetaTypeId@V?$QList@PAVQObject@@@@@@SAHXZ 00478f68     moc_workmodels.obj
 0002:00054f8c       __unwindtable$?qt_static_metacall@OperationParamSelector@@CAXPAVQObject@@W4Call@QMetaObject@@HPAPAX@Z 00478f8c     moc_workmodels.obj
 0002:00054f94       __ehfuncinfo$?qt_static_metacall@OperationParamSelector@@CAXPAVQObject@@W4Call@QMetaObject@@HPAPAX@Z 00478f94     moc_workmodels.obj
 0002:00054fb8       __unwindtable$?setIntListValue@OperationParamObject@@QAEXABV?$QList@H@@@Z 00478fb8     moc_workmodels.obj
 0002:00054fb8       __unwindtable$?setParamModel@OperationParamSelector@@QAEXABV?$QList@PAVQObject@@@@@Z 00478fb8     moc_workmodels.obj
 0002:00054fb8       __unwindtable$?clear@?$QList@UloopControl@SubThreadWorker@@@@QAEXXZ 00478fb8     workflowprotocol.obj
 0002:00054fb8       __unwindtable$?setParamListModel@PlanSelector@@QAEXABV?$QList@PAVQObject@@@@@Z 00478fb8     moc_workmodels.obj
 0002:00054fb8       __unwindtable$??4OperationParamData@@QAEAAV0@ABV0@@Z 00478fb8     configfilehandler.obj
 0002:00054fc0       __ehfuncinfo$?setParamModel@OperationParamSelector@@QAEXABV?$QList@PAVQObject@@@@@Z 00478fc0     moc_workmodels.obj
 0002:00054fc0       __ehfuncinfo$?setIntListValue@OperationParamObject@@QAEXABV?$QList@H@@@Z 00478fc0     moc_workmodels.obj
 0002:00054fc0       __ehfuncinfo$?setParamListModel@PlanSelector@@QAEXABV?$QList@PAVQObject@@@@@Z 00478fc0     moc_workmodels.obj
 0002:00054fc0       __ehfuncinfo$??4OperationParamData@@QAEAAV0@ABV0@@Z 00478fc0     configfilehandler.obj
 0002:00054fc0       __ehfuncinfo$?clear@?$QList@UloopControl@SubThreadWorker@@@@QAEXXZ 00478fc0     workflowprotocol.obj
 0002:00054fe4       __unwindtable$?qt_static_metacall@PlanSelector@@CAXPAVQObject@@W4Call@QMetaObject@@HPAPAX@Z 00478fe4     moc_workmodels.obj
 0002:00055004       __ehfuncinfo$?qt_static_metacall@PlanSelector@@CAXPAVQObject@@W4Call@QMetaObject@@HPAPAX@Z 00479004     moc_workmodels.obj
 0002:00055028       __unwindtable$?qt_static_metacall@WorkLocationManager@@CAXPAVQObject@@W4Call@QMetaObject@@HPAPAX@Z 00479028     moc_workmodels.obj
 0002:00055038       __ehfuncinfo$?qt_static_metacall@WorkLocationManager@@CAXPAVQObject@@W4Call@QMetaObject@@HPAPAX@Z 00479038     moc_workmodels.obj
 0002:0005505c       __unwindtable$?qt_metatype_id@?$QMetaTypeId@V?$QList@H@@@@SAHXZ 0047905c     moc_workmodels.obj
 0002:00055064       __ehfuncinfo$?qt_metatype_id@?$QMetaTypeId@V?$QList@H@@@@SAHXZ 00479064     moc_workmodels.obj
 0002:00055088       __unwindtable$?Construct@?$QMetaTypeFunctionHelper@V?$QList@H@@$00@QtMetaTypePrivate@@SAPAXPAXPBX@Z 00479088     moc_workmodels.obj
 0002:00055088       __unwindtable$?Construct@?$QMetaTypeFunctionHelper@V?$QList@PAVQObject@@@@$00@QtMetaTypePrivate@@SAPAXPAXPBX@Z 00479088     moc_workmodels.obj
 0002:00055090       __ehfuncinfo$?Construct@?$QMetaTypeFunctionHelper@V?$QList@H@@$00@QtMetaTypePrivate@@SAPAXPAXPBX@Z 00479090     moc_workmodels.obj
 0002:00055090       __ehfuncinfo$?Construct@?$QMetaTypeFunctionHelper@V?$QList@PAVQObject@@@@$00@QtMetaTypePrivate@@SAPAXPAXPBX@Z 00479090     moc_workmodels.obj
 0002:000550b4       __unwindtable$?Destruct@?$QMetaTypeFunctionHelper@V?$QList@PAVQObject@@@@$00@QtMetaTypePrivate@@SAXPAX@Z 004790b4     moc_workmodels.obj
 0002:000550b4       __unwindtable$??__Fdummy@?A0x60b45615@@YAXXZ 004790b4     qrc_qml.obj
 0002:000550b4       __unwindtable$??__Ff@?4??registerConverter@?$ValueTypeIsMetaType@V?$QList@H@@$00@QtPrivate@@SA_NH@Z@YAXXZ 004790b4     moc_workmodels.obj
 0002:000550b4       __unwindtable$?Destruct@?$QMetaTypeFunctionHelper@V?$QList@H@@$00@QtMetaTypePrivate@@SAXPAX@Z 004790b4     moc_workmodels.obj
 0002:000550b4       __unwindtable$??__Ff@?4??registerConverter@?$ValueTypeIsMetaType@V?$QList@PAVQObject@@@@$00@QtPrivate@@SA_NH@Z@YAXXZ 004790b4     moc_workmodels.obj
 0002:000550bc       __ehfuncinfo$??__Ff@?4??registerConverter@?$ValueTypeIsMetaType@V?$QList@PAVQObject@@@@$00@QtPrivate@@SA_NH@Z@YAXXZ 004790bc     moc_workmodels.obj
 0002:000550bc       __ehfuncinfo$??__Ff@?4??registerConverter@?$ValueTypeIsMetaType@V?$QList@H@@$00@QtPrivate@@SA_NH@Z@YAXXZ 004790bc     moc_workmodels.obj
 0002:000550bc       __ehfuncinfo$?Destruct@?$QMetaTypeFunctionHelper@V?$QList@PAVQObject@@@@$00@QtMetaTypePrivate@@SAXPAX@Z 004790bc     moc_workmodels.obj
 0002:000550bc       __ehfuncinfo$?Destruct@?$QMetaTypeFunctionHelper@V?$QList@H@@$00@QtMetaTypePrivate@@SAXPAX@Z 004790bc     moc_workmodels.obj
 0002:000550bc       __ehfuncinfo$??__Fdummy@?A0x60b45615@@YAXXZ 004790bc     qrc_qml.obj
 0002:000550e0       __sehtable$___scrt_is_nonwritable_in_current_image 004790e0     MSVCRT:utility.obj
 0002:00055100       __sehtable$?__scrt_common_main_seh@@YAHXZ 00479100     MSVCRT:exe_winmain.obj
 0002:00055868       .idata$6                   00479868     DbgHelp:dbghelp.dll
 0002:0005596c       .idata$6                   0047996c     Qt5Quick:Qt5Quick.dll
 0002:00055cc4       .idata$6                   00479cc4     Qt5Gui:Qt5Gui.dll
 0002:00055e20       .idata$6                   00479e20     Qt5Qml:Qt5Qml.dll
 0002:00055f32       .idata$6                   00479f32     Qt5Network:Qt5Network.dll
 0002:00058280       .idata$6                   0047c280     Qt5Core:Qt5Core.dll
 0002:00058472       .idata$6                   0047c472     kernel32:KERNEL32.dll
 0002:00058556       .idata$6                   0047c556     vcruntime:VCRUNTIME140.dll
 0002:00058736       .idata$6                   0047c736     ucrt:api-ms-win-crt-heap-l1-1-0.dll
 0002:00058756       .idata$6                   0047c756     ucrt:api-ms-win-crt-runtime-l1-1-0.dll
 0002:00058778       .idata$6                   0047c778     ucrt:api-ms-win-crt-math-l1-1-0.dll
 0002:00058798       .idata$6                   0047c798     ucrt:api-ms-win-crt-stdio-l1-1-0.dll
 0002:000587b8       .idata$6                   0047c7b8     ucrt:api-ms-win-crt-locale-l1-1-0.dll
 0002:000587f0       .idata$6                   0047c7f0     shell32:SHELL32.dll
 0003:000007bc       ?_Tss_mutex@@3U_RTL_CRITICAL_SECTION@@A 0047d7bc     MSVCRT:thread_safe_statics.obj
 0003:000007d4       ?_Tss_cv@@3U_RTL_CONDITION_VARIABLE@@A 0047d7d4     MSVCRT:thread_safe_statics.obj
 0003:000007d8       ?_Tss_event@@3PAXA         0047d7d8     MSVCRT:thread_safe_statics.obj
 0003:000007dc       ?encoded_sleep_condition_variable_cs@@3P6GHPAU_RTL_CONDITION_VARIABLE@@PAU_RTL_CRITICAL_SECTION@@K@ZA 0047d7dc     MSVCRT:thread_safe_statics.obj
 0003:000007e0       ?encoded_wake_all_condition_variable@@3P6GXPAU_RTL_CONDITION_VARIABLE@@@ZA 0047d7e0     MSVCRT:thread_safe_statics.obj
 0003:000007f0       ?module_local_atexit_table@@3U_onexit_table_t@@A 0047d7f0     MSVCRT:utility.obj
 0003:000007fc       ?module_local_at_quick_exit_table@@3U_onexit_table_t@@A 0047d7fc     MSVCRT:utility.obj
 0003:00000808       ?is_initialized_as_dll@@3_NA 0047d808     MSVCRT:utility.obj
 0003:00000810       _GS_ExceptionRecord        0047d810     MSVCRT:gs_report.obj
 0003:00000860       _GS_ContextRecord          0047d860     MSVCRT:gs_report.obj
 0005:00000000       __guard_fids__             0047f000     MSVCRT:thread_safe_statics.obj
 0005:00000004       __guard_fids_?__scrt_initialize_thread_safe_statics@@YAHXZ 0047f004     MSVCRT:thread_safe_statics.obj
 0005:00000008       __guard_fids__             0047f008     MSVCRT:std_type_info_static.obj
 0005:0000000c       __guard_fids__             0047f00c     MSVCRT:exe_winmain.obj
 0005:00000010       __guard_fids__             0047f010     MSVCRT:exe_winmain.obj
 0005:00000014       __guard_fids__             0047f014     MSVCRT:exe_winmain.obj
 0005:00000018       __guard_fids_?pre_c_initialization@@YAHXZ 0047f018     MSVCRT:exe_winmain.obj
 0005:00000020       __guard_fids__             0047f020     MSVCRT:throw_bad_alloc.obj
 0005:00000028       __guard_fids__             0047f028     MSVCRT:throw_bad_alloc.obj
 0005:00000030       __guard_fids__             0047f030     MSVCRT:throw_bad_alloc.obj
 0005:00000038       __guard_fids__             0047f038     MSVCRT:throw_bad_alloc.obj
 0005:0000003c       __guard_fids__             0047f03c     MSVCRT:throw_bad_alloc.obj
 0005:00000040       __guard_fids__             0047f040     MSVCRT:throw_bad_alloc.obj
 0005:00000044       __guard_fids__             0047f044     MSVCRT:throw_bad_alloc.obj
 0005:00000048       __guard_fids__             0047f048     MSVCRT:throw_bad_alloc.obj
 0005:0000004c       __guard_fids____scrt_set_unhandled_exception_filter 0047f04c     MSVCRT:utility_desktop.obj
 0005:00000050       __guard_fids___except_handler4 0047f050     MSVCRT:_chandler4gs_.obj
 0005:00000054       __guard_fids__             0047f054     MSVCRT:guard_support.obj
 0006:00000060       $R000000                   00480060     * linker generated manifest res *
